ARM GAS  C:\Users\young\AppData\Local\Temp\ccoFnsFE.s 			page 1


   1              		.syntax unified
   2              		.cpu cortex-m0
   3              		.fpu softvfp
   4              		.eabi_attribute 20, 1
   5              		.eabi_attribute 21, 1
   6              		.eabi_attribute 23, 3
   7              		.eabi_attribute 24, 1
   8              		.eabi_attribute 25, 1
   9              		.eabi_attribute 26, 1
  10              		.eabi_attribute 30, 2
  11              		.eabi_attribute 34, 0
  12              		.eabi_attribute 18, 4
  13              		.thumb
  14              		.syntax unified
  15              		.file	"CapSense.c"
  16              		.text
  17              	.Ltext0:
  18              		.cfi_sections	.debug_frame
  19              		.section	.text.CapSense_Init,"ax",%progbits
  20              		.align	2
  21              		.global	CapSense_Init
  22              		.code	16
  23              		.thumb_func
  24              		.type	CapSense_Init, %function
  25              	CapSense_Init:
  26              	.LFB32:
  27              		.file 1 "Generated_Source\\PSoC4\\CapSense.c"
   1:Generated_Source\PSoC4/CapSense.c **** /*******************************************************************************
   2:Generated_Source\PSoC4/CapSense.c **** * File Name: CapSense.c
   3:Generated_Source\PSoC4/CapSense.c **** * Version 2.60
   4:Generated_Source\PSoC4/CapSense.c **** *
   5:Generated_Source\PSoC4/CapSense.c **** * Description:
   6:Generated_Source\PSoC4/CapSense.c **** *  This file provides the source code for scanning APIs for the CapSense CSD
   7:Generated_Source\PSoC4/CapSense.c **** *  component.
   8:Generated_Source\PSoC4/CapSense.c **** *
   9:Generated_Source\PSoC4/CapSense.c **** * Note:
  10:Generated_Source\PSoC4/CapSense.c **** *
  11:Generated_Source\PSoC4/CapSense.c **** ********************************************************************************
  12:Generated_Source\PSoC4/CapSense.c **** * Copyright 2013-2016, Cypress Semiconductor Corporation.  All rights reserved.
  13:Generated_Source\PSoC4/CapSense.c **** * You may use this file only in accordance with the license, terms, conditions,
  14:Generated_Source\PSoC4/CapSense.c **** * disclaimers, and limitations in the end user license agreement accompanying
  15:Generated_Source\PSoC4/CapSense.c **** * the software package with which this file was provided.
  16:Generated_Source\PSoC4/CapSense.c **** *******************************************************************************/
  17:Generated_Source\PSoC4/CapSense.c **** 
  18:Generated_Source\PSoC4/CapSense.c **** #include "CapSense.h"
  19:Generated_Source\PSoC4/CapSense.c **** #include "CapSense_PVT.h"
  20:Generated_Source\PSoC4/CapSense.c **** #include "cypins.h"
  21:Generated_Source\PSoC4/CapSense.c **** 
  22:Generated_Source\PSoC4/CapSense.c **** 
  23:Generated_Source\PSoC4/CapSense.c **** #if(0u != CapSense_CSHL_API_GENERATE)
  24:Generated_Source\PSoC4/CapSense.c ****     #include "CapSense_CSHL.h"
  25:Generated_Source\PSoC4/CapSense.c **** #endif /* (0u != CapSense_CSHL_API_GENERATE) */
  26:Generated_Source\PSoC4/CapSense.c **** 
  27:Generated_Source\PSoC4/CapSense.c **** /* This definition is intended to prevent unexpected linker error.
  28:Generated_Source\PSoC4/CapSense.c ****    For more details please see the IAR Technical Note 49981 */
  29:Generated_Source\PSoC4/CapSense.c **** #if defined(__ICCARM__)
  30:Generated_Source\PSoC4/CapSense.c ****     extern void CapSense_EnableSensor(uint32 sensor);
ARM GAS  C:\Users\young\AppData\Local\Temp\ccoFnsFE.s 			page 2


  31:Generated_Source\PSoC4/CapSense.c ****     extern void CapSense_DisableSensor(uint32 sensor);
  32:Generated_Source\PSoC4/CapSense.c **** #endif /* (__ICCARM__) */
  33:Generated_Source\PSoC4/CapSense.c **** 
  34:Generated_Source\PSoC4/CapSense.c **** /* SmartSense functions */
  35:Generated_Source\PSoC4/CapSense.c **** #if (CapSense_TUNING_METHOD == CapSense__TUNING_AUTO)
  36:Generated_Source\PSoC4/CapSense.c ****     uint8 CapSense_lowLevelTuningDone = 0u;
  37:Generated_Source\PSoC4/CapSense.c ****     uint8 CapSense_scanSpeedTbl[((CapSense_TOTAL_SENSOR_COUNT - 1u) / 8u) + 1u];
  38:Generated_Source\PSoC4/CapSense.c **** #endif /* (CapSense_TUNING_METHOD == CapSense__TUNING_AUTO) */
  39:Generated_Source\PSoC4/CapSense.c **** 
  40:Generated_Source\PSoC4/CapSense.c **** #if(CapSense_PRS_OPTIONS != CapSense__PRS_NONE)
  41:Generated_Source\PSoC4/CapSense.c ****     uint8 CapSense_prescalersTuningDone = 0u;
  42:Generated_Source\PSoC4/CapSense.c **** #endif /* (CapSense_PRS_OPTIONS == CapSense__PRS_NONE) */
  43:Generated_Source\PSoC4/CapSense.c **** 
  44:Generated_Source\PSoC4/CapSense.c **** /* Global software variables */
  45:Generated_Source\PSoC4/CapSense.c **** volatile uint8 CapSense_csdStatusVar = 0u;   /* CapSense CSD status, variable */
  46:Generated_Source\PSoC4/CapSense.c **** volatile uint8 CapSense_sensorIndex = 0u;    /* Index of scannig sensor */
  47:Generated_Source\PSoC4/CapSense.c **** 
  48:Generated_Source\PSoC4/CapSense.c **** /* Global array of Raw Counts */
  49:Generated_Source\PSoC4/CapSense.c **** uint16 CapSense_sensorRaw[CapSense_TOTAL_SENSOR_COUNT] = {0u};
  50:Generated_Source\PSoC4/CapSense.c **** 
  51:Generated_Source\PSoC4/CapSense.c **** /* Backup variables for trim registers*/
  52:Generated_Source\PSoC4/CapSense.c **** #if (CapSense_IDAC1_POLARITY == CapSense__IDAC_SINK)
  53:Generated_Source\PSoC4/CapSense.c ****     uint8 CapSense_csdTrim2;
  54:Generated_Source\PSoC4/CapSense.c **** #else
  55:Generated_Source\PSoC4/CapSense.c ****     uint8 CapSense_csdTrim1;
  56:Generated_Source\PSoC4/CapSense.c **** #endif /* (CapSense_IDAC1_POLARITY == CapSense__IDAC_SINK) */
  57:Generated_Source\PSoC4/CapSense.c **** 
  58:Generated_Source\PSoC4/CapSense.c **** /* Global array of un-scanned sensors state */
  59:Generated_Source\PSoC4/CapSense.c **** uint8 CapSense_unscannedSnsDriveMode[CapSense_PORT_PIN_CONFIG_TBL_ZISE];
  60:Generated_Source\PSoC4/CapSense.c **** 
  61:Generated_Source\PSoC4/CapSense.c **** /* Backup array for CapSense_sensorEnableMask */
  62:Generated_Source\PSoC4/CapSense.c **** uint8 CapSense_sensorEnableMaskBackup[(((CapSense_TOTAL_SENSOR_COUNT - 1u) / 8u) + 1u)];
  63:Generated_Source\PSoC4/CapSense.c **** 
  64:Generated_Source\PSoC4/CapSense.c **** /* Configured constants and arrays by Customizer */
  65:Generated_Source\PSoC4/CapSense.c **** uint8 CapSense_sensorEnableMask[(((CapSense_TOTAL_SENSOR_COUNT - 1u) / 8u) + 1u)] = {
  66:Generated_Source\PSoC4/CapSense.c **** 0x3Fu, };
  67:Generated_Source\PSoC4/CapSense.c **** 
  68:Generated_Source\PSoC4/CapSense.c **** reg32 * CapSense_pcTable[] = {
  69:Generated_Source\PSoC4/CapSense.c ****     (reg32 *)CapSense_Sns__Button0__BTN__PC, 
  70:Generated_Source\PSoC4/CapSense.c ****     (reg32 *)CapSense_Sns__Button1__BTN__PC, 
  71:Generated_Source\PSoC4/CapSense.c ****     (reg32 *)CapSense_Sns__Button2__BTN__PC, 
  72:Generated_Source\PSoC4/CapSense.c ****     (reg32 *)CapSense_Sns__Button3__BTN__PC, 
  73:Generated_Source\PSoC4/CapSense.c ****     (reg32 *)CapSense_Sns__Button4__BTN__PC, 
  74:Generated_Source\PSoC4/CapSense.c ****     (reg32 *)CapSense_Sns__Button5__BTN__PC, 
  75:Generated_Source\PSoC4/CapSense.c **** };
  76:Generated_Source\PSoC4/CapSense.c **** 
  77:Generated_Source\PSoC4/CapSense.c **** const uint8 CapSense_portTable[] = {
  78:Generated_Source\PSoC4/CapSense.c ****     CapSense_Sns__Button0__BTN__PORT, 
  79:Generated_Source\PSoC4/CapSense.c ****     CapSense_Sns__Button1__BTN__PORT, 
  80:Generated_Source\PSoC4/CapSense.c ****     CapSense_Sns__Button2__BTN__PORT, 
  81:Generated_Source\PSoC4/CapSense.c ****     CapSense_Sns__Button3__BTN__PORT, 
  82:Generated_Source\PSoC4/CapSense.c ****     CapSense_Sns__Button4__BTN__PORT, 
  83:Generated_Source\PSoC4/CapSense.c ****     CapSense_Sns__Button5__BTN__PORT, 
  84:Generated_Source\PSoC4/CapSense.c **** };
  85:Generated_Source\PSoC4/CapSense.c **** 
  86:Generated_Source\PSoC4/CapSense.c **** const uint32 CapSense_maskTable[] = {
  87:Generated_Source\PSoC4/CapSense.c ****     CapSense_Sns__Button0__BTN__MASK, 
ARM GAS  C:\Users\young\AppData\Local\Temp\ccoFnsFE.s 			page 3


  88:Generated_Source\PSoC4/CapSense.c ****     CapSense_Sns__Button1__BTN__MASK, 
  89:Generated_Source\PSoC4/CapSense.c ****     CapSense_Sns__Button2__BTN__MASK, 
  90:Generated_Source\PSoC4/CapSense.c ****     CapSense_Sns__Button3__BTN__MASK, 
  91:Generated_Source\PSoC4/CapSense.c ****     CapSense_Sns__Button4__BTN__MASK, 
  92:Generated_Source\PSoC4/CapSense.c ****     CapSense_Sns__Button5__BTN__MASK, 
  93:Generated_Source\PSoC4/CapSense.c **** };
  94:Generated_Source\PSoC4/CapSense.c **** 
  95:Generated_Source\PSoC4/CapSense.c **** const uint8 CapSense_pinShiftTbl[] = {
  96:Generated_Source\PSoC4/CapSense.c ****     (uint8) CapSense_Sns__Button0__BTN__SHIFT, 
  97:Generated_Source\PSoC4/CapSense.c ****     (uint8) CapSense_Sns__Button1__BTN__SHIFT, 
  98:Generated_Source\PSoC4/CapSense.c ****     (uint8) CapSense_Sns__Button2__BTN__SHIFT, 
  99:Generated_Source\PSoC4/CapSense.c ****     (uint8) CapSense_Sns__Button3__BTN__SHIFT, 
 100:Generated_Source\PSoC4/CapSense.c ****     (uint8) CapSense_Sns__Button4__BTN__SHIFT, 
 101:Generated_Source\PSoC4/CapSense.c ****     (uint8) CapSense_Sns__Button5__BTN__SHIFT, 
 102:Generated_Source\PSoC4/CapSense.c **** };
 103:Generated_Source\PSoC4/CapSense.c **** 
 104:Generated_Source\PSoC4/CapSense.c **** uint8 CapSense_modulationIDAC[CapSense_TOTAL_SENSOR_COUNT] = {
 105:Generated_Source\PSoC4/CapSense.c ****     21u, 24u, 21u, 19u, 19u, 17u, 
 106:Generated_Source\PSoC4/CapSense.c **** };
 107:Generated_Source\PSoC4/CapSense.c **** uint8 CapSense_compensationIDAC[CapSense_TOTAL_SENSOR_COUNT] = {
 108:Generated_Source\PSoC4/CapSense.c ****     0u, 0u, 0u, 0u, 0u, 0u, 
 109:Generated_Source\PSoC4/CapSense.c **** };
 110:Generated_Source\PSoC4/CapSense.c **** 
 111:Generated_Source\PSoC4/CapSense.c **** uint32 CapSense_widgetResolution[CapSense_RESOLUTIONS_TBL_SIZE] = {
 112:Generated_Source\PSoC4/CapSense.c ****     CapSense_RESOLUTION_11_BITS,
 113:Generated_Source\PSoC4/CapSense.c ****     CapSense_RESOLUTION_12_BITS,
 114:Generated_Source\PSoC4/CapSense.c ****     CapSense_RESOLUTION_12_BITS,
 115:Generated_Source\PSoC4/CapSense.c ****     CapSense_RESOLUTION_11_BITS,
 116:Generated_Source\PSoC4/CapSense.c ****     CapSense_RESOLUTION_11_BITS,
 117:Generated_Source\PSoC4/CapSense.c ****     CapSense_RESOLUTION_11_BITS,
 118:Generated_Source\PSoC4/CapSense.c **** };
 119:Generated_Source\PSoC4/CapSense.c **** 
 120:Generated_Source\PSoC4/CapSense.c **** uint8 CapSense_senseClkDividerVal[CapSense_TOTAL_SCANSLOT_COUNT] = {
 121:Generated_Source\PSoC4/CapSense.c ****     2u, 2u, 2u, 2u, 2u, 2u, 
 122:Generated_Source\PSoC4/CapSense.c **** };
 123:Generated_Source\PSoC4/CapSense.c **** uint8 CapSense_sampleClkDividerVal[CapSense_TOTAL_SCANSLOT_COUNT] = {
 124:Generated_Source\PSoC4/CapSense.c ****     2u, 2u, 2u, 2u, 2u, 2u, 
 125:Generated_Source\PSoC4/CapSense.c **** };
 126:Generated_Source\PSoC4/CapSense.c **** 
 127:Generated_Source\PSoC4/CapSense.c **** 
 128:Generated_Source\PSoC4/CapSense.c **** const uint8 CapSense_widgetNumber[CapSense_TOTAL_SENSOR_COUNT] = {
 129:Generated_Source\PSoC4/CapSense.c ****     0u, /* Button0__BTN */
 130:Generated_Source\PSoC4/CapSense.c ****     1u, /* Button1__BTN */
 131:Generated_Source\PSoC4/CapSense.c ****     2u, /* Button2__BTN */
 132:Generated_Source\PSoC4/CapSense.c ****     3u, /* Button3__BTN */
 133:Generated_Source\PSoC4/CapSense.c ****     4u, /* Button4__BTN */
 134:Generated_Source\PSoC4/CapSense.c ****     5u, /* Button5__BTN */
 135:Generated_Source\PSoC4/CapSense.c **** };
 136:Generated_Source\PSoC4/CapSense.c **** 
 137:Generated_Source\PSoC4/CapSense.c **** reg32* const CapSense_prtSelTbl[CapSense_CFG_REG_TBL_SIZE] = {
 138:Generated_Source\PSoC4/CapSense.c ****     ((reg32 *) CYREG_HSIOM_PORT_SEL0),
 139:Generated_Source\PSoC4/CapSense.c ****     ((reg32 *) CYREG_HSIOM_PORT_SEL1),
 140:Generated_Source\PSoC4/CapSense.c ****     ((reg32 *) CYREG_HSIOM_PORT_SEL2),
 141:Generated_Source\PSoC4/CapSense.c ****     ((reg32 *) CYREG_HSIOM_PORT_SEL3),
 142:Generated_Source\PSoC4/CapSense.c **** };
 143:Generated_Source\PSoC4/CapSense.c **** 
 144:Generated_Source\PSoC4/CapSense.c **** reg32* const CapSense_prtCfgTbl[CapSense_CFG_REG_TBL_SIZE] = {
ARM GAS  C:\Users\young\AppData\Local\Temp\ccoFnsFE.s 			page 4


 145:Generated_Source\PSoC4/CapSense.c ****     ((reg32 *) CYREG_GPIO_PRT0_PC),
 146:Generated_Source\PSoC4/CapSense.c ****     ((reg32 *) CYREG_GPIO_PRT1_PC),
 147:Generated_Source\PSoC4/CapSense.c ****     ((reg32 *) CYREG_GPIO_PRT2_PC),
 148:Generated_Source\PSoC4/CapSense.c ****     ((reg32 *) CYREG_GPIO_PRT3_PC),
 149:Generated_Source\PSoC4/CapSense.c **** };
 150:Generated_Source\PSoC4/CapSense.c **** 
 151:Generated_Source\PSoC4/CapSense.c **** reg32* const CapSense_prtDRTbl[CapSense_CFG_REG_TBL_SIZE] = {
 152:Generated_Source\PSoC4/CapSense.c ****     ((reg32 *) CYREG_GPIO_PRT0_DR),
 153:Generated_Source\PSoC4/CapSense.c ****     ((reg32 *) CYREG_GPIO_PRT1_DR),
 154:Generated_Source\PSoC4/CapSense.c ****     ((reg32 *) CYREG_GPIO_PRT2_DR),
 155:Generated_Source\PSoC4/CapSense.c ****     ((reg32 *) CYREG_GPIO_PRT3_DR),
 156:Generated_Source\PSoC4/CapSense.c **** };
 157:Generated_Source\PSoC4/CapSense.c **** 
 158:Generated_Source\PSoC4/CapSense.c **** 
 159:Generated_Source\PSoC4/CapSense.c **** 
 160:Generated_Source\PSoC4/CapSense.c **** /*******************************************************************************
 161:Generated_Source\PSoC4/CapSense.c **** * Function Name: CapSense_Init
 162:Generated_Source\PSoC4/CapSense.c **** ********************************************************************************
 163:Generated_Source\PSoC4/CapSense.c **** *
 164:Generated_Source\PSoC4/CapSense.c **** * Summary:
 165:Generated_Source\PSoC4/CapSense.c **** *  API initializes default CapSense configuration provided by the customizer that defines
 166:Generated_Source\PSoC4/CapSense.c **** *  the mode of component operations and resets all the sensors to an inactive state.
 167:Generated_Source\PSoC4/CapSense.c **** *
 168:Generated_Source\PSoC4/CapSense.c **** * Parameters:
 169:Generated_Source\PSoC4/CapSense.c **** *  None
 170:Generated_Source\PSoC4/CapSense.c **** *
 171:Generated_Source\PSoC4/CapSense.c **** * Return:
 172:Generated_Source\PSoC4/CapSense.c **** *  None
 173:Generated_Source\PSoC4/CapSense.c **** *
 174:Generated_Source\PSoC4/CapSense.c **** * Global Variables:
 175:Generated_Source\PSoC4/CapSense.c **** *  CapSense_immunityIndex - defines immunity level.
 176:Generated_Source\PSoC4/CapSense.c **** *
 177:Generated_Source\PSoC4/CapSense.c **** * Side Effects:
 178:Generated_Source\PSoC4/CapSense.c **** *  None
 179:Generated_Source\PSoC4/CapSense.c **** *
 180:Generated_Source\PSoC4/CapSense.c **** *******************************************************************************/
 181:Generated_Source\PSoC4/CapSense.c **** void CapSense_Init(void)
 182:Generated_Source\PSoC4/CapSense.c **** {
  28              		.loc 1 182 0
  29              		.cfi_startproc
  30              		@ args = 0, pretend = 0, frame = 0
  31              		@ frame_needed = 0, uses_anonymous_args = 0
  32              	.LVL0:
  33 0000 F8B5     		push	{r3, r4, r5, r6, r7, lr}
  34              		.cfi_def_cfa_offset 24
  35              		.cfi_offset 3, -24
  36              		.cfi_offset 4, -20
  37              		.cfi_offset 5, -16
  38              		.cfi_offset 6, -12
  39              		.cfi_offset 7, -8
  40              		.cfi_offset 14, -4
  41 0002 4D46     		mov	r5, r9
  42 0004 4446     		mov	r4, r8
  43 0006 5F46     		mov	r7, fp
  44 0008 5646     		mov	r6, r10
  45 000a 394B     		ldr	r3, .L7
  46 000c F0B4     		push	{r4, r5, r6, r7}
ARM GAS  C:\Users\young\AppData\Local\Temp\ccoFnsFE.s 			page 5


  47              		.cfi_def_cfa_offset 40
  48              		.cfi_offset 8, -40
  49              		.cfi_offset 9, -36
  50              		.cfi_offset 10, -32
  51              		.cfi_offset 11, -28
  52 000e 0622     		movs	r2, #6
  53 0010 0021     		movs	r1, #0
  54 0012 1800     		movs	r0, r3
  55 0014 9B46     		mov	fp, r3
  56 0016 FFF7FEFF 		bl	memset
  57              	.LVL1:
  58              	.LBB38:
  59              	.LBB39:
 183:Generated_Source\PSoC4/CapSense.c ****     uint32 curSensor;
 184:Generated_Source\PSoC4/CapSense.c **** 
 185:Generated_Source\PSoC4/CapSense.c ****     #if(CapSense_IS_SHIELD_ENABLE)
 186:Generated_Source\PSoC4/CapSense.c **** 
 187:Generated_Source\PSoC4/CapSense.c ****         #if((CapSense_CSH_TANK_PREGARGE_OPTION == CapSense__CAPPRIOBUF) || (0u != CapSense_CSH_TANK
 188:Generated_Source\PSoC4/CapSense.c ****             uint32 newRegValue;
 189:Generated_Source\PSoC4/CapSense.c **** 
 190:Generated_Source\PSoC4/CapSense.c ****             newRegValue = CapSense_CTANK_CONNECTION_REG;
 191:Generated_Source\PSoC4/CapSense.c ****             newRegValue &= ~(CapSense_CSD_CTANK_CONNECTION_MASK);
 192:Generated_Source\PSoC4/CapSense.c ****             newRegValue |= CapSense_CSD_CTANK_TO_AMUXBUS_B;
 193:Generated_Source\PSoC4/CapSense.c ****             CapSense_CTANK_CONNECTION_REG = newRegValue;
 194:Generated_Source\PSoC4/CapSense.c **** 
 195:Generated_Source\PSoC4/CapSense.c ****             #if(CapSense_CSH_TANK_PREGARGE_OPTION == CapSense__CAPPRIOBUF)
 196:Generated_Source\PSoC4/CapSense.c ****                 newRegValue = CapSense_CTANK_PORT_PC_REG;
 197:Generated_Source\PSoC4/CapSense.c ****                 newRegValue &= ~(CapSense_CSD_CTANK_PC_MASK);
 198:Generated_Source\PSoC4/CapSense.c ****                 newRegValue |= CapSense_CTANK_PC_STRONG_MODE;
 199:Generated_Source\PSoC4/CapSense.c ****                 CapSense_CTANK_PORT_PC_REG = newRegValue;
 200:Generated_Source\PSoC4/CapSense.c **** 
 201:Generated_Source\PSoC4/CapSense.c ****                 newRegValue = CapSense_CTANK_PORT_DR_REG;
 202:Generated_Source\PSoC4/CapSense.c ****                 newRegValue &= ~(CapSense_CTANK_DR_MASK);
 203:Generated_Source\PSoC4/CapSense.c ****                 newRegValue |= CapSense_CTANK_DR_CONFIG;
 204:Generated_Source\PSoC4/CapSense.c ****                 CapSense_CTANK_PORT_DR_REG = newRegValue;
 205:Generated_Source\PSoC4/CapSense.c ****             #endif /* (CapSense_CSH_TANK_PREGARGE_OPTION == CapSense__CAPPRIOBUF) */
 206:Generated_Source\PSoC4/CapSense.c **** 
 207:Generated_Source\PSoC4/CapSense.c ****         #endif /* ((CapSense_CSH_TANK_PREGARGE_OPTION == CapSense__CAPPRIOBUF) || (CapSense_CSH_TAN
 208:Generated_Source\PSoC4/CapSense.c **** 
 209:Generated_Source\PSoC4/CapSense.c ****         CapSense_EnableShieldElectrode((uint32)CapSense_SHIELD_PIN_NUMBER, (uint32)CapSense_SHIELD_
 210:Generated_Source\PSoC4/CapSense.c **** 
 211:Generated_Source\PSoC4/CapSense.c ****     #endif /* (CapSense_IS_SHIELD_ENABLE) */
 212:Generated_Source\PSoC4/CapSense.c **** 
 213:Generated_Source\PSoC4/CapSense.c ****     for(curSensor = 0u; curSensor < CapSense_TOTAL_SENSOR_COUNT; curSensor++)
 214:Generated_Source\PSoC4/CapSense.c ****     {
 215:Generated_Source\PSoC4/CapSense.c ****         CapSense_SetUnscannedSensorState(curSensor, CapSense_CONNECT_INACTIVE_SNS);
 216:Generated_Source\PSoC4/CapSense.c ****     }
 217:Generated_Source\PSoC4/CapSense.c **** 
 218:Generated_Source\PSoC4/CapSense.c ****     CapSense_CsdHwBlockInit();
 219:Generated_Source\PSoC4/CapSense.c ****     CapSense_SetShieldDelay(CapSense_SHIELD_DELAY );
 220:Generated_Source\PSoC4/CapSense.c **** 
 221:Generated_Source\PSoC4/CapSense.c ****     /* Clear all sensors */
 222:Generated_Source\PSoC4/CapSense.c ****     CapSense_ClearSensors();
 223:Generated_Source\PSoC4/CapSense.c **** }
 224:Generated_Source\PSoC4/CapSense.c **** 
 225:Generated_Source\PSoC4/CapSense.c **** /*******************************************************************************
 226:Generated_Source\PSoC4/CapSense.c **** * Function Name: CapSense_CsdHwBlockInit
ARM GAS  C:\Users\young\AppData\Local\Temp\ccoFnsFE.s 			page 6


 227:Generated_Source\PSoC4/CapSense.c **** ********************************************************************************
 228:Generated_Source\PSoC4/CapSense.c **** *
 229:Generated_Source\PSoC4/CapSense.c **** * Summary:
 230:Generated_Source\PSoC4/CapSense.c **** *  Initialises the hardware parameters of the CSD block
 231:Generated_Source\PSoC4/CapSense.c **** *
 232:Generated_Source\PSoC4/CapSense.c **** * Parameters:
 233:Generated_Source\PSoC4/CapSense.c **** *  None
 234:Generated_Source\PSoC4/CapSense.c **** *
 235:Generated_Source\PSoC4/CapSense.c **** * Return:
 236:Generated_Source\PSoC4/CapSense.c **** *  None
 237:Generated_Source\PSoC4/CapSense.c **** *
 238:Generated_Source\PSoC4/CapSense.c **** * Global Variables:
 239:Generated_Source\PSoC4/CapSense.c **** *  CapSense_csdTrim1 - Contains IDAC trim register value for Sourcing Mode.
 240:Generated_Source\PSoC4/CapSense.c **** *  CapSense_csdTrim2 - Contains IDAC trim register value for Sinking Mode.
 241:Generated_Source\PSoC4/CapSense.c **** *
 242:Generated_Source\PSoC4/CapSense.c **** * Side Effects:
 243:Generated_Source\PSoC4/CapSense.c **** *  None
 244:Generated_Source\PSoC4/CapSense.c **** *
 245:Generated_Source\PSoC4/CapSense.c **** *******************************************************************************/
 246:Generated_Source\PSoC4/CapSense.c **** void CapSense_CsdHwBlockInit(void)
 247:Generated_Source\PSoC4/CapSense.c **** {
 248:Generated_Source\PSoC4/CapSense.c ****     uint32 newRegValue;
 249:Generated_Source\PSoC4/CapSense.c **** 
 250:Generated_Source\PSoC4/CapSense.c ****         /* Set trim registers for CSD Mode */
 251:Generated_Source\PSoC4/CapSense.c ****     #if (CapSense_IDAC1_POLARITY == CapSense__IDAC_SINK)
 252:Generated_Source\PSoC4/CapSense.c ****         /* iDAC1 Sinking Mode */
 253:Generated_Source\PSoC4/CapSense.c ****         CapSense_csdTrim2 = (uint8)CapSense_CSD_TRIM2_REG;
 254:Generated_Source\PSoC4/CapSense.c ****         newRegValue = CapSense_csdTrim2;
 255:Generated_Source\PSoC4/CapSense.c ****         newRegValue &= CapSense_CSD_IDAC1_TRIM_MASK;
 256:Generated_Source\PSoC4/CapSense.c ****         newRegValue |= (uint32)((uint32)CapSense_SFLASH_CSD_TRIM2_REG & (uint32)CapSense_CSFLASH_TR
 257:Generated_Source\PSoC4/CapSense.c **** 
 258:Generated_Source\PSoC4/CapSense.c ****         #if (CapSense_IDAC_CNT == 2u)
 259:Generated_Source\PSoC4/CapSense.c ****             /* iDAC2 Sinking Mode */
 260:Generated_Source\PSoC4/CapSense.c ****             newRegValue &= CapSense_CSD_IDAC2_TRIM_MASK;
 261:Generated_Source\PSoC4/CapSense.c ****             newRegValue |= (uint32)((uint32)CapSense_SFLASH_CSD_TRIM2_REG & (uint32)CapSense_CSFLAS
 262:Generated_Source\PSoC4/CapSense.c ****         #endif /* (CapSense_IDAC_CNT == 2u) */
 263:Generated_Source\PSoC4/CapSense.c ****         CapSense_CSD_TRIM2_REG = newRegValue;
 264:Generated_Source\PSoC4/CapSense.c ****     #else
 265:Generated_Source\PSoC4/CapSense.c ****         /* iDAC1 Sourcing Mode */
 266:Generated_Source\PSoC4/CapSense.c ****         CapSense_csdTrim1 = (uint8)CapSense_CSD_TRIM1_REG;
 267:Generated_Source\PSoC4/CapSense.c ****         newRegValue = CapSense_csdTrim1;
 268:Generated_Source\PSoC4/CapSense.c ****         newRegValue &= CapSense_CSD_IDAC1_TRIM_MASK;
 269:Generated_Source\PSoC4/CapSense.c ****         newRegValue |= (uint32)((uint32)CapSense_SFLASH_CSD_TRIM1_REG & (uint32)CapSense_CSFLASH_TR
  60              		.loc 1 269 0
  61 001a 0F20     		movs	r0, #15
 266:Generated_Source\PSoC4/CapSense.c ****         newRegValue = CapSense_csdTrim1;
  62              		.loc 1 266 0
  63 001c 3549     		ldr	r1, .L7+4
  64 001e 364B     		ldr	r3, .L7+8
  65 0020 0A68     		ldr	r2, [r1]
  66              	.LVL2:
  67              		.loc 1 269 0
  68 0022 364C     		ldr	r4, .L7+12
 266:Generated_Source\PSoC4/CapSense.c ****         newRegValue = CapSense_csdTrim1;
  69              		.loc 1 266 0
  70 0024 1A70     		strb	r2, [r3]
  71              		.loc 1 269 0
ARM GAS  C:\Users\young\AppData\Local\Temp\ccoFnsFE.s 			page 7


  72 0026 2378     		ldrb	r3, [r4]
  73              	.LVL3:
  74              	.LBE39:
  75              	.LBE38:
  76              	.LBB41:
  77              	.LBB42:
 270:Generated_Source\PSoC4/CapSense.c ****         #if (CapSense_IDAC_CNT == 2u)
 271:Generated_Source\PSoC4/CapSense.c ****              /* iDAC2 Sourcing Mode */
 272:Generated_Source\PSoC4/CapSense.c ****             newRegValue &= CapSense_CSD_IDAC2_TRIM_MASK;
 273:Generated_Source\PSoC4/CapSense.c ****             newRegValue |= (uint32)((uint32)CapSense_SFLASH_CSD_TRIM1_REG & (uint32)CapSense_CSFLAS
 274:Generated_Source\PSoC4/CapSense.c ****         #endif
 275:Generated_Source\PSoC4/CapSense.c ****         CapSense_CSD_TRIM1_REG = newRegValue;
 276:Generated_Source\PSoC4/CapSense.c ****     #endif /* (CapSense_IDAC1_POLARITY == CapSense__IDAC_SINK) */
 277:Generated_Source\PSoC4/CapSense.c **** 
 278:Generated_Source\PSoC4/CapSense.c ****     /* Configure CSD and IDAC */
 279:Generated_Source\PSoC4/CapSense.c ****     #if (CapSense_IDAC_CNT > 1u)
 280:Generated_Source\PSoC4/CapSense.c ****         CapSense_CSD_IDAC_REG = CapSense_DEFAULT_CSD_IDAC_CONFIG;
 281:Generated_Source\PSoC4/CapSense.c ****         CapSense_CSD_CFG_REG = CapSense_DEFAULT_CSD_CONFIG;
 282:Generated_Source\PSoC4/CapSense.c ****     #else
 283:Generated_Source\PSoC4/CapSense.c ****         CapSense_CSD_IDAC_REG &= ~(CapSense_CSD_IDAC1_MODE_MASK  | CapSense_CSD_IDAC1_DATA_MASK);
 284:Generated_Source\PSoC4/CapSense.c ****         CapSense_CSD_IDAC_REG |= CapSense_DEFAULT_CSD_IDAC_CONFIG;
 285:Generated_Source\PSoC4/CapSense.c **** 
 286:Generated_Source\PSoC4/CapSense.c ****         CapSense_CSD_CFG_REG &= ~(CapSense_CSD_CONFIG_MASK);
 287:Generated_Source\PSoC4/CapSense.c ****         CapSense_CSD_CFG_REG |= (CapSense_DEFAULT_CSD_CONFIG);
 288:Generated_Source\PSoC4/CapSense.c ****     #endif /* (CapSense_IDAC_CNT > 1u) */
 289:Generated_Source\PSoC4/CapSense.c **** 
 290:Generated_Source\PSoC4/CapSense.c **** 
 291:Generated_Source\PSoC4/CapSense.c ****     /* Connect Cmod to AMUX bus */
 292:Generated_Source\PSoC4/CapSense.c ****     newRegValue = CapSense_CMOD_CONNECTION_REG;
 293:Generated_Source\PSoC4/CapSense.c ****     newRegValue &= ~(CapSense_CSD_CMOD_CONNECTION_MASK);
 294:Generated_Source\PSoC4/CapSense.c ****     newRegValue |= CapSense_CSD_CMOD_TO_AMUXBUS_A;
 295:Generated_Source\PSoC4/CapSense.c ****     CapSense_CMOD_CONNECTION_REG = newRegValue;
 296:Generated_Source\PSoC4/CapSense.c **** 
 297:Generated_Source\PSoC4/CapSense.c ****     /* Configure Dead Band PWM if it is enabled */
 298:Generated_Source\PSoC4/CapSense.c ****     #if(CapSense_CSD_4B_PWM_MODE != CapSense__PWM_OFF)
 299:Generated_Source\PSoC4/CapSense.c ****         CapSense_CSD_4B_PWM_REG = CapSense_DEFAULT_CSD_4B_PWM_CONFIG;
 300:Generated_Source\PSoC4/CapSense.c ****     #endif /* (CapSense_CSD_4B_PWM_MODE != CapSense__PWM_OFF) */
 301:Generated_Source\PSoC4/CapSense.c **** 
 302:Generated_Source\PSoC4/CapSense.c ****     /* Setup ISR */
 303:Generated_Source\PSoC4/CapSense.c ****     CyIntDisable(CapSense_ISR_NUMBER);
 304:Generated_Source\PSoC4/CapSense.c ****     #if !defined(CY_EXTERNAL_INTERRUPT_CONFIG)
 305:Generated_Source\PSoC4/CapSense.c ****         (void)CyIntSetVector(CapSense_ISR_NUMBER, &CapSense_ISR);
 306:Generated_Source\PSoC4/CapSense.c ****         CyIntSetPriority(CapSense_ISR_NUMBER, CapSense_ISR_PRIORITY);
 307:Generated_Source\PSoC4/CapSense.c ****     #endif /* (CY_EXTERNAL_INTERRUPT_CONFIG) */
 308:Generated_Source\PSoC4/CapSense.c **** }
 309:Generated_Source\PSoC4/CapSense.c **** 
 310:Generated_Source\PSoC4/CapSense.c **** 
 311:Generated_Source\PSoC4/CapSense.c **** /*******************************************************************************
 312:Generated_Source\PSoC4/CapSense.c **** * Function Name: CapSense_Enable
 313:Generated_Source\PSoC4/CapSense.c **** ********************************************************************************
 314:Generated_Source\PSoC4/CapSense.c **** *
 315:Generated_Source\PSoC4/CapSense.c **** * Summary:
 316:Generated_Source\PSoC4/CapSense.c **** *  Enables the CSD block and related resources to an active mode.
 317:Generated_Source\PSoC4/CapSense.c **** *
 318:Generated_Source\PSoC4/CapSense.c **** * Parameters:
 319:Generated_Source\PSoC4/CapSense.c **** *  None
 320:Generated_Source\PSoC4/CapSense.c **** *
ARM GAS  C:\Users\young\AppData\Local\Temp\ccoFnsFE.s 			page 8


 321:Generated_Source\PSoC4/CapSense.c **** * Return:
 322:Generated_Source\PSoC4/CapSense.c **** *  None
 323:Generated_Source\PSoC4/CapSense.c **** *
 324:Generated_Source\PSoC4/CapSense.c **** * Global Variables:
 325:Generated_Source\PSoC4/CapSense.c **** *  None.
 326:Generated_Source\PSoC4/CapSense.c **** *
 327:Generated_Source\PSoC4/CapSense.c **** * Side Effects:
 328:Generated_Source\PSoC4/CapSense.c **** *  None
 329:Generated_Source\PSoC4/CapSense.c **** *
 330:Generated_Source\PSoC4/CapSense.c **** *******************************************************************************/
 331:Generated_Source\PSoC4/CapSense.c **** void CapSense_Enable(void)
 332:Generated_Source\PSoC4/CapSense.c **** {
 333:Generated_Source\PSoC4/CapSense.c ****     uint32 newRegValue;
 334:Generated_Source\PSoC4/CapSense.c **** 
 335:Generated_Source\PSoC4/CapSense.c ****     /* Enable Clocks */
 336:Generated_Source\PSoC4/CapSense.c ****     CapSense_SenseClk_Stop();
 337:Generated_Source\PSoC4/CapSense.c ****     CapSense_SampleClk_Stop();
 338:Generated_Source\PSoC4/CapSense.c **** 
 339:Generated_Source\PSoC4/CapSense.c ****     CapSense_SampleClk_SetDividerValue((uint16)CapSense_INITIAL_CLK_DIVIDER);
 340:Generated_Source\PSoC4/CapSense.c ****     CapSense_SenseClk_SetDividerValue((uint16)CapSense_INITIAL_CLK_DIVIDER);
 341:Generated_Source\PSoC4/CapSense.c **** 
 342:Generated_Source\PSoC4/CapSense.c ****     #if (0u == CapSense_IS_M0S8PERI_BLOCK)
 343:Generated_Source\PSoC4/CapSense.c ****         CapSense_SenseClk_Start();
 344:Generated_Source\PSoC4/CapSense.c ****         CapSense_SampleClk_Start();
 345:Generated_Source\PSoC4/CapSense.c ****     #else
 346:Generated_Source\PSoC4/CapSense.c ****         CapSense_SampleClk_Start();
 347:Generated_Source\PSoC4/CapSense.c ****         CapSense_SenseClk_StartEx(CapSense_SampleClk__DIV_ID);
 348:Generated_Source\PSoC4/CapSense.c ****     #endif /* (0u == CapSense_IS_M0S8PERI_BLOCK) */
 349:Generated_Source\PSoC4/CapSense.c **** 
 350:Generated_Source\PSoC4/CapSense.c ****     /* Enable the CSD block */
 351:Generated_Source\PSoC4/CapSense.c ****     newRegValue = CapSense_CSD_CFG_REG;
 352:Generated_Source\PSoC4/CapSense.c ****     newRegValue |= (CapSense_CSD_CFG_ENABLE | CapSense_CSD_CFG_SENSE_COMP_EN
 353:Generated_Source\PSoC4/CapSense.c ****                                                    | CapSense_CSD_CFG_SENSE_EN);
 354:Generated_Source\PSoC4/CapSense.c ****     CapSense_CSD_CFG_REG = newRegValue;
 355:Generated_Source\PSoC4/CapSense.c **** 
 356:Generated_Source\PSoC4/CapSense.c ****     /* Enable interrupt */
 357:Generated_Source\PSoC4/CapSense.c ****     CyIntEnable(CapSense_ISR_NUMBER);
 358:Generated_Source\PSoC4/CapSense.c **** }
 359:Generated_Source\PSoC4/CapSense.c **** 
 360:Generated_Source\PSoC4/CapSense.c **** 
 361:Generated_Source\PSoC4/CapSense.c **** /*******************************************************************************
 362:Generated_Source\PSoC4/CapSense.c **** * Function Name: CapSense_Start
 363:Generated_Source\PSoC4/CapSense.c **** ********************************************************************************
 364:Generated_Source\PSoC4/CapSense.c **** *
 365:Generated_Source\PSoC4/CapSense.c **** * Summary:
 366:Generated_Source\PSoC4/CapSense.c **** *  This is the preferred method to begin the component operation. CapSense_Start()
 367:Generated_Source\PSoC4/CapSense.c **** *  calls the CapSense_Init() function, and then calls the CapSense_Enable()
 368:Generated_Source\PSoC4/CapSense.c **** *  function. Initializes the registers and starts the CSD method of the CapSense
 369:Generated_Source\PSoC4/CapSense.c **** *  component. Resets all the sensors to an inactive state. Enables interrupts for
 370:Generated_Source\PSoC4/CapSense.c **** *  sensors scanning. When the SmartSense tuning mode is selected, the tuning procedure
 371:Generated_Source\PSoC4/CapSense.c **** *  is applied for all the sensors. The CapSense_Start() routine must be called before
 372:Generated_Source\PSoC4/CapSense.c **** *  any other API routines.
 373:Generated_Source\PSoC4/CapSense.c **** *
 374:Generated_Source\PSoC4/CapSense.c **** * Parameters:
 375:Generated_Source\PSoC4/CapSense.c **** *  None
 376:Generated_Source\PSoC4/CapSense.c **** *
 377:Generated_Source\PSoC4/CapSense.c **** * Return:
ARM GAS  C:\Users\young\AppData\Local\Temp\ccoFnsFE.s 			page 9


 378:Generated_Source\PSoC4/CapSense.c **** *  None
 379:Generated_Source\PSoC4/CapSense.c **** *
 380:Generated_Source\PSoC4/CapSense.c **** * Global Variables:
 381:Generated_Source\PSoC4/CapSense.c **** *   CapSense_initVar - used to check the initial configuration,
 382:Generated_Source\PSoC4/CapSense.c **** *   modified on the first function call.
 383:Generated_Source\PSoC4/CapSense.c **** *  CapSense_lowLevelTuningDone - Used to notify the Tuner GUI that
 384:Generated_Source\PSoC4/CapSense.c **** *   tuning of the scanning parameters is done.
 385:Generated_Source\PSoC4/CapSense.c **** *
 386:Generated_Source\PSoC4/CapSense.c **** * Side Effects:
 387:Generated_Source\PSoC4/CapSense.c **** *  None
 388:Generated_Source\PSoC4/CapSense.c **** *
 389:Generated_Source\PSoC4/CapSense.c **** *******************************************************************************/
 390:Generated_Source\PSoC4/CapSense.c **** void CapSense_Start(void)
 391:Generated_Source\PSoC4/CapSense.c **** {
 392:Generated_Source\PSoC4/CapSense.c **** 
 393:Generated_Source\PSoC4/CapSense.c ****     static uint8 CapSense_initVar = 0u;
 394:Generated_Source\PSoC4/CapSense.c **** 
 395:Generated_Source\PSoC4/CapSense.c ****     #if((0u != CapSense_AUTOCALIBRATION_ENABLE) && (CapSense_TUNING_METHOD != CapSense__TUNING_AUTO
 396:Generated_Source\PSoC4/CapSense.c ****         uint32 curSensor;
 397:Generated_Source\PSoC4/CapSense.c ****         uint32 rawLevel;
 398:Generated_Source\PSoC4/CapSense.c ****         uint32 widget;
 399:Generated_Source\PSoC4/CapSense.c ****     #endif /* ((0u != CapSense_AUTOCALIBRATION_ENABLE) && (CapSense_TUNING_METHOD != CapSense__TUNI
 400:Generated_Source\PSoC4/CapSense.c **** 
 401:Generated_Source\PSoC4/CapSense.c ****     if (CapSense_initVar == 0u)
 402:Generated_Source\PSoC4/CapSense.c ****     {
 403:Generated_Source\PSoC4/CapSense.c ****         CapSense_Init();
 404:Generated_Source\PSoC4/CapSense.c ****         CapSense_initVar = 1u;
 405:Generated_Source\PSoC4/CapSense.c ****     }
 406:Generated_Source\PSoC4/CapSense.c ****     CapSense_Enable();
 407:Generated_Source\PSoC4/CapSense.c **** 
 408:Generated_Source\PSoC4/CapSense.c ****     /* AutoTunning start */
 409:Generated_Source\PSoC4/CapSense.c ****     #if(CapSense_TUNING_METHOD == CapSense__TUNING_AUTO)
 410:Generated_Source\PSoC4/CapSense.c ****         #if(0u != CapSense_CSHL_API_GENERATE)
 411:Generated_Source\PSoC4/CapSense.c ****             CapSense_AutoTune();
 412:Generated_Source\PSoC4/CapSense.c ****             CapSense_lowLevelTuningDone = 1u;
 413:Generated_Source\PSoC4/CapSense.c ****         #endif /* (0u != CapSense_CSHL_API_GENERATE) */
 414:Generated_Source\PSoC4/CapSense.c ****     #else
 415:Generated_Source\PSoC4/CapSense.c ****         #if(0u != CapSense_AUTOCALIBRATION_ENABLE)
 416:Generated_Source\PSoC4/CapSense.c **** 
 417:Generated_Source\PSoC4/CapSense.c ****             #if(CapSense_IDAC_CNT > 1u)
 418:Generated_Source\PSoC4/CapSense.c ****                 CapSense_CSD_IDAC_REG &= ~(CapSense_CSD_IDAC2_MODE_MASK);
 419:Generated_Source\PSoC4/CapSense.c ****             #endif /* (CapSense_IDAC_CNT > 1u) */
 420:Generated_Source\PSoC4/CapSense.c **** 
 421:Generated_Source\PSoC4/CapSense.c ****             for(curSensor = 0u; curSensor < CapSense_TOTAL_SCANSLOT_COUNT; curSensor++)
 422:Generated_Source\PSoC4/CapSense.c ****             {
 423:Generated_Source\PSoC4/CapSense.c ****                 widget = CapSense_widgetNumber[curSensor];
 424:Generated_Source\PSoC4/CapSense.c ****                 rawLevel = CapSense_widgetResolution[widget] >> CapSense_RESOLUTION_OFFSET;
 425:Generated_Source\PSoC4/CapSense.c **** 
 426:Generated_Source\PSoC4/CapSense.c ****                 /* Calibration level should be equal to 85% from scanning resolution */
 427:Generated_Source\PSoC4/CapSense.c ****                 rawLevel = (rawLevel * 85u) / 100u;
 428:Generated_Source\PSoC4/CapSense.c **** 
 429:Generated_Source\PSoC4/CapSense.c ****                 CapSense_CalibrateSensor(curSensor, rawLevel, CapSense_modulationIDAC);
 430:Generated_Source\PSoC4/CapSense.c ****             }
 431:Generated_Source\PSoC4/CapSense.c **** 
 432:Generated_Source\PSoC4/CapSense.c ****             #if(0u != CapSense_TOTAL_CENTROIDS_COUNT)
 433:Generated_Source\PSoC4/CapSense.c ****                 CapSense_NormalizeWidgets(CapSense_END_OF_WIDGETS_INDEX, CapSense_modulationIDAC);
 434:Generated_Source\PSoC4/CapSense.c ****             #endif /* (0u != CapSense_TOTAL_CENTROIDS_COUNT)  */
ARM GAS  C:\Users\young\AppData\Local\Temp\ccoFnsFE.s 			page 10


 435:Generated_Source\PSoC4/CapSense.c **** 
 436:Generated_Source\PSoC4/CapSense.c ****             #if(CapSense_IDAC_CNT > 1u)
 437:Generated_Source\PSoC4/CapSense.c ****                 for(curSensor = 0u; curSensor < CapSense_TOTAL_SCANSLOT_COUNT; curSensor++)
 438:Generated_Source\PSoC4/CapSense.c ****                 {
 439:Generated_Source\PSoC4/CapSense.c ****                     CapSense_compensationIDAC[curSensor] = CapSense_modulationIDAC[curSensor] / 2u;
 440:Generated_Source\PSoC4/CapSense.c ****                     CapSense_modulationIDAC[curSensor] = (CapSense_modulationIDAC[curSensor] + 1u) 
 441:Generated_Source\PSoC4/CapSense.c ****                 }
 442:Generated_Source\PSoC4/CapSense.c ****                 CapSense_CSD_IDAC_REG |= CapSense_CSD_IDAC2_MODE_FIXED;
 443:Generated_Source\PSoC4/CapSense.c ****             #endif /* (CapSense_IDAC_CNT > 1u) */
 444:Generated_Source\PSoC4/CapSense.c **** 
 445:Generated_Source\PSoC4/CapSense.c ****         #endif /* (0u != CapSense_AUTOCALIBRATION_ENABLE) */
 446:Generated_Source\PSoC4/CapSense.c **** 
 447:Generated_Source\PSoC4/CapSense.c ****     #endif /* ((CapSense_TUNING_METHOD == CapSense__TUNING_AUTO) */
 448:Generated_Source\PSoC4/CapSense.c **** 
 449:Generated_Source\PSoC4/CapSense.c ****     /* Initialize Advanced Centroid */
 450:Generated_Source\PSoC4/CapSense.c ****     #if(CapSense_TOTAL_TRACKPAD_GESTURES_COUNT > 0u)
 451:Generated_Source\PSoC4/CapSense.c ****         CapSense_AdvancedCentroidInit();
 452:Generated_Source\PSoC4/CapSense.c ****     #endif /* (CapSense_TOTAL_TRACKPAD_GESTURES_COUNT > 0u) */
 453:Generated_Source\PSoC4/CapSense.c **** 
 454:Generated_Source\PSoC4/CapSense.c ****     /* Connect sense comparator input to AMUXA */
 455:Generated_Source\PSoC4/CapSense.c ****     CapSense_CSD_CFG_REG |= CapSense_CSD_CFG_SENSE_INSEL;
 456:Generated_Source\PSoC4/CapSense.c **** }
 457:Generated_Source\PSoC4/CapSense.c **** 
 458:Generated_Source\PSoC4/CapSense.c **** 
 459:Generated_Source\PSoC4/CapSense.c **** /*******************************************************************************
 460:Generated_Source\PSoC4/CapSense.c **** * Function Name: CapSense_Stop
 461:Generated_Source\PSoC4/CapSense.c **** ********************************************************************************
 462:Generated_Source\PSoC4/CapSense.c **** *
 463:Generated_Source\PSoC4/CapSense.c **** * Summary:
 464:Generated_Source\PSoC4/CapSense.c **** *  Stops the sensor scanning, disables component interrupts, and resets all the
 465:Generated_Source\PSoC4/CapSense.c **** *  sensors to an inactive state. Disables the Active mode power template bits for
 466:Generated_Source\PSoC4/CapSense.c **** *  the subcomponents used within CapSense.
 467:Generated_Source\PSoC4/CapSense.c **** *
 468:Generated_Source\PSoC4/CapSense.c **** * Parameters:
 469:Generated_Source\PSoC4/CapSense.c **** *  None
 470:Generated_Source\PSoC4/CapSense.c **** *
 471:Generated_Source\PSoC4/CapSense.c **** * Return:
 472:Generated_Source\PSoC4/CapSense.c **** *  None
 473:Generated_Source\PSoC4/CapSense.c **** *
 474:Generated_Source\PSoC4/CapSense.c **** * Global Variables:
 475:Generated_Source\PSoC4/CapSense.c **** *  CapSense_csdTrim1 - Contains the IDAC trim register value for the Sourcing Mode.
 476:Generated_Source\PSoC4/CapSense.c **** *  CapSense_csdTrim2 - Contains the IDAC trim register value for vSinking Mode.
 477:Generated_Source\PSoC4/CapSense.c **** *
 478:Generated_Source\PSoC4/CapSense.c **** * Side Effects:
 479:Generated_Source\PSoC4/CapSense.c **** *  This function should be called after scans are completed.
 480:Generated_Source\PSoC4/CapSense.c **** *
 481:Generated_Source\PSoC4/CapSense.c **** *******************************************************************************/
 482:Generated_Source\PSoC4/CapSense.c **** void CapSense_Stop(void)
 483:Generated_Source\PSoC4/CapSense.c **** {
 484:Generated_Source\PSoC4/CapSense.c ****     /* Disable interrupt */
 485:Generated_Source\PSoC4/CapSense.c ****     CyIntDisable(CapSense_ISR_NUMBER);
 486:Generated_Source\PSoC4/CapSense.c **** 
 487:Generated_Source\PSoC4/CapSense.c ****     CapSense_CSD_CFG_REG &= ~(CapSense_CSD_CFG_SENSE_COMP_EN | CapSense_CSD_CFG_SENSE_EN);
 488:Generated_Source\PSoC4/CapSense.c **** 
 489:Generated_Source\PSoC4/CapSense.c ****     #if(CapSense_IDAC_CNT == 2u)
 490:Generated_Source\PSoC4/CapSense.c ****         CapSense_CSD_CFG_REG &= ~(CapSense_CSD_CFG_ENABLE);
 491:Generated_Source\PSoC4/CapSense.c ****     #endif /* (CapSense_IDAC_CNT == 2u) */
ARM GAS  C:\Users\young\AppData\Local\Temp\ccoFnsFE.s 			page 11


 492:Generated_Source\PSoC4/CapSense.c **** 
 493:Generated_Source\PSoC4/CapSense.c ****     /* Disable the Clocks */
 494:Generated_Source\PSoC4/CapSense.c ****     CapSense_SenseClk_Stop();
 495:Generated_Source\PSoC4/CapSense.c ****     CapSense_SampleClk_Stop();
 496:Generated_Source\PSoC4/CapSense.c **** }
 497:Generated_Source\PSoC4/CapSense.c **** 
 498:Generated_Source\PSoC4/CapSense.c **** 
 499:Generated_Source\PSoC4/CapSense.c **** /*******************************************************************************
 500:Generated_Source\PSoC4/CapSense.c **** * Function Name: CapSense_FindNextSensor
 501:Generated_Source\PSoC4/CapSense.c **** ********************************************************************************
 502:Generated_Source\PSoC4/CapSense.c **** *
 503:Generated_Source\PSoC4/CapSense.c **** * Summary:
 504:Generated_Source\PSoC4/CapSense.c **** *  Finds the next sensor to scan.
 505:Generated_Source\PSoC4/CapSense.c **** *
 506:Generated_Source\PSoC4/CapSense.c **** * Parameters:
 507:Generated_Source\PSoC4/CapSense.c **** *  snsIndex:  Current index of sensor.
 508:Generated_Source\PSoC4/CapSense.c **** *
 509:Generated_Source\PSoC4/CapSense.c **** * Return:
 510:Generated_Source\PSoC4/CapSense.c **** *  Returns the next sensor index to scan.
 511:Generated_Source\PSoC4/CapSense.c **** *
 512:Generated_Source\PSoC4/CapSense.c **** * Global Variables:
 513:Generated_Source\PSoC4/CapSense.c **** *  CapSense_sensorEnableMask[] - used to store bit masks of the enabled sensors.
 514:Generated_Source\PSoC4/CapSense.c **** *
 515:Generated_Source\PSoC4/CapSense.c **** * Side Effects:
 516:Generated_Source\PSoC4/CapSense.c **** *  This function affects the  current scanning and should not
 517:Generated_Source\PSoC4/CapSense.c **** *  be used outside the component.
 518:Generated_Source\PSoC4/CapSense.c **** *
 519:Generated_Source\PSoC4/CapSense.c **** *******************************************************************************/
 520:Generated_Source\PSoC4/CapSense.c **** uint8 CapSense_FindNextSensor(uint8 snsIndex)
 521:Generated_Source\PSoC4/CapSense.c **** {
 522:Generated_Source\PSoC4/CapSense.c ****     uint32 enableFlag;
 523:Generated_Source\PSoC4/CapSense.c **** 
 524:Generated_Source\PSoC4/CapSense.c ****     /* Check if sensor enabled */
 525:Generated_Source\PSoC4/CapSense.c ****     do
 526:Generated_Source\PSoC4/CapSense.c ****     {
 527:Generated_Source\PSoC4/CapSense.c ****         /* Proceed with next sensor */
 528:Generated_Source\PSoC4/CapSense.c ****         snsIndex++;
 529:Generated_Source\PSoC4/CapSense.c ****         if(snsIndex == CapSense_TOTAL_SENSOR_COUNT)
 530:Generated_Source\PSoC4/CapSense.c ****         {
 531:Generated_Source\PSoC4/CapSense.c ****             break;
 532:Generated_Source\PSoC4/CapSense.c ****         }
 533:Generated_Source\PSoC4/CapSense.c ****         enableFlag = CapSense_GetBitValue(CapSense_sensorEnableMask, (uint32)snsIndex);
 534:Generated_Source\PSoC4/CapSense.c ****     }
 535:Generated_Source\PSoC4/CapSense.c ****     while(enableFlag == 0u);
 536:Generated_Source\PSoC4/CapSense.c **** 
 537:Generated_Source\PSoC4/CapSense.c ****     return ((uint8)snsIndex);
 538:Generated_Source\PSoC4/CapSense.c **** }
 539:Generated_Source\PSoC4/CapSense.c **** 
 540:Generated_Source\PSoC4/CapSense.c **** 
 541:Generated_Source\PSoC4/CapSense.c **** /*******************************************************************************
 542:Generated_Source\PSoC4/CapSense.c **** * Function Name: CapSense_ScanSensor
 543:Generated_Source\PSoC4/CapSense.c **** ********************************************************************************
 544:Generated_Source\PSoC4/CapSense.c **** *
 545:Generated_Source\PSoC4/CapSense.c **** * Summary:
 546:Generated_Source\PSoC4/CapSense.c **** *  Sets the scan settings and starts scanning a sensor. After scanning is complete,
 547:Generated_Source\PSoC4/CapSense.c **** *  the ISR copies the measured sensor raw data to the global raw sensor array.
 548:Generated_Source\PSoC4/CapSense.c **** *  Use of the ISR ensures this function is non-blocking.
ARM GAS  C:\Users\young\AppData\Local\Temp\ccoFnsFE.s 			page 12


 549:Generated_Source\PSoC4/CapSense.c **** *  Each sensor has a unique number within the sensor array.
 550:Generated_Source\PSoC4/CapSense.c **** *  This number is assigned by the CapSense customizer in sequence.
 551:Generated_Source\PSoC4/CapSense.c **** *
 552:Generated_Source\PSoC4/CapSense.c **** * Parameters:
 553:Generated_Source\PSoC4/CapSense.c **** *  sensor:  Sensor number.
 554:Generated_Source\PSoC4/CapSense.c **** *
 555:Generated_Source\PSoC4/CapSense.c **** * Return:
 556:Generated_Source\PSoC4/CapSense.c **** *  None
 557:Generated_Source\PSoC4/CapSense.c **** *
 558:Generated_Source\PSoC4/CapSense.c **** * Global Variables:
 559:Generated_Source\PSoC4/CapSense.c **** *  CapSense_csdStatusVar - used to provide the status and mode of the scanning process.
 560:Generated_Source\PSoC4/CapSense.c **** *  Sets the busy status(scan in progress) and mode of scan as single scan.
 561:Generated_Source\PSoC4/CapSense.c **** *  CapSense_sensorIndex - used to store a sensor scanning sensor number.
 562:Generated_Source\PSoC4/CapSense.c **** *  Sets to the provided sensor argument.
 563:Generated_Source\PSoC4/CapSense.c **** *
 564:Generated_Source\PSoC4/CapSense.c **** * Side Effects:
 565:Generated_Source\PSoC4/CapSense.c **** *  None
 566:Generated_Source\PSoC4/CapSense.c **** *
 567:Generated_Source\PSoC4/CapSense.c **** *******************************************************************************/
 568:Generated_Source\PSoC4/CapSense.c **** void CapSense_ScanSensor(uint32 sensor)
 569:Generated_Source\PSoC4/CapSense.c **** {
 570:Generated_Source\PSoC4/CapSense.c ****     /* Clears status/control variable and set sensorIndex */
 571:Generated_Source\PSoC4/CapSense.c ****     CapSense_csdStatusVar = 0u;
 572:Generated_Source\PSoC4/CapSense.c ****     CapSense_sensorIndex = (uint8)sensor;
 573:Generated_Source\PSoC4/CapSense.c **** 
 574:Generated_Source\PSoC4/CapSense.c ****     /* Start of sensor scan */
 575:Generated_Source\PSoC4/CapSense.c ****     CapSense_csdStatusVar = (CapSense_SW_STS_BUSY | CapSense_SW_CTRL_SINGLE_SCAN);
 576:Generated_Source\PSoC4/CapSense.c ****     CapSense_PreScan(sensor);
 577:Generated_Source\PSoC4/CapSense.c **** }
 578:Generated_Source\PSoC4/CapSense.c **** 
 579:Generated_Source\PSoC4/CapSense.c **** 
 580:Generated_Source\PSoC4/CapSense.c **** #if(0u != CapSense_CSHL_API_GENERATE)
 581:Generated_Source\PSoC4/CapSense.c **** /*******************************************************************************
 582:Generated_Source\PSoC4/CapSense.c **** * Function Name: CapSense_ScanWidget
 583:Generated_Source\PSoC4/CapSense.c **** ********************************************************************************
 584:Generated_Source\PSoC4/CapSense.c **** *
 585:Generated_Source\PSoC4/CapSense.c **** * Summary:
 586:Generated_Source\PSoC4/CapSense.c **** *  Sets the scan settings and starts scanning a widget.
 587:Generated_Source\PSoC4/CapSense.c **** *
 588:Generated_Source\PSoC4/CapSense.c **** * Parameters:
 589:Generated_Source\PSoC4/CapSense.c **** *  uint32 widget: Widget number.
 590:Generated_Source\PSoC4/CapSense.c **** *
 591:Generated_Source\PSoC4/CapSense.c **** * Return:
 592:Generated_Source\PSoC4/CapSense.c **** *  None
 593:Generated_Source\PSoC4/CapSense.c **** *
 594:Generated_Source\PSoC4/CapSense.c **** * Global Variables:
 595:Generated_Source\PSoC4/CapSense.c **** *  CapSense_csdStatusVar - used to provide the status and mode of the scanning process.
 596:Generated_Source\PSoC4/CapSense.c **** *  Sets the busy status(scan in progress) and clears the single scan mode.
 597:Generated_Source\PSoC4/CapSense.c **** *  CapSense_sensorIndex - used to store a sensor scanning sensor number.
 598:Generated_Source\PSoC4/CapSense.c **** *  Sets to 0xFF and provided to function CapSense_FindNextSensor or
 599:Generated_Source\PSoC4/CapSense.c **** *  CapSense_sensorEnableMask[] - used to store bit masks of the enabled sensors.
 600:Generated_Source\PSoC4/CapSense.c **** *  CapSense_sensorEnableMaskBackup[] - used to backup bit masks of the enabled
 601:Generated_Source\PSoC4/CapSense.c **** *   sensors.
 602:Generated_Source\PSoC4/CapSense.c **** *
 603:Generated_Source\PSoC4/CapSense.c **** * Side Effects:
 604:Generated_Source\PSoC4/CapSense.c **** *  None
 605:Generated_Source\PSoC4/CapSense.c **** *
ARM GAS  C:\Users\young\AppData\Local\Temp\ccoFnsFE.s 			page 13


 606:Generated_Source\PSoC4/CapSense.c **** *******************************************************************************/
 607:Generated_Source\PSoC4/CapSense.c **** void CapSense_ScanWidget(uint32 widget)
 608:Generated_Source\PSoC4/CapSense.c **** {
 609:Generated_Source\PSoC4/CapSense.c ****     uint32 sensorsPerWidget;
 610:Generated_Source\PSoC4/CapSense.c ****     uint32 lastSensor;
 611:Generated_Source\PSoC4/CapSense.c ****     uint32 snsIndex;
 612:Generated_Source\PSoC4/CapSense.c **** 
 613:Generated_Source\PSoC4/CapSense.c ****     /* Get first sensor in widget */
 614:Generated_Source\PSoC4/CapSense.c ****     CapSense_sensorIndex = CapSense_rawDataIndex[widget];
 615:Generated_Source\PSoC4/CapSense.c **** 
 616:Generated_Source\PSoC4/CapSense.c ****     /* Get number of sensors in widget */
 617:Generated_Source\PSoC4/CapSense.c ****     sensorsPerWidget = CapSense_numberOfSensors[widget];
 618:Generated_Source\PSoC4/CapSense.c **** 
 619:Generated_Source\PSoC4/CapSense.c ****     /* Check if generic Sensor */
 620:Generated_Source\PSoC4/CapSense.c ****     if(sensorsPerWidget == 0u)
 621:Generated_Source\PSoC4/CapSense.c ****     {
 622:Generated_Source\PSoC4/CapSense.c ****         sensorsPerWidget = 1u;
 623:Generated_Source\PSoC4/CapSense.c ****     }
 624:Generated_Source\PSoC4/CapSense.c **** 
 625:Generated_Source\PSoC4/CapSense.c ****     /* Get last sensor in widget */
 626:Generated_Source\PSoC4/CapSense.c ****     lastSensor = (CapSense_rawDataIndex[widget] + sensorsPerWidget) - 1u;
 627:Generated_Source\PSoC4/CapSense.c **** 
 628:Generated_Source\PSoC4/CapSense.c ****     /* Backup sensorEnableMask array */
 629:Generated_Source\PSoC4/CapSense.c ****     for(snsIndex = 0u; snsIndex < CapSense_TOTAL_SENSOR_MASK; snsIndex++)
 630:Generated_Source\PSoC4/CapSense.c ****     {
 631:Generated_Source\PSoC4/CapSense.c ****         /* Backup sensorEnableMask array */
 632:Generated_Source\PSoC4/CapSense.c ****         CapSense_sensorEnableMaskBackup[snsIndex] = CapSense_sensorEnableMask[snsIndex];
 633:Generated_Source\PSoC4/CapSense.c ****     }
 634:Generated_Source\PSoC4/CapSense.c **** 
 635:Generated_Source\PSoC4/CapSense.c ****     /* Update sensorEnableMask to scan the sensors that belong to widget */
 636:Generated_Source\PSoC4/CapSense.c ****     for(snsIndex = 0u; snsIndex < CapSense_TOTAL_SENSOR_COUNT; snsIndex++)
 637:Generated_Source\PSoC4/CapSense.c ****     {
 638:Generated_Source\PSoC4/CapSense.c ****         /* Update sensorEnableMask array bits to scan the widget only */
 639:Generated_Source\PSoC4/CapSense.c ****         if((snsIndex >= CapSense_sensorIndex) && (snsIndex <= lastSensor))
 640:Generated_Source\PSoC4/CapSense.c ****         {
 641:Generated_Source\PSoC4/CapSense.c ****             /* Set sensor bit to scan */
 642:Generated_Source\PSoC4/CapSense.c ****             CapSense_SetBitValue(CapSense_sensorEnableMask, snsIndex, 1u);
 643:Generated_Source\PSoC4/CapSense.c ****         }
 644:Generated_Source\PSoC4/CapSense.c ****         else
 645:Generated_Source\PSoC4/CapSense.c ****         {
 646:Generated_Source\PSoC4/CapSense.c ****             /* Reset sensor bit to do not scan */
 647:Generated_Source\PSoC4/CapSense.c ****             CapSense_SetBitValue(CapSense_sensorEnableMask, snsIndex, 0u);
 648:Generated_Source\PSoC4/CapSense.c ****         }
 649:Generated_Source\PSoC4/CapSense.c ****     }
 650:Generated_Source\PSoC4/CapSense.c **** 
 651:Generated_Source\PSoC4/CapSense.c ****     /* Check end of scan condition */
 652:Generated_Source\PSoC4/CapSense.c ****     if(CapSense_sensorIndex < CapSense_TOTAL_SENSOR_COUNT)
 653:Generated_Source\PSoC4/CapSense.c ****     {
 654:Generated_Source\PSoC4/CapSense.c ****         /* Set widget busy bit in status/control variable*/
 655:Generated_Source\PSoC4/CapSense.c ****         CapSense_csdStatusVar = (CapSense_SW_STS_BUSY | CapSense_SW_CTRL_WIDGET_SCAN);
 656:Generated_Source\PSoC4/CapSense.c ****         /* Scan first sensor of widget*/
 657:Generated_Source\PSoC4/CapSense.c ****         CapSense_PreScan((uint32)CapSense_sensorIndex);
 658:Generated_Source\PSoC4/CapSense.c ****     }
 659:Generated_Source\PSoC4/CapSense.c **** }
 660:Generated_Source\PSoC4/CapSense.c **** #endif /* (0u != CapSense_CSHL_API_GENERATE) */
 661:Generated_Source\PSoC4/CapSense.c **** 
 662:Generated_Source\PSoC4/CapSense.c **** 
ARM GAS  C:\Users\young\AppData\Local\Temp\ccoFnsFE.s 			page 14


 663:Generated_Source\PSoC4/CapSense.c **** /*******************************************************************************
 664:Generated_Source\PSoC4/CapSense.c **** * Function Name: CapSense_ScanEnableWidgets
 665:Generated_Source\PSoC4/CapSense.c **** ********************************************************************************
 666:Generated_Source\PSoC4/CapSense.c **** *
 667:Generated_Source\PSoC4/CapSense.c **** * Summary:
 668:Generated_Source\PSoC4/CapSense.c **** *  This is the preferred method to scan all of the enabled widgets.
 669:Generated_Source\PSoC4/CapSense.c **** *  The API starts scanning a sensor within the enabled widgets.
 670:Generated_Source\PSoC4/CapSense.c **** *  The ISR continues scanning the sensors until all the enabled widgets are scanned.
 671:Generated_Source\PSoC4/CapSense.c **** *  Use of the ISR ensures this function is non-blocking.
 672:Generated_Source\PSoC4/CapSense.c **** *  All the widgets are enabled by default except proximity widgets.
 673:Generated_Source\PSoC4/CapSense.c **** *  The proximity widgets must be manually enabled as their long scan time
 674:Generated_Source\PSoC4/CapSense.c **** *  is incompatible with a fast response required of other widget types.
 675:Generated_Source\PSoC4/CapSense.c **** *
 676:Generated_Source\PSoC4/CapSense.c **** * Parameters:
 677:Generated_Source\PSoC4/CapSense.c **** *  None
 678:Generated_Source\PSoC4/CapSense.c **** *
 679:Generated_Source\PSoC4/CapSense.c **** * Return:
 680:Generated_Source\PSoC4/CapSense.c **** *  None
 681:Generated_Source\PSoC4/CapSense.c **** *
 682:Generated_Source\PSoC4/CapSense.c **** * Global Variables:
 683:Generated_Source\PSoC4/CapSense.c **** *  CapSense_csdStatusVar - used to provide the status and mode of the scanning process.
 684:Generated_Source\PSoC4/CapSense.c **** *  Sets the busy status(scan in progress) and clears the single scan mode.
 685:Generated_Source\PSoC4/CapSense.c **** *  CapSense_sensorIndex - used to store a sensor scanning sensor number.
 686:Generated_Source\PSoC4/CapSense.c **** *  Sets to 0xFF and provided to function CapSense_FindNextSensor or
 687:Generated_Source\PSoC4/CapSense.c **** *
 688:Generated_Source\PSoC4/CapSense.c **** * Side Effects:
 689:Generated_Source\PSoC4/CapSense.c **** *  None
 690:Generated_Source\PSoC4/CapSense.c **** *
 691:Generated_Source\PSoC4/CapSense.c **** *******************************************************************************/
 692:Generated_Source\PSoC4/CapSense.c **** void CapSense_ScanEnabledWidgets(void)
 693:Generated_Source\PSoC4/CapSense.c **** {
 694:Generated_Source\PSoC4/CapSense.c ****     /* Clears status/control variable and set sensorIndex */
 695:Generated_Source\PSoC4/CapSense.c ****     CapSense_csdStatusVar = 0u;
 696:Generated_Source\PSoC4/CapSense.c ****     CapSense_sensorIndex = 0xFFu;
 697:Generated_Source\PSoC4/CapSense.c **** 
 698:Generated_Source\PSoC4/CapSense.c ****     /* Find next sensor */
 699:Generated_Source\PSoC4/CapSense.c ****     CapSense_sensorIndex = (uint8)CapSense_FindNextSensor(CapSense_sensorIndex);
 700:Generated_Source\PSoC4/CapSense.c **** 
 701:Generated_Source\PSoC4/CapSense.c ****     /* Check end of scan condition */
 702:Generated_Source\PSoC4/CapSense.c ****     if(CapSense_sensorIndex < CapSense_TOTAL_SENSOR_COUNT)
 703:Generated_Source\PSoC4/CapSense.c ****     {
 704:Generated_Source\PSoC4/CapSense.c ****         CapSense_csdStatusVar |= CapSense_SW_STS_BUSY;
 705:Generated_Source\PSoC4/CapSense.c ****         CapSense_PreScan((uint32)CapSense_sensorIndex);
 706:Generated_Source\PSoC4/CapSense.c ****     }
 707:Generated_Source\PSoC4/CapSense.c **** }
 708:Generated_Source\PSoC4/CapSense.c **** 
 709:Generated_Source\PSoC4/CapSense.c **** 
 710:Generated_Source\PSoC4/CapSense.c **** /*******************************************************************************
 711:Generated_Source\PSoC4/CapSense.c **** * Function Name: CapSense_IsBusy
 712:Generated_Source\PSoC4/CapSense.c **** ********************************************************************************
 713:Generated_Source\PSoC4/CapSense.c **** *
 714:Generated_Source\PSoC4/CapSense.c **** * Summary:
 715:Generated_Source\PSoC4/CapSense.c **** *  Returns the state of the CapSense component. 1 means that scanning in
 716:Generated_Source\PSoC4/CapSense.c **** *  progress and 0 means that scanning is complete.
 717:Generated_Source\PSoC4/CapSense.c **** *
 718:Generated_Source\PSoC4/CapSense.c **** * Parameters:
 719:Generated_Source\PSoC4/CapSense.c **** *  None
ARM GAS  C:\Users\young\AppData\Local\Temp\ccoFnsFE.s 			page 15


 720:Generated_Source\PSoC4/CapSense.c **** *
 721:Generated_Source\PSoC4/CapSense.c **** * Return:
 722:Generated_Source\PSoC4/CapSense.c **** *  Returns the state of scanning. 1 - scanning in progress, 0 - scanning
 723:Generated_Source\PSoC4/CapSense.c **** *  completed.
 724:Generated_Source\PSoC4/CapSense.c **** *
 725:Generated_Source\PSoC4/CapSense.c **** * Global Variables:
 726:Generated_Source\PSoC4/CapSense.c **** *  CapSense_csdStatusVar - used to provide the status and mode of the scanning process.
 727:Generated_Source\PSoC4/CapSense.c **** *  Checks the busy status.
 728:Generated_Source\PSoC4/CapSense.c **** *
 729:Generated_Source\PSoC4/CapSense.c **** * Side Effects:
 730:Generated_Source\PSoC4/CapSense.c **** *  None
 731:Generated_Source\PSoC4/CapSense.c **** *
 732:Generated_Source\PSoC4/CapSense.c **** *******************************************************************************/
 733:Generated_Source\PSoC4/CapSense.c **** uint32 CapSense_IsBusy(void)
 734:Generated_Source\PSoC4/CapSense.c **** {
 735:Generated_Source\PSoC4/CapSense.c ****     return ((uint32)((0u != (CapSense_csdStatusVar & CapSense_SW_STS_BUSY)) ? 1u : 0u));
 736:Generated_Source\PSoC4/CapSense.c **** }
 737:Generated_Source\PSoC4/CapSense.c **** 
 738:Generated_Source\PSoC4/CapSense.c **** 
 739:Generated_Source\PSoC4/CapSense.c **** /*******************************************************************************
 740:Generated_Source\PSoC4/CapSense.c **** * Function Name: CapSense_ReadSensorRaw
 741:Generated_Source\PSoC4/CapSense.c **** ********************************************************************************
 742:Generated_Source\PSoC4/CapSense.c **** *
 743:Generated_Source\PSoC4/CapSense.c **** * Summary:
 744:Generated_Source\PSoC4/CapSense.c **** *  Returns sensor raw data from the global CapSense_sensorRaw[ ] array.
 745:Generated_Source\PSoC4/CapSense.c **** *  Each scan sensor has a unique number within the sensor array.
 746:Generated_Source\PSoC4/CapSense.c **** *  This number is assigned by the CapSense customizer in sequence.
 747:Generated_Source\PSoC4/CapSense.c **** *  Raw data can be used to perform calculations outside of the CapSense
 748:Generated_Source\PSoC4/CapSense.c **** *  provided framework.
 749:Generated_Source\PSoC4/CapSense.c **** *
 750:Generated_Source\PSoC4/CapSense.c **** * Parameters:
 751:Generated_Source\PSoC4/CapSense.c **** *  sensor:  Sensor number.
 752:Generated_Source\PSoC4/CapSense.c **** *
 753:Generated_Source\PSoC4/CapSense.c **** * Return:
 754:Generated_Source\PSoC4/CapSense.c **** *  Returns the current raw data value for a defined sensor number.
 755:Generated_Source\PSoC4/CapSense.c **** *
 756:Generated_Source\PSoC4/CapSense.c **** * Global Variables:
 757:Generated_Source\PSoC4/CapSense.c **** *  CapSense_sensorRaw[] - used to store sensors raw data.
 758:Generated_Source\PSoC4/CapSense.c **** *
 759:Generated_Source\PSoC4/CapSense.c **** * Side Effects:
 760:Generated_Source\PSoC4/CapSense.c **** *  None
 761:Generated_Source\PSoC4/CapSense.c **** *
 762:Generated_Source\PSoC4/CapSense.c **** *******************************************************************************/
 763:Generated_Source\PSoC4/CapSense.c **** uint16 CapSense_ReadSensorRaw(uint32 sensor)
 764:Generated_Source\PSoC4/CapSense.c **** {
 765:Generated_Source\PSoC4/CapSense.c ****     return CapSense_sensorRaw[sensor];
 766:Generated_Source\PSoC4/CapSense.c **** }
 767:Generated_Source\PSoC4/CapSense.c **** 
 768:Generated_Source\PSoC4/CapSense.c **** 
 769:Generated_Source\PSoC4/CapSense.c **** /*******************************************************************************
 770:Generated_Source\PSoC4/CapSense.c **** * Function Name: CapSense_WriteSensorRaw
 771:Generated_Source\PSoC4/CapSense.c **** ********************************************************************************
 772:Generated_Source\PSoC4/CapSense.c **** *
 773:Generated_Source\PSoC4/CapSense.c **** * Summary:
 774:Generated_Source\PSoC4/CapSense.c **** *  This API writes the raw count value passed as an argument to the sensor Raw count array.
 775:Generated_Source\PSoC4/CapSense.c **** *
 776:Generated_Source\PSoC4/CapSense.c **** * Parameters:
ARM GAS  C:\Users\young\AppData\Local\Temp\ccoFnsFE.s 			page 16


 777:Generated_Source\PSoC4/CapSense.c **** *  sensor:  Sensor number.
 778:Generated_Source\PSoC4/CapSense.c **** *  value: Raw count value.
 779:Generated_Source\PSoC4/CapSense.c **** *
 780:Generated_Source\PSoC4/CapSense.c **** * Global Variables:
 781:Generated_Source\PSoC4/CapSense.c **** *  CapSense_sensorRaw[] - used to store sensors raw data.
 782:Generated_Source\PSoC4/CapSense.c **** *
 783:Generated_Source\PSoC4/CapSense.c **** * Return:
 784:Generated_Source\PSoC4/CapSense.c **** *  None
 785:Generated_Source\PSoC4/CapSense.c **** *
 786:Generated_Source\PSoC4/CapSense.c **** * Side Effects:
 787:Generated_Source\PSoC4/CapSense.c **** *  None
 788:Generated_Source\PSoC4/CapSense.c **** *
 789:Generated_Source\PSoC4/CapSense.c **** *******************************************************************************/
 790:Generated_Source\PSoC4/CapSense.c **** void CapSense_WriteSensorRaw(uint32 sensor, uint16 value)
 791:Generated_Source\PSoC4/CapSense.c **** {
 792:Generated_Source\PSoC4/CapSense.c ****     CapSense_sensorRaw[sensor] = value;
 793:Generated_Source\PSoC4/CapSense.c **** }
 794:Generated_Source\PSoC4/CapSense.c **** 
 795:Generated_Source\PSoC4/CapSense.c **** 
 796:Generated_Source\PSoC4/CapSense.c **** #if (CapSense_TUNING_METHOD != CapSense__TUNING_NONE)
 797:Generated_Source\PSoC4/CapSense.c ****     /*******************************************************************************
 798:Generated_Source\PSoC4/CapSense.c ****     * Function Name: CapSense_SetScanResolution
 799:Generated_Source\PSoC4/CapSense.c ****     ********************************************************************************
 800:Generated_Source\PSoC4/CapSense.c ****     *
 801:Generated_Source\PSoC4/CapSense.c ****     * Summary:
 802:Generated_Source\PSoC4/CapSense.c ****     *  Sets a value of the sensor scan resolution for a widget.
 803:Generated_Source\PSoC4/CapSense.c ****     *  The MIN resolution can be set 8-bit. The MAX Resolution can be set 16 bit.
 804:Generated_Source\PSoC4/CapSense.c ****     *  This function is not available for the tuning mode "None".
 805:Generated_Source\PSoC4/CapSense.c ****     *
 806:Generated_Source\PSoC4/CapSense.c ****     * Parameters:
 807:Generated_Source\PSoC4/CapSense.c ****     *  widget:     Widget index.
 808:Generated_Source\PSoC4/CapSense.c ****     *  resolution: Represents the resolution value. The following defines which are available in th
 809:Generated_Source\PSoC4/CapSense.c ****     *              CapSense.h file should be used:
 810:Generated_Source\PSoC4/CapSense.c ****     *              CapSense_RESOLUTION_6_BITS
 811:Generated_Source\PSoC4/CapSense.c ****     *              CapSense_RESOLUTION_7_BITS
 812:Generated_Source\PSoC4/CapSense.c ****     *              CapSense_RESOLUTION_8_BITS
 813:Generated_Source\PSoC4/CapSense.c ****     *              CapSense_RESOLUTION_9_BITS
 814:Generated_Source\PSoC4/CapSense.c ****     *              CapSense_RESOLUTION_10_BITS
 815:Generated_Source\PSoC4/CapSense.c ****     *              CapSense_RESOLUTION_11_BITS
 816:Generated_Source\PSoC4/CapSense.c ****     *              CapSense_RESOLUTION_12_BITS
 817:Generated_Source\PSoC4/CapSense.c ****     *              CapSense_RESOLUTION_13_BITS
 818:Generated_Source\PSoC4/CapSense.c ****     *              CapSense_RESOLUTION_14_BITS
 819:Generated_Source\PSoC4/CapSense.c ****     *              CapSense_RESOLUTION_15_BITS
 820:Generated_Source\PSoC4/CapSense.c ****     *              CapSense_RESOLUTION_16_BITS
 821:Generated_Source\PSoC4/CapSense.c ****     *
 822:Generated_Source\PSoC4/CapSense.c ****     * Return:
 823:Generated_Source\PSoC4/CapSense.c ****     *  None
 824:Generated_Source\PSoC4/CapSense.c ****     *
 825:Generated_Source\PSoC4/CapSense.c ****     * Global Variables:
 826:Generated_Source\PSoC4/CapSense.c ****     *  CapSense_widgetResolution[] - used to store scan resolution of each widget.
 827:Generated_Source\PSoC4/CapSense.c ****     *
 828:Generated_Source\PSoC4/CapSense.c ****     * Side Effects:
 829:Generated_Source\PSoC4/CapSense.c ****     *  None
 830:Generated_Source\PSoC4/CapSense.c ****     *
 831:Generated_Source\PSoC4/CapSense.c ****     *******************************************************************************/
 832:Generated_Source\PSoC4/CapSense.c ****     void CapSense_SetScanResolution(uint32 widget, uint32 resolution)
 833:Generated_Source\PSoC4/CapSense.c ****     {
ARM GAS  C:\Users\young\AppData\Local\Temp\ccoFnsFE.s 			page 17


 834:Generated_Source\PSoC4/CapSense.c ****         CapSense_widgetResolution[widget] = resolution;
 835:Generated_Source\PSoC4/CapSense.c ****     }
 836:Generated_Source\PSoC4/CapSense.c **** #endif /* (CapSense_TUNING_METHOD != CapSense__TUNING_NONE) */
 837:Generated_Source\PSoC4/CapSense.c **** 
 838:Generated_Source\PSoC4/CapSense.c **** 
 839:Generated_Source\PSoC4/CapSense.c **** /*******************************************************************************
 840:Generated_Source\PSoC4/CapSense.c **** * Function Name: CapSense_GetScanResolution
 841:Generated_Source\PSoC4/CapSense.c **** ********************************************************************************
 842:Generated_Source\PSoC4/CapSense.c **** *
 843:Generated_Source\PSoC4/CapSense.c **** * Summary:
 844:Generated_Source\PSoC4/CapSense.c **** *  Returns the resolution value for the appropriate sensor.
 845:Generated_Source\PSoC4/CapSense.c **** *  This function is not available for tuning mode "None".
 846:Generated_Source\PSoC4/CapSense.c **** *
 847:Generated_Source\PSoC4/CapSense.c **** * Parameters:
 848:Generated_Source\PSoC4/CapSense.c **** *  widget:     Widget index.
 849:Generated_Source\PSoC4/CapSense.c **** *
 850:Generated_Source\PSoC4/CapSense.c **** * Return:
 851:Generated_Source\PSoC4/CapSense.c **** *  resolution: Returns the resolution value for the appropriate sensor.
 852:Generated_Source\PSoC4/CapSense.c **** *              The resolution values are defined in the CapSense.h file
 853:Generated_Source\PSoC4/CapSense.c **** *              The defines are encountered below:
 854:Generated_Source\PSoC4/CapSense.c **** *              CapSense_RESOLUTION_6_BITS
 855:Generated_Source\PSoC4/CapSense.c **** *              CapSense_RESOLUTION_7_BITS
 856:Generated_Source\PSoC4/CapSense.c **** *              CapSense_RESOLUTION_8_BITS
 857:Generated_Source\PSoC4/CapSense.c **** *              CapSense_RESOLUTION_9_BITS
 858:Generated_Source\PSoC4/CapSense.c **** *              CapSense_RESOLUTION_10_BITS
 859:Generated_Source\PSoC4/CapSense.c **** *              CapSense_RESOLUTION_11_BITS
 860:Generated_Source\PSoC4/CapSense.c **** *              CapSense_RESOLUTION_12_BITS
 861:Generated_Source\PSoC4/CapSense.c **** *              CapSense_RESOLUTION_13_BITS
 862:Generated_Source\PSoC4/CapSense.c **** *              CapSense_RESOLUTION_14_BITS
 863:Generated_Source\PSoC4/CapSense.c **** *              CapSense_RESOLUTION_15_BITS
 864:Generated_Source\PSoC4/CapSense.c **** *              CapSense_RESOLUTION_16_BITS
 865:Generated_Source\PSoC4/CapSense.c **** *
 866:Generated_Source\PSoC4/CapSense.c **** * Global Variables:
 867:Generated_Source\PSoC4/CapSense.c **** *  CapSense_widgetResolution[] - used to store scan resolution of every widget.
 868:Generated_Source\PSoC4/CapSense.c **** *
 869:Generated_Source\PSoC4/CapSense.c **** * Side Effects:
 870:Generated_Source\PSoC4/CapSense.c **** *  None
 871:Generated_Source\PSoC4/CapSense.c **** *
 872:Generated_Source\PSoC4/CapSense.c **** *******************************************************************************/
 873:Generated_Source\PSoC4/CapSense.c **** uint32 CapSense_GetScanResolution(uint32 widget)
 874:Generated_Source\PSoC4/CapSense.c **** {
 875:Generated_Source\PSoC4/CapSense.c ****     return(CapSense_widgetResolution[widget]);
 876:Generated_Source\PSoC4/CapSense.c **** }
 877:Generated_Source\PSoC4/CapSense.c **** 
 878:Generated_Source\PSoC4/CapSense.c **** 
 879:Generated_Source\PSoC4/CapSense.c **** /*******************************************************************************
 880:Generated_Source\PSoC4/CapSense.c **** * Function Name: CapSense_ClearSensors
 881:Generated_Source\PSoC4/CapSense.c **** ********************************************************************************
 882:Generated_Source\PSoC4/CapSense.c **** *
 883:Generated_Source\PSoC4/CapSense.c **** * Summary:
 884:Generated_Source\PSoC4/CapSense.c **** *  Resets all the sensors to the non-sampling state by sequentially disconnecting
 885:Generated_Source\PSoC4/CapSense.c **** *  all the sensors from Analog MUX Bus and putting them to an inactive state.
 886:Generated_Source\PSoC4/CapSense.c **** *
 887:Generated_Source\PSoC4/CapSense.c **** * Parameters:
 888:Generated_Source\PSoC4/CapSense.c **** *  None
 889:Generated_Source\PSoC4/CapSense.c **** *
 890:Generated_Source\PSoC4/CapSense.c **** * Return:
ARM GAS  C:\Users\young\AppData\Local\Temp\ccoFnsFE.s 			page 18


 891:Generated_Source\PSoC4/CapSense.c **** *  None
 892:Generated_Source\PSoC4/CapSense.c **** *
 893:Generated_Source\PSoC4/CapSense.c **** * Global Variables:
 894:Generated_Source\PSoC4/CapSense.c **** *  None
 895:Generated_Source\PSoC4/CapSense.c **** *
 896:Generated_Source\PSoC4/CapSense.c **** * Side Effects:
 897:Generated_Source\PSoC4/CapSense.c **** *  None
 898:Generated_Source\PSoC4/CapSense.c **** *
 899:Generated_Source\PSoC4/CapSense.c **** *******************************************************************************/
 900:Generated_Source\PSoC4/CapSense.c **** void CapSense_ClearSensors(void)
 901:Generated_Source\PSoC4/CapSense.c **** {
 902:Generated_Source\PSoC4/CapSense.c ****     uint32 snsIndex;
 903:Generated_Source\PSoC4/CapSense.c **** 
 904:Generated_Source\PSoC4/CapSense.c ****     for (snsIndex = 0u; snsIndex < CapSense_TOTAL_SENSOR_COUNT; snsIndex++)
  78              		.loc 1 904 0
  79 0028 0025     		movs	r5, #0
  80              	.LBE42:
  81              	.LBE41:
  82              	.LBB50:
  83              	.LBB40:
 272:Generated_Source\PSoC4/CapSense.c ****             newRegValue |= (uint32)((uint32)CapSense_SFLASH_CSD_TRIM1_REG & (uint32)CapSense_CSFLAS
  84              		.loc 1 272 0
  85 002a 0340     		ands	r3, r0
  86              	.LVL4:
  87 002c 1A00     		movs	r2, r3
  88              	.LVL5:
 273:Generated_Source\PSoC4/CapSense.c ****         #endif
  89              		.loc 1 273 0
  90 002e 2378     		ldrb	r3, [r4]
 281:Generated_Source\PSoC4/CapSense.c ****     #else
  91              		.loc 1 281 0
  92 0030 334C     		ldr	r4, .L7+16
 273:Generated_Source\PSoC4/CapSense.c ****         #endif
  93              		.loc 1 273 0
  94 0032 8343     		bics	r3, r0
  95 0034 1343     		orrs	r3, r2
  96              	.LVL6:
 275:Generated_Source\PSoC4/CapSense.c ****     #endif /* (CapSense_IDAC1_POLARITY == CapSense__IDAC_SINK) */
  97              		.loc 1 275 0
  98 0036 0B60     		str	r3, [r1]
 280:Generated_Source\PSoC4/CapSense.c ****         CapSense_CSD_CFG_REG = CapSense_DEFAULT_CSD_CONFIG;
  99              		.loc 1 280 0
 100 0038 324A     		ldr	r2, .L7+20
 101 003a 334B     		ldr	r3, .L7+24
 102              	.LVL7:
 303:Generated_Source\PSoC4/CapSense.c ****     #if !defined(CY_EXTERNAL_INTERRUPT_CONFIG)
 103              		.loc 1 303 0
 104 003c 0838     		subs	r0, r0, #8
 280:Generated_Source\PSoC4/CapSense.c ****         CapSense_CSD_CFG_REG = CapSense_DEFAULT_CSD_CONFIG;
 105              		.loc 1 280 0
 106 003e 1A60     		str	r2, [r3]
 107              	.LVL8:
 281:Generated_Source\PSoC4/CapSense.c ****     #else
 108              		.loc 1 281 0
 109 0040 324B     		ldr	r3, .L7+28
 292:Generated_Source\PSoC4/CapSense.c ****     newRegValue &= ~(CapSense_CSD_CMOD_CONNECTION_MASK);
 110              		.loc 1 292 0
ARM GAS  C:\Users\young\AppData\Local\Temp\ccoFnsFE.s 			page 19


 111 0042 334A     		ldr	r2, .L7+32
 281:Generated_Source\PSoC4/CapSense.c ****     #else
 112              		.loc 1 281 0
 113 0044 2360     		str	r3, [r4]
 292:Generated_Source\PSoC4/CapSense.c ****     newRegValue &= ~(CapSense_CSD_CMOD_CONNECTION_MASK);
 114              		.loc 1 292 0
 115 0046 1168     		ldr	r1, [r2]
 116              	.LVL9:
 293:Generated_Source\PSoC4/CapSense.c ****     newRegValue |= CapSense_CSD_CMOD_TO_AMUXBUS_A;
 117              		.loc 1 293 0
 118 0048 324B     		ldr	r3, .L7+36
 119 004a 0B40     		ands	r3, r1
 120              	.LVL10:
 294:Generated_Source\PSoC4/CapSense.c ****     CapSense_CMOD_CONNECTION_REG = newRegValue;
 121              		.loc 1 294 0
 122 004c C021     		movs	r1, #192
 123 004e C902     		lsls	r1, r1, #11
 124 0050 0B43     		orrs	r3, r1
 125              	.LVL11:
 295:Generated_Source\PSoC4/CapSense.c **** 
 126              		.loc 1 295 0
 127 0052 1360     		str	r3, [r2]
 303:Generated_Source\PSoC4/CapSense.c ****     #if !defined(CY_EXTERNAL_INTERRUPT_CONFIG)
 128              		.loc 1 303 0
 129 0054 FFF7FEFF 		bl	CyIntDisable
 130              	.LVL12:
 305:Generated_Source\PSoC4/CapSense.c ****         CyIntSetPriority(CapSense_ISR_NUMBER, CapSense_ISR_PRIORITY);
 131              		.loc 1 305 0
 132 0058 2F49     		ldr	r1, .L7+40
 133 005a 0720     		movs	r0, #7
 134 005c FFF7FEFF 		bl	CyIntSetVector
 135              	.LVL13:
 306:Generated_Source\PSoC4/CapSense.c ****     #endif /* (CY_EXTERNAL_INTERRUPT_CONFIG) */
 136              		.loc 1 306 0
 137 0060 0321     		movs	r1, #3
 138 0062 0720     		movs	r0, #7
 139 0064 FFF7FEFF 		bl	CyIntSetPriority
 140              	.LVL14:
 141              	.LBE40:
 142              	.LBE50:
 143              	.LBB51:
 144              	.LBB52:
 905:Generated_Source\PSoC4/CapSense.c ****     {
 906:Generated_Source\PSoC4/CapSense.c ****         CapSense_DisableScanSlot(snsIndex);
 907:Generated_Source\PSoC4/CapSense.c ****     }
 908:Generated_Source\PSoC4/CapSense.c **** }
 909:Generated_Source\PSoC4/CapSense.c **** 
 910:Generated_Source\PSoC4/CapSense.c **** 
 911:Generated_Source\PSoC4/CapSense.c **** #if (CapSense_IS_COMPLEX_SCANSLOTS)
 912:Generated_Source\PSoC4/CapSense.c ****     /*******************************************************************************
 913:Generated_Source\PSoC4/CapSense.c ****     * Function Name: CapSense_EnableScanSlot
 914:Generated_Source\PSoC4/CapSense.c ****     ********************************************************************************
 915:Generated_Source\PSoC4/CapSense.c ****     *
 916:Generated_Source\PSoC4/CapSense.c ****     * Summary:
 917:Generated_Source\PSoC4/CapSense.c ****     *  Configures the selected slot to measure during the next measurement
 918:Generated_Source\PSoC4/CapSense.c ****     *  cycle. The corresponding pin/pins are set to Analog High-Z mode and
 919:Generated_Source\PSoC4/CapSense.c ****     *  connected to the Analog Mux Bus. This also enables the comparator function.
ARM GAS  C:\Users\young\AppData\Local\Temp\ccoFnsFE.s 			page 20


 920:Generated_Source\PSoC4/CapSense.c ****     *
 921:Generated_Source\PSoC4/CapSense.c ****     * Parameters:
 922:Generated_Source\PSoC4/CapSense.c ****     *  slot:  Slot number.
 923:Generated_Source\PSoC4/CapSense.c ****     *
 924:Generated_Source\PSoC4/CapSense.c ****     * Return:
 925:Generated_Source\PSoC4/CapSense.c ****     *  None
 926:Generated_Source\PSoC4/CapSense.c ****     *
 927:Generated_Source\PSoC4/CapSense.c ****     * Global Constants:
 928:Generated_Source\PSoC4/CapSense.c ****     *  CapSense_portTable[]  - used to store the port number that pin
 929:Generated_Source\PSoC4/CapSense.c ****     *  belongs to for each sensor.
 930:Generated_Source\PSoC4/CapSense.c ****     *  CapSense_maskTable[]  - used to store the pin within the port for
 931:Generated_Source\PSoC4/CapSense.c ****     *  each sensor.
 932:Generated_Source\PSoC4/CapSense.c ****     *  CapSense_indexTable[] - used to store indexes of complex sensors.
 933:Generated_Source\PSoC4/CapSense.c ****     *  The offset and position in this array are stored in a port and mask table for
 934:Generated_Source\PSoC4/CapSense.c ****     *  complex sensors.
 935:Generated_Source\PSoC4/CapSense.c ****     *  Bit 7 (msb) is used to define the sensor type: single or complex.
 936:Generated_Source\PSoC4/CapSense.c ****     *
 937:Generated_Source\PSoC4/CapSense.c ****     * Side Effects:
 938:Generated_Source\PSoC4/CapSense.c ****     *  None
 939:Generated_Source\PSoC4/CapSense.c ****     *
 940:Generated_Source\PSoC4/CapSense.c ****     *******************************************************************************/
 941:Generated_Source\PSoC4/CapSense.c ****     void CapSense_EnableScanSlot(uint32 slot)
 942:Generated_Source\PSoC4/CapSense.c ****     {
 943:Generated_Source\PSoC4/CapSense.c ****         uint8 j;
 944:Generated_Source\PSoC4/CapSense.c ****         uint8 snsNumber;
 945:Generated_Source\PSoC4/CapSense.c ****         const uint8 *index;
 946:Generated_Source\PSoC4/CapSense.c ****         /* Read sensor type: single or complex */
 947:Generated_Source\PSoC4/CapSense.c ****         uint8 snsType = CapSense_portTable[slot];
 948:Generated_Source\PSoC4/CapSense.c **** 
 949:Generated_Source\PSoC4/CapSense.c ****         /* Check if sensor is complex */
 950:Generated_Source\PSoC4/CapSense.c ****         if ((snsType & CapSense_COMPLEX_SS_FLAG) == 0u)
 951:Generated_Source\PSoC4/CapSense.c ****         {
 952:Generated_Source\PSoC4/CapSense.c ****             /* Enable sensor (single) */
 953:Generated_Source\PSoC4/CapSense.c ****             CapSense_EnableSensor(slot);
 954:Generated_Source\PSoC4/CapSense.c ****         }
 955:Generated_Source\PSoC4/CapSense.c ****         else
 956:Generated_Source\PSoC4/CapSense.c ****         {
 957:Generated_Source\PSoC4/CapSense.c ****             /* Enable complex sensor */
 958:Generated_Source\PSoC4/CapSense.c ****             snsType &= ~CapSense_COMPLEX_SS_FLAG;
 959:Generated_Source\PSoC4/CapSense.c ****             index = &CapSense_indexTable[snsType];
 960:Generated_Source\PSoC4/CapSense.c ****             snsNumber = CapSense_maskTable[slot];
 961:Generated_Source\PSoC4/CapSense.c **** 
 962:Generated_Source\PSoC4/CapSense.c ****             for (j = 0u; j < snsNumber; j++)
 963:Generated_Source\PSoC4/CapSense.c ****             {
 964:Generated_Source\PSoC4/CapSense.c ****                 CapSense_EnableSensor(index[j]);
 965:Generated_Source\PSoC4/CapSense.c ****             }
 966:Generated_Source\PSoC4/CapSense.c ****         }
 967:Generated_Source\PSoC4/CapSense.c ****     }
 968:Generated_Source\PSoC4/CapSense.c **** 
 969:Generated_Source\PSoC4/CapSense.c **** 
 970:Generated_Source\PSoC4/CapSense.c ****     /*******************************************************************************
 971:Generated_Source\PSoC4/CapSense.c ****     * Function Name: CapSense_DisableScanSlot
 972:Generated_Source\PSoC4/CapSense.c ****     ********************************************************************************
 973:Generated_Source\PSoC4/CapSense.c ****     *
 974:Generated_Source\PSoC4/CapSense.c ****     * Summary:
 975:Generated_Source\PSoC4/CapSense.c ****     *  Disables the selected slot. The corresponding pin/pins is/are disconnected
 976:Generated_Source\PSoC4/CapSense.c ****     *  from the Analog Mux Bus and connected to GND, High_Z or Shield electrode.
ARM GAS  C:\Users\young\AppData\Local\Temp\ccoFnsFE.s 			page 21


 977:Generated_Source\PSoC4/CapSense.c ****     *
 978:Generated_Source\PSoC4/CapSense.c ****     * Parameters:
 979:Generated_Source\PSoC4/CapSense.c ****     *  slot:  Slot number.
 980:Generated_Source\PSoC4/CapSense.c ****     *
 981:Generated_Source\PSoC4/CapSense.c ****     * Return:
 982:Generated_Source\PSoC4/CapSense.c ****     *  None
 983:Generated_Source\PSoC4/CapSense.c ****     *
 984:Generated_Source\PSoC4/CapSense.c ****     * Global Variables:
 985:Generated_Source\PSoC4/CapSense.c ****     *  CapSense_portTable[]  - used to store the port number that pin
 986:Generated_Source\PSoC4/CapSense.c ****     *  belongs to for each sensor.
 987:Generated_Source\PSoC4/CapSense.c ****     *  CapSense_maskTable[]  - used to store the pin within the port for
 988:Generated_Source\PSoC4/CapSense.c ****     *  each sensor.
 989:Generated_Source\PSoC4/CapSense.c ****     *  CapSense_indexTable[] - used to store indexes of complex sensors.
 990:Generated_Source\PSoC4/CapSense.c ****     *  The offset and position in this array are stored in a port and mask table for
 991:Generated_Source\PSoC4/CapSense.c ****     *  complex sensors.
 992:Generated_Source\PSoC4/CapSense.c ****     *  7bit(msb) is used to define the sensor type: single or complex.
 993:Generated_Source\PSoC4/CapSense.c ****     *
 994:Generated_Source\PSoC4/CapSense.c ****     * Side Effects:
 995:Generated_Source\PSoC4/CapSense.c ****     *  None
 996:Generated_Source\PSoC4/CapSense.c ****     *
 997:Generated_Source\PSoC4/CapSense.c ****     *******************************************************************************/
 998:Generated_Source\PSoC4/CapSense.c ****     void CapSense_DisableScanSlot(uint32 slot)
 999:Generated_Source\PSoC4/CapSense.c ****     {
1000:Generated_Source\PSoC4/CapSense.c ****         uint8 j;
1001:Generated_Source\PSoC4/CapSense.c ****         uint8 snsNumber;
1002:Generated_Source\PSoC4/CapSense.c ****         const uint8 *index;
1003:Generated_Source\PSoC4/CapSense.c **** 
1004:Generated_Source\PSoC4/CapSense.c ****         /* Read sensor type: single or complex */
1005:Generated_Source\PSoC4/CapSense.c ****         uint8 snsType = CapSense_portTable[slot];
1006:Generated_Source\PSoC4/CapSense.c **** 
1007:Generated_Source\PSoC4/CapSense.c ****         /* Check if sensor is complex */
1008:Generated_Source\PSoC4/CapSense.c ****         if ((snsType & CapSense_COMPLEX_SS_FLAG) == 0u)
1009:Generated_Source\PSoC4/CapSense.c ****         {
1010:Generated_Source\PSoC4/CapSense.c ****             /* Disable sensor (single) */
1011:Generated_Source\PSoC4/CapSense.c ****             CapSense_DisableSensor(slot);
1012:Generated_Source\PSoC4/CapSense.c ****         }
1013:Generated_Source\PSoC4/CapSense.c ****         else
1014:Generated_Source\PSoC4/CapSense.c ****         {
1015:Generated_Source\PSoC4/CapSense.c ****             /* Disable complex sensor */
1016:Generated_Source\PSoC4/CapSense.c ****             snsType &= ~CapSense_COMPLEX_SS_FLAG;
1017:Generated_Source\PSoC4/CapSense.c ****             index = &CapSense_indexTable[snsType];
1018:Generated_Source\PSoC4/CapSense.c ****             snsNumber = CapSense_maskTable[slot];
1019:Generated_Source\PSoC4/CapSense.c **** 
1020:Generated_Source\PSoC4/CapSense.c ****             for (j=0; j < snsNumber; j++)
1021:Generated_Source\PSoC4/CapSense.c ****             {
1022:Generated_Source\PSoC4/CapSense.c ****                 CapSense_DisableSensor(index[j]);
1023:Generated_Source\PSoC4/CapSense.c ****             }
1024:Generated_Source\PSoC4/CapSense.c ****         }
1025:Generated_Source\PSoC4/CapSense.c ****     }
1026:Generated_Source\PSoC4/CapSense.c **** #endif  /* CapSense_IS_COMPLEX_SCANSLOTS */
1027:Generated_Source\PSoC4/CapSense.c **** 
1028:Generated_Source\PSoC4/CapSense.c **** 
1029:Generated_Source\PSoC4/CapSense.c **** /*******************************************************************************
1030:Generated_Source\PSoC4/CapSense.c **** * Function Name: CapSense_EnableSensor
1031:Generated_Source\PSoC4/CapSense.c **** ********************************************************************************
1032:Generated_Source\PSoC4/CapSense.c **** *
1033:Generated_Source\PSoC4/CapSense.c **** * Summary:
ARM GAS  C:\Users\young\AppData\Local\Temp\ccoFnsFE.s 			page 22


1034:Generated_Source\PSoC4/CapSense.c **** *  Configures the selected sensor to measure during the next measurement cycle.
1035:Generated_Source\PSoC4/CapSense.c **** *  The corresponding pins are set to Analog High-Z mode and connected to the
1036:Generated_Source\PSoC4/CapSense.c **** *  Analog Mux Bus. This also enables the comparator function.
1037:Generated_Source\PSoC4/CapSense.c **** *
1038:Generated_Source\PSoC4/CapSense.c **** * Parameters:
1039:Generated_Source\PSoC4/CapSense.c **** *  sensor:  Sensor number.
1040:Generated_Source\PSoC4/CapSense.c **** *
1041:Generated_Source\PSoC4/CapSense.c **** * Return:
1042:Generated_Source\PSoC4/CapSense.c **** *  None
1043:Generated_Source\PSoC4/CapSense.c **** *
1044:Generated_Source\PSoC4/CapSense.c **** * Global Variables:
1045:Generated_Source\PSoC4/CapSense.c **** *  CapSense_portTable[] - used to store the port number that pin
1046:Generated_Source\PSoC4/CapSense.c **** *  belongs to for each sensor.
1047:Generated_Source\PSoC4/CapSense.c **** *  CapSense_pinShiftTbl[] - used to store position of pin that
1048:Generated_Source\PSoC4/CapSense.c **** *  configured as sensor in port.
1049:Generated_Source\PSoC4/CapSense.c **** *  CapSense_prtSelTbl[] - Contains pointers to the HSIOM
1050:Generated_Source\PSoC4/CapSense.c **** *  registers for each port.
1051:Generated_Source\PSoC4/CapSense.c **** *  CapSense_PrtCfgTb[] - Contains pointers to the port config
1052:Generated_Source\PSoC4/CapSense.c **** *  registers for each port.
1053:Generated_Source\PSoC4/CapSense.c **** *
1054:Generated_Source\PSoC4/CapSense.c **** * Side Effects:
1055:Generated_Source\PSoC4/CapSense.c **** *  None
1056:Generated_Source\PSoC4/CapSense.c **** *
1057:Generated_Source\PSoC4/CapSense.c **** *******************************************************************************/
1058:Generated_Source\PSoC4/CapSense.c **** void CapSense_EnableSensor(uint32 sensor)
1059:Generated_Source\PSoC4/CapSense.c **** {
1060:Generated_Source\PSoC4/CapSense.c ****     uint8  pinModeShift;
1061:Generated_Source\PSoC4/CapSense.c ****     uint8  pinHSIOMShift;
1062:Generated_Source\PSoC4/CapSense.c ****     uint8 interruptState;
1063:Generated_Source\PSoC4/CapSense.c ****     uint32 newRegisterValue;
1064:Generated_Source\PSoC4/CapSense.c ****     uint32 port;
1065:Generated_Source\PSoC4/CapSense.c **** 
1066:Generated_Source\PSoC4/CapSense.c ****     port = (uint32) CapSense_portTable[sensor];
1067:Generated_Source\PSoC4/CapSense.c ****     pinModeShift = CapSense_pinShiftTbl[sensor]  * CapSense_PC_PIN_CFG_SIZE;
1068:Generated_Source\PSoC4/CapSense.c ****     pinHSIOMShift = CapSense_pinShiftTbl[sensor] * CapSense_HSIOM_PIN_CFG_SIZE;
1069:Generated_Source\PSoC4/CapSense.c **** 
1070:Generated_Source\PSoC4/CapSense.c ****     interruptState = CyEnterCriticalSection();
1071:Generated_Source\PSoC4/CapSense.c **** 
1072:Generated_Source\PSoC4/CapSense.c ****     newRegisterValue = *CapSense_prtSelTbl[port];
1073:Generated_Source\PSoC4/CapSense.c ****     newRegisterValue &= ~(CapSense_CSD_HSIOM_MASK << pinHSIOMShift);
1074:Generated_Source\PSoC4/CapSense.c ****     newRegisterValue |= (uint32)((uint32)CapSense_CSD_SENSE_PORT_MODE << pinHSIOMShift);
1075:Generated_Source\PSoC4/CapSense.c **** 
1076:Generated_Source\PSoC4/CapSense.c ****     *CapSense_prtCfgTbl[port] &= (uint32)~((uint32)CapSense_CSD_PIN_MODE_MASK << pinModeShift);
1077:Generated_Source\PSoC4/CapSense.c ****     *CapSense_prtSelTbl[port] = newRegisterValue;
1078:Generated_Source\PSoC4/CapSense.c **** 
1079:Generated_Source\PSoC4/CapSense.c ****     CyExitCriticalSection(interruptState);
1080:Generated_Source\PSoC4/CapSense.c **** }
1081:Generated_Source\PSoC4/CapSense.c **** 
1082:Generated_Source\PSoC4/CapSense.c **** 
1083:Generated_Source\PSoC4/CapSense.c **** /*******************************************************************************
1084:Generated_Source\PSoC4/CapSense.c **** * Function Name: CapSense_DisableSensor
1085:Generated_Source\PSoC4/CapSense.c **** ********************************************************************************
1086:Generated_Source\PSoC4/CapSense.c **** *
1087:Generated_Source\PSoC4/CapSense.c **** * Summary:
1088:Generated_Source\PSoC4/CapSense.c **** *  Disables the selected sensor. The corresponding pin is disconnected from the
1089:Generated_Source\PSoC4/CapSense.c **** *  Analog Mux Bus and connected to GND, High_Z or Shield electrode.
1090:Generated_Source\PSoC4/CapSense.c **** *
ARM GAS  C:\Users\young\AppData\Local\Temp\ccoFnsFE.s 			page 23


1091:Generated_Source\PSoC4/CapSense.c **** * Parameters:
1092:Generated_Source\PSoC4/CapSense.c **** *  sensor:  Sensor number
1093:Generated_Source\PSoC4/CapSense.c **** *
1094:Generated_Source\PSoC4/CapSense.c **** * Return:
1095:Generated_Source\PSoC4/CapSense.c **** *  None
1096:Generated_Source\PSoC4/CapSense.c **** *
1097:Generated_Source\PSoC4/CapSense.c **** * Global Variables:
1098:Generated_Source\PSoC4/CapSense.c **** *  CapSense_portTable[] - used to store the port number that pin
1099:Generated_Source\PSoC4/CapSense.c **** *  belongs to for each sensor.
1100:Generated_Source\PSoC4/CapSense.c **** *  CapSense_pinShiftTbl[] - used to store position of pin that
1101:Generated_Source\PSoC4/CapSense.c **** *  configured as a sensor in the port.
1102:Generated_Source\PSoC4/CapSense.c **** *  CapSense_prtSelTbl[] - Contains pointers to the HSIOM
1103:Generated_Source\PSoC4/CapSense.c **** *  registers for each port.
1104:Generated_Source\PSoC4/CapSense.c **** *  CapSense_PrtCfgTb[] - Contains pointers to the port config
1105:Generated_Source\PSoC4/CapSense.c **** *  registers for each port.
1106:Generated_Source\PSoC4/CapSense.c **** *
1107:Generated_Source\PSoC4/CapSense.c **** * Side Effects:
1108:Generated_Source\PSoC4/CapSense.c **** *  None
1109:Generated_Source\PSoC4/CapSense.c **** *
1110:Generated_Source\PSoC4/CapSense.c **** *******************************************************************************/
1111:Generated_Source\PSoC4/CapSense.c **** void CapSense_DisableSensor(uint32 sensor)
1112:Generated_Source\PSoC4/CapSense.c **** {
1113:Generated_Source\PSoC4/CapSense.c ****     uint8 interruptState;
1114:Generated_Source\PSoC4/CapSense.c ****     uint32 newRegisterValue;
1115:Generated_Source\PSoC4/CapSense.c **** 
1116:Generated_Source\PSoC4/CapSense.c ****     uint32 port = (uint32) CapSense_portTable[sensor];
1117:Generated_Source\PSoC4/CapSense.c ****     uint8  pinHSIOMShift = CapSense_pinShiftTbl[sensor] * CapSense_HSIOM_PIN_CFG_SIZE;
1118:Generated_Source\PSoC4/CapSense.c ****     uint8  pinModeShift = CapSense_pinShiftTbl[sensor]  * CapSense_PC_PIN_CFG_SIZE;
1119:Generated_Source\PSoC4/CapSense.c **** 
1120:Generated_Source\PSoC4/CapSense.c ****     uint32 inactiveConnect = CapSense_SNS_HIZANALOG_CONNECT;
1121:Generated_Source\PSoC4/CapSense.c ****     uint32 sensorState = CapSense_unscannedSnsDriveMode[sensor];
1122:Generated_Source\PSoC4/CapSense.c **** 
1123:Generated_Source\PSoC4/CapSense.c ****     *CapSense_prtSelTbl[port] &= ~(CapSense_CSD_HSIOM_MASK << pinHSIOMShift);
1124:Generated_Source\PSoC4/CapSense.c **** 
1125:Generated_Source\PSoC4/CapSense.c ****     #if(CapSense_IS_SHIELD_ENABLE != 0)
1126:Generated_Source\PSoC4/CapSense.c ****     if(sensorState != (uint32)CapSense__SHIELD)
1127:Generated_Source\PSoC4/CapSense.c ****     {
1128:Generated_Source\PSoC4/CapSense.c ****     #else
1129:Generated_Source\PSoC4/CapSense.c ****         /* Connected to Ground if shield is disabled */
1130:Generated_Source\PSoC4/CapSense.c ****         if(sensorState == (uint32)CapSense__SHIELD)
1131:Generated_Source\PSoC4/CapSense.c ****         {
1132:Generated_Source\PSoC4/CapSense.c ****             sensorState = (uint32)CapSense__GROUND;
1133:Generated_Source\PSoC4/CapSense.c ****         }
1134:Generated_Source\PSoC4/CapSense.c ****     #endif /* (CapSense_IS_SHIELD_ENABLE) */
1135:Generated_Source\PSoC4/CapSense.c ****         if(sensorState != (uint32)CapSense__HIZ_ANALOG)
1136:Generated_Source\PSoC4/CapSense.c ****         {
1137:Generated_Source\PSoC4/CapSense.c ****             /* Connected to Ground */
1138:Generated_Source\PSoC4/CapSense.c ****             inactiveConnect = (uint32)CapSense_SNS_GROUND_CONNECT;
1139:Generated_Source\PSoC4/CapSense.c ****         }
1140:Generated_Source\PSoC4/CapSense.c **** 
1141:Generated_Source\PSoC4/CapSense.c ****         interruptState = CyEnterCriticalSection();
1142:Generated_Source\PSoC4/CapSense.c **** 
1143:Generated_Source\PSoC4/CapSense.c ****         /* Set drive mode */
1144:Generated_Source\PSoC4/CapSense.c ****         newRegisterValue = *CapSense_prtCfgTbl[port];
1145:Generated_Source\PSoC4/CapSense.c ****         newRegisterValue &= ~(CapSense_CSD_PIN_MODE_MASK << pinModeShift);
1146:Generated_Source\PSoC4/CapSense.c ****         newRegisterValue |=  (uint32)(inactiveConnect << pinModeShift);
1147:Generated_Source\PSoC4/CapSense.c ****         *CapSense_prtCfgTbl[port] =  newRegisterValue;
ARM GAS  C:\Users\young\AppData\Local\Temp\ccoFnsFE.s 			page 24


1148:Generated_Source\PSoC4/CapSense.c **** 
1149:Generated_Source\PSoC4/CapSense.c ****         CyExitCriticalSection(interruptState);
1150:Generated_Source\PSoC4/CapSense.c **** 
1151:Generated_Source\PSoC4/CapSense.c ****         *CapSense_prtDRTbl[port]  &=  (uint32)~(uint32)((uint32)1u << CapSense_pinShiftTbl[sensor])
1152:Generated_Source\PSoC4/CapSense.c ****     #if(CapSense_IS_SHIELD_ENABLE != 0)
1153:Generated_Source\PSoC4/CapSense.c ****     }
1154:Generated_Source\PSoC4/CapSense.c ****     else
1155:Generated_Source\PSoC4/CapSense.c ****     {
1156:Generated_Source\PSoC4/CapSense.c ****         /* Connect to Shield */
1157:Generated_Source\PSoC4/CapSense.c ****         *CapSense_prtSelTbl[port] |= (CapSense_CSD_SHIELD_PORT_MODE << pinHSIOMShift);
1158:Generated_Source\PSoC4/CapSense.c ****     }
1159:Generated_Source\PSoC4/CapSense.c ****     #endif /* (CapSense_IS_SHIELD_ENABLE) */
1160:Generated_Source\PSoC4/CapSense.c **** }
1161:Generated_Source\PSoC4/CapSense.c **** 
1162:Generated_Source\PSoC4/CapSense.c **** 
1163:Generated_Source\PSoC4/CapSense.c **** /*******************************************************************************
1164:Generated_Source\PSoC4/CapSense.c **** * Function Name: CapSense_SetDriveModeAllPins
1165:Generated_Source\PSoC4/CapSense.c **** ********************************************************************************
1166:Generated_Source\PSoC4/CapSense.c **** *
1167:Generated_Source\PSoC4/CapSense.c **** * Summary:
1168:Generated_Source\PSoC4/CapSense.c **** * This API sets the drive mode of port pins used by the CapSense
1169:Generated_Source\PSoC4/CapSense.c **** * component (sensors, guard, shield, shield tank and Cmod) to drive the
1170:Generated_Source\PSoC4/CapSense.c **** * mode specified by the argument.
1171:Generated_Source\PSoC4/CapSense.c **** *
1172:Generated_Source\PSoC4/CapSense.c **** * Parameters:
1173:Generated_Source\PSoC4/CapSense.c **** *  driveMode:  Drive mode definition.
1174:Generated_Source\PSoC4/CapSense.c **** *
1175:Generated_Source\PSoC4/CapSense.c **** * Return:
1176:Generated_Source\PSoC4/CapSense.c **** *  None
1177:Generated_Source\PSoC4/CapSense.c **** *
1178:Generated_Source\PSoC4/CapSense.c **** * Global Variables:
1179:Generated_Source\PSoC4/CapSense.c **** *  CapSense_portTable[] - used to store the port number that pin
1180:Generated_Source\PSoC4/CapSense.c **** *  belongs to for each sensor.
1181:Generated_Source\PSoC4/CapSense.c **** *  CapSense_pinShiftTbl[] - used to store position of pin that
1182:Generated_Source\PSoC4/CapSense.c **** *  configured as a sensor in the port.
1183:Generated_Source\PSoC4/CapSense.c **** *
1184:Generated_Source\PSoC4/CapSense.c **** * Side Effects:
1185:Generated_Source\PSoC4/CapSense.c **** *  This API shall be called only after CapSense component is stopped.
1186:Generated_Source\PSoC4/CapSense.c **** *
1187:Generated_Source\PSoC4/CapSense.c **** *******************************************************************************/
1188:Generated_Source\PSoC4/CapSense.c **** void CapSense_SetDriveModeAllPins(uint32 driveMode)
1189:Generated_Source\PSoC4/CapSense.c **** {
1190:Generated_Source\PSoC4/CapSense.c ****     uint8 curSensor;
1191:Generated_Source\PSoC4/CapSense.c ****     #if (CapSense_IS_COMPLEX_SCANSLOTS)
1192:Generated_Source\PSoC4/CapSense.c ****         uint8 snsNumber;
1193:Generated_Source\PSoC4/CapSense.c ****         uint8 snsType;
1194:Generated_Source\PSoC4/CapSense.c ****     #endif  /* CapSense_IS_COMPLEX_SCANSLOTS */
1195:Generated_Source\PSoC4/CapSense.c ****     uint32 prtNumberTmp;
1196:Generated_Source\PSoC4/CapSense.c ****     uint32 pinNumberTmp;
1197:Generated_Source\PSoC4/CapSense.c **** 
1198:Generated_Source\PSoC4/CapSense.c ****     for(curSensor = 0u; curSensor < CapSense_TOTAL_SENSOR_COUNT; curSensor++)
1199:Generated_Source\PSoC4/CapSense.c ****     {
1200:Generated_Source\PSoC4/CapSense.c ****         #if (CapSense_IS_COMPLEX_SCANSLOTS)
1201:Generated_Source\PSoC4/CapSense.c ****             /* Read sensor type: single or complex */
1202:Generated_Source\PSoC4/CapSense.c ****             snsType = CapSense_portTable[curSensor];
1203:Generated_Source\PSoC4/CapSense.c **** 
1204:Generated_Source\PSoC4/CapSense.c ****             /* Check if sensor is complex */
ARM GAS  C:\Users\young\AppData\Local\Temp\ccoFnsFE.s 			page 25


1205:Generated_Source\PSoC4/CapSense.c ****             if ((snsType & CapSense_COMPLEX_SS_FLAG) == 0u)
1206:Generated_Source\PSoC4/CapSense.c ****             {
1207:Generated_Source\PSoC4/CapSense.c ****                 /* The sensor is not complex */
1208:Generated_Source\PSoC4/CapSense.c ****                 snsNumber = curSensor;
1209:Generated_Source\PSoC4/CapSense.c ****             }
1210:Generated_Source\PSoC4/CapSense.c ****             else
1211:Generated_Source\PSoC4/CapSense.c ****             {
1212:Generated_Source\PSoC4/CapSense.c ****                 /* Get dedicated sensor ID of the complex sensor */
1213:Generated_Source\PSoC4/CapSense.c ****                 snsType &= ~CapSense_COMPLEX_SS_FLAG;
1214:Generated_Source\PSoC4/CapSense.c ****                 snsNumber = CapSense_indexTable[snsType];
1215:Generated_Source\PSoC4/CapSense.c ****             }
1216:Generated_Source\PSoC4/CapSense.c **** 
1217:Generated_Source\PSoC4/CapSense.c ****             prtNumberTmp = CapSense_portTable[snsNumber];
1218:Generated_Source\PSoC4/CapSense.c ****             pinNumberTmp = CapSense_pinShiftTbl[snsNumber];
1219:Generated_Source\PSoC4/CapSense.c ****         #else
1220:Generated_Source\PSoC4/CapSense.c ****             prtNumberTmp = CapSense_portTable[curSensor];
1221:Generated_Source\PSoC4/CapSense.c ****             pinNumberTmp = CapSense_pinShiftTbl[curSensor];
1222:Generated_Source\PSoC4/CapSense.c ****         #endif  /* CapSense_IS_COMPLEX_SCANSLOTS */
1223:Generated_Source\PSoC4/CapSense.c **** 
1224:Generated_Source\PSoC4/CapSense.c ****         CapSense_SetPinDriveMode(driveMode, pinNumberTmp, prtNumberTmp);
1225:Generated_Source\PSoC4/CapSense.c ****     }
1226:Generated_Source\PSoC4/CapSense.c **** 
1227:Generated_Source\PSoC4/CapSense.c ****     CapSense_SetPinDriveMode(driveMode, (uint32)CapSense_CMOD_PIN_NUMBER, (uint32)CapSense_CMOD_PRT
1228:Generated_Source\PSoC4/CapSense.c **** 
1229:Generated_Source\PSoC4/CapSense.c ****     #if(0u != CapSense_CSH_TANK_ENABLE)
1230:Generated_Source\PSoC4/CapSense.c ****         CapSense_SetPinDriveMode(driveMode, (uint32)CapSense_CTANK_PIN_NUMBER, (uint32)CapSense_CTA
1231:Generated_Source\PSoC4/CapSense.c ****     #endif /* (0u != CapSense_CSH_TANK_ENABLE) */
1232:Generated_Source\PSoC4/CapSense.c **** 
1233:Generated_Source\PSoC4/CapSense.c ****     #if(0u != CapSense_IS_SHIELD_ENABLE)
1234:Generated_Source\PSoC4/CapSense.c ****         CapSense_SetPinDriveMode(driveMode, (uint32)CapSense_SHIELD_PIN_NUMBER, (uint32)CapSense_SH
1235:Generated_Source\PSoC4/CapSense.c ****     #endif /* (0u != CapSense_IS_SHIELD_ENABLE) */
1236:Generated_Source\PSoC4/CapSense.c **** }
1237:Generated_Source\PSoC4/CapSense.c **** 
1238:Generated_Source\PSoC4/CapSense.c **** 
1239:Generated_Source\PSoC4/CapSense.c **** /*******************************************************************************
1240:Generated_Source\PSoC4/CapSense.c **** * Function Name: CapSense_RestoreDriveModeAllPins
1241:Generated_Source\PSoC4/CapSense.c **** ********************************************************************************
1242:Generated_Source\PSoC4/CapSense.c **** *
1243:Generated_Source\PSoC4/CapSense.c **** * Summary:
1244:Generated_Source\PSoC4/CapSense.c **** *  This API restores the drive for all the CapSense port pins to the original
1245:Generated_Source\PSoC4/CapSense.c **** *  state.
1246:Generated_Source\PSoC4/CapSense.c **** *
1247:Generated_Source\PSoC4/CapSense.c **** * Parameters:
1248:Generated_Source\PSoC4/CapSense.c **** *  None
1249:Generated_Source\PSoC4/CapSense.c **** *
1250:Generated_Source\PSoC4/CapSense.c **** * Return:
1251:Generated_Source\PSoC4/CapSense.c **** *  None
1252:Generated_Source\PSoC4/CapSense.c **** *
1253:Generated_Source\PSoC4/CapSense.c **** * Global Variables:
1254:Generated_Source\PSoC4/CapSense.c **** *  CapSense_prtSelTbl[] - Contains pointers to the HSIOM
1255:Generated_Source\PSoC4/CapSense.c **** *  registers for each port.
1256:Generated_Source\PSoC4/CapSense.c **** *
1257:Generated_Source\PSoC4/CapSense.c **** * Side Effects:
1258:Generated_Source\PSoC4/CapSense.c **** *  This API is called only after the CapSense component is stopped.
1259:Generated_Source\PSoC4/CapSense.c **** *
1260:Generated_Source\PSoC4/CapSense.c **** *******************************************************************************/
1261:Generated_Source\PSoC4/CapSense.c **** void CapSense_RestoreDriveModeAllPins(void)
ARM GAS  C:\Users\young\AppData\Local\Temp\ccoFnsFE.s 			page 26


1262:Generated_Source\PSoC4/CapSense.c **** {
1263:Generated_Source\PSoC4/CapSense.c ****     uint32 newRegisterValue;
1264:Generated_Source\PSoC4/CapSense.c **** 
1265:Generated_Source\PSoC4/CapSense.c ****     CapSense_SetDriveModeAllPins(CY_SYS_PINS_DM_ALG_HIZ);
1266:Generated_Source\PSoC4/CapSense.c **** 
1267:Generated_Source\PSoC4/CapSense.c ****     newRegisterValue = CapSense_CMOD_CONNECTION_REG;
1268:Generated_Source\PSoC4/CapSense.c ****     newRegisterValue &= ~(CapSense_CSD_CMOD_CONNECTION_MASK);
1269:Generated_Source\PSoC4/CapSense.c ****     newRegisterValue |= CapSense_CSD_CMOD_TO_AMUXBUS_A;
1270:Generated_Source\PSoC4/CapSense.c ****     CapSense_CMOD_CONNECTION_REG = newRegisterValue;
1271:Generated_Source\PSoC4/CapSense.c **** 
1272:Generated_Source\PSoC4/CapSense.c ****     #if(0u != CapSense_CSH_TANK_ENABLE)
1273:Generated_Source\PSoC4/CapSense.c ****         newRegisterValue = CapSense_CTANK_CONNECTION_REG;
1274:Generated_Source\PSoC4/CapSense.c ****         newRegisterValue &= ~(CapSense_CSD_CTANK_CONNECTION_MASK);
1275:Generated_Source\PSoC4/CapSense.c ****         newRegisterValue |= CapSense_CSD_CTANK_TO_AMUXBUS_B;
1276:Generated_Source\PSoC4/CapSense.c ****         CapSense_CTANK_CONNECTION_REG = newRegisterValue;
1277:Generated_Source\PSoC4/CapSense.c ****     #endif/* (0u != CapSense_CSH_TANK_ENABLE) */
1278:Generated_Source\PSoC4/CapSense.c **** 
1279:Generated_Source\PSoC4/CapSense.c ****     #if(0u != CapSense_IS_SHIELD_ENABLE)
1280:Generated_Source\PSoC4/CapSense.c ****         newRegisterValue = *CapSense_prtSelTbl[CapSense_SHIELD_PORT_NUMBER];
1281:Generated_Source\PSoC4/CapSense.c ****         newRegisterValue &= ~(CapSense_CSD_HSIOM_MASK << ((uint32)CapSense_SHIELD_PIN_NUMBER * CapS
1282:Generated_Source\PSoC4/CapSense.c ****         newRegisterValue |= (CapSense_CSD_SHIELD_PORT_MODE << ((uint32)CapSense_SHIELD_PIN_NUMBER *
1283:Generated_Source\PSoC4/CapSense.c ****         *CapSense_prtSelTbl[CapSense_SHIELD_PORT_NUMBER] = newRegisterValue;
1284:Generated_Source\PSoC4/CapSense.c ****     #endif /* (0u != CapSense_IS_SHIELD_ENABLE) */
1285:Generated_Source\PSoC4/CapSense.c **** }
1286:Generated_Source\PSoC4/CapSense.c **** 
1287:Generated_Source\PSoC4/CapSense.c **** 
1288:Generated_Source\PSoC4/CapSense.c **** /*******************************************************************************
1289:Generated_Source\PSoC4/CapSense.c **** * Function Name: CapSense_SetPinDriveMode
1290:Generated_Source\PSoC4/CapSense.c **** ********************************************************************************
1291:Generated_Source\PSoC4/CapSense.c **** *
1292:Generated_Source\PSoC4/CapSense.c **** * Summary:
1293:Generated_Source\PSoC4/CapSense.c **** * This API sets the drive mode for the appropriate port/pin.
1294:Generated_Source\PSoC4/CapSense.c **** *
1295:Generated_Source\PSoC4/CapSense.c **** * Parameters:
1296:Generated_Source\PSoC4/CapSense.c **** *  driveMode:  Drive mode definition.
1297:Generated_Source\PSoC4/CapSense.c **** *  portNumber: contains port number (0, 1, 2).
1298:Generated_Source\PSoC4/CapSense.c **** *  pinNumber: contains pin number (0, 1, 2, ... , 7).
1299:Generated_Source\PSoC4/CapSense.c **** *
1300:Generated_Source\PSoC4/CapSense.c **** * Return:
1301:Generated_Source\PSoC4/CapSense.c **** *  None
1302:Generated_Source\PSoC4/CapSense.c **** *
1303:Generated_Source\PSoC4/CapSense.c **** * Global Variables:
1304:Generated_Source\PSoC4/CapSense.c **** *  CapSense_prtSelTbl[] - Contains pointers to the HSIOM
1305:Generated_Source\PSoC4/CapSense.c **** *  registers for each port.
1306:Generated_Source\PSoC4/CapSense.c **** *  CapSense_prtCfgTb[] - Contains pointers to the port config
1307:Generated_Source\PSoC4/CapSense.c **** *  registers for each port.
1308:Generated_Source\PSoC4/CapSense.c **** *
1309:Generated_Source\PSoC4/CapSense.c **** * Side Effects:
1310:Generated_Source\PSoC4/CapSense.c **** *  This API is called only after CapSense component is stopped.
1311:Generated_Source\PSoC4/CapSense.c **** *
1312:Generated_Source\PSoC4/CapSense.c **** *******************************************************************************/
1313:Generated_Source\PSoC4/CapSense.c **** void CapSense_SetPinDriveMode(uint32 driveMode, uint32 pinNumber, uint32 portNumber)
1314:Generated_Source\PSoC4/CapSense.c **** {
1315:Generated_Source\PSoC4/CapSense.c ****     uint32  pinModeShift;
1316:Generated_Source\PSoC4/CapSense.c ****     uint32 newRegisterValue;
1317:Generated_Source\PSoC4/CapSense.c **** 
1318:Generated_Source\PSoC4/CapSense.c ****     pinModeShift  = pinNumber * CapSense_PC_PIN_CFG_SIZE;
ARM GAS  C:\Users\young\AppData\Local\Temp\ccoFnsFE.s 			page 27


1319:Generated_Source\PSoC4/CapSense.c **** 
1320:Generated_Source\PSoC4/CapSense.c ****     newRegisterValue = *CapSense_prtCfgTbl[portNumber];
1321:Generated_Source\PSoC4/CapSense.c ****     newRegisterValue &= ~(CapSense_CSD_PIN_MODE_MASK << pinModeShift);
1322:Generated_Source\PSoC4/CapSense.c ****     newRegisterValue |=  (uint32)((uint32)driveMode << pinModeShift);
1323:Generated_Source\PSoC4/CapSense.c ****     *CapSense_prtCfgTbl[portNumber] =  newRegisterValue;
1324:Generated_Source\PSoC4/CapSense.c **** }
1325:Generated_Source\PSoC4/CapSense.c **** 
1326:Generated_Source\PSoC4/CapSense.c **** 
1327:Generated_Source\PSoC4/CapSense.c **** /*******************************************************************************
1328:Generated_Source\PSoC4/CapSense.c **** * Function Name: CapSense_PreScan
1329:Generated_Source\PSoC4/CapSense.c **** ********************************************************************************
1330:Generated_Source\PSoC4/CapSense.c **** *
1331:Generated_Source\PSoC4/CapSense.c **** * Summary:
1332:Generated_Source\PSoC4/CapSense.c **** *  Sets required settings, enables a sensor, removes Vref from AMUX and starts the
1333:Generated_Source\PSoC4/CapSense.c **** *  scanning process of the sensor.
1334:Generated_Source\PSoC4/CapSense.c **** *
1335:Generated_Source\PSoC4/CapSense.c **** * Parameters:
1336:Generated_Source\PSoC4/CapSense.c **** *  sensor:  Sensor number.
1337:Generated_Source\PSoC4/CapSense.c **** *
1338:Generated_Source\PSoC4/CapSense.c **** * Return:
1339:Generated_Source\PSoC4/CapSense.c **** *  None
1340:Generated_Source\PSoC4/CapSense.c **** *
1341:Generated_Source\PSoC4/CapSense.c **** * Global Variables:
1342:Generated_Source\PSoC4/CapSense.c **** * CapSense_widgetNumber[] - This array contains numbers of widgets for each sensor.
1343:Generated_Source\PSoC4/CapSense.c **** * CapSense_widgetResolution[] - Contains the widget resolution.
1344:Generated_Source\PSoC4/CapSense.c **** *
1345:Generated_Source\PSoC4/CapSense.c **** * Side Effects:
1346:Generated_Source\PSoC4/CapSense.c **** *  None
1347:Generated_Source\PSoC4/CapSense.c **** *
1348:Generated_Source\PSoC4/CapSense.c **** *******************************************************************************/
1349:Generated_Source\PSoC4/CapSense.c **** void CapSense_PreScan(uint32 sensor)
1350:Generated_Source\PSoC4/CapSense.c **** {
1351:Generated_Source\PSoC4/CapSense.c ****     uint8 widget;
1352:Generated_Source\PSoC4/CapSense.c ****     uint8 interruptState;
1353:Generated_Source\PSoC4/CapSense.c ****     uint32 newRegValue;
1354:Generated_Source\PSoC4/CapSense.c ****     uint32 counterResolution;
1355:Generated_Source\PSoC4/CapSense.c **** 
1356:Generated_Source\PSoC4/CapSense.c ****     #if(CapSense_PRS_OPTIONS == CapSense__PRS_AUTO)
1357:Generated_Source\PSoC4/CapSense.c ****         uint8 senseClkDivMath;
1358:Generated_Source\PSoC4/CapSense.c ****         uint8 sampleClkDivMath;
1359:Generated_Source\PSoC4/CapSense.c ****     #endif /* (CapSense_PRS_OPTIONS == CapSense__PRS_AUTO) */
1360:Generated_Source\PSoC4/CapSense.c **** 
1361:Generated_Source\PSoC4/CapSense.c ****     #if ((CapSense_TUNING_METHOD == CapSense__TUNING_AUTO) &&\
1362:Generated_Source\PSoC4/CapSense.c ****          (0 != CapSense_IS_OVERSAMPLING_EN))
1363:Generated_Source\PSoC4/CapSense.c ****         uint32 oversamplingFactor;
1364:Generated_Source\PSoC4/CapSense.c ****     #endif /* ((CapSense_TUNING_METHOD == CapSense__TUNING_AUTO) &&\
1365:Generated_Source\PSoC4/CapSense.c ****                (0 != CapSense_IS_OVERSAMPLING_EN)) */
1366:Generated_Source\PSoC4/CapSense.c **** 
1367:Generated_Source\PSoC4/CapSense.c ****     /* Define widget sensor belongs to */
1368:Generated_Source\PSoC4/CapSense.c ****     widget = CapSense_widgetNumber[sensor];
1369:Generated_Source\PSoC4/CapSense.c **** 
1370:Generated_Source\PSoC4/CapSense.c ****     /* Recalculate Counter Resolution to MSB 16 bits */
1371:Generated_Source\PSoC4/CapSense.c ****     counterResolution = CapSense_widgetResolution[widget];
1372:Generated_Source\PSoC4/CapSense.c **** 
1373:Generated_Source\PSoC4/CapSense.c ****     #if ((CapSense_TUNING_METHOD == CapSense__TUNING_AUTO) &&\
1374:Generated_Source\PSoC4/CapSense.c ****          (0 != CapSense_IS_OVERSAMPLING_EN))
1375:Generated_Source\PSoC4/CapSense.c ****         oversamplingFactor = CapSense_GetBitValue(CapSense_scanSpeedTbl, sensor);
ARM GAS  C:\Users\young\AppData\Local\Temp\ccoFnsFE.s 			page 28


1376:Generated_Source\PSoC4/CapSense.c **** 
1377:Generated_Source\PSoC4/CapSense.c ****         if(counterResolution < CapSense_RESOLUTION_16_BITS)
1378:Generated_Source\PSoC4/CapSense.c ****         {
1379:Generated_Source\PSoC4/CapSense.c ****             counterResolution <<= oversamplingFactor;
1380:Generated_Source\PSoC4/CapSense.c ****             counterResolution |= (uint32)(CapSense_RESOLUTION_8_BITS);
1381:Generated_Source\PSoC4/CapSense.c ****         }
1382:Generated_Source\PSoC4/CapSense.c ****     #endif /* ((CapSense_TUNING_METHOD == CapSense__TUNING_AUTO) &&\
1383:Generated_Source\PSoC4/CapSense.c ****                (0 != CapSense_IS_OVERSAMPLING_EN)) */
1384:Generated_Source\PSoC4/CapSense.c **** 
1385:Generated_Source\PSoC4/CapSense.c ****     #if (0u != CapSense_IS_M0S8PERI_BLOCK)
1386:Generated_Source\PSoC4/CapSense.c ****         CapSense_SenseClk_Stop();
1387:Generated_Source\PSoC4/CapSense.c ****         CapSense_SampleClk_Stop();
1388:Generated_Source\PSoC4/CapSense.c ****     #endif /* (0u != CapSense_IS_M0S8PERI_BLOCK) */
1389:Generated_Source\PSoC4/CapSense.c **** 
1390:Generated_Source\PSoC4/CapSense.c ****     #if (0u != CapSense_MULTIPLE_FREQUENCY_SET)
1391:Generated_Source\PSoC4/CapSense.c ****         CapSense_SampleClk_SetDividerValue((uint16)CapSense_sampleClkDividerVal[sensor]);
1392:Generated_Source\PSoC4/CapSense.c ****         CapSense_SenseClk_SetDividerValue((uint16)CapSense_senseClkDividerVal[sensor]);
1393:Generated_Source\PSoC4/CapSense.c ****     #else
1394:Generated_Source\PSoC4/CapSense.c ****         CapSense_SampleClk_SetDividerValue((uint16)CapSense_sampleClkDividerVal);
1395:Generated_Source\PSoC4/CapSense.c ****         CapSense_SenseClk_SetDividerValue((uint16)CapSense_senseClkDividerVal);
1396:Generated_Source\PSoC4/CapSense.c ****     #endif /* (0u != CapSense_MULTIPLE_FREQUENCY_SET) */
1397:Generated_Source\PSoC4/CapSense.c **** 
1398:Generated_Source\PSoC4/CapSense.c ****     #if (0u != CapSense_IS_M0S8PERI_BLOCK)
1399:Generated_Source\PSoC4/CapSense.c ****         CapSense_SampleClk_Start();
1400:Generated_Source\PSoC4/CapSense.c ****         CapSense_SenseClk_StartEx(CapSense_SampleClk__DIV_ID);
1401:Generated_Source\PSoC4/CapSense.c **** 
1402:Generated_Source\PSoC4/CapSense.c ****         #if(CapSense_PRS_OPTIONS == CapSense__PRS_NONE)
1403:Generated_Source\PSoC4/CapSense.c ****             CyIntDisable(CapSense_ISR_NUMBER);
1404:Generated_Source\PSoC4/CapSense.c ****             CapSense_CSD_CNT_REG = CapSense_ONE_CYCLE;
1405:Generated_Source\PSoC4/CapSense.c ****             while(0u != (CapSense_CSD_CNT_REG & CapSense_RESOLUTION_16_BITS))
1406:Generated_Source\PSoC4/CapSense.c ****             {
1407:Generated_Source\PSoC4/CapSense.c ****             /* Wait until scanning is complete */
1408:Generated_Source\PSoC4/CapSense.c ****             }
1409:Generated_Source\PSoC4/CapSense.c ****             CapSense_CSD_INTR_REG = 1u;
1410:Generated_Source\PSoC4/CapSense.c ****             CyIntClearPending(CapSense_ISR_NUMBER);
1411:Generated_Source\PSoC4/CapSense.c ****             CyIntEnable(CapSense_ISR_NUMBER);
1412:Generated_Source\PSoC4/CapSense.c ****         #endif /* CapSense_PRS_OPTIONS == CapSense__PRS_NONE */
1413:Generated_Source\PSoC4/CapSense.c ****     #endif /* (0u != CapSense_IS_M0S8PERI_BLOCK) */
1414:Generated_Source\PSoC4/CapSense.c **** 
1415:Generated_Source\PSoC4/CapSense.c **** #if(CapSense_PRS_OPTIONS != CapSense__PRS_NONE)
1416:Generated_Source\PSoC4/CapSense.c **** 
1417:Generated_Source\PSoC4/CapSense.c ****     #if(CapSense_TUNING_METHOD == CapSense__TUNING_AUTO)
1418:Generated_Source\PSoC4/CapSense.c ****         if(CapSense_prescalersTuningDone != 0u)
1419:Generated_Source\PSoC4/CapSense.c ****         {
1420:Generated_Source\PSoC4/CapSense.c ****     #endif /* (CapSense_TUNING_METHOD == CapSense__TUNING_AUTO) */
1421:Generated_Source\PSoC4/CapSense.c **** 
1422:Generated_Source\PSoC4/CapSense.c ****             CyIntDisable(CapSense_ISR_NUMBER);
1423:Generated_Source\PSoC4/CapSense.c **** 
1424:Generated_Source\PSoC4/CapSense.c ****             newRegValue = CapSense_CSD_CFG_REG;
1425:Generated_Source\PSoC4/CapSense.c ****             newRegValue |= CapSense_CSD_CFG_PRS_SELECT;
1426:Generated_Source\PSoC4/CapSense.c **** 
1427:Generated_Source\PSoC4/CapSense.c ****             #if(CapSense_PRS_OPTIONS == CapSense__PRS_AUTO)
1428:Generated_Source\PSoC4/CapSense.c **** 
1429:Generated_Source\PSoC4/CapSense.c ****                 newRegValue &= ~(CapSense_PRS_MODE_MASK);
1430:Generated_Source\PSoC4/CapSense.c **** 
1431:Generated_Source\PSoC4/CapSense.c ****                 #if (0u != CapSense_MULTIPLE_FREQUENCY_SET)
1432:Generated_Source\PSoC4/CapSense.c ****                     senseClkDivMath = CapSense_senseClkDividerVal[sensor];
ARM GAS  C:\Users\young\AppData\Local\Temp\ccoFnsFE.s 			page 29


1433:Generated_Source\PSoC4/CapSense.c ****                     sampleClkDivMath = CapSense_sampleClkDividerVal[sensor];
1434:Generated_Source\PSoC4/CapSense.c ****                 #else
1435:Generated_Source\PSoC4/CapSense.c ****                     senseClkDivMath = CapSense_senseClkDividerVal;
1436:Generated_Source\PSoC4/CapSense.c ****                     sampleClkDivMath = CapSense_sampleClkDividerVal;
1437:Generated_Source\PSoC4/CapSense.c ****                 #endif /* ( CapSense_MULTIPLE_FREQUENCY_SET) */
1438:Generated_Source\PSoC4/CapSense.c **** 
1439:Generated_Source\PSoC4/CapSense.c ****                 #if(0u == CapSense_IS_M0S8PERI_BLOCK)
1440:Generated_Source\PSoC4/CapSense.c ****                     senseClkDivMath *= sampleClkDivMath;
1441:Generated_Source\PSoC4/CapSense.c ****                 #endif /* (0u == CapSense_IS_M0S8PERI_BLOCK) */
1442:Generated_Source\PSoC4/CapSense.c **** 
1443:Generated_Source\PSoC4/CapSense.c ****                 if((senseClkDivMath * CapSense_RESOLUTION_12_BITS) <
1444:Generated_Source\PSoC4/CapSense.c ****                    (sampleClkDivMath * CapSense_widgetResolution[widget]))
1445:Generated_Source\PSoC4/CapSense.c ****                 {
1446:Generated_Source\PSoC4/CapSense.c ****                     newRegValue |= CapSense_CSD_PRS_12_BIT;
1447:Generated_Source\PSoC4/CapSense.c ****                 }
1448:Generated_Source\PSoC4/CapSense.c ****             #endif /* (CapSense_PRS_OPTIONS == CapSense__PRS_AUTO) */
1449:Generated_Source\PSoC4/CapSense.c **** 
1450:Generated_Source\PSoC4/CapSense.c ****             CapSense_CSD_CFG_REG = newRegValue;
1451:Generated_Source\PSoC4/CapSense.c **** 
1452:Generated_Source\PSoC4/CapSense.c ****             CyIntEnable(CapSense_ISR_NUMBER);
1453:Generated_Source\PSoC4/CapSense.c **** 
1454:Generated_Source\PSoC4/CapSense.c ****     #if(CapSense_TUNING_METHOD == CapSense__TUNING_AUTO)
1455:Generated_Source\PSoC4/CapSense.c ****         }
1456:Generated_Source\PSoC4/CapSense.c ****     #endif /* (CapSense_PRS_OPTIONS != CapSense__PRS_NONE) */
1457:Generated_Source\PSoC4/CapSense.c **** 
1458:Generated_Source\PSoC4/CapSense.c **** #endif /* (CapSense_PRS_OPTIONS == CapSense__PRS_NONE) */
1459:Generated_Source\PSoC4/CapSense.c **** 
1460:Generated_Source\PSoC4/CapSense.c ****     /* Set Idac Value */
1461:Generated_Source\PSoC4/CapSense.c ****     CyIntDisable(CapSense_ISR_NUMBER);
1462:Generated_Source\PSoC4/CapSense.c ****     newRegValue = CapSense_CSD_IDAC_REG;
1463:Generated_Source\PSoC4/CapSense.c **** 
1464:Generated_Source\PSoC4/CapSense.c **** #if (CapSense_IDAC_CNT == 1u)
1465:Generated_Source\PSoC4/CapSense.c ****     newRegValue &= ~(CapSense_CSD_IDAC1_DATA_MASK);
1466:Generated_Source\PSoC4/CapSense.c ****     newRegValue |= CapSense_modulationIDAC[sensor];
1467:Generated_Source\PSoC4/CapSense.c **** #else
1468:Generated_Source\PSoC4/CapSense.c ****     newRegValue &= ~(CapSense_CSD_IDAC1_DATA_MASK | CapSense_CSD_IDAC2_DATA_MASK);
1469:Generated_Source\PSoC4/CapSense.c ****     newRegValue |= (CapSense_modulationIDAC[sensor] |
1470:Generated_Source\PSoC4/CapSense.c ****                             (uint32)((uint32)CapSense_compensationIDAC[sensor] <<
1471:Generated_Source\PSoC4/CapSense.c ****                             CapSense_CSD_IDAC2_DATA_OFFSET));
1472:Generated_Source\PSoC4/CapSense.c **** #endif /* (CapSense_IDAC_CNT == 1u) */
1473:Generated_Source\PSoC4/CapSense.c **** 
1474:Generated_Source\PSoC4/CapSense.c ****     CapSense_CSD_IDAC_REG = newRegValue;
1475:Generated_Source\PSoC4/CapSense.c **** 
1476:Generated_Source\PSoC4/CapSense.c **** #if(CapSense_CMOD_PREGARGE_OPTION == CapSense__CAPPRIOBUF)
1477:Generated_Source\PSoC4/CapSense.c ****     newRegValue = CapSense_CMOD_CONNECTION_REG;
1478:Generated_Source\PSoC4/CapSense.c ****     newRegValue &= ~(CapSense_CSD_CMOD_CONNECTION_MASK);
1479:Generated_Source\PSoC4/CapSense.c ****     newRegValue |= CapSense_CSD_CMOD_TO_AMUXBUS_A;
1480:Generated_Source\PSoC4/CapSense.c ****     CapSense_CMOD_CONNECTION_REG = newRegValue;
1481:Generated_Source\PSoC4/CapSense.c **** 
1482:Generated_Source\PSoC4/CapSense.c ****     newRegValue = CapSense_CMOD_PORT_PC_REG;
1483:Generated_Source\PSoC4/CapSense.c ****     newRegValue &= ~(CapSense_CSD_CMOD_PC_MASK);
1484:Generated_Source\PSoC4/CapSense.c ****     newRegValue |= CapSense_CMOD_PC_HIGH_Z_MODE;
1485:Generated_Source\PSoC4/CapSense.c ****     CapSense_CMOD_PORT_PC_REG = newRegValue;
1486:Generated_Source\PSoC4/CapSense.c **** #endif /* (CapSense_CMOD_PREGARGE_OPTION == CapSense__CAPPRIOBUF) */
1487:Generated_Source\PSoC4/CapSense.c **** 
1488:Generated_Source\PSoC4/CapSense.c ****     /* Disconnect Vref Buffer from AMUX */
1489:Generated_Source\PSoC4/CapSense.c ****     newRegValue = CapSense_CSD_CFG_REG;
ARM GAS  C:\Users\young\AppData\Local\Temp\ccoFnsFE.s 			page 30


1490:Generated_Source\PSoC4/CapSense.c ****     newRegValue &= ~(CapSense_PRECHARGE_CONFIG_MASK);
1491:Generated_Source\PSoC4/CapSense.c ****     newRegValue |= CapSense_CTANK_PRECHARGE_CONFIG;
1492:Generated_Source\PSoC4/CapSense.c **** 
1493:Generated_Source\PSoC4/CapSense.c ****     CyIntEnable(CapSense_ISR_NUMBER);
1494:Generated_Source\PSoC4/CapSense.c **** 
1495:Generated_Source\PSoC4/CapSense.c ****     /* Enable Sensor */
1496:Generated_Source\PSoC4/CapSense.c ****     CapSense_EnableScanSlot(sensor);
1497:Generated_Source\PSoC4/CapSense.c **** 
1498:Generated_Source\PSoC4/CapSense.c ****     interruptState = CyEnterCriticalSection();
1499:Generated_Source\PSoC4/CapSense.c ****     CapSense_CSD_CFG_REG = newRegValue;
1500:Generated_Source\PSoC4/CapSense.c **** 
1501:Generated_Source\PSoC4/CapSense.c ****     /* `#START CapSense_PreSettlingDelay_Debug` */
1502:Generated_Source\PSoC4/CapSense.c **** 
1503:Generated_Source\PSoC4/CapSense.c ****     /* `#END` */
1504:Generated_Source\PSoC4/CapSense.c **** 
1505:Generated_Source\PSoC4/CapSense.c **** #ifdef CapSense_PRE_SCAN_PRE_SETTLING_DELAY_DEBUG_CALLBACK
1506:Generated_Source\PSoC4/CapSense.c ****     CapSense_PreScan_Pre_SettlingDelay_Debug_Callback();
1507:Generated_Source\PSoC4/CapSense.c **** #endif /* CapSense_PRE_SCAN_PRE_SETTLING_DELAY_DEBUG_CALLBACK */
1508:Generated_Source\PSoC4/CapSense.c **** 
1509:Generated_Source\PSoC4/CapSense.c ****     CyDelayCycles(CapSense_GLITCH_ELIMINATION_CYCLES);
1510:Generated_Source\PSoC4/CapSense.c **** 
1511:Generated_Source\PSoC4/CapSense.c ****     /* `#START CapSense_PreScan_Debug` */
1512:Generated_Source\PSoC4/CapSense.c **** 
1513:Generated_Source\PSoC4/CapSense.c ****     /* `#END` */
1514:Generated_Source\PSoC4/CapSense.c **** 
1515:Generated_Source\PSoC4/CapSense.c **** #ifdef CapSense_PRE_SCAN_DEBUG_CALLBACK
1516:Generated_Source\PSoC4/CapSense.c ****     CapSense_PreScan_Debug_Callback();
1517:Generated_Source\PSoC4/CapSense.c **** #endif /* CapSense_PRE_SCAN_DEBUG_CALLBACK */
1518:Generated_Source\PSoC4/CapSense.c **** 
1519:Generated_Source\PSoC4/CapSense.c ****     CapSense_CSD_CNT_REG = counterResolution;
1520:Generated_Source\PSoC4/CapSense.c ****     CyExitCriticalSection(interruptState);
1521:Generated_Source\PSoC4/CapSense.c **** }
1522:Generated_Source\PSoC4/CapSense.c **** 
1523:Generated_Source\PSoC4/CapSense.c **** 
1524:Generated_Source\PSoC4/CapSense.c **** /*******************************************************************************
1525:Generated_Source\PSoC4/CapSense.c **** * Function Name: CapSense_PostScan
1526:Generated_Source\PSoC4/CapSense.c **** ********************************************************************************
1527:Generated_Source\PSoC4/CapSense.c **** *
1528:Generated_Source\PSoC4/CapSense.c **** * Summary:
1529:Generated_Source\PSoC4/CapSense.c **** *  Stores the results of measurement in the CapSense_sensorRaw[] array,
1530:Generated_Source\PSoC4/CapSense.c **** *  sets the scanning sensor in the non-sampling state, turns off Idac(Current Source IDAC),
1531:Generated_Source\PSoC4/CapSense.c **** *  disconnects the IDAC(Sink mode), and applies Vref on AMUX.
1532:Generated_Source\PSoC4/CapSense.c **** *
1533:Generated_Source\PSoC4/CapSense.c **** * Parameters:
1534:Generated_Source\PSoC4/CapSense.c **** *  sensor:  Sensor number.
1535:Generated_Source\PSoC4/CapSense.c **** *
1536:Generated_Source\PSoC4/CapSense.c **** * Return:
1537:Generated_Source\PSoC4/CapSense.c **** *  None
1538:Generated_Source\PSoC4/CapSense.c **** *
1539:Generated_Source\PSoC4/CapSense.c **** * Global Variables:
1540:Generated_Source\PSoC4/CapSense.c **** *  CapSense_sensorRaw[] - used to store sensors raw data.
1541:Generated_Source\PSoC4/CapSense.c **** *
1542:Generated_Source\PSoC4/CapSense.c **** * Side Effects:
1543:Generated_Source\PSoC4/CapSense.c **** *  None
1544:Generated_Source\PSoC4/CapSense.c **** *
1545:Generated_Source\PSoC4/CapSense.c **** *******************************************************************************/
1546:Generated_Source\PSoC4/CapSense.c **** void CapSense_PostScan(uint32 sensor)
ARM GAS  C:\Users\young\AppData\Local\Temp\ccoFnsFE.s 			page 31


1547:Generated_Source\PSoC4/CapSense.c **** {
1548:Generated_Source\PSoC4/CapSense.c ****     uint32 newRegValue;
1549:Generated_Source\PSoC4/CapSense.c **** #if ((CapSense_TUNING_METHOD == CapSense__TUNING_AUTO) &&\
1550:Generated_Source\PSoC4/CapSense.c ****      (0 != CapSense_IS_OVERSAMPLING_EN))
1551:Generated_Source\PSoC4/CapSense.c ****     uint32 oversamplingFactor;
1552:Generated_Source\PSoC4/CapSense.c ****     uint32 widget;
1553:Generated_Source\PSoC4/CapSense.c **** #endif /* ((CapSense_TUNING_METHOD == CapSense__TUNING_AUTO) &&\
1554:Generated_Source\PSoC4/CapSense.c ****            (0 != CapSense_IS_OVERSAMPLING_EN)) */
1555:Generated_Source\PSoC4/CapSense.c **** 
1556:Generated_Source\PSoC4/CapSense.c ****     /* `#START CapSense_PostScan_Debug` */
1557:Generated_Source\PSoC4/CapSense.c **** 
1558:Generated_Source\PSoC4/CapSense.c ****     /* `#END` */
1559:Generated_Source\PSoC4/CapSense.c **** 
1560:Generated_Source\PSoC4/CapSense.c **** #ifdef CapSense_POST_SCAN_DEBUG_CALLBACK
1561:Generated_Source\PSoC4/CapSense.c ****     CapSense_PostScan_Debug_Callback();
1562:Generated_Source\PSoC4/CapSense.c **** #endif /* CapSense_POST_SCAN_DEBUG_Callback */
1563:Generated_Source\PSoC4/CapSense.c **** 
1564:Generated_Source\PSoC4/CapSense.c ****     /* Read SlotResult from Raw Counter */
1565:Generated_Source\PSoC4/CapSense.c ****     CapSense_sensorRaw[sensor]  = (uint16)CapSense_CSD_CNT_REG;
1566:Generated_Source\PSoC4/CapSense.c **** 
1567:Generated_Source\PSoC4/CapSense.c **** #if ((CapSense_TUNING_METHOD == CapSense__TUNING_AUTO) &&\
1568:Generated_Source\PSoC4/CapSense.c ****      (0 != CapSense_IS_OVERSAMPLING_EN))
1569:Generated_Source\PSoC4/CapSense.c ****     widget = CapSense_widgetNumber[sensor];
1570:Generated_Source\PSoC4/CapSense.c ****     if(CapSense_widgetResolution[widget] < CapSense_RESOLUTION_16_BITS)
1571:Generated_Source\PSoC4/CapSense.c ****     {
1572:Generated_Source\PSoC4/CapSense.c ****         oversamplingFactor = CapSense_GetBitValue(CapSense_scanSpeedTbl, sensor);
1573:Generated_Source\PSoC4/CapSense.c ****         CapSense_sensorRaw[sensor] >>= oversamplingFactor;
1574:Generated_Source\PSoC4/CapSense.c ****     }
1575:Generated_Source\PSoC4/CapSense.c **** #endif /* ((CapSense_TUNING_METHOD == CapSense__TUNING_AUTO) &&\
1576:Generated_Source\PSoC4/CapSense.c ****            (0 != CapSense_IS_OVERSAMPLING_EN)) */
1577:Generated_Source\PSoC4/CapSense.c **** 
1578:Generated_Source\PSoC4/CapSense.c ****     /* Disable Sensor */
1579:Generated_Source\PSoC4/CapSense.c ****     CapSense_DisableScanSlot(sensor);
1580:Generated_Source\PSoC4/CapSense.c **** 
1581:Generated_Source\PSoC4/CapSense.c ****     CyIntDisable(CapSense_ISR_NUMBER);
1582:Generated_Source\PSoC4/CapSense.c **** 
1583:Generated_Source\PSoC4/CapSense.c **** #if(CapSense_CMOD_PREGARGE_OPTION == CapSense__CAPPRIOBUF)
1584:Generated_Source\PSoC4/CapSense.c ****     newRegValue = CapSense_CMOD_CONNECTION_REG;
1585:Generated_Source\PSoC4/CapSense.c ****     newRegValue &= ~(CapSense_CSD_CMOD_CONNECTION_MASK);
1586:Generated_Source\PSoC4/CapSense.c ****     newRegValue |= CapSense_CSD_CMOD_TO_AMUXBUS_B;
1587:Generated_Source\PSoC4/CapSense.c ****     CapSense_CMOD_CONNECTION_REG = newRegValue;
1588:Generated_Source\PSoC4/CapSense.c **** 
1589:Generated_Source\PSoC4/CapSense.c ****     newRegValue = CapSense_CMOD_PORT_PC_REG;
1590:Generated_Source\PSoC4/CapSense.c ****     newRegValue &= ~(CapSense_CSD_CMOD_PC_MASK);
1591:Generated_Source\PSoC4/CapSense.c ****     newRegValue |= CapSense_CMOD_PC_STRONG_MODE;
1592:Generated_Source\PSoC4/CapSense.c ****     CapSense_CMOD_PORT_PC_REG = newRegValue;
1593:Generated_Source\PSoC4/CapSense.c **** 
1594:Generated_Source\PSoC4/CapSense.c ****     newRegValue = CapSense_CMOD_PORT_DR_REG;
1595:Generated_Source\PSoC4/CapSense.c ****     newRegValue &= ~(CapSense_CMOD_DR_MASK);
1596:Generated_Source\PSoC4/CapSense.c ****     newRegValue |= CapSense_CMOD_DR_CONFIG;
1597:Generated_Source\PSoC4/CapSense.c ****     CapSense_CMOD_PORT_DR_REG = newRegValue;
1598:Generated_Source\PSoC4/CapSense.c **** #endif /* (CapSense_CMOD_PREGARGE_OPTION == CapSense__CAPPRIOBUF) */
1599:Generated_Source\PSoC4/CapSense.c **** 
1600:Generated_Source\PSoC4/CapSense.c ****     /* Connect Vref Buffer to AMUX bus  */
1601:Generated_Source\PSoC4/CapSense.c ****     newRegValue = CapSense_CSD_CFG_REG;
1602:Generated_Source\PSoC4/CapSense.c ****     newRegValue &= ~(CapSense_PRECHARGE_CONFIG_MASK);
1603:Generated_Source\PSoC4/CapSense.c ****     newRegValue |= CapSense_CMOD_PRECHARGE_CONFIG;
ARM GAS  C:\Users\young\AppData\Local\Temp\ccoFnsFE.s 			page 32


1604:Generated_Source\PSoC4/CapSense.c ****     CapSense_CSD_CFG_REG = newRegValue;
1605:Generated_Source\PSoC4/CapSense.c **** 
1606:Generated_Source\PSoC4/CapSense.c ****     /* Set Idac Value = 0 */
1607:Generated_Source\PSoC4/CapSense.c **** #if (CapSense_IDAC_CNT == 1u)
1608:Generated_Source\PSoC4/CapSense.c ****     CapSense_CSD_IDAC_REG &= ~(CapSense_CSD_IDAC1_DATA_MASK);
1609:Generated_Source\PSoC4/CapSense.c **** #else
1610:Generated_Source\PSoC4/CapSense.c ****     CapSense_CSD_IDAC_REG &= ~(CapSense_CSD_IDAC1_DATA_MASK | CapSense_CSD_IDAC2_DATA_MASK);
1611:Generated_Source\PSoC4/CapSense.c **** #endif /* (CapSense_IDAC_CNT == 1u) */
1612:Generated_Source\PSoC4/CapSense.c **** 
1613:Generated_Source\PSoC4/CapSense.c ****     CyIntEnable(CapSense_ISR_NUMBER);
1614:Generated_Source\PSoC4/CapSense.c **** }
1615:Generated_Source\PSoC4/CapSense.c **** 
1616:Generated_Source\PSoC4/CapSense.c **** 
1617:Generated_Source\PSoC4/CapSense.c **** /*******************************************************************************
1618:Generated_Source\PSoC4/CapSense.c **** * Function Name: CapSense_EnableShieldElectrode
1619:Generated_Source\PSoC4/CapSense.c **** ********************************************************************************
1620:Generated_Source\PSoC4/CapSense.c **** *
1621:Generated_Source\PSoC4/CapSense.c **** * Summary:
1622:Generated_Source\PSoC4/CapSense.c **** *  This API enables or disables the shield electrode on a specified port pin.
1623:Generated_Source\PSoC4/CapSense.c **** *
1624:Generated_Source\PSoC4/CapSense.c **** * Parameters:
1625:Generated_Source\PSoC4/CapSense.c **** *  portNumber: contains the shield electrode port number (0, 1, 2).
1626:Generated_Source\PSoC4/CapSense.c **** *  pinNumber: contains the shield electrode pin number (0, 1, 2, ... , 7).
1627:Generated_Source\PSoC4/CapSense.c **** *
1628:Generated_Source\PSoC4/CapSense.c **** * Return:
1629:Generated_Source\PSoC4/CapSense.c **** *  None
1630:Generated_Source\PSoC4/CapSense.c **** *
1631:Generated_Source\PSoC4/CapSense.c **** * Global Variables:
1632:Generated_Source\PSoC4/CapSense.c **** *  CapSense_prtCfgTbl[] - Contains pointers to the port config registers for each port.
1633:Generated_Source\PSoC4/CapSense.c **** *  CapSense_prtSelTbl[] - Contains pointers to the HSIOM registers for each port.
1634:Generated_Source\PSoC4/CapSense.c **** *
1635:Generated_Source\PSoC4/CapSense.c **** * Side Effects:
1636:Generated_Source\PSoC4/CapSense.c **** *  None
1637:Generated_Source\PSoC4/CapSense.c **** *
1638:Generated_Source\PSoC4/CapSense.c **** *******************************************************************************/
1639:Generated_Source\PSoC4/CapSense.c **** void CapSense_EnableShieldElectrode(uint32 pinNumber, uint32 portNumber)
1640:Generated_Source\PSoC4/CapSense.c **** {
1641:Generated_Source\PSoC4/CapSense.c ****     uint32 newRegValue;
1642:Generated_Source\PSoC4/CapSense.c **** 
1643:Generated_Source\PSoC4/CapSense.c ****     *CapSense_prtCfgTbl[portNumber] &= ~(CapSense_CSD_PIN_MODE_MASK << (pinNumber * CapSense_PC_PIN
1644:Generated_Source\PSoC4/CapSense.c ****     newRegValue = *CapSense_prtSelTbl[portNumber];
1645:Generated_Source\PSoC4/CapSense.c ****     newRegValue &= ~(CapSense_CSD_HSIOM_MASK << (pinNumber * CapSense_HSIOM_PIN_CFG_SIZE));
1646:Generated_Source\PSoC4/CapSense.c ****     newRegValue |= (CapSense_CSD_SHIELD_PORT_MODE << (pinNumber * CapSense_HSIOM_PIN_CFG_SIZE));
1647:Generated_Source\PSoC4/CapSense.c ****     *CapSense_prtSelTbl[portNumber] = newRegValue;
1648:Generated_Source\PSoC4/CapSense.c **** }
1649:Generated_Source\PSoC4/CapSense.c **** 
1650:Generated_Source\PSoC4/CapSense.c **** 
1651:Generated_Source\PSoC4/CapSense.c **** /*******************************************************************************
1652:Generated_Source\PSoC4/CapSense.c **** * Function Name: CapSense_SetShieldDelay
1653:Generated_Source\PSoC4/CapSense.c **** ********************************************************************************
1654:Generated_Source\PSoC4/CapSense.c **** *
1655:Generated_Source\PSoC4/CapSense.c **** * Summary:
1656:Generated_Source\PSoC4/CapSense.c **** *  This API sets a shield delay.
1657:Generated_Source\PSoC4/CapSense.c **** *
1658:Generated_Source\PSoC4/CapSense.c **** * Parameters:
1659:Generated_Source\PSoC4/CapSense.c **** *  delay:  shield delay value:
1660:Generated_Source\PSoC4/CapSense.c **** *                               0 - no delay
ARM GAS  C:\Users\young\AppData\Local\Temp\ccoFnsFE.s 			page 33


1661:Generated_Source\PSoC4/CapSense.c **** *                               1 - 1 cycle delay
1662:Generated_Source\PSoC4/CapSense.c **** *                               2 - 2 cycles delay
1663:Generated_Source\PSoC4/CapSense.c **** *
1664:Generated_Source\PSoC4/CapSense.c **** * Return:
1665:Generated_Source\PSoC4/CapSense.c **** *  None
1666:Generated_Source\PSoC4/CapSense.c **** *
1667:Generated_Source\PSoC4/CapSense.c **** * Global Variables:
1668:Generated_Source\PSoC4/CapSense.c **** *  None
1669:Generated_Source\PSoC4/CapSense.c **** *
1670:Generated_Source\PSoC4/CapSense.c **** * Side Effects:
1671:Generated_Source\PSoC4/CapSense.c **** *  None
1672:Generated_Source\PSoC4/CapSense.c **** *
1673:Generated_Source\PSoC4/CapSense.c **** *******************************************************************************/
1674:Generated_Source\PSoC4/CapSense.c **** void CapSense_SetShieldDelay(uint32 delay)
1675:Generated_Source\PSoC4/CapSense.c **** {
1676:Generated_Source\PSoC4/CapSense.c ****     uint32 newRegValue;
1677:Generated_Source\PSoC4/CapSense.c **** 
1678:Generated_Source\PSoC4/CapSense.c ****     delay &= 0x03u;
1679:Generated_Source\PSoC4/CapSense.c **** 
1680:Generated_Source\PSoC4/CapSense.c ****     newRegValue = CapSense_CSD_CFG_REG;
 145              		.loc 1 1680 0
 146 0068 2368     		ldr	r3, [r4]
 147              	.LVL15:
1681:Generated_Source\PSoC4/CapSense.c ****     newRegValue &= (uint32)(~(uint32)CapSense_SHIELD_DELAY);
1682:Generated_Source\PSoC4/CapSense.c ****     newRegValue |= (delay << CapSense_CSD_CFG_SHIELD_DELAY_POS);
1683:Generated_Source\PSoC4/CapSense.c ****     CapSense_CSD_CFG_REG = newRegValue;
 148              		.loc 1 1683 0
 149 006a 2C49     		ldr	r1, .L7+44
 150 006c 2360     		str	r3, [r4]
 151              	.LVL16:
 152 006e 2C4B     		ldr	r3, .L7+48
 153              	.LVL17:
 154 0070 9946     		mov	r9, r3
 155 0072 2C4B     		ldr	r3, .L7+52
 156 0074 9846     		mov	r8, r3
 157 0076 2C4B     		ldr	r3, .L7+56
 158 0078 9A46     		mov	r10, r3
 159 007a 1FE0     		b	.L5
 160              	.LVL18:
 161              	.L3:
 162              	.LBE52:
 163              	.LBE51:
 164              	.LBB53:
 165              	.LBB49:
 166              	.LBB43:
 167              	.LBB44:
1141:Generated_Source\PSoC4/CapSense.c **** 
 168              		.loc 1 1141 0
 169 007c FFF7FEFF 		bl	CyEnterCriticalSection
 170              	.LVL19:
1145:Generated_Source\PSoC4/CapSense.c ****         newRegisterValue |=  (uint32)(inactiveConnect << pinModeShift);
 171              		.loc 1 1145 0
 172 0080 0722     		movs	r2, #7
1144:Generated_Source\PSoC4/CapSense.c ****         newRegisterValue &= ~(CapSense_CSD_PIN_MODE_MASK << pinModeShift);
 173              		.loc 1 1144 0
 174 0082 4346     		mov	r3, r8
1145:Generated_Source\PSoC4/CapSense.c ****         newRegisterValue |=  (uint32)(inactiveConnect << pinModeShift);
ARM GAS  C:\Users\young\AppData\Local\Temp\ccoFnsFE.s 			page 34


 175              		.loc 1 1145 0
 176 0084 A240     		lsls	r2, r2, r4
1144:Generated_Source\PSoC4/CapSense.c ****         newRegisterValue &= ~(CapSense_CSD_PIN_MODE_MASK << pinModeShift);
 177              		.loc 1 1144 0
 178 0086 1B68     		ldr	r3, [r3]
 179              	.LVL20:
 180              	.LBE44:
 181              	.LBE43:
 904:Generated_Source\PSoC4/CapSense.c ****     {
 182              		.loc 1 904 0
 183 0088 0135     		adds	r5, r5, #1
 184              	.LVL21:
 185              	.LBB47:
 186              	.LBB45:
1145:Generated_Source\PSoC4/CapSense.c ****         newRegisterValue |=  (uint32)(inactiveConnect << pinModeShift);
 187              		.loc 1 1145 0
 188 008a 9343     		bics	r3, r2
 189              	.LVL22:
1146:Generated_Source\PSoC4/CapSense.c ****         *CapSense_prtCfgTbl[port] =  newRegisterValue;
 190              		.loc 1 1146 0
 191 008c 1F43     		orrs	r7, r3
 192              	.LVL23:
1147:Generated_Source\PSoC4/CapSense.c **** 
 193              		.loc 1 1147 0
 194 008e 4346     		mov	r3, r8
 195 0090 1F60     		str	r7, [r3]
1149:Generated_Source\PSoC4/CapSense.c **** 
 196              		.loc 1 1149 0
 197 0092 FFF7FEFF 		bl	CyExitCriticalSection
 198              	.LVL24:
1151:Generated_Source\PSoC4/CapSense.c ****     #if(CapSense_IS_SHIELD_ENABLE != 0)
 199              		.loc 1 1151 0
 200 0096 0122     		movs	r2, #1
 201 0098 4B46     		mov	r3, r9
 202 009a B240     		lsls	r2, r2, r6
 203 009c 1B68     		ldr	r3, [r3]
 204 009e 9343     		bics	r3, r2
 205 00a0 4A46     		mov	r2, r9
 206 00a2 1360     		str	r3, [r2]
 207              	.LVL25:
 208              	.LBE45:
 209              	.LBE47:
 904:Generated_Source\PSoC4/CapSense.c ****     {
 210              		.loc 1 904 0
 211 00a4 062D     		cmp	r5, #6
 212 00a6 1DD0     		beq	.L1
 213 00a8 5346     		mov	r3, r10
 214 00aa 0833     		adds	r3, r3, #8
 215 00ac EB5C     		ldrb	r3, [r5, r3]
 216 00ae 9B00     		lsls	r3, r3, #2
 217 00b0 5344     		add	r3, r3, r10
 218 00b2 1A6A     		ldr	r2, [r3, #32]
 219 00b4 1969     		ldr	r1, [r3, #16]
 220 00b6 1B6B     		ldr	r3, [r3, #48]
 221 00b8 9046     		mov	r8, r2
 222 00ba 9946     		mov	r9, r3
 223              	.LVL26:
ARM GAS  C:\Users\young\AppData\Local\Temp\ccoFnsFE.s 			page 35


 224              	.L5:
 225              	.LBB48:
 226              	.LBB46:
1117:Generated_Source\PSoC4/CapSense.c ****     uint8  pinModeShift = CapSense_pinShiftTbl[sensor]  * CapSense_PC_PIN_CFG_SIZE;
 227              		.loc 1 1117 0
 228 00bc 5346     		mov	r3, r10
1123:Generated_Source\PSoC4/CapSense.c **** 
 229              		.loc 1 1123 0
 230 00be 0F27     		movs	r7, #15
1117:Generated_Source\PSoC4/CapSense.c ****     uint8  pinModeShift = CapSense_pinShiftTbl[sensor]  * CapSense_PC_PIN_CFG_SIZE;
 231              		.loc 1 1117 0
 232 00c0 5E5D     		ldrb	r6, [r3, r5]
 233              	.LVL27:
1121:Generated_Source\PSoC4/CapSense.c **** 
 234              		.loc 1 1121 0
 235 00c2 5B46     		mov	r3, fp
1123:Generated_Source\PSoC4/CapSense.c **** 
 236              		.loc 1 1123 0
 237 00c4 B200     		lsls	r2, r6, #2
 238 00c6 D2B2     		uxtb	r2, r2
 239 00c8 9740     		lsls	r7, r7, r2
1121:Generated_Source\PSoC4/CapSense.c **** 
 240              		.loc 1 1121 0
 241 00ca 585D     		ldrb	r0, [r3, r5]
1123:Generated_Source\PSoC4/CapSense.c **** 
 242              		.loc 1 1123 0
 243 00cc 0B68     		ldr	r3, [r1]
1118:Generated_Source\PSoC4/CapSense.c **** 
 244              		.loc 1 1118 0
 245 00ce 7400     		lsls	r4, r6, #1
1123:Generated_Source\PSoC4/CapSense.c **** 
 246              		.loc 1 1123 0
 247 00d0 BB43     		bics	r3, r7
 248 00d2 0627     		movs	r7, #6
1118:Generated_Source\PSoC4/CapSense.c **** 
 249              		.loc 1 1118 0
 250 00d4 3419     		adds	r4, r6, r4
 251 00d6 E4B2     		uxtb	r4, r4
 252              	.LVL28:
1123:Generated_Source\PSoC4/CapSense.c **** 
 253              		.loc 1 1123 0
 254 00d8 0B60     		str	r3, [r1]
 255 00da A740     		lsls	r7, r7, r4
1135:Generated_Source\PSoC4/CapSense.c ****         {
 256              		.loc 1 1135 0
 257 00dc 0128     		cmp	r0, #1
 258 00de CDD1     		bne	.L3
 259 00e0 0027     		movs	r7, #0
 260 00e2 CBE7     		b	.L3
 261              	.LVL29:
 262              	.L1:
 263              	.LBE46:
 264              	.LBE48:
 265              	.LBE49:
 266              	.LBE53:
 223:Generated_Source\PSoC4/CapSense.c **** 
 267              		.loc 1 223 0
ARM GAS  C:\Users\young\AppData\Local\Temp\ccoFnsFE.s 			page 36


 268              		@ sp needed
 269              	.LVL30:
 270 00e4 3CBC     		pop	{r2, r3, r4, r5}
 271 00e6 9046     		mov	r8, r2
 272 00e8 9946     		mov	r9, r3
 273 00ea A246     		mov	r10, r4
 274 00ec AB46     		mov	fp, r5
 275 00ee F8BD     		pop	{r3, r4, r5, r6, r7, pc}
 276              	.L8:
 277              		.align	2
 278              	.L7:
 279 00f0 00000000 		.word	CapSense_unscannedSnsDriveMode
 280 00f4 00FF0840 		.word	1074331392
 281 00f8 00000000 		.word	CapSense_csdTrim1
 282 00fc 62F1FF0F 		.word	268431714
 283 0100 04000840 		.word	1074266116
 284 0104 00020001 		.word	16777728
 285 0108 08000840 		.word	1074266120
 286 010c C008A001 		.word	27265216
 287 0110 00000240 		.word	1073872896
 288 0114 FFFFF0FF 		.word	-983041
 289 0118 00000000 		.word	CapSense_ISR
 290 011c 00010240 		.word	1073873152
 291 0120 00010440 		.word	1074004224
 292 0124 08010440 		.word	1074004232
 293 0128 00000000 		.word	.LANCHOR0
 294              		.cfi_endproc
 295              	.LFE32:
 296              		.size	CapSense_Init, .-CapSense_Init
 297              		.section	.text.CapSense_CsdHwBlockInit,"ax",%progbits
 298              		.align	2
 299              		.global	CapSense_CsdHwBlockInit
 300              		.code	16
 301              		.thumb_func
 302              		.type	CapSense_CsdHwBlockInit, %function
 303              	CapSense_CsdHwBlockInit:
 304              	.LFB33:
 247:Generated_Source\PSoC4/CapSense.c ****     uint32 newRegValue;
 305              		.loc 1 247 0
 306              		.cfi_startproc
 307              		@ args = 0, pretend = 0, frame = 0
 308              		@ frame_needed = 0, uses_anonymous_args = 0
 269:Generated_Source\PSoC4/CapSense.c ****         #if (CapSense_IDAC_CNT == 2u)
 309              		.loc 1 269 0
 310 0000 0F20     		movs	r0, #15
 247:Generated_Source\PSoC4/CapSense.c ****     uint32 newRegValue;
 311              		.loc 1 247 0
 312 0002 10B5     		push	{r4, lr}
 313              		.cfi_def_cfa_offset 8
 314              		.cfi_offset 4, -8
 315              		.cfi_offset 14, -4
 266:Generated_Source\PSoC4/CapSense.c ****         newRegValue = CapSense_csdTrim1;
 316              		.loc 1 266 0
 317 0004 1249     		ldr	r1, .L10
 318 0006 134B     		ldr	r3, .L10+4
 319 0008 0A68     		ldr	r2, [r1]
 320              	.LVL31:
ARM GAS  C:\Users\young\AppData\Local\Temp\ccoFnsFE.s 			page 37


 269:Generated_Source\PSoC4/CapSense.c ****         #if (CapSense_IDAC_CNT == 2u)
 321              		.loc 1 269 0
 322 000a 134C     		ldr	r4, .L10+8
 266:Generated_Source\PSoC4/CapSense.c ****         newRegValue = CapSense_csdTrim1;
 323              		.loc 1 266 0
 324 000c 1A70     		strb	r2, [r3]
 269:Generated_Source\PSoC4/CapSense.c ****         #if (CapSense_IDAC_CNT == 2u)
 325              		.loc 1 269 0
 326 000e 2378     		ldrb	r3, [r4]
 327              	.LVL32:
 308:Generated_Source\PSoC4/CapSense.c **** 
 328              		.loc 1 308 0
 329              		@ sp needed
 272:Generated_Source\PSoC4/CapSense.c ****             newRegValue |= (uint32)((uint32)CapSense_SFLASH_CSD_TRIM1_REG & (uint32)CapSense_CSFLAS
 330              		.loc 1 272 0
 331 0010 0340     		ands	r3, r0
 332              	.LVL33:
 333 0012 1A00     		movs	r2, r3
 334              	.LVL34:
 273:Generated_Source\PSoC4/CapSense.c ****         #endif
 335              		.loc 1 273 0
 336 0014 2378     		ldrb	r3, [r4]
 337 0016 8343     		bics	r3, r0
 338 0018 1343     		orrs	r3, r2
 339              	.LVL35:
 275:Generated_Source\PSoC4/CapSense.c ****     #endif /* (CapSense_IDAC1_POLARITY == CapSense__IDAC_SINK) */
 340              		.loc 1 275 0
 341 001a 0B60     		str	r3, [r1]
 280:Generated_Source\PSoC4/CapSense.c ****         CapSense_CSD_CFG_REG = CapSense_DEFAULT_CSD_CONFIG;
 342              		.loc 1 280 0
 343 001c 0F4A     		ldr	r2, .L10+12
 344 001e 104B     		ldr	r3, .L10+16
 345              	.LVL36:
 303:Generated_Source\PSoC4/CapSense.c ****     #if !defined(CY_EXTERNAL_INTERRUPT_CONFIG)
 346              		.loc 1 303 0
 347 0020 0838     		subs	r0, r0, #8
 280:Generated_Source\PSoC4/CapSense.c ****         CapSense_CSD_CFG_REG = CapSense_DEFAULT_CSD_CONFIG;
 348              		.loc 1 280 0
 349 0022 1A60     		str	r2, [r3]
 350              	.LVL37:
 281:Generated_Source\PSoC4/CapSense.c ****     #else
 351              		.loc 1 281 0
 352 0024 0F4A     		ldr	r2, .L10+20
 353 0026 104B     		ldr	r3, .L10+24
 354 0028 1A60     		str	r2, [r3]
 292:Generated_Source\PSoC4/CapSense.c ****     newRegValue &= ~(CapSense_CSD_CMOD_CONNECTION_MASK);
 355              		.loc 1 292 0
 356 002a 104A     		ldr	r2, .L10+28
 293:Generated_Source\PSoC4/CapSense.c ****     newRegValue |= CapSense_CSD_CMOD_TO_AMUXBUS_A;
 357              		.loc 1 293 0
 358 002c 104B     		ldr	r3, .L10+32
 292:Generated_Source\PSoC4/CapSense.c ****     newRegValue &= ~(CapSense_CSD_CMOD_CONNECTION_MASK);
 359              		.loc 1 292 0
 360 002e 1168     		ldr	r1, [r2]
 361              	.LVL38:
 293:Generated_Source\PSoC4/CapSense.c ****     newRegValue |= CapSense_CSD_CMOD_TO_AMUXBUS_A;
 362              		.loc 1 293 0
ARM GAS  C:\Users\young\AppData\Local\Temp\ccoFnsFE.s 			page 38


 363 0030 0B40     		ands	r3, r1
 364              	.LVL39:
 294:Generated_Source\PSoC4/CapSense.c ****     CapSense_CMOD_CONNECTION_REG = newRegValue;
 365              		.loc 1 294 0
 366 0032 C021     		movs	r1, #192
 367 0034 C902     		lsls	r1, r1, #11
 368 0036 0B43     		orrs	r3, r1
 369              	.LVL40:
 295:Generated_Source\PSoC4/CapSense.c **** 
 370              		.loc 1 295 0
 371 0038 1360     		str	r3, [r2]
 303:Generated_Source\PSoC4/CapSense.c ****     #if !defined(CY_EXTERNAL_INTERRUPT_CONFIG)
 372              		.loc 1 303 0
 373 003a FFF7FEFF 		bl	CyIntDisable
 374              	.LVL41:
 305:Generated_Source\PSoC4/CapSense.c ****         CyIntSetPriority(CapSense_ISR_NUMBER, CapSense_ISR_PRIORITY);
 375              		.loc 1 305 0
 376 003e 0D49     		ldr	r1, .L10+36
 377 0040 0720     		movs	r0, #7
 378 0042 FFF7FEFF 		bl	CyIntSetVector
 379              	.LVL42:
 306:Generated_Source\PSoC4/CapSense.c ****     #endif /* (CY_EXTERNAL_INTERRUPT_CONFIG) */
 380              		.loc 1 306 0
 381 0046 0321     		movs	r1, #3
 382 0048 0720     		movs	r0, #7
 383 004a FFF7FEFF 		bl	CyIntSetPriority
 384              	.LVL43:
 308:Generated_Source\PSoC4/CapSense.c **** 
 385              		.loc 1 308 0
 386 004e 10BD     		pop	{r4, pc}
 387              	.L11:
 388              		.align	2
 389              	.L10:
 390 0050 00FF0840 		.word	1074331392
 391 0054 00000000 		.word	CapSense_csdTrim1
 392 0058 62F1FF0F 		.word	268431714
 393 005c 00020001 		.word	16777728
 394 0060 08000840 		.word	1074266120
 395 0064 C008A001 		.word	27265216
 396 0068 04000840 		.word	1074266116
 397 006c 00000240 		.word	1073872896
 398 0070 FFFFF0FF 		.word	-983041
 399 0074 00000000 		.word	CapSense_ISR
 400              		.cfi_endproc
 401              	.LFE33:
 402              		.size	CapSense_CsdHwBlockInit, .-CapSense_CsdHwBlockInit
 403              		.section	.text.CapSense_Enable,"ax",%progbits
 404              		.align	2
 405              		.global	CapSense_Enable
 406              		.code	16
 407              		.thumb_func
 408              		.type	CapSense_Enable, %function
 409              	CapSense_Enable:
 410              	.LFB34:
 332:Generated_Source\PSoC4/CapSense.c ****     uint32 newRegValue;
 411              		.loc 1 332 0
 412              		.cfi_startproc
ARM GAS  C:\Users\young\AppData\Local\Temp\ccoFnsFE.s 			page 39


 413              		@ args = 0, pretend = 0, frame = 0
 414              		@ frame_needed = 0, uses_anonymous_args = 0
 415 0000 10B5     		push	{r4, lr}
 416              		.cfi_def_cfa_offset 8
 417              		.cfi_offset 4, -8
 418              		.cfi_offset 14, -4
 336:Generated_Source\PSoC4/CapSense.c ****     CapSense_SampleClk_Stop();
 419              		.loc 1 336 0
 420 0002 FFF7FEFF 		bl	CapSense_SenseClk_Stop
 421              	.LVL44:
 337:Generated_Source\PSoC4/CapSense.c **** 
 422              		.loc 1 337 0
 423 0006 FFF7FEFF 		bl	CapSense_SampleClk_Stop
 424              	.LVL45:
 339:Generated_Source\PSoC4/CapSense.c ****     CapSense_SenseClk_SetDividerValue((uint16)CapSense_INITIAL_CLK_DIVIDER);
 425              		.loc 1 339 0
 426 000a 0021     		movs	r1, #0
 427 000c 0020     		movs	r0, #0
 428 000e FFF7FEFF 		bl	CapSense_SampleClk_SetFractionalDividerRegister
 429              	.LVL46:
 340:Generated_Source\PSoC4/CapSense.c **** 
 430              		.loc 1 340 0
 431 0012 0021     		movs	r1, #0
 432 0014 0020     		movs	r0, #0
 433 0016 FFF7FEFF 		bl	CapSense_SenseClk_SetFractionalDividerRegister
 434              	.LVL47:
 346:Generated_Source\PSoC4/CapSense.c ****         CapSense_SenseClk_StartEx(CapSense_SampleClk__DIV_ID);
 435              		.loc 1 346 0
 436 001a FF20     		movs	r0, #255
 437 001c FFF7FEFF 		bl	CapSense_SampleClk_StartEx
 438              	.LVL48:
 347:Generated_Source\PSoC4/CapSense.c ****     #endif /* (0u == CapSense_IS_M0S8PERI_BLOCK) */
 439              		.loc 1 347 0
 440 0020 4020     		movs	r0, #64
 441 0022 FFF7FEFF 		bl	CapSense_SenseClk_StartEx
 442              	.LVL49:
 351:Generated_Source\PSoC4/CapSense.c ****     newRegValue |= (CapSense_CSD_CFG_ENABLE | CapSense_CSD_CFG_SENSE_COMP_EN
 443              		.loc 1 351 0
 444 0026 044A     		ldr	r2, .L13
 352:Generated_Source\PSoC4/CapSense.c ****                                                    | CapSense_CSD_CFG_SENSE_EN);
 445              		.loc 1 352 0
 446 0028 0449     		ldr	r1, .L13+4
 351:Generated_Source\PSoC4/CapSense.c ****     newRegValue |= (CapSense_CSD_CFG_ENABLE | CapSense_CSD_CFG_SENSE_COMP_EN
 447              		.loc 1 351 0
 448 002a 1368     		ldr	r3, [r2]
 449              	.LVL50:
 357:Generated_Source\PSoC4/CapSense.c **** }
 450              		.loc 1 357 0
 451 002c 0720     		movs	r0, #7
 352:Generated_Source\PSoC4/CapSense.c ****                                                    | CapSense_CSD_CFG_SENSE_EN);
 452              		.loc 1 352 0
 453 002e 0B43     		orrs	r3, r1
 454              	.LVL51:
 354:Generated_Source\PSoC4/CapSense.c **** 
 455              		.loc 1 354 0
 456 0030 1360     		str	r3, [r2]
 357:Generated_Source\PSoC4/CapSense.c **** }
ARM GAS  C:\Users\young\AppData\Local\Temp\ccoFnsFE.s 			page 40


 457              		.loc 1 357 0
 458 0032 FFF7FEFF 		bl	CyIntEnable
 459              	.LVL52:
 358:Generated_Source\PSoC4/CapSense.c **** 
 460              		.loc 1 358 0
 461              		@ sp needed
 462 0036 10BD     		pop	{r4, pc}
 463              	.L14:
 464              		.align	2
 465              	.L13:
 466 0038 04000840 		.word	1074266116
 467 003c 00100880 		.word	-2146955264
 468              		.cfi_endproc
 469              	.LFE34:
 470              		.size	CapSense_Enable, .-CapSense_Enable
 471              		.section	.text.CapSense_Start,"ax",%progbits
 472              		.align	2
 473              		.global	CapSense_Start
 474              		.code	16
 475              		.thumb_func
 476              		.type	CapSense_Start, %function
 477              	CapSense_Start:
 478              	.LFB35:
 391:Generated_Source\PSoC4/CapSense.c **** 
 479              		.loc 1 391 0
 480              		.cfi_startproc
 481              		@ args = 0, pretend = 0, frame = 0
 482              		@ frame_needed = 0, uses_anonymous_args = 0
 483 0000 F8B5     		push	{r3, r4, r5, r6, r7, lr}
 484              		.cfi_def_cfa_offset 24
 485              		.cfi_offset 3, -24
 486              		.cfi_offset 4, -20
 487              		.cfi_offset 5, -16
 488              		.cfi_offset 6, -12
 489              		.cfi_offset 7, -8
 490              		.cfi_offset 14, -4
 491 0002 5F46     		mov	r7, fp
 492 0004 5646     		mov	r6, r10
 493 0006 4D46     		mov	r5, r9
 494 0008 4446     		mov	r4, r8
 495 000a F0B4     		push	{r4, r5, r6, r7}
 496              		.cfi_def_cfa_offset 40
 497              		.cfi_offset 8, -40
 498              		.cfi_offset 9, -36
 499              		.cfi_offset 10, -32
 500              		.cfi_offset 11, -28
 401:Generated_Source\PSoC4/CapSense.c ****     {
 501              		.loc 1 401 0
 502 000c 4C4B     		ldr	r3, .L22
 503 000e 1B78     		ldrb	r3, [r3]
 504 0010 002B     		cmp	r3, #0
 505 0012 24D0     		beq	.L21
 506              	.L16:
 507              	.LBB68:
 508              	.LBB69:
 336:Generated_Source\PSoC4/CapSense.c ****     CapSense_SampleClk_Stop();
 509              		.loc 1 336 0
ARM GAS  C:\Users\young\AppData\Local\Temp\ccoFnsFE.s 			page 41


 510 0014 FFF7FEFF 		bl	CapSense_SenseClk_Stop
 511              	.LVL53:
 337:Generated_Source\PSoC4/CapSense.c **** 
 512              		.loc 1 337 0
 513 0018 FFF7FEFF 		bl	CapSense_SampleClk_Stop
 514              	.LVL54:
 339:Generated_Source\PSoC4/CapSense.c ****     CapSense_SenseClk_SetDividerValue((uint16)CapSense_INITIAL_CLK_DIVIDER);
 515              		.loc 1 339 0
 516 001c 0021     		movs	r1, #0
 517 001e 0020     		movs	r0, #0
 518 0020 FFF7FEFF 		bl	CapSense_SampleClk_SetFractionalDividerRegister
 519              	.LVL55:
 340:Generated_Source\PSoC4/CapSense.c **** 
 520              		.loc 1 340 0
 521 0024 0021     		movs	r1, #0
 522 0026 0020     		movs	r0, #0
 523 0028 FFF7FEFF 		bl	CapSense_SenseClk_SetFractionalDividerRegister
 524              	.LVL56:
 351:Generated_Source\PSoC4/CapSense.c ****     newRegValue |= (CapSense_CSD_CFG_ENABLE | CapSense_CSD_CFG_SENSE_COMP_EN
 525              		.loc 1 351 0
 526 002c 454C     		ldr	r4, .L22+4
 346:Generated_Source\PSoC4/CapSense.c ****         CapSense_SenseClk_StartEx(CapSense_SampleClk__DIV_ID);
 527              		.loc 1 346 0
 528 002e FF20     		movs	r0, #255
 529 0030 FFF7FEFF 		bl	CapSense_SampleClk_StartEx
 530              	.LVL57:
 347:Generated_Source\PSoC4/CapSense.c ****     #endif /* (0u == CapSense_IS_M0S8PERI_BLOCK) */
 531              		.loc 1 347 0
 532 0034 4020     		movs	r0, #64
 533 0036 FFF7FEFF 		bl	CapSense_SenseClk_StartEx
 534              	.LVL58:
 351:Generated_Source\PSoC4/CapSense.c ****     newRegValue |= (CapSense_CSD_CFG_ENABLE | CapSense_CSD_CFG_SENSE_COMP_EN
 535              		.loc 1 351 0
 536 003a 2368     		ldr	r3, [r4]
 537              	.LVL59:
 352:Generated_Source\PSoC4/CapSense.c ****                                                    | CapSense_CSD_CFG_SENSE_EN);
 538              		.loc 1 352 0
 539 003c 424A     		ldr	r2, .L22+8
 357:Generated_Source\PSoC4/CapSense.c **** }
 540              		.loc 1 357 0
 541 003e 0720     		movs	r0, #7
 352:Generated_Source\PSoC4/CapSense.c ****                                                    | CapSense_CSD_CFG_SENSE_EN);
 542              		.loc 1 352 0
 543 0040 1343     		orrs	r3, r2
 544              	.LVL60:
 354:Generated_Source\PSoC4/CapSense.c **** 
 545              		.loc 1 354 0
 546 0042 2360     		str	r3, [r4]
 357:Generated_Source\PSoC4/CapSense.c **** }
 547              		.loc 1 357 0
 548 0044 FFF7FEFF 		bl	CyIntEnable
 549              	.LVL61:
 550              	.LBE69:
 551              	.LBE68:
 455:Generated_Source\PSoC4/CapSense.c **** }
 552              		.loc 1 455 0
 553 0048 8022     		movs	r2, #128
ARM GAS  C:\Users\young\AppData\Local\Temp\ccoFnsFE.s 			page 42


 554 004a 2368     		ldr	r3, [r4]
 555 004c D203     		lsls	r2, r2, #15
 556 004e 1343     		orrs	r3, r2
 557 0050 2360     		str	r3, [r4]
 456:Generated_Source\PSoC4/CapSense.c **** 
 558              		.loc 1 456 0
 559              		@ sp needed
 560 0052 3CBC     		pop	{r2, r3, r4, r5}
 561 0054 9046     		mov	r8, r2
 562 0056 9946     		mov	r9, r3
 563 0058 A246     		mov	r10, r4
 564 005a AB46     		mov	fp, r5
 565 005c F8BD     		pop	{r3, r4, r5, r6, r7, pc}
 566              	.L21:
 567 005e 3B4B     		ldr	r3, .L22+12
 568 0060 0622     		movs	r2, #6
 569 0062 0021     		movs	r1, #0
 570 0064 1800     		movs	r0, r3
 571 0066 9B46     		mov	fp, r3
 572 0068 FFF7FEFF 		bl	memset
 573              	.LVL62:
 574              	.LBB70:
 575              	.LBB71:
 576              	.LBB72:
 577              	.LBB73:
 269:Generated_Source\PSoC4/CapSense.c ****         #if (CapSense_IDAC_CNT == 2u)
 578              		.loc 1 269 0
 579 006c 0F20     		movs	r0, #15
 266:Generated_Source\PSoC4/CapSense.c ****         newRegValue = CapSense_csdTrim1;
 580              		.loc 1 266 0
 581 006e 3849     		ldr	r1, .L22+16
 582 0070 384B     		ldr	r3, .L22+20
 583 0072 0A68     		ldr	r2, [r1]
 584              	.LVL63:
 269:Generated_Source\PSoC4/CapSense.c ****         #if (CapSense_IDAC_CNT == 2u)
 585              		.loc 1 269 0
 586 0074 384C     		ldr	r4, .L22+24
 266:Generated_Source\PSoC4/CapSense.c ****         newRegValue = CapSense_csdTrim1;
 587              		.loc 1 266 0
 588 0076 1A70     		strb	r2, [r3]
 269:Generated_Source\PSoC4/CapSense.c ****         #if (CapSense_IDAC_CNT == 2u)
 589              		.loc 1 269 0
 590 0078 2378     		ldrb	r3, [r4]
 591              	.LVL64:
 592              	.LBE73:
 593              	.LBE72:
 594              	.LBB75:
 595              	.LBB76:
 904:Generated_Source\PSoC4/CapSense.c ****     {
 596              		.loc 1 904 0
 597 007a 0026     		movs	r6, #0
 598              	.LBE76:
 599              	.LBE75:
 600              	.LBB84:
 601              	.LBB74:
 272:Generated_Source\PSoC4/CapSense.c ****             newRegValue |= (uint32)((uint32)CapSense_SFLASH_CSD_TRIM1_REG & (uint32)CapSense_CSFLAS
 602              		.loc 1 272 0
ARM GAS  C:\Users\young\AppData\Local\Temp\ccoFnsFE.s 			page 43


 603 007c 0340     		ands	r3, r0
 604              	.LVL65:
 605 007e 1A00     		movs	r2, r3
 606              	.LVL66:
 273:Generated_Source\PSoC4/CapSense.c ****         #endif
 607              		.loc 1 273 0
 608 0080 2378     		ldrb	r3, [r4]
 281:Generated_Source\PSoC4/CapSense.c ****     #else
 609              		.loc 1 281 0
 610 0082 304C     		ldr	r4, .L22+4
 273:Generated_Source\PSoC4/CapSense.c ****         #endif
 611              		.loc 1 273 0
 612 0084 8343     		bics	r3, r0
 613 0086 1343     		orrs	r3, r2
 614              	.LVL67:
 275:Generated_Source\PSoC4/CapSense.c ****     #endif /* (CapSense_IDAC1_POLARITY == CapSense__IDAC_SINK) */
 615              		.loc 1 275 0
 616 0088 0B60     		str	r3, [r1]
 280:Generated_Source\PSoC4/CapSense.c ****         CapSense_CSD_CFG_REG = CapSense_DEFAULT_CSD_CONFIG;
 617              		.loc 1 280 0
 618 008a 344A     		ldr	r2, .L22+28
 619 008c 344B     		ldr	r3, .L22+32
 620              	.LVL68:
 303:Generated_Source\PSoC4/CapSense.c ****     #if !defined(CY_EXTERNAL_INTERRUPT_CONFIG)
 621              		.loc 1 303 0
 622 008e 0838     		subs	r0, r0, #8
 280:Generated_Source\PSoC4/CapSense.c ****         CapSense_CSD_CFG_REG = CapSense_DEFAULT_CSD_CONFIG;
 623              		.loc 1 280 0
 624 0090 1A60     		str	r2, [r3]
 625              	.LVL69:
 281:Generated_Source\PSoC4/CapSense.c ****     #else
 626              		.loc 1 281 0
 627 0092 344B     		ldr	r3, .L22+36
 292:Generated_Source\PSoC4/CapSense.c ****     newRegValue &= ~(CapSense_CSD_CMOD_CONNECTION_MASK);
 628              		.loc 1 292 0
 629 0094 344A     		ldr	r2, .L22+40
 281:Generated_Source\PSoC4/CapSense.c ****     #else
 630              		.loc 1 281 0
 631 0096 2360     		str	r3, [r4]
 292:Generated_Source\PSoC4/CapSense.c ****     newRegValue &= ~(CapSense_CSD_CMOD_CONNECTION_MASK);
 632              		.loc 1 292 0
 633 0098 1168     		ldr	r1, [r2]
 634              	.LVL70:
 293:Generated_Source\PSoC4/CapSense.c ****     newRegValue |= CapSense_CSD_CMOD_TO_AMUXBUS_A;
 635              		.loc 1 293 0
 636 009a 344B     		ldr	r3, .L22+44
 637 009c 0B40     		ands	r3, r1
 638              	.LVL71:
 294:Generated_Source\PSoC4/CapSense.c ****     CapSense_CMOD_CONNECTION_REG = newRegValue;
 639              		.loc 1 294 0
 640 009e C021     		movs	r1, #192
 641 00a0 C902     		lsls	r1, r1, #11
 642 00a2 0B43     		orrs	r3, r1
 643              	.LVL72:
 295:Generated_Source\PSoC4/CapSense.c **** 
 644              		.loc 1 295 0
 645 00a4 1360     		str	r3, [r2]
ARM GAS  C:\Users\young\AppData\Local\Temp\ccoFnsFE.s 			page 44


 303:Generated_Source\PSoC4/CapSense.c ****     #if !defined(CY_EXTERNAL_INTERRUPT_CONFIG)
 646              		.loc 1 303 0
 647 00a6 FFF7FEFF 		bl	CyIntDisable
 648              	.LVL73:
 305:Generated_Source\PSoC4/CapSense.c ****         CyIntSetPriority(CapSense_ISR_NUMBER, CapSense_ISR_PRIORITY);
 649              		.loc 1 305 0
 650 00aa 3149     		ldr	r1, .L22+48
 651 00ac 0720     		movs	r0, #7
 652 00ae FFF7FEFF 		bl	CyIntSetVector
 653              	.LVL74:
 306:Generated_Source\PSoC4/CapSense.c ****     #endif /* (CY_EXTERNAL_INTERRUPT_CONFIG) */
 654              		.loc 1 306 0
 655 00b2 0321     		movs	r1, #3
 656 00b4 0720     		movs	r0, #7
 657 00b6 FFF7FEFF 		bl	CyIntSetPriority
 658              	.LVL75:
 659              	.LBE74:
 660              	.LBE84:
 661              	.LBB85:
 662              	.LBB86:
1680:Generated_Source\PSoC4/CapSense.c ****     newRegValue &= (uint32)(~(uint32)CapSense_SHIELD_DELAY);
 663              		.loc 1 1680 0
 664 00ba 2368     		ldr	r3, [r4]
 665              	.LVL76:
 666              		.loc 1 1683 0
 667 00bc 2D49     		ldr	r1, .L22+52
 668 00be 2360     		str	r3, [r4]
 669              	.LVL77:
 670 00c0 2D4B     		ldr	r3, .L22+56
 671              	.LVL78:
 672 00c2 9946     		mov	r9, r3
 673 00c4 2D4B     		ldr	r3, .L22+60
 674 00c6 9846     		mov	r8, r3
 675 00c8 2D4B     		ldr	r3, .L22+64
 676 00ca 9A46     		mov	r10, r3
 677 00cc 20E0     		b	.L20
 678              	.LVL79:
 679              	.L18:
 680              	.LBE86:
 681              	.LBE85:
 682              	.LBB87:
 683              	.LBB83:
 684              	.LBB77:
 685              	.LBB78:
1141:Generated_Source\PSoC4/CapSense.c **** 
 686              		.loc 1 1141 0
 687 00ce FFF7FEFF 		bl	CyEnterCriticalSection
 688              	.LVL80:
1145:Generated_Source\PSoC4/CapSense.c ****         newRegisterValue |=  (uint32)(inactiveConnect << pinModeShift);
 689              		.loc 1 1145 0
 690 00d2 0722     		movs	r2, #7
1144:Generated_Source\PSoC4/CapSense.c ****         newRegisterValue &= ~(CapSense_CSD_PIN_MODE_MASK << pinModeShift);
 691              		.loc 1 1144 0
 692 00d4 4346     		mov	r3, r8
1145:Generated_Source\PSoC4/CapSense.c ****         newRegisterValue |=  (uint32)(inactiveConnect << pinModeShift);
 693              		.loc 1 1145 0
 694 00d6 A240     		lsls	r2, r2, r4
ARM GAS  C:\Users\young\AppData\Local\Temp\ccoFnsFE.s 			page 45


1144:Generated_Source\PSoC4/CapSense.c ****         newRegisterValue &= ~(CapSense_CSD_PIN_MODE_MASK << pinModeShift);
 695              		.loc 1 1144 0
 696 00d8 1B68     		ldr	r3, [r3]
 697              	.LVL81:
 698              	.LBE78:
 699              	.LBE77:
 904:Generated_Source\PSoC4/CapSense.c ****     {
 700              		.loc 1 904 0
 701 00da 0136     		adds	r6, r6, #1
 702              	.LVL82:
 703              	.LBB81:
 704              	.LBB79:
1145:Generated_Source\PSoC4/CapSense.c ****         newRegisterValue |=  (uint32)(inactiveConnect << pinModeShift);
 705              		.loc 1 1145 0
 706 00dc 9343     		bics	r3, r2
 707              	.LVL83:
1146:Generated_Source\PSoC4/CapSense.c ****         *CapSense_prtCfgTbl[port] =  newRegisterValue;
 708              		.loc 1 1146 0
 709 00de 1F43     		orrs	r7, r3
 710              	.LVL84:
1147:Generated_Source\PSoC4/CapSense.c **** 
 711              		.loc 1 1147 0
 712 00e0 4346     		mov	r3, r8
 713 00e2 1F60     		str	r7, [r3]
1149:Generated_Source\PSoC4/CapSense.c **** 
 714              		.loc 1 1149 0
 715 00e4 FFF7FEFF 		bl	CyExitCriticalSection
 716              	.LVL85:
1151:Generated_Source\PSoC4/CapSense.c ****     #if(CapSense_IS_SHIELD_ENABLE != 0)
 717              		.loc 1 1151 0
 718 00e8 0122     		movs	r2, #1
 719 00ea 1100     		movs	r1, r2
 720 00ec 4B46     		mov	r3, r9
 721 00ee A940     		lsls	r1, r1, r5
 722 00f0 1B68     		ldr	r3, [r3]
 723 00f2 8B43     		bics	r3, r1
 724 00f4 4946     		mov	r1, r9
 725 00f6 0B60     		str	r3, [r1]
 726              	.LVL86:
 727              	.LBE79:
 728              	.LBE81:
 904:Generated_Source\PSoC4/CapSense.c ****     {
 729              		.loc 1 904 0
 730 00f8 062E     		cmp	r6, #6
 731 00fa 1DD0     		beq	.L19
 732 00fc 5346     		mov	r3, r10
 733 00fe 0833     		adds	r3, r3, #8
 734 0100 F35C     		ldrb	r3, [r6, r3]
 735 0102 9B00     		lsls	r3, r3, #2
 736 0104 5344     		add	r3, r3, r10
 737 0106 1A6A     		ldr	r2, [r3, #32]
 738 0108 1969     		ldr	r1, [r3, #16]
 739 010a 1B6B     		ldr	r3, [r3, #48]
 740 010c 9046     		mov	r8, r2
 741 010e 9946     		mov	r9, r3
 742              	.LVL87:
 743              	.L20:
ARM GAS  C:\Users\young\AppData\Local\Temp\ccoFnsFE.s 			page 46


 744              	.LBB82:
 745              	.LBB80:
1117:Generated_Source\PSoC4/CapSense.c ****     uint8  pinModeShift = CapSense_pinShiftTbl[sensor]  * CapSense_PC_PIN_CFG_SIZE;
 746              		.loc 1 1117 0
 747 0110 5346     		mov	r3, r10
1123:Generated_Source\PSoC4/CapSense.c **** 
 748              		.loc 1 1123 0
 749 0112 0F27     		movs	r7, #15
1117:Generated_Source\PSoC4/CapSense.c ****     uint8  pinModeShift = CapSense_pinShiftTbl[sensor]  * CapSense_PC_PIN_CFG_SIZE;
 750              		.loc 1 1117 0
 751 0114 9D5D     		ldrb	r5, [r3, r6]
 752              	.LVL88:
1121:Generated_Source\PSoC4/CapSense.c **** 
 753              		.loc 1 1121 0
 754 0116 5B46     		mov	r3, fp
1123:Generated_Source\PSoC4/CapSense.c **** 
 755              		.loc 1 1123 0
 756 0118 AA00     		lsls	r2, r5, #2
 757 011a D2B2     		uxtb	r2, r2
 758 011c 9740     		lsls	r7, r7, r2
1121:Generated_Source\PSoC4/CapSense.c **** 
 759              		.loc 1 1121 0
 760 011e 985D     		ldrb	r0, [r3, r6]
1123:Generated_Source\PSoC4/CapSense.c **** 
 761              		.loc 1 1123 0
 762 0120 0B68     		ldr	r3, [r1]
1118:Generated_Source\PSoC4/CapSense.c **** 
 763              		.loc 1 1118 0
 764 0122 6C00     		lsls	r4, r5, #1
1123:Generated_Source\PSoC4/CapSense.c **** 
 765              		.loc 1 1123 0
 766 0124 BB43     		bics	r3, r7
 767 0126 0627     		movs	r7, #6
1118:Generated_Source\PSoC4/CapSense.c **** 
 768              		.loc 1 1118 0
 769 0128 2C19     		adds	r4, r5, r4
 770 012a E4B2     		uxtb	r4, r4
 771              	.LVL89:
1123:Generated_Source\PSoC4/CapSense.c **** 
 772              		.loc 1 1123 0
 773 012c 0B60     		str	r3, [r1]
 774 012e A740     		lsls	r7, r7, r4
1135:Generated_Source\PSoC4/CapSense.c ****         {
 775              		.loc 1 1135 0
 776 0130 0128     		cmp	r0, #1
 777 0132 CCD1     		bne	.L18
 778 0134 0027     		movs	r7, #0
 779 0136 CAE7     		b	.L18
 780              	.LVL90:
 781              	.L19:
 782              	.LBE80:
 783              	.LBE82:
 784              	.LBE83:
 785              	.LBE87:
 786              	.LBE71:
 787              	.LBE70:
 404:Generated_Source\PSoC4/CapSense.c ****     }
ARM GAS  C:\Users\young\AppData\Local\Temp\ccoFnsFE.s 			page 47


 788              		.loc 1 404 0
 789 0138 014B     		ldr	r3, .L22
 790 013a 1A70     		strb	r2, [r3]
 791 013c 6AE7     		b	.L16
 792              	.L23:
 793 013e C046     		.align	2
 794              	.L22:
 795 0140 00000000 		.word	.LANCHOR1
 796 0144 04000840 		.word	1074266116
 797 0148 00100880 		.word	-2146955264
 798 014c 00000000 		.word	CapSense_unscannedSnsDriveMode
 799 0150 00FF0840 		.word	1074331392
 800 0154 00000000 		.word	CapSense_csdTrim1
 801 0158 62F1FF0F 		.word	268431714
 802 015c 00020001 		.word	16777728
 803 0160 08000840 		.word	1074266120
 804 0164 C008A001 		.word	27265216
 805 0168 00000240 		.word	1073872896
 806 016c FFFFF0FF 		.word	-983041
 807 0170 00000000 		.word	CapSense_ISR
 808 0174 00010240 		.word	1073873152
 809 0178 00010440 		.word	1074004224
 810 017c 08010440 		.word	1074004232
 811 0180 00000000 		.word	.LANCHOR0
 812              		.cfi_endproc
 813              	.LFE35:
 814              		.size	CapSense_Start, .-CapSense_Start
 815              		.section	.text.CapSense_Stop,"ax",%progbits
 816              		.align	2
 817              		.global	CapSense_Stop
 818              		.code	16
 819              		.thumb_func
 820              		.type	CapSense_Stop, %function
 821              	CapSense_Stop:
 822              	.LFB36:
 483:Generated_Source\PSoC4/CapSense.c ****     /* Disable interrupt */
 823              		.loc 1 483 0
 824              		.cfi_startproc
 825              		@ args = 0, pretend = 0, frame = 0
 826              		@ frame_needed = 0, uses_anonymous_args = 0
 827 0000 10B5     		push	{r4, lr}
 828              		.cfi_def_cfa_offset 8
 829              		.cfi_offset 4, -8
 830              		.cfi_offset 14, -4
 485:Generated_Source\PSoC4/CapSense.c **** 
 831              		.loc 1 485 0
 832 0002 0720     		movs	r0, #7
 833 0004 FFF7FEFF 		bl	CyIntDisable
 834              	.LVL91:
 487:Generated_Source\PSoC4/CapSense.c **** 
 835              		.loc 1 487 0
 836 0008 064A     		ldr	r2, .L25
 837 000a 074B     		ldr	r3, .L25+4
 838 000c 1168     		ldr	r1, [r2]
 496:Generated_Source\PSoC4/CapSense.c **** 
 839              		.loc 1 496 0
 840              		@ sp needed
ARM GAS  C:\Users\young\AppData\Local\Temp\ccoFnsFE.s 			page 48


 487:Generated_Source\PSoC4/CapSense.c **** 
 841              		.loc 1 487 0
 842 000e 0B40     		ands	r3, r1
 843 0010 1360     		str	r3, [r2]
 490:Generated_Source\PSoC4/CapSense.c ****     #endif /* (CapSense_IDAC_CNT == 2u) */
 844              		.loc 1 490 0
 845 0012 1368     		ldr	r3, [r2]
 846 0014 5B00     		lsls	r3, r3, #1
 847 0016 5B08     		lsrs	r3, r3, #1
 848 0018 1360     		str	r3, [r2]
 494:Generated_Source\PSoC4/CapSense.c ****     CapSense_SampleClk_Stop();
 849              		.loc 1 494 0
 850 001a FFF7FEFF 		bl	CapSense_SenseClk_Stop
 851              	.LVL92:
 495:Generated_Source\PSoC4/CapSense.c **** }
 852              		.loc 1 495 0
 853 001e FFF7FEFF 		bl	CapSense_SampleClk_Stop
 854              	.LVL93:
 496:Generated_Source\PSoC4/CapSense.c **** 
 855              		.loc 1 496 0
 856 0022 10BD     		pop	{r4, pc}
 857              	.L26:
 858              		.align	2
 859              	.L25:
 860 0024 04000840 		.word	1074266116
 861 0028 FFEFF7FF 		.word	-528385
 862              		.cfi_endproc
 863              	.LFE36:
 864              		.size	CapSense_Stop, .-CapSense_Stop
 865              		.section	.text.CapSense_FindNextSensor,"ax",%progbits
 866              		.align	2
 867              		.global	CapSense_FindNextSensor
 868              		.code	16
 869              		.thumb_func
 870              		.type	CapSense_FindNextSensor, %function
 871              	CapSense_FindNextSensor:
 872              	.LFB37:
 521:Generated_Source\PSoC4/CapSense.c ****     uint32 enableFlag;
 873              		.loc 1 521 0
 874              		.cfi_startproc
 875              		@ args = 0, pretend = 0, frame = 0
 876              		@ frame_needed = 0, uses_anonymous_args = 0
 877              	.LVL94:
 878 0000 70B5     		push	{r4, r5, r6, lr}
 879              		.cfi_def_cfa_offset 16
 880              		.cfi_offset 4, -16
 881              		.cfi_offset 5, -12
 882              		.cfi_offset 6, -8
 883              		.cfi_offset 14, -4
 884              	.LBB88:
 885              	.LBB89:
1684:Generated_Source\PSoC4/CapSense.c **** }
1685:Generated_Source\PSoC4/CapSense.c **** 
1686:Generated_Source\PSoC4/CapSense.c **** 
1687:Generated_Source\PSoC4/CapSense.c **** /*******************************************************************************
1688:Generated_Source\PSoC4/CapSense.c **** * Function Name: CapSense_ReadCurrentScanningSensor
1689:Generated_Source\PSoC4/CapSense.c **** ********************************************************************************
ARM GAS  C:\Users\young\AppData\Local\Temp\ccoFnsFE.s 			page 49


1690:Generated_Source\PSoC4/CapSense.c **** *
1691:Generated_Source\PSoC4/CapSense.c **** * Summary:
1692:Generated_Source\PSoC4/CapSense.c **** *  This API returns scanning sensor number when sensor scan is in progress.
1693:Generated_Source\PSoC4/CapSense.c **** *  When sensor scan is completed the API returns
1694:Generated_Source\PSoC4/CapSense.c **** *  $INSTANCE_NAME`_NOT_SENSOR (0xFFFFFFFF) (when no sensor is scanned).
1695:Generated_Source\PSoC4/CapSense.c **** *
1696:Generated_Source\PSoC4/CapSense.c **** * Parameters:
1697:Generated_Source\PSoC4/CapSense.c **** *   None.
1698:Generated_Source\PSoC4/CapSense.c **** *
1699:Generated_Source\PSoC4/CapSense.c **** * Return:
1700:Generated_Source\PSoC4/CapSense.c **** *  Returns Sensor number if sensor is being scanned and
1701:Generated_Source\PSoC4/CapSense.c **** *  $INSTANCE_NAME`_NOT_SENSOR (0xFFFFFFFF) if scanning is complete.
1702:Generated_Source\PSoC4/CapSense.c **** *
1703:Generated_Source\PSoC4/CapSense.c **** * Global Variables:
1704:Generated_Source\PSoC4/CapSense.c **** *  CapSense_sensorIndex - the sensor number is being scanned.
1705:Generated_Source\PSoC4/CapSense.c **** *
1706:Generated_Source\PSoC4/CapSense.c **** * Side Effects:
1707:Generated_Source\PSoC4/CapSense.c **** *  None
1708:Generated_Source\PSoC4/CapSense.c **** *
1709:Generated_Source\PSoC4/CapSense.c **** *******************************************************************************/
1710:Generated_Source\PSoC4/CapSense.c **** uint32 CapSense_ReadCurrentScanningSensor(void)
1711:Generated_Source\PSoC4/CapSense.c **** {
1712:Generated_Source\PSoC4/CapSense.c ****     return ((uint32)(( 0u != (CapSense_csdStatusVar & CapSense_SW_STS_BUSY)) ?
1713:Generated_Source\PSoC4/CapSense.c ****                      CapSense_sensorIndex : CapSense_NOT_SENSOR));
1714:Generated_Source\PSoC4/CapSense.c **** }
1715:Generated_Source\PSoC4/CapSense.c **** 
1716:Generated_Source\PSoC4/CapSense.c **** 
1717:Generated_Source\PSoC4/CapSense.c **** /*******************************************************************************
1718:Generated_Source\PSoC4/CapSense.c **** * Function Name: CapSense_GetBitValue
1719:Generated_Source\PSoC4/CapSense.c **** ********************************************************************************
1720:Generated_Source\PSoC4/CapSense.c **** *
1721:Generated_Source\PSoC4/CapSense.c **** * Summary:
1722:Generated_Source\PSoC4/CapSense.c **** *  The API returns a bit status of the bit in the table array which contains the masks.
1723:Generated_Source\PSoC4/CapSense.c **** *
1724:Generated_Source\PSoC4/CapSense.c **** * Parameters:
1725:Generated_Source\PSoC4/CapSense.c **** *  table[] - array with bit masks.
1726:Generated_Source\PSoC4/CapSense.c **** *  position - position of bit in the table[] array.
1727:Generated_Source\PSoC4/CapSense.c **** *
1728:Generated_Source\PSoC4/CapSense.c **** * Return:
1729:Generated_Source\PSoC4/CapSense.c **** *  0 - bit is not set; 1 - bit is set.
1730:Generated_Source\PSoC4/CapSense.c **** *
1731:Generated_Source\PSoC4/CapSense.c **** * Global Variables:
1732:Generated_Source\PSoC4/CapSense.c **** *  None
1733:Generated_Source\PSoC4/CapSense.c **** *
1734:Generated_Source\PSoC4/CapSense.c **** * Side Effects:
1735:Generated_Source\PSoC4/CapSense.c **** *  None
1736:Generated_Source\PSoC4/CapSense.c **** *
1737:Generated_Source\PSoC4/CapSense.c **** *******************************************************************************/
1738:Generated_Source\PSoC4/CapSense.c **** uint32 CapSense_GetBitValue(const uint8 table[], uint32 position)
1739:Generated_Source\PSoC4/CapSense.c **** {
1740:Generated_Source\PSoC4/CapSense.c ****     uint32 offset;
1741:Generated_Source\PSoC4/CapSense.c ****     uint8 enMask;
1742:Generated_Source\PSoC4/CapSense.c **** 
1743:Generated_Source\PSoC4/CapSense.c ****     /* position is divided by 8 to calculate the element of the
1744:Generated_Source\PSoC4/CapSense.c ****        table[] array that contains the enable bit
1745:Generated_Source\PSoC4/CapSense.c ****        for an appropriate sensor.
1746:Generated_Source\PSoC4/CapSense.c ****     */
ARM GAS  C:\Users\young\AppData\Local\Temp\ccoFnsFE.s 			page 50


1747:Generated_Source\PSoC4/CapSense.c ****     offset = (position >> 3u);
1748:Generated_Source\PSoC4/CapSense.c **** 
1749:Generated_Source\PSoC4/CapSense.c ****     /* The enMask calculation for the appropriate sensor. Operation (position & 0x07u)
1750:Generated_Source\PSoC4/CapSense.c ****        intends to calculate the enable bit offset for the 8-bit element of the
1751:Generated_Source\PSoC4/CapSense.c ****        table[] array.
1752:Generated_Source\PSoC4/CapSense.c ****     */
1753:Generated_Source\PSoC4/CapSense.c ****     enMask = 0x01u << (position & 0x07u);
1754:Generated_Source\PSoC4/CapSense.c **** 
1755:Generated_Source\PSoC4/CapSense.c ****     return ((0u !=(table[offset] & enMask)) ? 1Lu : 0Lu);
 886              		.loc 1 1755 0
 887 0002 0121     		movs	r1, #1
 888 0004 0724     		movs	r4, #7
 889 0006 074D     		ldr	r5, .L35
 890              	.L29:
 891              	.LBE89:
 892              	.LBE88:
 528:Generated_Source\PSoC4/CapSense.c ****         if(snsIndex == CapSense_TOTAL_SENSOR_COUNT)
 893              		.loc 1 528 0
 894 0008 0130     		adds	r0, r0, #1
 895              	.LVL95:
 896 000a C0B2     		uxtb	r0, r0
 897              	.LVL96:
 529:Generated_Source\PSoC4/CapSense.c ****         {
 898              		.loc 1 529 0
 899 000c 0628     		cmp	r0, #6
 900 000e 07D0     		beq	.L28
 901              	.LVL97:
 902              	.LBB91:
 903              	.LBB90:
 904              		.loc 1 1755 0
 905 0010 2200     		movs	r2, r4
 906 0012 0E00     		movs	r6, r1
 907 0014 0240     		ands	r2, r0
 908 0016 9640     		lsls	r6, r6, r2
 909 0018 C308     		lsrs	r3, r0, #3
 910 001a EB5C     		ldrb	r3, [r5, r3]
 911 001c 1E42     		tst	r6, r3
 912 001e F3D0     		beq	.L29
 913              	.LVL98:
 914              	.L28:
 915              	.LBE90:
 916              	.LBE91:
 538:Generated_Source\PSoC4/CapSense.c **** 
 917              		.loc 1 538 0
 918              		@ sp needed
 919 0020 70BD     		pop	{r4, r5, r6, pc}
 920              	.L36:
 921 0022 C046     		.align	2
 922              	.L35:
 923 0024 00000000 		.word	.LANCHOR2
 924              		.cfi_endproc
 925              	.LFE37:
 926              		.size	CapSense_FindNextSensor, .-CapSense_FindNextSensor
 927              		.section	.text.CapSense_IsBusy,"ax",%progbits
 928              		.align	2
 929              		.global	CapSense_IsBusy
 930              		.code	16
ARM GAS  C:\Users\young\AppData\Local\Temp\ccoFnsFE.s 			page 51


 931              		.thumb_func
 932              		.type	CapSense_IsBusy, %function
 933              	CapSense_IsBusy:
 934              	.LFB41:
 734:Generated_Source\PSoC4/CapSense.c ****     return ((uint32)((0u != (CapSense_csdStatusVar & CapSense_SW_STS_BUSY)) ? 1u : 0u));
 935              		.loc 1 734 0
 936              		.cfi_startproc
 937              		@ args = 0, pretend = 0, frame = 0
 938              		@ frame_needed = 0, uses_anonymous_args = 0
 939              		@ link register save eliminated.
 735:Generated_Source\PSoC4/CapSense.c **** }
 940              		.loc 1 735 0
 941 0000 0120     		movs	r0, #1
 942 0002 024B     		ldr	r3, .L38
 736:Generated_Source\PSoC4/CapSense.c **** 
 943              		.loc 1 736 0
 944              		@ sp needed
 735:Generated_Source\PSoC4/CapSense.c **** }
 945              		.loc 1 735 0
 946 0004 5B78     		ldrb	r3, [r3, #1]
 947 0006 1840     		ands	r0, r3
 736:Generated_Source\PSoC4/CapSense.c **** 
 948              		.loc 1 736 0
 949 0008 7047     		bx	lr
 950              	.L39:
 951 000a C046     		.align	2
 952              	.L38:
 953 000c 00000000 		.word	.LANCHOR1
 954              		.cfi_endproc
 955              	.LFE41:
 956              		.size	CapSense_IsBusy, .-CapSense_IsBusy
 957              		.section	.text.CapSense_ReadSensorRaw,"ax",%progbits
 958              		.align	2
 959              		.global	CapSense_ReadSensorRaw
 960              		.code	16
 961              		.thumb_func
 962              		.type	CapSense_ReadSensorRaw, %function
 963              	CapSense_ReadSensorRaw:
 964              	.LFB42:
 764:Generated_Source\PSoC4/CapSense.c ****     return CapSense_sensorRaw[sensor];
 965              		.loc 1 764 0
 966              		.cfi_startproc
 967              		@ args = 0, pretend = 0, frame = 0
 968              		@ frame_needed = 0, uses_anonymous_args = 0
 969              		@ link register save eliminated.
 970              	.LVL99:
 765:Generated_Source\PSoC4/CapSense.c **** }
 971              		.loc 1 765 0
 972 0000 024B     		ldr	r3, .L41
 973 0002 4000     		lsls	r0, r0, #1
 974              	.LVL100:
 975 0004 1818     		adds	r0, r3, r0
 976 0006 8088     		ldrh	r0, [r0, #4]
 766:Generated_Source\PSoC4/CapSense.c **** 
 977              		.loc 1 766 0
 978              		@ sp needed
 979 0008 7047     		bx	lr
ARM GAS  C:\Users\young\AppData\Local\Temp\ccoFnsFE.s 			page 52


 980              	.L42:
 981 000a C046     		.align	2
 982              	.L41:
 983 000c 00000000 		.word	.LANCHOR1
 984              		.cfi_endproc
 985              	.LFE42:
 986              		.size	CapSense_ReadSensorRaw, .-CapSense_ReadSensorRaw
 987              		.section	.text.CapSense_WriteSensorRaw,"ax",%progbits
 988              		.align	2
 989              		.global	CapSense_WriteSensorRaw
 990              		.code	16
 991              		.thumb_func
 992              		.type	CapSense_WriteSensorRaw, %function
 993              	CapSense_WriteSensorRaw:
 994              	.LFB43:
 791:Generated_Source\PSoC4/CapSense.c ****     CapSense_sensorRaw[sensor] = value;
 995              		.loc 1 791 0
 996              		.cfi_startproc
 997              		@ args = 0, pretend = 0, frame = 0
 998              		@ frame_needed = 0, uses_anonymous_args = 0
 999              		@ link register save eliminated.
 1000              	.LVL101:
 792:Generated_Source\PSoC4/CapSense.c **** }
 1001              		.loc 1 792 0
 1002 0000 024B     		ldr	r3, .L44
 1003 0002 4000     		lsls	r0, r0, #1
 1004              	.LVL102:
 1005 0004 1818     		adds	r0, r3, r0
 1006 0006 8180     		strh	r1, [r0, #4]
 793:Generated_Source\PSoC4/CapSense.c **** 
 1007              		.loc 1 793 0
 1008              		@ sp needed
 1009 0008 7047     		bx	lr
 1010              	.L45:
 1011 000a C046     		.align	2
 1012              	.L44:
 1013 000c 00000000 		.word	.LANCHOR1
 1014              		.cfi_endproc
 1015              	.LFE43:
 1016              		.size	CapSense_WriteSensorRaw, .-CapSense_WriteSensorRaw
 1017              		.section	.text.CapSense_SetScanResolution,"ax",%progbits
 1018              		.align	2
 1019              		.global	CapSense_SetScanResolution
 1020              		.code	16
 1021              		.thumb_func
 1022              		.type	CapSense_SetScanResolution, %function
 1023              	CapSense_SetScanResolution:
 1024              	.LFB44:
 833:Generated_Source\PSoC4/CapSense.c ****         CapSense_widgetResolution[widget] = resolution;
 1025              		.loc 1 833 0
 1026              		.cfi_startproc
 1027              		@ args = 0, pretend = 0, frame = 0
 1028              		@ frame_needed = 0, uses_anonymous_args = 0
 1029              		@ link register save eliminated.
 1030              	.LVL103:
 834:Generated_Source\PSoC4/CapSense.c ****     }
 1031              		.loc 1 834 0
ARM GAS  C:\Users\young\AppData\Local\Temp\ccoFnsFE.s 			page 53


 1032 0000 024B     		ldr	r3, .L47
 1033 0002 8000     		lsls	r0, r0, #2
 1034              	.LVL104:
 1035 0004 1818     		adds	r0, r3, r0
 1036 0006 4160     		str	r1, [r0, #4]
 835:Generated_Source\PSoC4/CapSense.c **** #endif /* (CapSense_TUNING_METHOD != CapSense__TUNING_NONE) */
 1037              		.loc 1 835 0
 1038              		@ sp needed
 1039 0008 7047     		bx	lr
 1040              	.L48:
 1041 000a C046     		.align	2
 1042              	.L47:
 1043 000c 00000000 		.word	.LANCHOR2
 1044              		.cfi_endproc
 1045              	.LFE44:
 1046              		.size	CapSense_SetScanResolution, .-CapSense_SetScanResolution
 1047              		.section	.text.CapSense_GetScanResolution,"ax",%progbits
 1048              		.align	2
 1049              		.global	CapSense_GetScanResolution
 1050              		.code	16
 1051              		.thumb_func
 1052              		.type	CapSense_GetScanResolution, %function
 1053              	CapSense_GetScanResolution:
 1054              	.LFB45:
 874:Generated_Source\PSoC4/CapSense.c ****     return(CapSense_widgetResolution[widget]);
 1055              		.loc 1 874 0
 1056              		.cfi_startproc
 1057              		@ args = 0, pretend = 0, frame = 0
 1058              		@ frame_needed = 0, uses_anonymous_args = 0
 1059              		@ link register save eliminated.
 1060              	.LVL105:
 875:Generated_Source\PSoC4/CapSense.c **** }
 1061              		.loc 1 875 0
 1062 0000 024B     		ldr	r3, .L50
 1063 0002 8000     		lsls	r0, r0, #2
 1064              	.LVL106:
 1065 0004 1818     		adds	r0, r3, r0
 1066 0006 4068     		ldr	r0, [r0, #4]
 876:Generated_Source\PSoC4/CapSense.c **** 
 1067              		.loc 1 876 0
 1068              		@ sp needed
 1069 0008 7047     		bx	lr
 1070              	.L51:
 1071 000a C046     		.align	2
 1072              	.L50:
 1073 000c 00000000 		.word	.LANCHOR2
 1074              		.cfi_endproc
 1075              	.LFE45:
 1076              		.size	CapSense_GetScanResolution, .-CapSense_GetScanResolution
 1077              		.section	.text.CapSense_ClearSensors,"ax",%progbits
 1078              		.align	2
 1079              		.global	CapSense_ClearSensors
 1080              		.code	16
 1081              		.thumb_func
 1082              		.type	CapSense_ClearSensors, %function
 1083              	CapSense_ClearSensors:
 1084              	.LFB46:
ARM GAS  C:\Users\young\AppData\Local\Temp\ccoFnsFE.s 			page 54


 901:Generated_Source\PSoC4/CapSense.c ****     uint32 snsIndex;
 1085              		.loc 1 901 0
 1086              		.cfi_startproc
 1087              		@ args = 0, pretend = 0, frame = 0
 1088              		@ frame_needed = 0, uses_anonymous_args = 0
 1089              	.LVL107:
 1090 0000 F8B5     		push	{r3, r4, r5, r6, r7, lr}
 1091              		.cfi_def_cfa_offset 24
 1092              		.cfi_offset 3, -24
 1093              		.cfi_offset 4, -20
 1094              		.cfi_offset 5, -16
 1095              		.cfi_offset 6, -12
 1096              		.cfi_offset 7, -8
 1097              		.cfi_offset 14, -4
 1098 0002 4D46     		mov	r5, r9
 1099 0004 5F46     		mov	r7, fp
 1100 0006 5646     		mov	r6, r10
 1101 0008 4446     		mov	r4, r8
 1102 000a 234B     		ldr	r3, .L57
 1103 000c F0B4     		push	{r4, r5, r6, r7}
 1104              		.cfi_def_cfa_offset 40
 1105              		.cfi_offset 8, -40
 1106              		.cfi_offset 9, -36
 1107              		.cfi_offset 10, -32
 1108              		.cfi_offset 11, -28
 901:Generated_Source\PSoC4/CapSense.c ****     uint32 snsIndex;
 1109              		.loc 1 901 0
 1110 000e 9946     		mov	r9, r3
 1111 0010 224B     		ldr	r3, .L57+4
 1112 0012 2349     		ldr	r1, .L57+8
 1113 0014 9846     		mov	r8, r3
 1114 0016 234B     		ldr	r3, .L57+12
 904:Generated_Source\PSoC4/CapSense.c ****     {
 1115              		.loc 1 904 0
 1116 0018 0025     		movs	r5, #0
 1117 001a 9A46     		mov	r10, r3
 1118 001c 224B     		ldr	r3, .L57+16
 1119 001e 9B46     		mov	fp, r3
 1120 0020 1FE0     		b	.L56
 1121              	.LVL108:
 1122              	.L54:
 1123              	.LBB94:
 1124              	.LBB95:
1141:Generated_Source\PSoC4/CapSense.c **** 
 1125              		.loc 1 1141 0
 1126 0022 FFF7FEFF 		bl	CyEnterCriticalSection
 1127              	.LVL109:
1145:Generated_Source\PSoC4/CapSense.c ****         newRegisterValue |=  (uint32)(inactiveConnect << pinModeShift);
 1128              		.loc 1 1145 0
 1129 0026 0722     		movs	r2, #7
1144:Generated_Source\PSoC4/CapSense.c ****         newRegisterValue &= ~(CapSense_CSD_PIN_MODE_MASK << pinModeShift);
 1130              		.loc 1 1144 0
 1131 0028 4346     		mov	r3, r8
1145:Generated_Source\PSoC4/CapSense.c ****         newRegisterValue |=  (uint32)(inactiveConnect << pinModeShift);
 1132              		.loc 1 1145 0
 1133 002a A240     		lsls	r2, r2, r4
1144:Generated_Source\PSoC4/CapSense.c ****         newRegisterValue &= ~(CapSense_CSD_PIN_MODE_MASK << pinModeShift);
ARM GAS  C:\Users\young\AppData\Local\Temp\ccoFnsFE.s 			page 55


 1134              		.loc 1 1144 0
 1135 002c 1B68     		ldr	r3, [r3]
 1136              	.LVL110:
 1137              	.LBE95:
 1138              	.LBE94:
 904:Generated_Source\PSoC4/CapSense.c ****     {
 1139              		.loc 1 904 0
 1140 002e 0135     		adds	r5, r5, #1
 1141              	.LVL111:
 1142              	.LBB98:
 1143              	.LBB96:
1145:Generated_Source\PSoC4/CapSense.c ****         newRegisterValue |=  (uint32)(inactiveConnect << pinModeShift);
 1144              		.loc 1 1145 0
 1145 0030 9343     		bics	r3, r2
 1146              	.LVL112:
1146:Generated_Source\PSoC4/CapSense.c ****         *CapSense_prtCfgTbl[port] =  newRegisterValue;
 1147              		.loc 1 1146 0
 1148 0032 1F43     		orrs	r7, r3
 1149              	.LVL113:
1147:Generated_Source\PSoC4/CapSense.c **** 
 1150              		.loc 1 1147 0
 1151 0034 4346     		mov	r3, r8
 1152 0036 1F60     		str	r7, [r3]
1149:Generated_Source\PSoC4/CapSense.c **** 
 1153              		.loc 1 1149 0
 1154 0038 FFF7FEFF 		bl	CyExitCriticalSection
 1155              	.LVL114:
1151:Generated_Source\PSoC4/CapSense.c ****     #if(CapSense_IS_SHIELD_ENABLE != 0)
 1156              		.loc 1 1151 0
 1157 003c 0122     		movs	r2, #1
 1158 003e 4B46     		mov	r3, r9
 1159 0040 B240     		lsls	r2, r2, r6
 1160 0042 1B68     		ldr	r3, [r3]
 1161 0044 9343     		bics	r3, r2
 1162 0046 4A46     		mov	r2, r9
 1163 0048 1360     		str	r3, [r2]
 1164              	.LVL115:
 1165              	.LBE96:
 1166              	.LBE98:
 904:Generated_Source\PSoC4/CapSense.c ****     {
 1167              		.loc 1 904 0
 1168 004a 062D     		cmp	r5, #6
 1169 004c 1DD0     		beq	.L52
 1170 004e 5346     		mov	r3, r10
 1171 0050 0833     		adds	r3, r3, #8
 1172 0052 EB5C     		ldrb	r3, [r5, r3]
 1173 0054 9B00     		lsls	r3, r3, #2
 1174 0056 5344     		add	r3, r3, r10
 1175 0058 1A6A     		ldr	r2, [r3, #32]
 1176 005a 1969     		ldr	r1, [r3, #16]
 1177 005c 1B6B     		ldr	r3, [r3, #48]
 1178 005e 9046     		mov	r8, r2
 1179 0060 9946     		mov	r9, r3
 1180              	.LVL116:
 1181              	.L56:
 1182              	.LBB99:
 1183              	.LBB97:
ARM GAS  C:\Users\young\AppData\Local\Temp\ccoFnsFE.s 			page 56


1117:Generated_Source\PSoC4/CapSense.c ****     uint8  pinModeShift = CapSense_pinShiftTbl[sensor]  * CapSense_PC_PIN_CFG_SIZE;
 1184              		.loc 1 1117 0
 1185 0062 5346     		mov	r3, r10
1123:Generated_Source\PSoC4/CapSense.c **** 
 1186              		.loc 1 1123 0
 1187 0064 0F27     		movs	r7, #15
1117:Generated_Source\PSoC4/CapSense.c ****     uint8  pinModeShift = CapSense_pinShiftTbl[sensor]  * CapSense_PC_PIN_CFG_SIZE;
 1188              		.loc 1 1117 0
 1189 0066 5E5D     		ldrb	r6, [r3, r5]
 1190              	.LVL117:
1121:Generated_Source\PSoC4/CapSense.c **** 
 1191              		.loc 1 1121 0
 1192 0068 5B46     		mov	r3, fp
1123:Generated_Source\PSoC4/CapSense.c **** 
 1193              		.loc 1 1123 0
 1194 006a B200     		lsls	r2, r6, #2
 1195 006c D2B2     		uxtb	r2, r2
 1196 006e 9740     		lsls	r7, r7, r2
1121:Generated_Source\PSoC4/CapSense.c **** 
 1197              		.loc 1 1121 0
 1198 0070 585D     		ldrb	r0, [r3, r5]
1123:Generated_Source\PSoC4/CapSense.c **** 
 1199              		.loc 1 1123 0
 1200 0072 0B68     		ldr	r3, [r1]
1118:Generated_Source\PSoC4/CapSense.c **** 
 1201              		.loc 1 1118 0
 1202 0074 7400     		lsls	r4, r6, #1
1123:Generated_Source\PSoC4/CapSense.c **** 
 1203              		.loc 1 1123 0
 1204 0076 BB43     		bics	r3, r7
 1205 0078 0627     		movs	r7, #6
1118:Generated_Source\PSoC4/CapSense.c **** 
 1206              		.loc 1 1118 0
 1207 007a 3419     		adds	r4, r6, r4
 1208 007c E4B2     		uxtb	r4, r4
 1209              	.LVL118:
1123:Generated_Source\PSoC4/CapSense.c **** 
 1210              		.loc 1 1123 0
 1211 007e 0B60     		str	r3, [r1]
 1212 0080 A740     		lsls	r7, r7, r4
1135:Generated_Source\PSoC4/CapSense.c ****         {
 1213              		.loc 1 1135 0
 1214 0082 0128     		cmp	r0, #1
 1215 0084 CDD1     		bne	.L54
 1216 0086 0027     		movs	r7, #0
 1217 0088 CBE7     		b	.L54
 1218              	.LVL119:
 1219              	.L52:
 1220              	.LBE97:
 1221              	.LBE99:
 908:Generated_Source\PSoC4/CapSense.c **** 
 1222              		.loc 1 908 0
 1223              		@ sp needed
 1224              	.LVL120:
 1225 008a 3CBC     		pop	{r2, r3, r4, r5}
 1226 008c 9046     		mov	r8, r2
 1227 008e 9946     		mov	r9, r3
ARM GAS  C:\Users\young\AppData\Local\Temp\ccoFnsFE.s 			page 57


 1228 0090 A246     		mov	r10, r4
 1229 0092 AB46     		mov	fp, r5
 1230 0094 F8BD     		pop	{r3, r4, r5, r6, r7, pc}
 1231              	.L58:
 1232 0096 C046     		.align	2
 1233              	.L57:
 1234 0098 00010440 		.word	1074004224
 1235 009c 08010440 		.word	1074004232
 1236 00a0 00010240 		.word	1073873152
 1237 00a4 00000000 		.word	.LANCHOR0
 1238 00a8 00000000 		.word	CapSense_unscannedSnsDriveMode
 1239              		.cfi_endproc
 1240              	.LFE46:
 1241              		.size	CapSense_ClearSensors, .-CapSense_ClearSensors
 1242              		.section	.text.CapSense_EnableSensor,"ax",%progbits
 1243              		.align	2
 1244              		.global	CapSense_EnableSensor
 1245              		.code	16
 1246              		.thumb_func
 1247              		.type	CapSense_EnableSensor, %function
 1248              	CapSense_EnableSensor:
 1249              	.LFB47:
1059:Generated_Source\PSoC4/CapSense.c ****     uint8  pinModeShift;
 1250              		.loc 1 1059 0
 1251              		.cfi_startproc
 1252              		@ args = 0, pretend = 0, frame = 0
 1253              		@ frame_needed = 0, uses_anonymous_args = 0
 1254              	.LVL121:
 1255 0000 F8B5     		push	{r3, r4, r5, r6, r7, lr}
 1256              		.cfi_def_cfa_offset 24
 1257              		.cfi_offset 3, -24
 1258              		.cfi_offset 4, -20
 1259              		.cfi_offset 5, -16
 1260              		.cfi_offset 6, -12
 1261              		.cfi_offset 7, -8
 1262              		.cfi_offset 14, -4
1066:Generated_Source\PSoC4/CapSense.c ****     pinModeShift = CapSense_pinShiftTbl[sensor]  * CapSense_PC_PIN_CFG_SIZE;
 1263              		.loc 1 1066 0
 1264 0002 104E     		ldr	r6, .L60
1080:Generated_Source\PSoC4/CapSense.c **** 
 1265              		.loc 1 1080 0
 1266              		@ sp needed
1066:Generated_Source\PSoC4/CapSense.c ****     pinModeShift = CapSense_pinShiftTbl[sensor]  * CapSense_PC_PIN_CFG_SIZE;
 1267              		.loc 1 1066 0
 1268 0004 3318     		adds	r3, r6, r0
1067:Generated_Source\PSoC4/CapSense.c ****     pinHSIOMShift = CapSense_pinShiftTbl[sensor] * CapSense_HSIOM_PIN_CFG_SIZE;
 1269              		.loc 1 1067 0
 1270 0006 355C     		ldrb	r5, [r6, r0]
1066:Generated_Source\PSoC4/CapSense.c ****     pinModeShift = CapSense_pinShiftTbl[sensor]  * CapSense_PC_PIN_CFG_SIZE;
 1271              		.loc 1 1066 0
 1272 0008 1C7A     		ldrb	r4, [r3, #8]
 1273              	.LVL122:
1070:Generated_Source\PSoC4/CapSense.c **** 
 1274              		.loc 1 1070 0
 1275 000a FFF7FEFF 		bl	CyEnterCriticalSection
 1276              	.LVL123:
1073:Generated_Source\PSoC4/CapSense.c ****     newRegisterValue |= (uint32)((uint32)CapSense_CSD_SENSE_PORT_MODE << pinHSIOMShift);
ARM GAS  C:\Users\young\AppData\Local\Temp\ccoFnsFE.s 			page 58


 1277              		.loc 1 1073 0
 1278 000e 0F21     		movs	r1, #15
1072:Generated_Source\PSoC4/CapSense.c ****     newRegisterValue &= ~(CapSense_CSD_HSIOM_MASK << pinHSIOMShift);
 1279              		.loc 1 1072 0
 1280 0010 A300     		lsls	r3, r4, #2
1073:Generated_Source\PSoC4/CapSense.c ****     newRegisterValue |= (uint32)((uint32)CapSense_CSD_SENSE_PORT_MODE << pinHSIOMShift);
 1281              		.loc 1 1073 0
 1282 0012 AC00     		lsls	r4, r5, #2
 1283              	.LVL124:
 1284 0014 E4B2     		uxtb	r4, r4
 1285 0016 A140     		lsls	r1, r1, r4
1072:Generated_Source\PSoC4/CapSense.c ****     newRegisterValue &= ~(CapSense_CSD_HSIOM_MASK << pinHSIOMShift);
 1286              		.loc 1 1072 0
 1287 0018 F318     		adds	r3, r6, r3
 1288 001a 1E69     		ldr	r6, [r3, #16]
 1289              	.LVL125:
1076:Generated_Source\PSoC4/CapSense.c ****     *CapSense_prtSelTbl[port] = newRegisterValue;
 1290              		.loc 1 1076 0
 1291 001c 1F6A     		ldr	r7, [r3, #32]
1072:Generated_Source\PSoC4/CapSense.c ****     newRegisterValue &= ~(CapSense_CSD_HSIOM_MASK << pinHSIOMShift);
 1292              		.loc 1 1072 0
 1293 001e 3268     		ldr	r2, [r6]
 1294              	.LVL126:
1076:Generated_Source\PSoC4/CapSense.c ****     *CapSense_prtSelTbl[port] = newRegisterValue;
 1295              		.loc 1 1076 0
 1296 0020 6B00     		lsls	r3, r5, #1
1073:Generated_Source\PSoC4/CapSense.c ****     newRegisterValue |= (uint32)((uint32)CapSense_CSD_SENSE_PORT_MODE << pinHSIOMShift);
 1297              		.loc 1 1073 0
 1298 0022 8A43     		bics	r2, r1
 1299              	.LVL127:
 1300 0024 1100     		movs	r1, r2
 1301              	.LVL128:
1074:Generated_Source\PSoC4/CapSense.c **** 
 1302              		.loc 1 1074 0
 1303 0026 0422     		movs	r2, #4
 1304 0028 A240     		lsls	r2, r2, r4
1076:Generated_Source\PSoC4/CapSense.c ****     *CapSense_prtSelTbl[port] = newRegisterValue;
 1305              		.loc 1 1076 0
 1306 002a 0724     		movs	r4, #7
 1307 002c EB18     		adds	r3, r5, r3
 1308 002e DBB2     		uxtb	r3, r3
 1309 0030 9C40     		lsls	r4, r4, r3
1074:Generated_Source\PSoC4/CapSense.c **** 
 1310              		.loc 1 1074 0
 1311 0032 0A43     		orrs	r2, r1
 1312              	.LVL129:
1076:Generated_Source\PSoC4/CapSense.c ****     *CapSense_prtSelTbl[port] = newRegisterValue;
 1313              		.loc 1 1076 0
 1314 0034 3968     		ldr	r1, [r7]
 1315 0036 A143     		bics	r1, r4
 1316 0038 3960     		str	r1, [r7]
1077:Generated_Source\PSoC4/CapSense.c **** 
 1317              		.loc 1 1077 0
 1318 003a 3260     		str	r2, [r6]
1079:Generated_Source\PSoC4/CapSense.c **** }
 1319              		.loc 1 1079 0
 1320 003c FFF7FEFF 		bl	CyExitCriticalSection
ARM GAS  C:\Users\young\AppData\Local\Temp\ccoFnsFE.s 			page 59


 1321              	.LVL130:
 1322              	.LVL131:
1080:Generated_Source\PSoC4/CapSense.c **** 
 1323              		.loc 1 1080 0
 1324 0040 F8BD     		pop	{r3, r4, r5, r6, r7, pc}
 1325              	.L61:
 1326 0042 C046     		.align	2
 1327              	.L60:
 1328 0044 00000000 		.word	.LANCHOR0
 1329              		.cfi_endproc
 1330              	.LFE47:
 1331              		.size	CapSense_EnableSensor, .-CapSense_EnableSensor
 1332              		.section	.text.CapSense_DisableSensor,"ax",%progbits
 1333              		.align	2
 1334              		.global	CapSense_DisableSensor
 1335              		.code	16
 1336              		.thumb_func
 1337              		.type	CapSense_DisableSensor, %function
 1338              	CapSense_DisableSensor:
 1339              	.LFB48:
1112:Generated_Source\PSoC4/CapSense.c ****     uint8 interruptState;
 1340              		.loc 1 1112 0
 1341              		.cfi_startproc
 1342              		@ args = 0, pretend = 0, frame = 0
 1343              		@ frame_needed = 0, uses_anonymous_args = 0
 1344              	.LVL132:
 1345 0000 F0B5     		push	{r4, r5, r6, r7, lr}
 1346              		.cfi_def_cfa_offset 20
 1347              		.cfi_offset 4, -20
 1348              		.cfi_offset 5, -16
 1349              		.cfi_offset 6, -12
 1350              		.cfi_offset 7, -8
 1351              		.cfi_offset 14, -4
 1352 0002 4746     		mov	r7, r8
1123:Generated_Source\PSoC4/CapSense.c **** 
 1353              		.loc 1 1123 0
 1354 0004 0F22     		movs	r2, #15
1112:Generated_Source\PSoC4/CapSense.c ****     uint8 interruptState;
 1355              		.loc 1 1112 0
 1356 0006 80B4     		push	{r7}
 1357              		.cfi_def_cfa_offset 24
 1358              		.cfi_offset 8, -24
1116:Generated_Source\PSoC4/CapSense.c ****     uint8  pinHSIOMShift = CapSense_pinShiftTbl[sensor] * CapSense_HSIOM_PIN_CFG_SIZE;
 1359              		.loc 1 1116 0
 1360 0008 184F     		ldr	r7, .L66
1117:Generated_Source\PSoC4/CapSense.c ****     uint8  pinModeShift = CapSense_pinShiftTbl[sensor]  * CapSense_PC_PIN_CFG_SIZE;
 1361              		.loc 1 1117 0
 1362 000a 3E5C     		ldrb	r6, [r7, r0]
1116:Generated_Source\PSoC4/CapSense.c ****     uint8  pinHSIOMShift = CapSense_pinShiftTbl[sensor] * CapSense_HSIOM_PIN_CFG_SIZE;
 1363              		.loc 1 1116 0
 1364 000c 3B18     		adds	r3, r7, r0
 1365 000e 1C7A     		ldrb	r4, [r3, #8]
 1366              	.LVL133:
1121:Generated_Source\PSoC4/CapSense.c **** 
 1367              		.loc 1 1121 0
 1368 0010 174B     		ldr	r3, .L66+4
1123:Generated_Source\PSoC4/CapSense.c **** 
ARM GAS  C:\Users\young\AppData\Local\Temp\ccoFnsFE.s 			page 60


 1369              		.loc 1 1123 0
 1370 0012 B100     		lsls	r1, r6, #2
1121:Generated_Source\PSoC4/CapSense.c **** 
 1371              		.loc 1 1121 0
 1372 0014 1B5C     		ldrb	r3, [r3, r0]
1123:Generated_Source\PSoC4/CapSense.c **** 
 1373              		.loc 1 1123 0
 1374 0016 C9B2     		uxtb	r1, r1
 1375 0018 8A40     		lsls	r2, r2, r1
1121:Generated_Source\PSoC4/CapSense.c **** 
 1376              		.loc 1 1121 0
 1377 001a 9C46     		mov	ip, r3
1123:Generated_Source\PSoC4/CapSense.c **** 
 1378              		.loc 1 1123 0
 1379 001c A400     		lsls	r4, r4, #2
 1380              	.LVL134:
 1381 001e 3B19     		adds	r3, r7, r4
 1382 0020 1869     		ldr	r0, [r3, #16]
 1383              	.LVL135:
1118:Generated_Source\PSoC4/CapSense.c **** 
 1384              		.loc 1 1118 0
 1385 0022 7500     		lsls	r5, r6, #1
1123:Generated_Source\PSoC4/CapSense.c **** 
 1386              		.loc 1 1123 0
 1387 0024 0368     		ldr	r3, [r0]
1118:Generated_Source\PSoC4/CapSense.c **** 
 1388              		.loc 1 1118 0
 1389 0026 7519     		adds	r5, r6, r5
1123:Generated_Source\PSoC4/CapSense.c **** 
 1390              		.loc 1 1123 0
 1391 0028 9343     		bics	r3, r2
 1392 002a 0360     		str	r3, [r0]
1135:Generated_Source\PSoC4/CapSense.c ****         {
 1393              		.loc 1 1135 0
 1394 002c 6346     		mov	r3, ip
1118:Generated_Source\PSoC4/CapSense.c **** 
 1395              		.loc 1 1118 0
 1396 002e EDB2     		uxtb	r5, r5
 1397              	.LVL136:
1135:Generated_Source\PSoC4/CapSense.c ****         {
 1398              		.loc 1 1135 0
 1399 0030 012B     		cmp	r3, #1
 1400 0032 18D0     		beq	.L65
 1401              	.LVL137:
 1402 0034 0623     		movs	r3, #6
 1403 0036 AB40     		lsls	r3, r3, r5
 1404 0038 9846     		mov	r8, r3
 1405              	.LVL138:
 1406              	.L64:
1141:Generated_Source\PSoC4/CapSense.c **** 
 1407              		.loc 1 1141 0
 1408 003a FFF7FEFF 		bl	CyEnterCriticalSection
 1409              	.LVL139:
1145:Generated_Source\PSoC4/CapSense.c ****         newRegisterValue |=  (uint32)(inactiveConnect << pinModeShift);
 1410              		.loc 1 1145 0
 1411 003e 0722     		movs	r2, #7
 1412 0040 AA40     		lsls	r2, r2, r5
ARM GAS  C:\Users\young\AppData\Local\Temp\ccoFnsFE.s 			page 61


1144:Generated_Source\PSoC4/CapSense.c ****         newRegisterValue &= ~(CapSense_CSD_PIN_MODE_MASK << pinModeShift);
 1413              		.loc 1 1144 0
 1414 0042 3C19     		adds	r4, r7, r4
 1415 0044 216A     		ldr	r1, [r4, #32]
1160:Generated_Source\PSoC4/CapSense.c **** 
 1416              		.loc 1 1160 0
 1417              		@ sp needed
1144:Generated_Source\PSoC4/CapSense.c ****         newRegisterValue &= ~(CapSense_CSD_PIN_MODE_MASK << pinModeShift);
 1418              		.loc 1 1144 0
 1419 0046 0B68     		ldr	r3, [r1]
 1420              	.LVL140:
1145:Generated_Source\PSoC4/CapSense.c ****         newRegisterValue |=  (uint32)(inactiveConnect << pinModeShift);
 1421              		.loc 1 1145 0
 1422 0048 9343     		bics	r3, r2
 1423              	.LVL141:
1146:Generated_Source\PSoC4/CapSense.c ****         *CapSense_prtCfgTbl[port] =  newRegisterValue;
 1424              		.loc 1 1146 0
 1425 004a 4246     		mov	r2, r8
 1426 004c 1343     		orrs	r3, r2
 1427              	.LVL142:
1147:Generated_Source\PSoC4/CapSense.c **** 
 1428              		.loc 1 1147 0
 1429 004e 0B60     		str	r3, [r1]
1149:Generated_Source\PSoC4/CapSense.c **** 
 1430              		.loc 1 1149 0
 1431 0050 FFF7FEFF 		bl	CyExitCriticalSection
 1432              	.LVL143:
1151:Generated_Source\PSoC4/CapSense.c ****     #if(CapSense_IS_SHIELD_ENABLE != 0)
 1433              		.loc 1 1151 0
 1434 0054 0122     		movs	r2, #1
 1435 0056 B240     		lsls	r2, r2, r6
 1436 0058 216B     		ldr	r1, [r4, #48]
 1437 005a 0B68     		ldr	r3, [r1]
 1438 005c 9343     		bics	r3, r2
 1439 005e 0B60     		str	r3, [r1]
 1440              	.LVL144:
 1441              	.LVL145:
 1442              	.LVL146:
1160:Generated_Source\PSoC4/CapSense.c **** 
 1443              		.loc 1 1160 0
 1444 0060 04BC     		pop	{r2}
 1445 0062 9046     		mov	r8, r2
 1446 0064 F0BD     		pop	{r4, r5, r6, r7, pc}
 1447              	.LVL147:
 1448              	.L65:
1135:Generated_Source\PSoC4/CapSense.c ****         {
 1449              		.loc 1 1135 0
 1450 0066 0023     		movs	r3, #0
 1451 0068 9846     		mov	r8, r3
 1452 006a E6E7     		b	.L64
 1453              	.L67:
 1454              		.align	2
 1455              	.L66:
 1456 006c 00000000 		.word	.LANCHOR0
 1457 0070 00000000 		.word	CapSense_unscannedSnsDriveMode
 1458              		.cfi_endproc
 1459              	.LFE48:
ARM GAS  C:\Users\young\AppData\Local\Temp\ccoFnsFE.s 			page 62


 1460              		.size	CapSense_DisableSensor, .-CapSense_DisableSensor
 1461              		.section	.text.CapSense_SetDriveModeAllPins,"ax",%progbits
 1462              		.align	2
 1463              		.global	CapSense_SetDriveModeAllPins
 1464              		.code	16
 1465              		.thumb_func
 1466              		.type	CapSense_SetDriveModeAllPins, %function
 1467              	CapSense_SetDriveModeAllPins:
 1468              	.LFB49:
1189:Generated_Source\PSoC4/CapSense.c ****     uint8 curSensor;
 1469              		.loc 1 1189 0
 1470              		.cfi_startproc
 1471              		@ args = 0, pretend = 0, frame = 0
 1472              		@ frame_needed = 0, uses_anonymous_args = 0
 1473              	.LVL148:
 1474 0000 30B5     		push	{r4, r5, lr}
 1475              		.cfi_def_cfa_offset 12
 1476              		.cfi_offset 4, -12
 1477              		.cfi_offset 5, -8
 1478              		.cfi_offset 14, -4
 1479              	.LBB104:
 1480              	.LBB105:
1321:Generated_Source\PSoC4/CapSense.c ****     newRegisterValue |=  (uint32)((uint32)driveMode << pinModeShift);
 1481              		.loc 1 1321 0
 1482 0002 3825     		movs	r5, #56
1320:Generated_Source\PSoC4/CapSense.c ****     newRegisterValue &= ~(CapSense_CSD_PIN_MODE_MASK << pinModeShift);
 1483              		.loc 1 1320 0
 1484 0004 144B     		ldr	r3, .L69
1321:Generated_Source\PSoC4/CapSense.c ****     newRegisterValue |=  (uint32)((uint32)driveMode << pinModeShift);
 1485              		.loc 1 1321 0
 1486 0006 154C     		ldr	r4, .L69+4
1320:Generated_Source\PSoC4/CapSense.c ****     newRegisterValue &= ~(CapSense_CSD_PIN_MODE_MASK << pinModeShift);
 1487              		.loc 1 1320 0
 1488 0008 1A68     		ldr	r2, [r3]
 1489              	.LVL149:
1322:Generated_Source\PSoC4/CapSense.c ****     *CapSense_prtCfgTbl[portNumber] =  newRegisterValue;
 1490              		.loc 1 1322 0
 1491 000a 0103     		lsls	r1, r0, #12
1321:Generated_Source\PSoC4/CapSense.c ****     newRegisterValue |=  (uint32)((uint32)driveMode << pinModeShift);
 1492              		.loc 1 1321 0
 1493 000c 2240     		ands	r2, r4
 1494              	.LVL150:
1322:Generated_Source\PSoC4/CapSense.c ****     *CapSense_prtCfgTbl[portNumber] =  newRegisterValue;
 1495              		.loc 1 1322 0
 1496 000e 0A43     		orrs	r2, r1
 1497              	.LVL151:
1323:Generated_Source\PSoC4/CapSense.c **** }
 1498              		.loc 1 1323 0
 1499 0010 1A60     		str	r2, [r3]
 1500              	.LVL152:
1320:Generated_Source\PSoC4/CapSense.c ****     newRegisterValue &= ~(CapSense_CSD_PIN_MODE_MASK << pinModeShift);
 1501              		.loc 1 1320 0
 1502 0012 1A68     		ldr	r2, [r3]
 1503              	.LVL153:
 1504              	.LBE105:
 1505              	.LBE104:
1236:Generated_Source\PSoC4/CapSense.c **** 
ARM GAS  C:\Users\young\AppData\Local\Temp\ccoFnsFE.s 			page 63


 1506              		.loc 1 1236 0
 1507              		@ sp needed
 1508              	.LBB107:
 1509              	.LBB106:
1321:Generated_Source\PSoC4/CapSense.c ****     newRegisterValue |=  (uint32)((uint32)driveMode << pinModeShift);
 1510              		.loc 1 1321 0
 1511 0014 AA43     		bics	r2, r5
 1512              	.LVL154:
1322:Generated_Source\PSoC4/CapSense.c ****     *CapSense_prtCfgTbl[portNumber] =  newRegisterValue;
 1513              		.loc 1 1322 0
 1514 0016 C500     		lsls	r5, r0, #3
 1515 0018 2A43     		orrs	r2, r5
 1516              	.LVL155:
1323:Generated_Source\PSoC4/CapSense.c **** }
 1517              		.loc 1 1323 0
 1518 001a 1A60     		str	r2, [r3]
 1519              	.LVL156:
1320:Generated_Source\PSoC4/CapSense.c ****     newRegisterValue &= ~(CapSense_CSD_PIN_MODE_MASK << pinModeShift);
 1520              		.loc 1 1320 0
 1521 001c 1D68     		ldr	r5, [r3]
 1522              	.LVL157:
1321:Generated_Source\PSoC4/CapSense.c ****     newRegisterValue |=  (uint32)((uint32)driveMode << pinModeShift);
 1523              		.loc 1 1321 0
 1524 001e 104A     		ldr	r2, .L69+8
 1525 0020 2A40     		ands	r2, r5
 1526              	.LVL158:
1322:Generated_Source\PSoC4/CapSense.c ****     *CapSense_prtCfgTbl[portNumber] =  newRegisterValue;
 1527              		.loc 1 1322 0
 1528 0022 8501     		lsls	r5, r0, #6
 1529 0024 2A43     		orrs	r2, r5
 1530              	.LVL159:
1323:Generated_Source\PSoC4/CapSense.c **** }
 1531              		.loc 1 1323 0
 1532 0026 1A60     		str	r2, [r3]
 1533              	.LVL160:
1320:Generated_Source\PSoC4/CapSense.c ****     newRegisterValue &= ~(CapSense_CSD_PIN_MODE_MASK << pinModeShift);
 1534              		.loc 1 1320 0
 1535 0028 1D68     		ldr	r5, [r3]
 1536              	.LVL161:
1321:Generated_Source\PSoC4/CapSense.c ****     newRegisterValue |=  (uint32)((uint32)driveMode << pinModeShift);
 1537              		.loc 1 1321 0
 1538 002a 0E4A     		ldr	r2, .L69+12
 1539 002c 2A40     		ands	r2, r5
 1540              	.LVL162:
1322:Generated_Source\PSoC4/CapSense.c ****     *CapSense_prtCfgTbl[portNumber] =  newRegisterValue;
 1541              		.loc 1 1322 0
 1542 002e C503     		lsls	r5, r0, #15
 1543 0030 2A43     		orrs	r2, r5
 1544              	.LVL163:
1321:Generated_Source\PSoC4/CapSense.c ****     newRegisterValue |=  (uint32)((uint32)driveMode << pinModeShift);
 1545              		.loc 1 1321 0
 1546 0032 0725     		movs	r5, #7
1323:Generated_Source\PSoC4/CapSense.c **** }
 1547              		.loc 1 1323 0
 1548 0034 1A60     		str	r2, [r3]
 1549              	.LVL164:
1320:Generated_Source\PSoC4/CapSense.c ****     newRegisterValue &= ~(CapSense_CSD_PIN_MODE_MASK << pinModeShift);
ARM GAS  C:\Users\young\AppData\Local\Temp\ccoFnsFE.s 			page 64


 1550              		.loc 1 1320 0
 1551 0036 1A68     		ldr	r2, [r3]
 1552              	.LVL165:
1321:Generated_Source\PSoC4/CapSense.c ****     newRegisterValue |=  (uint32)((uint32)driveMode << pinModeShift);
 1553              		.loc 1 1321 0
 1554 0038 AA43     		bics	r2, r5
 1555              	.LVL166:
1322:Generated_Source\PSoC4/CapSense.c ****     *CapSense_prtCfgTbl[portNumber] =  newRegisterValue;
 1556              		.loc 1 1322 0
 1557 003a 0243     		orrs	r2, r0
 1558              	.LVL167:
1323:Generated_Source\PSoC4/CapSense.c **** }
 1559              		.loc 1 1323 0
 1560 003c 1A60     		str	r2, [r3]
 1561              	.LVL168:
1320:Generated_Source\PSoC4/CapSense.c ****     newRegisterValue &= ~(CapSense_CSD_PIN_MODE_MASK << pinModeShift);
 1562              		.loc 1 1320 0
 1563 003e 1D68     		ldr	r5, [r3]
 1564              	.LVL169:
1321:Generated_Source\PSoC4/CapSense.c ****     newRegisterValue |=  (uint32)((uint32)driveMode << pinModeShift);
 1565              		.loc 1 1321 0
 1566 0040 094A     		ldr	r2, .L69+16
1322:Generated_Source\PSoC4/CapSense.c ****     *CapSense_prtCfgTbl[portNumber] =  newRegisterValue;
 1567              		.loc 1 1322 0
 1568 0042 4002     		lsls	r0, r0, #9
 1569              	.LVL170:
1321:Generated_Source\PSoC4/CapSense.c ****     newRegisterValue |=  (uint32)((uint32)driveMode << pinModeShift);
 1570              		.loc 1 1321 0
 1571 0044 2A40     		ands	r2, r5
 1572              	.LVL171:
1322:Generated_Source\PSoC4/CapSense.c ****     *CapSense_prtCfgTbl[portNumber] =  newRegisterValue;
 1573              		.loc 1 1322 0
 1574 0046 1043     		orrs	r0, r2
 1575              	.LVL172:
1323:Generated_Source\PSoC4/CapSense.c **** }
 1576              		.loc 1 1323 0
 1577 0048 1860     		str	r0, [r3]
 1578              	.LVL173:
 1579              	.LBE106:
 1580              	.LBE107:
 1581              	.LBB108:
 1582              	.LBB109:
1320:Generated_Source\PSoC4/CapSense.c ****     newRegisterValue &= ~(CapSense_CSD_PIN_MODE_MASK << pinModeShift);
 1583              		.loc 1 1320 0
 1584 004a 084B     		ldr	r3, .L69+20
 1585 004c 1A68     		ldr	r2, [r3]
 1586              	.LVL174:
1321:Generated_Source\PSoC4/CapSense.c ****     newRegisterValue |=  (uint32)((uint32)driveMode << pinModeShift);
 1587              		.loc 1 1321 0
 1588 004e 1440     		ands	r4, r2
 1589              	.LVL175:
1322:Generated_Source\PSoC4/CapSense.c ****     *CapSense_prtCfgTbl[portNumber] =  newRegisterValue;
 1590              		.loc 1 1322 0
 1591 0050 2143     		orrs	r1, r4
 1592              	.LVL176:
1323:Generated_Source\PSoC4/CapSense.c **** }
 1593              		.loc 1 1323 0
ARM GAS  C:\Users\young\AppData\Local\Temp\ccoFnsFE.s 			page 65


 1594 0052 1960     		str	r1, [r3]
 1595              	.LVL177:
 1596              	.LBE109:
 1597              	.LBE108:
1236:Generated_Source\PSoC4/CapSense.c **** 
 1598              		.loc 1 1236 0
 1599 0054 30BD     		pop	{r4, r5, pc}
 1600              	.L70:
 1601 0056 C046     		.align	2
 1602              	.L69:
 1603 0058 08010440 		.word	1074004232
 1604 005c FF8FFFFF 		.word	-28673
 1605 0060 3FFEFFFF 		.word	-449
 1606 0064 FF7FFCFF 		.word	-229377
 1607 0068 FFF1FFFF 		.word	-3585
 1608 006c 08000440 		.word	1074003976
 1609              		.cfi_endproc
 1610              	.LFE49:
 1611              		.size	CapSense_SetDriveModeAllPins, .-CapSense_SetDriveModeAllPins
 1612              		.section	.text.CapSense_RestoreDriveModeAllPins,"ax",%progbits
 1613              		.align	2
 1614              		.global	CapSense_RestoreDriveModeAllPins
 1615              		.code	16
 1616              		.thumb_func
 1617              		.type	CapSense_RestoreDriveModeAllPins, %function
 1618              	CapSense_RestoreDriveModeAllPins:
 1619              	.LFB50:
1262:Generated_Source\PSoC4/CapSense.c ****     uint32 newRegisterValue;
 1620              		.loc 1 1262 0
 1621              		.cfi_startproc
 1622              		@ args = 0, pretend = 0, frame = 0
 1623              		@ frame_needed = 0, uses_anonymous_args = 0
 1624              		@ link register save eliminated.
 1625              	.LVL178:
 1626              	.LBB116:
 1627              	.LBB117:
 1628              	.LBB118:
 1629              	.LBB119:
1321:Generated_Source\PSoC4/CapSense.c ****     newRegisterValue |=  (uint32)((uint32)driveMode << pinModeShift);
 1630              		.loc 1 1321 0
 1631 0000 3820     		movs	r0, #56
1320:Generated_Source\PSoC4/CapSense.c ****     newRegisterValue &= ~(CapSense_CSD_PIN_MODE_MASK << pinModeShift);
 1632              		.loc 1 1320 0
 1633 0002 124B     		ldr	r3, .L72
1321:Generated_Source\PSoC4/CapSense.c ****     newRegisterValue |=  (uint32)((uint32)driveMode << pinModeShift);
 1634              		.loc 1 1321 0
 1635 0004 124A     		ldr	r2, .L72+4
1320:Generated_Source\PSoC4/CapSense.c ****     newRegisterValue &= ~(CapSense_CSD_PIN_MODE_MASK << pinModeShift);
 1636              		.loc 1 1320 0
 1637 0006 1968     		ldr	r1, [r3]
 1638              	.LVL179:
 1639              	.LBE119:
 1640              	.LBE118:
 1641              	.LBE117:
 1642              	.LBE116:
1285:Generated_Source\PSoC4/CapSense.c **** 
 1643              		.loc 1 1285 0
ARM GAS  C:\Users\young\AppData\Local\Temp\ccoFnsFE.s 			page 66


 1644              		@ sp needed
 1645              	.LBB125:
 1646              	.LBB124:
 1647              	.LBB121:
 1648              	.LBB120:
1321:Generated_Source\PSoC4/CapSense.c ****     newRegisterValue |=  (uint32)((uint32)driveMode << pinModeShift);
 1649              		.loc 1 1321 0
 1650 0008 1140     		ands	r1, r2
 1651              	.LVL180:
1323:Generated_Source\PSoC4/CapSense.c **** }
 1652              		.loc 1 1323 0
 1653 000a 1960     		str	r1, [r3]
 1654              	.LVL181:
1320:Generated_Source\PSoC4/CapSense.c ****     newRegisterValue &= ~(CapSense_CSD_PIN_MODE_MASK << pinModeShift);
 1655              		.loc 1 1320 0
 1656 000c 1968     		ldr	r1, [r3]
 1657              	.LVL182:
1321:Generated_Source\PSoC4/CapSense.c ****     newRegisterValue |=  (uint32)((uint32)driveMode << pinModeShift);
 1658              		.loc 1 1321 0
 1659 000e 8143     		bics	r1, r0
 1660              	.LVL183:
1323:Generated_Source\PSoC4/CapSense.c **** }
 1661              		.loc 1 1323 0
 1662 0010 1960     		str	r1, [r3]
 1663              	.LVL184:
1320:Generated_Source\PSoC4/CapSense.c ****     newRegisterValue &= ~(CapSense_CSD_PIN_MODE_MASK << pinModeShift);
 1664              		.loc 1 1320 0
 1665 0012 1868     		ldr	r0, [r3]
 1666              	.LVL185:
1321:Generated_Source\PSoC4/CapSense.c ****     newRegisterValue |=  (uint32)((uint32)driveMode << pinModeShift);
 1667              		.loc 1 1321 0
 1668 0014 0F49     		ldr	r1, .L72+8
 1669 0016 0140     		ands	r1, r0
 1670              	.LVL186:
1323:Generated_Source\PSoC4/CapSense.c **** }
 1671              		.loc 1 1323 0
 1672 0018 1960     		str	r1, [r3]
 1673              	.LVL187:
1320:Generated_Source\PSoC4/CapSense.c ****     newRegisterValue &= ~(CapSense_CSD_PIN_MODE_MASK << pinModeShift);
 1674              		.loc 1 1320 0
 1675 001a 1868     		ldr	r0, [r3]
 1676              	.LVL188:
1321:Generated_Source\PSoC4/CapSense.c ****     newRegisterValue |=  (uint32)((uint32)driveMode << pinModeShift);
 1677              		.loc 1 1321 0
 1678 001c 0E49     		ldr	r1, .L72+12
 1679 001e 0140     		ands	r1, r0
 1680              	.LVL189:
 1681 0020 0720     		movs	r0, #7
1323:Generated_Source\PSoC4/CapSense.c **** }
 1682              		.loc 1 1323 0
 1683 0022 1960     		str	r1, [r3]
 1684              	.LVL190:
1320:Generated_Source\PSoC4/CapSense.c ****     newRegisterValue &= ~(CapSense_CSD_PIN_MODE_MASK << pinModeShift);
 1685              		.loc 1 1320 0
 1686 0024 1968     		ldr	r1, [r3]
 1687              	.LVL191:
1321:Generated_Source\PSoC4/CapSense.c ****     newRegisterValue |=  (uint32)((uint32)driveMode << pinModeShift);
ARM GAS  C:\Users\young\AppData\Local\Temp\ccoFnsFE.s 			page 67


 1688              		.loc 1 1321 0
 1689 0026 8143     		bics	r1, r0
 1690              	.LVL192:
1323:Generated_Source\PSoC4/CapSense.c **** }
 1691              		.loc 1 1323 0
 1692 0028 1960     		str	r1, [r3]
 1693              	.LVL193:
1320:Generated_Source\PSoC4/CapSense.c ****     newRegisterValue &= ~(CapSense_CSD_PIN_MODE_MASK << pinModeShift);
 1694              		.loc 1 1320 0
 1695 002a 1868     		ldr	r0, [r3]
 1696              	.LVL194:
1321:Generated_Source\PSoC4/CapSense.c ****     newRegisterValue |=  (uint32)((uint32)driveMode << pinModeShift);
 1697              		.loc 1 1321 0
 1698 002c 0B49     		ldr	r1, .L72+16
 1699 002e 0140     		ands	r1, r0
 1700              	.LVL195:
1323:Generated_Source\PSoC4/CapSense.c **** }
 1701              		.loc 1 1323 0
 1702 0030 1960     		str	r1, [r3]
 1703              	.LVL196:
 1704              	.LBE120:
 1705              	.LBE121:
 1706              	.LBB122:
 1707              	.LBB123:
1320:Generated_Source\PSoC4/CapSense.c ****     newRegisterValue &= ~(CapSense_CSD_PIN_MODE_MASK << pinModeShift);
 1708              		.loc 1 1320 0
 1709 0032 0B4B     		ldr	r3, .L72+20
 1710 0034 1968     		ldr	r1, [r3]
 1711              	.LVL197:
1321:Generated_Source\PSoC4/CapSense.c ****     newRegisterValue |=  (uint32)((uint32)driveMode << pinModeShift);
 1712              		.loc 1 1321 0
 1713 0036 0A40     		ands	r2, r1
 1714              	.LVL198:
1323:Generated_Source\PSoC4/CapSense.c **** }
 1715              		.loc 1 1323 0
 1716 0038 1A60     		str	r2, [r3]
 1717              	.LVL199:
 1718              	.LBE123:
 1719              	.LBE122:
 1720              	.LBE124:
 1721              	.LBE125:
1267:Generated_Source\PSoC4/CapSense.c ****     newRegisterValue &= ~(CapSense_CSD_CMOD_CONNECTION_MASK);
 1722              		.loc 1 1267 0
 1723 003a 0A4A     		ldr	r2, .L72+24
1268:Generated_Source\PSoC4/CapSense.c ****     newRegisterValue |= CapSense_CSD_CMOD_TO_AMUXBUS_A;
 1724              		.loc 1 1268 0
 1725 003c 0A4B     		ldr	r3, .L72+28
1267:Generated_Source\PSoC4/CapSense.c ****     newRegisterValue &= ~(CapSense_CSD_CMOD_CONNECTION_MASK);
 1726              		.loc 1 1267 0
 1727 003e 1168     		ldr	r1, [r2]
 1728              	.LVL200:
1268:Generated_Source\PSoC4/CapSense.c ****     newRegisterValue |= CapSense_CSD_CMOD_TO_AMUXBUS_A;
 1729              		.loc 1 1268 0
 1730 0040 0B40     		ands	r3, r1
 1731              	.LVL201:
1269:Generated_Source\PSoC4/CapSense.c ****     CapSense_CMOD_CONNECTION_REG = newRegisterValue;
 1732              		.loc 1 1269 0
ARM GAS  C:\Users\young\AppData\Local\Temp\ccoFnsFE.s 			page 68


 1733 0042 C021     		movs	r1, #192
 1734 0044 C902     		lsls	r1, r1, #11
 1735 0046 0B43     		orrs	r3, r1
 1736              	.LVL202:
1270:Generated_Source\PSoC4/CapSense.c **** 
 1737              		.loc 1 1270 0
 1738 0048 1360     		str	r3, [r2]
1285:Generated_Source\PSoC4/CapSense.c **** 
 1739              		.loc 1 1285 0
 1740 004a 7047     		bx	lr
 1741              	.L73:
 1742              		.align	2
 1743              	.L72:
 1744 004c 08010440 		.word	1074004232
 1745 0050 FF8FFFFF 		.word	-28673
 1746 0054 3FFEFFFF 		.word	-449
 1747 0058 FF7FFCFF 		.word	-229377
 1748 005c FFF1FFFF 		.word	-3585
 1749 0060 08000440 		.word	1074003976
 1750 0064 00000240 		.word	1073872896
 1751 0068 FFFFF0FF 		.word	-983041
 1752              		.cfi_endproc
 1753              	.LFE50:
 1754              		.size	CapSense_RestoreDriveModeAllPins, .-CapSense_RestoreDriveModeAllPins
 1755              		.section	.text.CapSense_SetPinDriveMode,"ax",%progbits
 1756              		.align	2
 1757              		.global	CapSense_SetPinDriveMode
 1758              		.code	16
 1759              		.thumb_func
 1760              		.type	CapSense_SetPinDriveMode, %function
 1761              	CapSense_SetPinDriveMode:
 1762              	.LFB51:
1314:Generated_Source\PSoC4/CapSense.c ****     uint32  pinModeShift;
 1763              		.loc 1 1314 0
 1764              		.cfi_startproc
 1765              		@ args = 0, pretend = 0, frame = 0
 1766              		@ frame_needed = 0, uses_anonymous_args = 0
 1767              	.LVL203:
1318:Generated_Source\PSoC4/CapSense.c **** 
 1768              		.loc 1 1318 0
 1769 0000 4B00     		lsls	r3, r1, #1
 1770 0002 5918     		adds	r1, r3, r1
 1771              	.LVL204:
1320:Generated_Source\PSoC4/CapSense.c ****     newRegisterValue &= ~(CapSense_CSD_PIN_MODE_MASK << pinModeShift);
 1772              		.loc 1 1320 0
 1773 0004 064B     		ldr	r3, .L75
 1774 0006 9200     		lsls	r2, r2, #2
 1775              	.LVL205:
 1776 0008 9A18     		adds	r2, r3, r2
1314:Generated_Source\PSoC4/CapSense.c ****     uint32  pinModeShift;
 1777              		.loc 1 1314 0
 1778 000a 10B5     		push	{r4, lr}
 1779              		.cfi_def_cfa_offset 8
 1780              		.cfi_offset 4, -8
 1781              		.cfi_offset 14, -4
1320:Generated_Source\PSoC4/CapSense.c ****     newRegisterValue &= ~(CapSense_CSD_PIN_MODE_MASK << pinModeShift);
 1782              		.loc 1 1320 0
ARM GAS  C:\Users\young\AppData\Local\Temp\ccoFnsFE.s 			page 69


 1783 000c 146A     		ldr	r4, [r2, #32]
1321:Generated_Source\PSoC4/CapSense.c ****     newRegisterValue |=  (uint32)((uint32)driveMode << pinModeShift);
 1784              		.loc 1 1321 0
 1785 000e 0722     		movs	r2, #7
 1786 0010 8A40     		lsls	r2, r2, r1
1322:Generated_Source\PSoC4/CapSense.c ****     *CapSense_prtCfgTbl[portNumber] =  newRegisterValue;
 1787              		.loc 1 1322 0
 1788 0012 8840     		lsls	r0, r0, r1
 1789              	.LVL206:
1320:Generated_Source\PSoC4/CapSense.c ****     newRegisterValue &= ~(CapSense_CSD_PIN_MODE_MASK << pinModeShift);
 1790              		.loc 1 1320 0
 1791 0014 2368     		ldr	r3, [r4]
 1792              	.LVL207:
1324:Generated_Source\PSoC4/CapSense.c **** 
 1793              		.loc 1 1324 0
 1794              		@ sp needed
1321:Generated_Source\PSoC4/CapSense.c ****     newRegisterValue |=  (uint32)((uint32)driveMode << pinModeShift);
 1795              		.loc 1 1321 0
 1796 0016 9343     		bics	r3, r2
 1797              	.LVL208:
1322:Generated_Source\PSoC4/CapSense.c ****     *CapSense_prtCfgTbl[portNumber] =  newRegisterValue;
 1798              		.loc 1 1322 0
 1799 0018 1843     		orrs	r0, r3
 1800              	.LVL209:
1323:Generated_Source\PSoC4/CapSense.c **** }
 1801              		.loc 1 1323 0
 1802 001a 2060     		str	r0, [r4]
1324:Generated_Source\PSoC4/CapSense.c **** 
 1803              		.loc 1 1324 0
 1804 001c 10BD     		pop	{r4, pc}
 1805              	.L76:
 1806 001e C046     		.align	2
 1807              	.L75:
 1808 0020 00000000 		.word	.LANCHOR0
 1809              		.cfi_endproc
 1810              	.LFE51:
 1811              		.size	CapSense_SetPinDriveMode, .-CapSense_SetPinDriveMode
 1812              		.section	.text.CapSense_PreScan,"ax",%progbits
 1813              		.align	2
 1814              		.global	CapSense_PreScan
 1815              		.code	16
 1816              		.thumb_func
 1817              		.type	CapSense_PreScan, %function
 1818              	CapSense_PreScan:
 1819              	.LFB52:
1350:Generated_Source\PSoC4/CapSense.c ****     uint8 widget;
 1820              		.loc 1 1350 0
 1821              		.cfi_startproc
 1822              		@ args = 0, pretend = 0, frame = 0
 1823              		@ frame_needed = 0, uses_anonymous_args = 0
 1824              	.LVL210:
1368:Generated_Source\PSoC4/CapSense.c **** 
 1825              		.loc 1 1368 0
 1826 0000 434B     		ldr	r3, .L78
1350:Generated_Source\PSoC4/CapSense.c ****     uint8 widget;
 1827              		.loc 1 1350 0
 1828 0002 F0B5     		push	{r4, r5, r6, r7, lr}
ARM GAS  C:\Users\young\AppData\Local\Temp\ccoFnsFE.s 			page 70


 1829              		.cfi_def_cfa_offset 20
 1830              		.cfi_offset 4, -20
 1831              		.cfi_offset 5, -16
 1832              		.cfi_offset 6, -12
 1833              		.cfi_offset 7, -8
 1834              		.cfi_offset 14, -4
 1835 0004 4546     		mov	r5, r8
1368:Generated_Source\PSoC4/CapSense.c **** 
 1836              		.loc 1 1368 0
 1837 0006 9846     		mov	r8, r3
 1838 0008 4023     		movs	r3, #64
1350:Generated_Source\PSoC4/CapSense.c ****     uint8 widget;
 1839              		.loc 1 1350 0
 1840 000a 4E46     		mov	r6, r9
1368:Generated_Source\PSoC4/CapSense.c **** 
 1841              		.loc 1 1368 0
 1842 000c 8146     		mov	r9, r0
1350:Generated_Source\PSoC4/CapSense.c ****     uint8 widget;
 1843              		.loc 1 1350 0
 1844 000e 5746     		mov	r7, r10
1368:Generated_Source\PSoC4/CapSense.c **** 
 1845              		.loc 1 1368 0
 1846 0010 9A46     		mov	r10, r3
 1847 0012 C144     		add	r9, r9, r8
1371:Generated_Source\PSoC4/CapSense.c **** 
 1848              		.loc 1 1371 0
 1849 0014 5246     		mov	r2, r10
 1850 0016 4B46     		mov	r3, r9
1350:Generated_Source\PSoC4/CapSense.c ****     uint8 widget;
 1851              		.loc 1 1350 0
 1852 0018 E0B4     		push	{r5, r6, r7}
 1853              		.cfi_def_cfa_offset 32
 1854              		.cfi_offset 8, -32
 1855              		.cfi_offset 9, -28
 1856              		.cfi_offset 10, -24
1350:Generated_Source\PSoC4/CapSense.c ****     uint8 widget;
 1857              		.loc 1 1350 0
 1858 001a 0700     		movs	r7, r0
1371:Generated_Source\PSoC4/CapSense.c **** 
 1859              		.loc 1 1371 0
 1860 001c 9B5C     		ldrb	r3, [r3, r2]
 1861 001e 3D4C     		ldr	r4, .L78+4
 1862 0020 9B00     		lsls	r3, r3, #2
 1863 0022 E318     		adds	r3, r4, r3
1391:Generated_Source\PSoC4/CapSense.c ****         CapSense_SenseClk_SetDividerValue((uint16)CapSense_senseClkDividerVal[sensor]);
 1864              		.loc 1 1391 0
 1865 0024 E419     		adds	r4, r4, r7
1371:Generated_Source\PSoC4/CapSense.c **** 
 1866              		.loc 1 1371 0
 1867 0026 5E68     		ldr	r6, [r3, #4]
 1868              	.LVL211:
1386:Generated_Source\PSoC4/CapSense.c ****         CapSense_SampleClk_Stop();
 1869              		.loc 1 1386 0
 1870 0028 FFF7FEFF 		bl	CapSense_SenseClk_Stop
 1871              	.LVL212:
1387:Generated_Source\PSoC4/CapSense.c ****     #endif /* (0u != CapSense_IS_M0S8PERI_BLOCK) */
 1872              		.loc 1 1387 0
ARM GAS  C:\Users\young\AppData\Local\Temp\ccoFnsFE.s 			page 71


 1873 002c FFF7FEFF 		bl	CapSense_SampleClk_Stop
 1874              	.LVL213:
1391:Generated_Source\PSoC4/CapSense.c ****         CapSense_SenseClk_SetDividerValue((uint16)CapSense_senseClkDividerVal[sensor]);
 1875              		.loc 1 1391 0
 1876 0030 207F     		ldrb	r0, [r4, #28]
 1877 0032 0021     		movs	r1, #0
 1878 0034 0138     		subs	r0, r0, #1
 1879 0036 80B2     		uxth	r0, r0
 1880 0038 FFF7FEFF 		bl	CapSense_SampleClk_SetFractionalDividerRegister
 1881              	.LVL214:
1392:Generated_Source\PSoC4/CapSense.c ****     #else
 1882              		.loc 1 1392 0
 1883 003c 2423     		movs	r3, #36
 1884 003e E05C     		ldrb	r0, [r4, r3]
 1885 0040 0021     		movs	r1, #0
 1886 0042 0138     		subs	r0, r0, #1
 1887 0044 80B2     		uxth	r0, r0
 1888 0046 FFF7FEFF 		bl	CapSense_SenseClk_SetFractionalDividerRegister
 1889              	.LVL215:
1399:Generated_Source\PSoC4/CapSense.c ****         CapSense_SenseClk_StartEx(CapSense_SampleClk__DIV_ID);
 1890              		.loc 1 1399 0
 1891 004a FF20     		movs	r0, #255
 1892 004c FFF7FEFF 		bl	CapSense_SampleClk_StartEx
 1893              	.LVL216:
1400:Generated_Source\PSoC4/CapSense.c **** 
 1894              		.loc 1 1400 0
 1895 0050 4020     		movs	r0, #64
 1896 0052 FFF7FEFF 		bl	CapSense_SenseClk_StartEx
 1897              	.LVL217:
1422:Generated_Source\PSoC4/CapSense.c **** 
 1898              		.loc 1 1422 0
 1899 0056 0720     		movs	r0, #7
 1900 0058 FFF7FEFF 		bl	CyIntDisable
 1901              	.LVL218:
1425:Generated_Source\PSoC4/CapSense.c **** 
 1902              		.loc 1 1425 0
 1903 005c 5246     		mov	r2, r10
1424:Generated_Source\PSoC4/CapSense.c ****             newRegValue |= CapSense_CSD_CFG_PRS_SELECT;
 1904              		.loc 1 1424 0
 1905 005e 2E4D     		ldr	r5, .L78+8
1452:Generated_Source\PSoC4/CapSense.c **** 
 1906              		.loc 1 1452 0
 1907 0060 0720     		movs	r0, #7
1424:Generated_Source\PSoC4/CapSense.c ****             newRegValue |= CapSense_CSD_CFG_PRS_SELECT;
 1908              		.loc 1 1424 0
 1909 0062 2B68     		ldr	r3, [r5]
 1910              	.LVL219:
1521:Generated_Source\PSoC4/CapSense.c **** 
 1911              		.loc 1 1521 0
 1912              		@ sp needed
1425:Generated_Source\PSoC4/CapSense.c **** 
 1913              		.loc 1 1425 0
 1914 0064 1343     		orrs	r3, r2
 1915              	.LVL220:
1450:Generated_Source\PSoC4/CapSense.c **** 
 1916              		.loc 1 1450 0
 1917 0066 2B60     		str	r3, [r5]
ARM GAS  C:\Users\young\AppData\Local\Temp\ccoFnsFE.s 			page 72


1452:Generated_Source\PSoC4/CapSense.c **** 
 1918              		.loc 1 1452 0
 1919 0068 FFF7FEFF 		bl	CyIntEnable
 1920              	.LVL221:
1461:Generated_Source\PSoC4/CapSense.c ****     newRegValue = CapSense_CSD_IDAC_REG;
 1921              		.loc 1 1461 0
 1922 006c 0720     		movs	r0, #7
 1923 006e FFF7FEFF 		bl	CyIntDisable
 1924              	.LVL222:
1462:Generated_Source\PSoC4/CapSense.c **** 
 1925              		.loc 1 1462 0
 1926 0072 2A48     		ldr	r0, .L78+12
 1927 0074 2A4B     		ldr	r3, .L78+16
 1928 0076 0268     		ldr	r2, [r0]
 1929              	.LVL223:
 1930 0078 1340     		ands	r3, r2
 1931              	.LVL224:
1469:Generated_Source\PSoC4/CapSense.c ****                             (uint32)((uint32)CapSense_compensationIDAC[sensor] <<
 1932              		.loc 1 1469 0
 1933 007a 2C22     		movs	r2, #44
 1934 007c A15C     		ldrb	r1, [r4, r2]
 1935 007e 0B43     		orrs	r3, r1
 1936              	.LVL225:
 1937 0080 1A00     		movs	r2, r3
1470:Generated_Source\PSoC4/CapSense.c ****                             CapSense_CSD_IDAC2_DATA_OFFSET));
 1938              		.loc 1 1470 0
 1939 0082 284B     		ldr	r3, .L78+20
 1940 0084 DB19     		adds	r3, r3, r7
1469:Generated_Source\PSoC4/CapSense.c ****                             (uint32)((uint32)CapSense_compensationIDAC[sensor] <<
 1941              		.loc 1 1469 0
 1942 0086 1B7C     		ldrb	r3, [r3, #16]
 1943 0088 1B04     		lsls	r3, r3, #16
 1944 008a 1343     		orrs	r3, r2
 1945              	.LVL226:
1474:Generated_Source\PSoC4/CapSense.c **** 
 1946              		.loc 1 1474 0
 1947 008c 0360     		str	r3, [r0]
1489:Generated_Source\PSoC4/CapSense.c ****     newRegValue &= ~(CapSense_PRECHARGE_CONFIG_MASK);
 1948              		.loc 1 1489 0
 1949 008e 2C68     		ldr	r4, [r5]
 1950              	.LVL227:
1490:Generated_Source\PSoC4/CapSense.c ****     newRegValue |= CapSense_CTANK_PRECHARGE_CONFIG;
 1951              		.loc 1 1490 0
 1952 0090 254B     		ldr	r3, .L78+24
1493:Generated_Source\PSoC4/CapSense.c **** 
 1953              		.loc 1 1493 0
 1954 0092 0720     		movs	r0, #7
1490:Generated_Source\PSoC4/CapSense.c ****     newRegValue |= CapSense_CTANK_PRECHARGE_CONFIG;
 1955              		.loc 1 1490 0
 1956 0094 1C40     		ands	r4, r3
 1957              	.LVL228:
1491:Generated_Source\PSoC4/CapSense.c **** 
 1958              		.loc 1 1491 0
 1959 0096 254B     		ldr	r3, .L78+28
 1960 0098 1C43     		orrs	r4, r3
 1961              	.LVL229:
1493:Generated_Source\PSoC4/CapSense.c **** 
ARM GAS  C:\Users\young\AppData\Local\Temp\ccoFnsFE.s 			page 73


 1962              		.loc 1 1493 0
 1963 009a FFF7FEFF 		bl	CyIntEnable
 1964              	.LVL230:
 1965              	.LBB128:
 1966              	.LBB129:
1066:Generated_Source\PSoC4/CapSense.c ****     pinModeShift = CapSense_pinShiftTbl[sensor]  * CapSense_PC_PIN_CFG_SIZE;
 1967              		.loc 1 1066 0
 1968 009e 4B46     		mov	r3, r9
 1969 00a0 1B7A     		ldrb	r3, [r3, #8]
 1970 00a2 9946     		mov	r9, r3
 1971              	.LVL231:
1067:Generated_Source\PSoC4/CapSense.c ****     pinHSIOMShift = CapSense_pinShiftTbl[sensor] * CapSense_HSIOM_PIN_CFG_SIZE;
 1972              		.loc 1 1067 0
 1973 00a4 4346     		mov	r3, r8
 1974              	.LVL232:
 1975 00a6 DF5D     		ldrb	r7, [r3, r7]
 1976              	.LVL233:
1070:Generated_Source\PSoC4/CapSense.c **** 
 1977              		.loc 1 1070 0
 1978 00a8 FFF7FEFF 		bl	CyEnterCriticalSection
 1979              	.LVL234:
 1980 00ac 8246     		mov	r10, r0
 1981              	.LVL235:
1073:Generated_Source\PSoC4/CapSense.c ****     newRegisterValue |= (uint32)((uint32)CapSense_CSD_SENSE_PORT_MODE << pinHSIOMShift);
 1982              		.loc 1 1073 0
 1983 00ae 0F20     		movs	r0, #15
1072:Generated_Source\PSoC4/CapSense.c ****     newRegisterValue &= ~(CapSense_CSD_HSIOM_MASK << pinHSIOMShift);
 1984              		.loc 1 1072 0
 1985 00b0 4B46     		mov	r3, r9
1073:Generated_Source\PSoC4/CapSense.c ****     newRegisterValue |= (uint32)((uint32)CapSense_CSD_SENSE_PORT_MODE << pinHSIOMShift);
 1986              		.loc 1 1073 0
 1987 00b2 B900     		lsls	r1, r7, #2
 1988 00b4 C9B2     		uxtb	r1, r1
 1989 00b6 8840     		lsls	r0, r0, r1
1072:Generated_Source\PSoC4/CapSense.c ****     newRegisterValue &= ~(CapSense_CSD_HSIOM_MASK << pinHSIOMShift);
 1990              		.loc 1 1072 0
 1991 00b8 9B00     		lsls	r3, r3, #2
 1992 00ba 4344     		add	r3, r3, r8
 1993 00bc 1A69     		ldr	r2, [r3, #16]
1076:Generated_Source\PSoC4/CapSense.c ****     *CapSense_prtSelTbl[port] = newRegisterValue;
 1994              		.loc 1 1076 0
 1995 00be 1B6A     		ldr	r3, [r3, #32]
1072:Generated_Source\PSoC4/CapSense.c ****     newRegisterValue &= ~(CapSense_CSD_HSIOM_MASK << pinHSIOMShift);
 1996              		.loc 1 1072 0
 1997 00c0 9446     		mov	ip, r2
 1998 00c2 1268     		ldr	r2, [r2]
 1999              	.LVL236:
1076:Generated_Source\PSoC4/CapSense.c ****     *CapSense_prtSelTbl[port] = newRegisterValue;
 2000              		.loc 1 1076 0
 2001 00c4 9846     		mov	r8, r3
1073:Generated_Source\PSoC4/CapSense.c ****     newRegisterValue |= (uint32)((uint32)CapSense_CSD_SENSE_PORT_MODE << pinHSIOMShift);
 2002              		.loc 1 1073 0
 2003 00c6 8243     		bics	r2, r0
 2004              	.LVL237:
1074:Generated_Source\PSoC4/CapSense.c **** 
 2005              		.loc 1 1074 0
 2006 00c8 0420     		movs	r0, #4
ARM GAS  C:\Users\young\AppData\Local\Temp\ccoFnsFE.s 			page 74


 2007 00ca 8840     		lsls	r0, r0, r1
1076:Generated_Source\PSoC4/CapSense.c ****     *CapSense_prtSelTbl[port] = newRegisterValue;
 2008              		.loc 1 1076 0
 2009 00cc 1968     		ldr	r1, [r3]
 2010 00ce 7B00     		lsls	r3, r7, #1
 2011 00d0 FB18     		adds	r3, r7, r3
 2012 00d2 0727     		movs	r7, #7
 2013              	.LVL238:
 2014 00d4 DBB2     		uxtb	r3, r3
 2015 00d6 9F40     		lsls	r7, r7, r3
 2016 00d8 B943     		bics	r1, r7
 2017 00da 0B00     		movs	r3, r1
 2018 00dc 4146     		mov	r1, r8
 2019 00de 0B60     		str	r3, [r1]
1077:Generated_Source\PSoC4/CapSense.c **** 
 2020              		.loc 1 1077 0
 2021 00e0 6346     		mov	r3, ip
1074:Generated_Source\PSoC4/CapSense.c **** 
 2022              		.loc 1 1074 0
 2023 00e2 0243     		orrs	r2, r0
 2024              	.LVL239:
1077:Generated_Source\PSoC4/CapSense.c **** 
 2025              		.loc 1 1077 0
 2026 00e4 1A60     		str	r2, [r3]
1079:Generated_Source\PSoC4/CapSense.c **** }
 2027              		.loc 1 1079 0
 2028 00e6 5046     		mov	r0, r10
 2029 00e8 FFF7FEFF 		bl	CyExitCriticalSection
 2030              	.LVL240:
 2031              	.LBE129:
 2032              	.LBE128:
1498:Generated_Source\PSoC4/CapSense.c ****     CapSense_CSD_CFG_REG = newRegValue;
 2033              		.loc 1 1498 0
 2034 00ec FFF7FEFF 		bl	CyEnterCriticalSection
 2035              	.LVL241:
 2036 00f0 0700     		movs	r7, r0
 2037              	.LVL242:
1499:Generated_Source\PSoC4/CapSense.c **** 
 2038              		.loc 1 1499 0
 2039 00f2 2C60     		str	r4, [r5]
1509:Generated_Source\PSoC4/CapSense.c **** 
 2040              		.loc 1 1509 0
 2041 00f4 0020     		movs	r0, #0
 2042 00f6 FFF7FEFF 		bl	CyDelayCycles
 2043              	.LVL243:
1519:Generated_Source\PSoC4/CapSense.c ****     CyExitCriticalSection(interruptState);
 2044              		.loc 1 1519 0
 2045 00fa 0D4B     		ldr	r3, .L78+32
1520:Generated_Source\PSoC4/CapSense.c **** }
 2046              		.loc 1 1520 0
 2047 00fc 3800     		movs	r0, r7
1519:Generated_Source\PSoC4/CapSense.c ****     CyExitCriticalSection(interruptState);
 2048              		.loc 1 1519 0
 2049 00fe 1E60     		str	r6, [r3]
1520:Generated_Source\PSoC4/CapSense.c **** }
 2050              		.loc 1 1520 0
 2051 0100 FFF7FEFF 		bl	CyExitCriticalSection
ARM GAS  C:\Users\young\AppData\Local\Temp\ccoFnsFE.s 			page 75


 2052              	.LVL244:
 2053              	.LVL245:
 2054              	.LVL246:
 2055              	.LVL247:
1521:Generated_Source\PSoC4/CapSense.c **** 
 2056              		.loc 1 1521 0
 2057 0104 1CBC     		pop	{r2, r3, r4}
 2058 0106 9046     		mov	r8, r2
 2059 0108 9946     		mov	r9, r3
 2060 010a A246     		mov	r10, r4
 2061 010c F0BD     		pop	{r4, r5, r6, r7, pc}
 2062              	.L79:
 2063 010e C046     		.align	2
 2064              	.L78:
 2065 0110 00000000 		.word	.LANCHOR0
 2066 0114 00000000 		.word	.LANCHOR2
 2067 0118 04000840 		.word	1074266116
 2068 011c 08000840 		.word	1074266120
 2069 0120 00FF80FF 		.word	-8323328
 2070 0124 00000000 		.word	.LANCHOR1
 2071 0128 FF1FDFFF 		.word	-2154497
 2072 012c 20002000 		.word	2097184
 2073 0130 0C000840 		.word	1074266124
 2074              		.cfi_endproc
 2075              	.LFE52:
 2076              		.size	CapSense_PreScan, .-CapSense_PreScan
 2077              		.section	.text.CapSense_ScanSensor,"ax",%progbits
 2078              		.align	2
 2079              		.global	CapSense_ScanSensor
 2080              		.code	16
 2081              		.thumb_func
 2082              		.type	CapSense_ScanSensor, %function
 2083              	CapSense_ScanSensor:
 2084              	.LFB38:
 569:Generated_Source\PSoC4/CapSense.c ****     /* Clears status/control variable and set sensorIndex */
 2085              		.loc 1 569 0
 2086              		.cfi_startproc
 2087              		@ args = 0, pretend = 0, frame = 0
 2088              		@ frame_needed = 0, uses_anonymous_args = 0
 2089              	.LVL248:
 571:Generated_Source\PSoC4/CapSense.c ****     CapSense_sensorIndex = (uint8)sensor;
 2090              		.loc 1 571 0
 2091 0000 0022     		movs	r2, #0
 2092 0002 054B     		ldr	r3, .L81
 569:Generated_Source\PSoC4/CapSense.c ****     /* Clears status/control variable and set sensorIndex */
 2093              		.loc 1 569 0
 2094 0004 10B5     		push	{r4, lr}
 2095              		.cfi_def_cfa_offset 8
 2096              		.cfi_offset 4, -8
 2097              		.cfi_offset 14, -4
 571:Generated_Source\PSoC4/CapSense.c ****     CapSense_sensorIndex = (uint8)sensor;
 2098              		.loc 1 571 0
 2099 0006 5A70     		strb	r2, [r3, #1]
 572:Generated_Source\PSoC4/CapSense.c **** 
 2100              		.loc 1 572 0
 2101 0008 C2B2     		uxtb	r2, r0
 2102 000a 9A75     		strb	r2, [r3, #22]
ARM GAS  C:\Users\young\AppData\Local\Temp\ccoFnsFE.s 			page 76


 575:Generated_Source\PSoC4/CapSense.c ****     CapSense_PreScan(sensor);
 2103              		.loc 1 575 0
 2104 000c 8122     		movs	r2, #129
 577:Generated_Source\PSoC4/CapSense.c **** 
 2105              		.loc 1 577 0
 2106              		@ sp needed
 575:Generated_Source\PSoC4/CapSense.c ****     CapSense_PreScan(sensor);
 2107              		.loc 1 575 0
 2108 000e 5A70     		strb	r2, [r3, #1]
 576:Generated_Source\PSoC4/CapSense.c **** }
 2109              		.loc 1 576 0
 2110 0010 FFF7FEFF 		bl	CapSense_PreScan
 2111              	.LVL249:
 577:Generated_Source\PSoC4/CapSense.c **** 
 2112              		.loc 1 577 0
 2113 0014 10BD     		pop	{r4, pc}
 2114              	.L82:
 2115 0016 C046     		.align	2
 2116              	.L81:
 2117 0018 00000000 		.word	.LANCHOR1
 2118              		.cfi_endproc
 2119              	.LFE38:
 2120              		.size	CapSense_ScanSensor, .-CapSense_ScanSensor
 2121              		.section	.text.CapSense_ScanEnabledWidgets,"ax",%progbits
 2122              		.align	2
 2123              		.global	CapSense_ScanEnabledWidgets
 2124              		.code	16
 2125              		.thumb_func
