ARM GAS  C:\Users\young\AppData\Local\Temp\ccoFnsFE.s 			page 1


   1              		.syntax unified
   2              		.cpu cortex-m0
   3              		.fpu softvfp
   4              		.eabi_attribute 20, 1
   5              		.eabi_attribute 21, 1
   6              		.eabi_attribute 23, 3
   7              		.eabi_attribute 24, 1
   8              		.eabi_attribute 25, 1
   9              		.eabi_attribute 26, 1
  10              		.eabi_attribute 30, 2
  11              		.eabi_attribute 34, 0
  12              		.eabi_attribute 18, 4
  13              		.thumb
  14              		.syntax unified
  15              		.file	"CapSense.c"
  16              		.text
  17              	.Ltext0:
  18              		.cfi_sections	.debug_frame
  19              		.section	.text.CapSense_Init,"ax",%progbits
  20              		.align	2
  21              		.global	CapSense_Init
  22              		.code	16
  23              		.thumb_func
  24              		.type	CapSense_Init, %function
  25              	CapSense_Init:
  26              	.LFB32:
  27              		.file 1 "Generated_Source\\PSoC4\\CapSense.c"
   1:Generated_Source\PSoC4/CapSense.c **** /*******************************************************************************
   2:Generated_Source\PSoC4/CapSense.c **** * File Name: CapSense.c
   3:Generated_Source\PSoC4/CapSense.c **** * Version 2.60
   4:Generated_Source\PSoC4/CapSense.c **** *
   5:Generated_Source\PSoC4/CapSense.c **** * Description:
   6:Generated_Source\PSoC4/CapSense.c **** *  This file provides the source code for scanning APIs for the CapSense CSD
   7:Generated_Source\PSoC4/CapSense.c **** *  component.
   8:Generated_Source\PSoC4/CapSense.c **** *
   9:Generated_Source\PSoC4/CapSense.c **** * Note:
  10:Generated_Source\PSoC4/CapSense.c **** *
  11:Generated_Source\PSoC4/CapSense.c **** ********************************************************************************
  12:Generated_Source\PSoC4/CapSense.c **** * Copyright 2013-2016, Cypress Semiconductor Corporation.  All rights reserved.
  13:Generated_Source\PSoC4/CapSense.c **** * You may use this file only in accordance with the license, terms, conditions,
  14:Generated_Source\PSoC4/CapSense.c **** * disclaimers, and limitations in the end user license agreement accompanying
  15:Generated_Source\PSoC4/CapSense.c **** * the software package with which this file was provided.
  16:Generated_Source\PSoC4/CapSense.c **** *******************************************************************************/
  17:Generated_Source\PSoC4/CapSense.c **** 
  18:Generated_Source\PSoC4/CapSense.c **** #include "CapSense.h"
  19:Generated_Source\PSoC4/CapSense.c **** #include "CapSense_PVT.h"
  20:Generated_Source\PSoC4/CapSense.c **** #include "cypins.h"
  21:Generated_Source\PSoC4/CapSense.c **** 
  22:Generated_Source\PSoC4/CapSense.c **** 
  23:Generated_Source\PSoC4/CapSense.c **** #if(0u != CapSense_CSHL_API_GENERATE)
  24:Generated_Source\PSoC4/CapSense.c ****     #include "CapSense_CSHL.h"
  25:Generated_Source\PSoC4/CapSense.c **** #endif /* (0u != CapSense_CSHL_API_GENERATE) */
  26:Generated_Source\PSoC4/CapSense.c **** 
  27:Generated_Source\PSoC4/CapSense.c **** /* This definition is intended to prevent unexpected linker error.
  28:Generated_Source\PSoC4/CapSense.c ****    For more details please see the IAR Technical Note 49981 */
  29:Generated_Source\PSoC4/CapSense.c **** #if defined(__ICCARM__)
  30:Generated_Source\PSoC4/CapSense.c ****     extern void CapSense_EnableSensor(uint32 sensor);
ARM GAS  C:\Users\young\AppData\Local\Temp\ccoFnsFE.s 			page 2


  31:Generated_Source\PSoC4/CapSense.c ****     extern void CapSense_DisableSensor(uint32 sensor);
  32:Generated_Source\PSoC4/CapSense.c **** #endif /* (__ICCARM__) */
  33:Generated_Source\PSoC4/CapSense.c **** 
  34:Generated_Source\PSoC4/CapSense.c **** /* SmartSense functions */
  35:Generated_Source\PSoC4/CapSense.c **** #if (CapSense_TUNING_METHOD == CapSense__TUNING_AUTO)
  36:Generated_Source\PSoC4/CapSense.c ****     uint8 CapSense_lowLevelTuningDone = 0u;
  37:Generated_Source\PSoC4/CapSense.c ****     uint8 CapSense_scanSpeedTbl[((CapSense_TOTAL_SENSOR_COUNT - 1u) / 8u) + 1u];
  38:Generated_Source\PSoC4/CapSense.c **** #endif /* (CapSense_TUNING_METHOD == CapSense__TUNING_AUTO) */
  39:Generated_Source\PSoC4/CapSense.c **** 
  40:Generated_Source\PSoC4/CapSense.c **** #if(CapSense_PRS_OPTIONS != CapSense__PRS_NONE)
  41:Generated_Source\PSoC4/CapSense.c ****     uint8 CapSense_prescalersTuningDone = 0u;
  42:Generated_Source\PSoC4/CapSense.c **** #endif /* (CapSense_PRS_OPTIONS == CapSense__PRS_NONE) */
  43:Generated_Source\PSoC4/CapSense.c **** 
  44:Generated_Source\PSoC4/CapSense.c **** /* Global software variables */
  45:Generated_Source\PSoC4/CapSense.c **** volatile uint8 CapSense_csdStatusVar = 0u;   /* CapSense CSD status, variable */
  46:Generated_Source\PSoC4/CapSense.c **** volatile uint8 CapSense_sensorIndex = 0u;    /* Index of scannig sensor */
  47:Generated_Source\PSoC4/CapSense.c **** 
  48:Generated_Source\PSoC4/CapSense.c **** /* Global array of Raw Counts */
  49:Generated_Source\PSoC4/CapSense.c **** uint16 CapSense_sensorRaw[CapSense_TOTAL_SENSOR_COUNT] = {0u};
  50:Generated_Source\PSoC4/CapSense.c **** 
  51:Generated_Source\PSoC4/CapSense.c **** /* Backup variables for trim registers*/
  52:Generated_Source\PSoC4/CapSense.c **** #if (CapSense_IDAC1_POLARITY == CapSense__IDAC_SINK)
  53:Generated_Source\PSoC4/CapSense.c ****     uint8 CapSense_csdTrim2;
  54:Generated_Source\PSoC4/CapSense.c **** #else
  55:Generated_Source\PSoC4/CapSense.c ****     uint8 CapSense_csdTrim1;
  56:Generated_Source\PSoC4/CapSense.c **** #endif /* (CapSense_IDAC1_POLARITY == CapSense__IDAC_SINK) */
  57:Generated_Source\PSoC4/CapSense.c **** 
  58:Generated_Source\PSoC4/CapSense.c **** /* Global array of un-scanned sensors state */
  59:Generated_Source\PSoC4/CapSense.c **** uint8 CapSense_unscannedSnsDriveMode[CapSense_PORT_PIN_CONFIG_TBL_ZISE];
  60:Generated_Source\PSoC4/CapSense.c **** 
  61:Generated_Source\PSoC4/CapSense.c **** /* Backup array for CapSense_sensorEnableMask */
  62:Generated_Source\PSoC4/CapSense.c **** uint8 CapSense_sensorEnableMaskBackup[(((CapSense_TOTAL_SENSOR_COUNT - 1u) / 8u) + 1u)];
  63:Generated_Source\PSoC4/CapSense.c **** 
  64:Generated_Source\PSoC4/CapSense.c **** /* Configured constants and arrays by Customizer */
  65:Generated_Source\PSoC4/CapSense.c **** uint8 CapSense_sensorEnableMask[(((CapSense_TOTAL_SENSOR_COUNT - 1u) / 8u) + 1u)] = {
  66:Generated_Source\PSoC4/CapSense.c **** 0x3Fu, };
  67:Generated_Source\PSoC4/CapSense.c **** 
  68:Generated_Source\PSoC4/CapSense.c **** reg32 * CapSense_pcTable[] = {
  69:Generated_Source\PSoC4/CapSense.c ****     (reg32 *)CapSense_Sns__Button0__BTN__PC, 
  70:Generated_Source\PSoC4/CapSense.c ****     (reg32 *)CapSense_Sns__Button1__BTN__PC, 
  71:Generated_Source\PSoC4/CapSense.c ****     (reg32 *)CapSense_Sns__Button2__BTN__PC, 
  72:Generated_Source\PSoC4/CapSense.c ****     (reg32 *)CapSense_Sns__Button3__BTN__PC, 
  73:Generated_Source\PSoC4/CapSense.c ****     (reg32 *)CapSense_Sns__Button4__BTN__PC, 
  74:Generated_Source\PSoC4/CapSense.c ****     (reg32 *)CapSense_Sns__Button5__BTN__PC, 
  75:Generated_Source\PSoC4/CapSense.c **** };
  76:Generated_Source\PSoC4/CapSense.c **** 
  77:Generated_Source\PSoC4/CapSense.c **** const uint8 CapSense_portTable[] = {
  78:Generated_Source\PSoC4/CapSense.c ****     CapSense_Sns__Button0__BTN__PORT, 
  79:Generated_Source\PSoC4/CapSense.c ****     CapSense_Sns__Button1__BTN__PORT, 
  80:Generated_Source\PSoC4/CapSense.c ****     CapSense_Sns__Button2__BTN__PORT, 
  81:Generated_Source\PSoC4/CapSense.c ****     CapSense_Sns__Button3__BTN__PORT, 
  82:Generated_Source\PSoC4/CapSense.c ****     CapSense_Sns__Button4__BTN__PORT, 
  83:Generated_Source\PSoC4/CapSense.c ****     CapSense_Sns__Button5__BTN__PORT, 
  84:Generated_Source\PSoC4/CapSense.c **** };
  85:Generated_Source\PSoC4/CapSense.c **** 
  86:Generated_Source\PSoC4/CapSense.c **** const uint32 CapSense_maskTable[] = {
  87:Generated_Source\PSoC4/CapSense.c ****     CapSense_Sns__Button0__BTN__MASK, 
ARM GAS  C:\Users\young\AppData\Local\Temp\ccoFnsFE.s 			page 3


  88:Generated_Source\PSoC4/CapSense.c ****     CapSense_Sns__Button1__BTN__MASK, 
  89:Generated_Source\PSoC4/CapSense.c ****     CapSense_Sns__Button2__BTN__MASK, 
  90:Generated_Source\PSoC4/CapSense.c ****     CapSense_Sns__Button3__BTN__MASK, 
  91:Generated_Source\PSoC4/CapSense.c ****     CapSense_Sns__Button4__BTN__MASK, 
  92:Generated_Source\PSoC4/CapSense.c ****     CapSense_Sns__Button5__BTN__MASK, 
  93:Generated_Source\PSoC4/CapSense.c **** };
  94:Generated_Source\PSoC4/CapSense.c **** 
  95:Generated_Source\PSoC4/CapSense.c **** const uint8 CapSense_pinShiftTbl[] = {
  96:Generated_Source\PSoC4/CapSense.c ****     (uint8) CapSense_Sns__Button0__BTN__SHIFT, 
  97:Generated_Source\PSoC4/CapSense.c ****     (uint8) CapSense_Sns__Button1__BTN__SHIFT, 
  98:Generated_Source\PSoC4/CapSense.c ****     (uint8) CapSense_Sns__Button2__BTN__SHIFT, 
  99:Generated_Source\PSoC4/CapSense.c ****     (uint8) CapSense_Sns__Button3__BTN__SHIFT, 
 100:Generated_Source\PSoC4/CapSense.c ****     (uint8) CapSense_Sns__Button4__BTN__SHIFT, 
 101:Generated_Source\PSoC4/CapSense.c ****     (uint8) CapSense_Sns__Button5__BTN__SHIFT, 
 102:Generated_Source\PSoC4/CapSense.c **** };
 103:Generated_Source\PSoC4/CapSense.c **** 
 104:Generated_Source\PSoC4/CapSense.c **** uint8 CapSense_modulationIDAC[CapSense_TOTAL_SENSOR_COUNT] = {
 105:Generated_Source\PSoC4/CapSense.c ****     21u, 24u, 21u, 19u, 19u, 17u, 
 106:Generated_Source\PSoC4/CapSense.c **** };
 107:Generated_Source\PSoC4/CapSense.c **** uint8 CapSense_compensationIDAC[CapSense_TOTAL_SENSOR_COUNT] = {
 108:Generated_Source\PSoC4/CapSense.c ****     0u, 0u, 0u, 0u, 0u, 0u, 
 109:Generated_Source\PSoC4/CapSense.c **** };
 110:Generated_Source\PSoC4/CapSense.c **** 
 111:Generated_Source\PSoC4/CapSense.c **** uint32 CapSense_widgetResolution[CapSense_RESOLUTIONS_TBL_SIZE] = {
 112:Generated_Source\PSoC4/CapSense.c ****     CapSense_RESOLUTION_11_BITS,
 113:Generated_Source\PSoC4/CapSense.c ****     CapSense_RESOLUTION_12_BITS,
 114:Generated_Source\PSoC4/CapSense.c ****     CapSense_RESOLUTION_12_BITS,
 115:Generated_Source\PSoC4/CapSense.c ****     CapSense_RESOLUTION_11_BITS,
 116:Generated_Source\PSoC4/CapSense.c ****     CapSense_RESOLUTION_11_BITS,
 117:Generated_Source\PSoC4/CapSense.c ****     CapSense_RESOLUTION_11_BITS,
 118:Generated_Source\PSoC4/CapSense.c **** };
 119:Generated_Source\PSoC4/CapSense.c **** 
 120:Generated_Source\PSoC4/CapSense.c **** uint8 CapSense_senseClkDividerVal[CapSense_TOTAL_SCANSLOT_COUNT] = {
 121:Generated_Source\PSoC4/CapSense.c ****     2u, 2u, 2u, 2u, 2u, 2u, 
 122:Generated_Source\PSoC4/CapSense.c **** };
 123:Generated_Source\PSoC4/CapSense.c **** uint8 CapSense_sampleClkDividerVal[CapSense_TOTAL_SCANSLOT_COUNT] = {
 124:Generated_Source\PSoC4/CapSense.c ****     2u, 2u, 2u, 2u, 2u, 2u, 
 125:Generated_Source\PSoC4/CapSense.c **** };
 126:Generated_Source\PSoC4/CapSense.c **** 
 127:Generated_Source\PSoC4/CapSense.c **** 
 128:Generated_Source\PSoC4/CapSense.c **** const uint8 CapSense_widgetNumber[CapSense_TOTAL_SENSOR_COUNT] = {
 129:Generated_Source\PSoC4/CapSense.c ****     0u, /* Button0__BTN */
 130:Generated_Source\PSoC4/CapSense.c ****     1u, /* Button1__BTN */
 131:Generated_Source\PSoC4/CapSense.c ****     2u, /* Button2__BTN */
 132:Generated_Source\PSoC4/CapSense.c ****     3u, /* Button3__BTN */
 133:Generated_Source\PSoC4/CapSense.c ****     4u, /* Button4__BTN */
 134:Generated_Source\PSoC4/CapSense.c ****     5u, /* Button5__BTN */
 135:Generated_Source\PSoC4/CapSense.c **** };
 136:Generated_Source\PSoC4/CapSense.c **** 
 137:Generated_Source\PSoC4/CapSense.c **** reg32* const CapSense_prtSelTbl[CapSense_CFG_REG_TBL_SIZE] = {
 138:Generated_Source\PSoC4/CapSense.c ****     ((reg32 *) CYREG_HSIOM_PORT_SEL0),
 139:Generated_Source\PSoC4/CapSense.c ****     ((reg32 *) CYREG_HSIOM_PORT_SEL1),
 140:Generated_Source\PSoC4/CapSense.c ****     ((reg32 *) CYREG_HSIOM_PORT_SEL2),
 141:Generated_Source\PSoC4/CapSense.c ****     ((reg32 *) CYREG_HSIOM_PORT_SEL3),
 142:Generated_Source\PSoC4/CapSense.c **** };
 143:Generated_Source\PSoC4/CapSense.c **** 
 144:Generated_Source\PSoC4/CapSense.c **** reg32* const CapSense_prtCfgTbl[CapSense_CFG_REG_TBL_SIZE] = {
ARM GAS  C:\Users\young\AppData\Local\Temp\ccoFnsFE.s 			page 4


 145:Generated_Source\PSoC4/CapSense.c ****     ((reg32 *) CYREG_GPIO_PRT0_PC),
 146:Generated_Source\PSoC4/CapSense.c ****     ((reg32 *) CYREG_GPIO_PRT1_PC),
 147:Generated_Source\PSoC4/CapSense.c ****     ((reg32 *) CYREG_GPIO_PRT2_PC),
 148:Generated_Source\PSoC4/CapSense.c ****     ((reg32 *) CYREG_GPIO_PRT3_PC),
 149:Generated_Source\PSoC4/CapSense.c **** };
 150:Generated_Source\PSoC4/CapSense.c **** 
 151:Generated_Source\PSoC4/CapSense.c **** reg32* const CapSense_prtDRTbl[CapSense_CFG_REG_TBL_SIZE] = {
 152:Generated_Source\PSoC4/CapSense.c ****     ((reg32 *) CYREG_GPIO_PRT0_DR),
 153:Generated_Source\PSoC4/CapSense.c ****     ((reg32 *) CYREG_GPIO_PRT1_DR),
 154:Generated_Source\PSoC4/CapSense.c ****     ((reg32 *) CYREG_GPIO_PRT2_DR),
 155:Generated_Source\PSoC4/CapSense.c ****     ((reg32 *) CYREG_GPIO_PRT3_DR),
 156:Generated_Source\PSoC4/CapSense.c **** };
 157:Generated_Source\PSoC4/CapSense.c **** 
 158:Generated_Source\PSoC4/CapSense.c **** 
 159:Generated_Source\PSoC4/CapSense.c **** 
 160:Generated_Source\PSoC4/CapSense.c **** /*******************************************************************************
 161:Generated_Source\PSoC4/CapSense.c **** * Function Name: CapSense_Init
 162:Generated_Source\PSoC4/CapSense.c **** ********************************************************************************
 163:Generated_Source\PSoC4/CapSense.c **** *
 164:Generated_Source\PSoC4/CapSense.c **** * Summary:
 165:Generated_Source\PSoC4/CapSense.c **** *  API initializes default CapSense configuration provided by the customizer that defines
 166:Generated_Source\PSoC4/CapSense.c **** *  the mode of component operations and resets all the sensors to an inactive state.
 167:Generated_Source\PSoC4/CapSense.c **** *
 168:Generated_Source\PSoC4/CapSense.c **** * Parameters:
 169:Generated_Source\PSoC4/CapSense.c **** *  None
 170:Generated_Source\PSoC4/CapSense.c **** *
 171:Generated_Source\PSoC4/CapSense.c **** * Return:
 172:Generated_Source\PSoC4/CapSense.c **** *  None
 173:Generated_Source\PSoC4/CapSense.c **** *
 174:Generated_Source\PSoC4/CapSense.c **** * Global Variables:
 175:Generated_Source\PSoC4/CapSense.c **** *  CapSense_immunityIndex - defines immunity level.
 176:Generated_Source\PSoC4/CapSense.c **** *
 177:Generated_Source\PSoC4/CapSense.c **** * Side Effects:
 178:Generated_Source\PSoC4/CapSense.c **** *  None
 179:Generated_Source\PSoC4/CapSense.c **** *
 180:Generated_Source\PSoC4/CapSense.c **** *******************************************************************************/
 181:Generated_Source\PSoC4/CapSense.c **** void CapSense_Init(void)
 182:Generated_Source\PSoC4/CapSense.c **** {
  28              		.loc 1 182 0
  29              		.cfi_startproc
  30              		@ args = 0, pretend = 0, frame = 0
  31              		@ frame_needed = 0, uses_anonymous_args = 0
  32              	.LVL0:
  33 0000 F8B5     		push	{r3, r4, r5, r6, r7, lr}
  34              		.cfi_def_cfa_offset 24
  35              		.cfi_offset 3, -24
  36              		.cfi_offset 4, -20
  37              		.cfi_offset 5, -16
  38              		.cfi_offset 6, -12
  39              		.cfi_offset 7, -8
  40              		.cfi_offset 14, -4
  41 0002 4D46     		mov	r5, r9
  42 0004 4446     		mov	r4, r8
  43 0006 5F46     		mov	r7, fp
  44 0008 5646     		mov	r6, r10
  45 000a 394B     		ldr	r3, .L7
  46 000c F0B4     		push	{r4, r5, r6, r7}
ARM GAS  C:\Users\young\AppData\Local\Temp\ccoFnsFE.s 			page 5


  47              		.cfi_def_cfa_offset 40
  48              		.cfi_offset 8, -40
  49              		.cfi_offset 9, -36
  50              		.cfi_offset 10, -32
  51              		.cfi_offset 11, -28
  52 000e 0622     		movs	r2, #6
  53 0010 0021     		movs	r1, #0
  54 0012 1800     		movs	r0, r3
  55 0014 9B46     		mov	fp, r3
  56 0016 FFF7FEFF 		bl	memset
  57              	.LVL1:
  58              	.LBB38:
  59              	.LBB39:
 183:Generated_Source\PSoC4/CapSense.c ****     uint32 curSensor;
 184:Generated_Source\PSoC4/CapSense.c **** 
 185:Generated_Source\PSoC4/CapSense.c ****     #if(CapSense_IS_SHIELD_ENABLE)
 186:Generated_Source\PSoC4/CapSense.c **** 
 187:Generated_Source\PSoC4/CapSense.c ****         #if((CapSense_CSH_TANK_PREGARGE_OPTION == CapSense__CAPPRIOBUF) || (0u != CapSense_CSH_TANK
 188:Generated_Source\PSoC4/CapSense.c ****             uint32 newRegValue;
 189:Generated_Source\PSoC4/CapSense.c **** 
 190:Generated_Source\PSoC4/CapSense.c ****             newRegValue = CapSense_CTANK_CONNECTION_REG;
 191:Generated_Source\PSoC4/CapSense.c ****             newRegValue &= ~(CapSense_CSD_CTANK_CONNECTION_MASK);
 192:Generated_Source\PSoC4/CapSense.c ****             newRegValue |= CapSense_CSD_CTANK_TO_AMUXBUS_B;
 193:Generated_Source\PSoC4/CapSense.c ****             CapSense_CTANK_CONNECTION_REG = newRegValue;
 194:Generated_Source\PSoC4/CapSense.c **** 
 195:Generated_Source\PSoC4/CapSense.c ****             #if(CapSense_CSH_TANK_PREGARGE_OPTION == CapSense__CAPPRIOBUF)
 196:Generated_Source\PSoC4/CapSense.c ****                 newRegValue = CapSense_CTANK_PORT_PC_REG;
 197:Generated_Source\PSoC4/CapSense.c ****                 newRegValue &= ~(CapSense_CSD_CTANK_PC_MASK);
 198:Generated_Source\PSoC4/CapSense.c ****                 newRegValue |= CapSense_CTANK_PC_STRONG_MODE;
 199:Generated_Source\PSoC4/CapSense.c ****                 CapSense_CTANK_PORT_PC_REG = newRegValue;
 200:Generated_Source\PSoC4/CapSense.c **** 
 201:Generated_Source\PSoC4/CapSense.c ****                 newRegValue = CapSense_CTANK_PORT_DR_REG;
 202:Generated_Source\PSoC4/CapSense.c ****                 newRegValue &= ~(CapSense_CTANK_DR_MASK);
 203:Generated_Source\PSoC4/CapSense.c ****                 newRegValue |= CapSense_CTANK_DR_CONFIG;
 204:Generated_Source\PSoC4/CapSense.c ****                 CapSense_CTANK_PORT_DR_REG = newRegValue;
 205:Generated_Source\PSoC4/CapSense.c ****             #endif /* (CapSense_CSH_TANK_PREGARGE_OPTION == CapSense__CAPPRIOBUF) */
 206:Generated_Source\PSoC4/CapSense.c **** 
 207:Generated_Source\PSoC4/CapSense.c ****         #endif /* ((CapSense_CSH_TANK_PREGARGE_OPTION == CapSense__CAPPRIOBUF) || (CapSense_CSH_TAN
 208:Generated_Source\PSoC4/CapSense.c **** 
 209:Generated_Source\PSoC4/CapSense.c ****         CapSense_EnableShieldElectrode((uint32)CapSense_SHIELD_PIN_NUMBER, (uint32)CapSense_SHIELD_
 210:Generated_Source\PSoC4/CapSense.c **** 
 211:Generated_Source\PSoC4/CapSense.c ****     #endif /* (CapSense_IS_SHIELD_ENABLE) */
 212:Generated_Source\PSoC4/CapSense.c **** 
 213:Generated_Source\PSoC4/CapSense.c ****     for(curSensor = 0u; curSensor < CapSense_TOTAL_SENSOR_COUNT; curSensor++)
 214:Generated_Source\PSoC4/CapSense.c ****     {
 215:Generated_Source\PSoC4/CapSense.c ****         CapSense_SetUnscannedSensorState(curSensor, CapSense_CONNECT_INACTIVE_SNS);
 216:Generated_Source\PSoC4/CapSense.c ****     }
 217:Generated_Source\PSoC4/CapSense.c **** 
 218:Generated_Source\PSoC4/CapSense.c ****     CapSense_CsdHwBlockInit();
 219:Generated_Source\PSoC4/CapSense.c ****     CapSense_SetShieldDelay(CapSense_SHIELD_DELAY );
 220:Generated_Source\PSoC4/CapSense.c **** 
 221:Generated_Source\PSoC4/CapSense.c ****     /* Clear all sensors */
 222:Generated_Source\PSoC4/CapSense.c ****     CapSense_ClearSensors();
 223:Generated_Source\PSoC4/CapSense.c **** }
 224:Generated_Source\PSoC4/CapSense.c **** 
 225:Generated_Source\PSoC4/CapSense.c **** /*******************************************************************************
 226:Generated_Source\PSoC4/CapSense.c **** * Function Name: CapSense_CsdHwBlockInit
ARM GAS  C:\Users\young\AppData\Local\Temp\ccoFnsFE.s 			page 6


 227:Generated_Source\PSoC4/CapSense.c **** ********************************************************************************
 228:Generated_Source\PSoC4/CapSense.c **** *
 229:Generated_Source\PSoC4/CapSense.c **** * Summary:
 230:Generated_Source\PSoC4/CapSense.c **** *  Initialises the hardware parameters of the CSD block
 231:Generated_Source\PSoC4/CapSense.c **** *
 232:Generated_Source\PSoC4/CapSense.c **** * Parameters:
 233:Generated_Source\PSoC4/CapSense.c **** *  None
 234:Generated_Source\PSoC4/CapSense.c **** *
 235:Generated_Source\PSoC4/CapSense.c **** * Return:
 236:Generated_Source\PSoC4/CapSense.c **** *  None
 237:Generated_Source\PSoC4/CapSense.c **** *
 238:Generated_Source\PSoC4/CapSense.c **** * Global Variables:
 239:Generated_Source\PSoC4/CapSense.c **** *  CapSense_csdTrim1 - Contains IDAC trim register value for Sourcing Mode.
 240:Generated_Source\PSoC4/CapSense.c **** *  CapSense_csdTrim2 - Contains IDAC trim register value for Sinking Mode.
 241:Generated_Source\PSoC4/CapSense.c **** *
 242:Generated_Source\PSoC4/CapSense.c **** * Side Effects:
 243:Generated_Source\PSoC4/CapSense.c **** *  None
 244:Generated_Source\PSoC4/CapSense.c **** *
 245:Generated_Source\PSoC4/CapSense.c **** *******************************************************************************/
 246:Generated_Source\PSoC4/CapSense.c **** void CapSense_CsdHwBlockInit(void)
 247:Generated_Source\PSoC4/CapSense.c **** {
 248:Generated_Source\PSoC4/CapSense.c ****     uint32 newRegValue;
 249:Generated_Source\PSoC4/CapSense.c **** 
 250:Generated_Source\PSoC4/CapSense.c ****         /* Set trim registers for CSD Mode */
 251:Generated_Source\PSoC4/CapSense.c ****     #if (CapSense_IDAC1_POLARITY == CapSense__IDAC_SINK)
 252:Generated_Source\PSoC4/CapSense.c ****         /* iDAC1 Sinking Mode */
 253:Generated_Source\PSoC4/CapSense.c ****         CapSense_csdTrim2 = (uint8)CapSense_CSD_TRIM2_REG;
 254:Generated_Source\PSoC4/CapSense.c ****         newRegValue = CapSense_csdTrim2;
 255:Generated_Source\PSoC4/CapSense.c ****         newRegValue &= CapSense_CSD_IDAC1_TRIM_MASK;
 256:Generated_Source\PSoC4/CapSense.c ****         newRegValue |= (uint32)((uint32)CapSense_SFLASH_CSD_TRIM2_REG & (uint32)CapSense_CSFLASH_TR
 257:Generated_Source\PSoC4/CapSense.c **** 
 258:Generated_Source\PSoC4/CapSense.c ****         #if (CapSense_IDAC_CNT == 2u)
 259:Generated_Source\PSoC4/CapSense.c ****             /* iDAC2 Sinking Mode */
 260:Generated_Source\PSoC4/CapSense.c ****             newRegValue &= CapSense_CSD_IDAC2_TRIM_MASK;
 261:Generated_Source\PSoC4/CapSense.c ****             newRegValue |= (uint32)((uint32)CapSense_SFLASH_CSD_TRIM2_REG & (uint32)CapSense_CSFLAS
 262:Generated_Source\PSoC4/CapSense.c ****         #endif /* (CapSense_IDAC_CNT == 2u) */
 263:Generated_Source\PSoC4/CapSense.c ****         CapSense_CSD_TRIM2_REG = newRegValue;
 264:Generated_Source\PSoC4/CapSense.c ****     #else
 265:Generated_Source\PSoC4/CapSense.c ****         /* iDAC1 Sourcing Mode */
 266:Generated_Source\PSoC4/CapSense.c ****         CapSense_csdTrim1 = (uint8)CapSense_CSD_TRIM1_REG;
 267:Generated_Source\PSoC4/CapSense.c ****         newRegValue = CapSense_csdTrim1;
 268:Generated_Source\PSoC4/CapSense.c ****         newRegValue &= CapSense_CSD_IDAC1_TRIM_MASK;
 269:Generated_Source\PSoC4/CapSense.c ****         newRegValue |= (uint32)((uint32)CapSense_SFLASH_CSD_TRIM1_REG & (uint32)CapSense_CSFLASH_TR
  60              		.loc 1 269 0
  61 001a 0F20     		movs	r0, #15
 266:Generated_Source\PSoC4/CapSense.c ****         newRegValue = CapSense_csdTrim1;
  62              		.loc 1 266 0
  63 001c 3549     		ldr	r1, .L7+4
  64 001e 364B     		ldr	r3, .L7+8
  65 0020 0A68     		ldr	r2, [r1]
  66              	.LVL2:
  67              		.loc 1 269 0
  68 0022 364C     		ldr	r4, .L7+12
 266:Generated_Source\PSoC4/CapSense.c ****         newRegValue = CapSense_csdTrim1;
  69              		.loc 1 266 0
  70 0024 1A70     		strb	r2, [r3]
  71              		.loc 1 269 0
ARM GAS  C:\Users\young\AppData\Local\Temp\ccoFnsFE.s 			page 7


  72 0026 2378     		ldrb	r3, [r4]
  73              	.LVL3:
  74              	.LBE39:
  75              	.LBE38:
  76              	.LBB41:
  77              	.LBB42:
 270:Generated_Source\PSoC4/CapSense.c ****         #if (CapSense_IDAC_CNT == 2u)
 271:Generated_Source\PSoC4/CapSense.c ****              /* iDAC2 Sourcing Mode */
 272:Generated_Source\PSoC4/CapSense.c ****             newRegValue &= CapSense_CSD_IDAC2_TRIM_MASK;
 273:Generated_Source\PSoC4/CapSense.c ****             newRegValue |= (uint32)((uint32)CapSense_SFLASH_CSD_TRIM1_REG & (uint32)CapSense_CSFLAS
 274:Generated_Source\PSoC4/CapSense.c ****         #endif
 275:Generated_Source\PSoC4/CapSense.c ****         CapSense_CSD_TRIM1_REG = newRegValue;
 276:Generated_Source\PSoC4/CapSense.c ****     #endif /* (CapSense_IDAC1_POLARITY == CapSense__IDAC_SINK) */
 277:Generated_Source\PSoC4/CapSense.c **** 
 278:Generated_Source\PSoC4/CapSense.c ****     /* Configure CSD and IDAC */
 279:Generated_Source\PSoC4/CapSense.c ****     #if (CapSense_IDAC_CNT > 1u)
 280:Generated_Source\PSoC4/CapSense.c ****         CapSense_CSD_IDAC_REG = CapSense_DEFAULT_CSD_IDAC_CONFIG;
 281:Generated_Source\PSoC4/CapSense.c ****         CapSense_CSD_CFG_REG = CapSense_DEFAULT_CSD_CONFIG;
 282:Generated_Source\PSoC4/CapSense.c ****     #else
 283:Generated_Source\PSoC4/CapSense.c ****         CapSense_CSD_IDAC_REG &= ~(CapSense_CSD_IDAC1_MODE_MASK  | CapSense_CSD_IDAC1_DATA_MASK);
 284:Generated_Source\PSoC4/CapSense.c ****         CapSense_CSD_IDAC_REG |= CapSense_DEFAULT_CSD_IDAC_CONFIG;
 285:Generated_Source\PSoC4/CapSense.c **** 
 286:Generated_Source\PSoC4/CapSense.c ****         CapSense_CSD_CFG_REG &= ~(CapSense_CSD_CONFIG_MASK);
 287:Generated_Source\PSoC4/CapSense.c ****         CapSense_CSD_CFG_REG |= (CapSense_DEFAULT_CSD_CONFIG);
 288:Generated_Source\PSoC4/CapSense.c ****     #endif /* (CapSense_IDAC_CNT > 1u) */
 289:Generated_Source\PSoC4/CapSense.c **** 
 290:Generated_Source\PSoC4/CapSense.c **** 
 291:Generated_Source\PSoC4/CapSense.c ****     /* Connect Cmod to AMUX bus */
 292:Generated_Source\PSoC4/CapSense.c ****     newRegValue = CapSense_CMOD_CONNECTION_REG;
 293:Generated_Source\PSoC4/CapSense.c ****     newRegValue &= ~(CapSense_CSD_CMOD_CONNECTION_MASK);
 294:Generated_Source\PSoC4/CapSense.c ****     newRegValue |= CapSense_CSD_CMOD_TO_AMUXBUS_A;
 295:Generated_Source\PSoC4/CapSense.c ****     CapSense_CMOD_CONNECTION_REG = newRegValue;
 296:Generated_Source\PSoC4/CapSense.c **** 
 297:Generated_Source\PSoC4/CapSense.c ****     /* Configure Dead Band PWM if it is enabled */
 298:Generated_Source\PSoC4/CapSense.c ****     #if(CapSense_CSD_4B_PWM_MODE != CapSense__PWM_OFF)
 299:Generated_Source\PSoC4/CapSense.c ****         CapSense_CSD_4B_PWM_REG = CapSense_DEFAULT_CSD_4B_PWM_CONFIG;
 300:Generated_Source\PSoC4/CapSense.c ****     #endif /* (CapSense_CSD_4B_PWM_MODE != CapSense__PWM_OFF) */
 301:Generated_Source\PSoC4/CapSense.c **** 
 302:Generated_Source\PSoC4/CapSense.c ****     /* Setup ISR */
 303:Generated_Source\PSoC4/CapSense.c ****     CyIntDisable(CapSense_ISR_NUMBER);
 304:Generated_Source\PSoC4/CapSense.c ****     #if !defined(CY_EXTERNAL_INTERRUPT_CONFIG)
 305:Generated_Source\PSoC4/CapSense.c ****         (void)CyIntSetVector(CapSense_ISR_NUMBER, &CapSense_ISR);
 306:Generated_Source\PSoC4/CapSense.c ****         CyIntSetPriority(CapSense_ISR_NUMBER, CapSense_ISR_PRIORITY);
 307:Generated_Source\PSoC4/CapSense.c ****     #endif /* (CY_EXTERNAL_INTERRUPT_CONFIG) */
 308:Generated_Source\PSoC4/CapSense.c **** }
 309:Generated_Source\PSoC4/CapSense.c **** 
 310:Generated_Source\PSoC4/CapSense.c **** 
 311:Generated_Source\PSoC4/CapSense.c **** /*******************************************************************************
 312:Generated_Source\PSoC4/CapSense.c **** * Function Name: CapSense_Enable
 313:Generated_Source\PSoC4/CapSense.c **** ********************************************************************************
 314:Generated_Source\PSoC4/CapSense.c **** *
 315:Generated_Source\PSoC4/CapSense.c **** * Summary:
 316:Generated_Source\PSoC4/CapSense.c **** *  Enables the CSD block and related resources to an active mode.
 317:Generated_Source\PSoC4/CapSense.c **** *
 318:Generated_Source\PSoC4/CapSense.c **** * Parameters:
 319:Generated_Source\PSoC4/CapSense.c **** *  None
 320:Generated_Source\PSoC4/CapSense.c **** *
ARM GAS  C:\Users\young\AppData\Local\Temp\ccoFnsFE.s 			page 8


 321:Generated_Source\PSoC4/CapSense.c **** * Return:
 322:Generated_Source\PSoC4/CapSense.c **** *  None
 323:Generated_Source\PSoC4/CapSense.c **** *
 324:Generated_Source\PSoC4/CapSense.c **** * Global Variables:
 325:Generated_Source\PSoC4/CapSense.c **** *  None.
 326:Generated_Source\PSoC4/CapSense.c **** *
 327:Generated_Source\PSoC4/CapSense.c **** * Side Effects:
 328:Generated_Source\PSoC4/CapSense.c **** *  None
 329:Generated_Source\PSoC4/CapSense.c **** *
 330:Generated_Source\PSoC4/CapSense.c **** *******************************************************************************/
 331:Generated_Source\PSoC4/CapSense.c **** void CapSense_Enable(void)
 332:Generated_Source\PSoC4/CapSense.c **** {
 333:Generated_Source\PSoC4/CapSense.c ****     uint32 newRegValue;
 334:Generated_Source\PSoC4/CapSense.c **** 
 335:Generated_Source\PSoC4/CapSense.c ****     /* Enable Clocks */
 336:Generated_Source\PSoC4/CapSense.c ****     CapSense_SenseClk_Stop();
 337:Generated_Source\PSoC4/CapSense.c ****     CapSense_SampleClk_Stop();
 338:Generated_Source\PSoC4/CapSense.c **** 
 339:Generated_Source\PSoC4/CapSense.c ****     CapSense_SampleClk_SetDividerValue((uint16)CapSense_INITIAL_CLK_DIVIDER);
 340:Generated_Source\PSoC4/CapSense.c ****     CapSense_SenseClk_SetDividerValue((uint16)CapSense_INITIAL_CLK_DIVIDER);
 341:Generated_Source\PSoC4/CapSense.c **** 
 342:Generated_Source\PSoC4/CapSense.c ****     #if (0u == CapSense_IS_M0S8PERI_BLOCK)
 343:Generated_Source\PSoC4/CapSense.c ****         CapSense_SenseClk_Start();
 344:Generated_Source\PSoC4/CapSense.c ****         CapSense_SampleClk_Start();
 345:Generated_Source\PSoC4/CapSense.c ****     #else
 346:Generated_Source\PSoC4/CapSense.c ****         CapSense_SampleClk_Start();
 347:Generated_Source\PSoC4/CapSense.c ****         CapSense_SenseClk_StartEx(CapSense_SampleClk__DIV_ID);
 348:Generated_Source\PSoC4/CapSense.c ****     #endif /* (0u == CapSense_IS_M0S8PERI_BLOCK) */
 349:Generated_Source\PSoC4/CapSense.c **** 
 350:Generated_Source\PSoC4/CapSense.c ****     /* Enable the CSD block */
 351:Generated_Source\PSoC4/CapSense.c ****     newRegValue = CapSense_CSD_CFG_REG;
 352:Generated_Source\PSoC4/CapSense.c ****     newRegValue |= (CapSense_CSD_CFG_ENABLE | CapSense_CSD_CFG_SENSE_COMP_EN
 353:Generated_Source\PSoC4/CapSense.c ****                                                    | CapSense_CSD_CFG_SENSE_EN);
 354:Generated_Source\PSoC4/CapSense.c ****     CapSense_CSD_CFG_REG = newRegValue;
 355:Generated_Source\PSoC4/CapSense.c **** 
 356:Generated_Source\PSoC4/CapSense.c ****     /* Enable interrupt */
 357:Generated_Source\PSoC4/CapSense.c ****     CyIntEnable(CapSense_ISR_NUMBER);
 358:Generated_Source\PSoC4/CapSense.c **** }
 359:Generated_Source\PSoC4/CapSense.c **** 
 360:Generated_Source\PSoC4/CapSense.c **** 
 361:Generated_Source\PSoC4/CapSense.c **** /*******************************************************************************
 362:Generated_Source\PSoC4/CapSense.c **** * Function Name: CapSense_Start
 363:Generated_Source\PSoC4/CapSense.c **** ********************************************************************************
 364:Generated_Source\PSoC4/CapSense.c **** *
 365:Generated_Source\PSoC4/CapSense.c **** * Summary:
 366:Generated_Source\PSoC4/CapSense.c **** *  This is the preferred method to begin the component operation. CapSense_Start()
 367:Generated_Source\PSoC4/CapSense.c **** *  calls the CapSense_Init() function, and then calls the CapSense_Enable()
 368:Generated_Source\PSoC4/CapSense.c **** *  function. Initializes the registers and starts the CSD method of the CapSense
 369:Generated_Source\PSoC4/CapSense.c **** *  component. Resets all the sensors to an inactive state. Enables interrupts for
 370:Generated_Source\PSoC4/CapSense.c **** *  sensors scanning. When the SmartSense tuning mode is selected, the tuning procedure
 371:Generated_Source\PSoC4/CapSense.c **** *  is applied for all the sensors. The CapSense_Start() routine must be called before
 372:Generated_Source\PSoC4/CapSense.c **** *  any other API routines.
 373:Generated_Source\PSoC4/CapSense.c **** *
 374:Generated_Source\PSoC4/CapSense.c **** * Parameters:
 375:Generated_Source\PSoC4/CapSense.c **** *  None
 376:Generated_Source\PSoC4/CapSense.c **** *
 377:Generated_Source\PSoC4/CapSense.c **** * Return:
ARM GAS  C:\Users\young\AppData\Local\Temp\ccoFnsFE.s 			page 9


 378:Generated_Source\PSoC4/CapSense.c **** *  None
 379:Generated_Source\PSoC4/CapSense.c **** *
 380:Generated_Source\PSoC4/CapSense.c **** * Global Variables:
 381:Generated_Source\PSoC4/CapSense.c **** *   CapSense_initVar - used to check the initial configuration,
 382:Generated_Source\PSoC4/CapSense.c **** *   modified on the first function call.
 383:Generated_Source\PSoC4/CapSense.c **** *  CapSense_lowLevelTuningDone - Used to notify the Tuner GUI that
 384:Generated_Source\PSoC4/CapSense.c **** *   tuning of the scanning parameters is done.
 385:Generated_Source\PSoC4/CapSense.c **** *
 386:Generated_Source\PSoC4/CapSense.c **** * Side Effects:
 387:Generated_Source\PSoC4/CapSense.c **** *  None
 388:Generated_Source\PSoC4/CapSense.c **** *
 389:Generated_Source\PSoC4/CapSense.c **** *******************************************************************************/
 390:Generated_Source\PSoC4/CapSense.c **** void CapSense_Start(void)
 391:Generated_Source\PSoC4/CapSense.c **** {
 392:Generated_Source\PSoC4/CapSense.c **** 
 393:Generated_Source\PSoC4/CapSense.c ****     static uint8 CapSense_initVar = 0u;
 394:Generated_Source\PSoC4/CapSense.c **** 
 395:Generated_Source\PSoC4/CapSense.c ****     #if((0u != CapSense_AUTOCALIBRATION_ENABLE) && (CapSense_TUNING_METHOD != CapSense__TUNING_AUTO
 396:Generated_Source\PSoC4/CapSense.c ****         uint32 curSensor;
 397:Generated_Source\PSoC4/CapSense.c ****         uint32 rawLevel;
 398:Generated_Source\PSoC4/CapSense.c ****         uint32 widget;
 399:Generated_Source\PSoC4/CapSense.c ****     #endif /* ((0u != CapSense_AUTOCALIBRATION_ENABLE) && (CapSense_TUNING_METHOD != CapSense__TUNI
 400:Generated_Source\PSoC4/CapSense.c **** 
 401:Generated_Source\PSoC4/CapSense.c ****     if (CapSense_initVar == 0u)
 402:Generated_Source\PSoC4/CapSense.c ****     {
 403:Generated_Source\PSoC4/CapSense.c ****         CapSense_Init();
 404:Generated_Source\PSoC4/CapSense.c ****         CapSense_initVar = 1u;
 405:Generated_Source\PSoC4/CapSense.c ****     }
 406:Generated_Source\PSoC4/CapSense.c ****     CapSense_Enable();
 407:Generated_Source\PSoC4/CapSense.c **** 
 408:Generated_Source\PSoC4/CapSense.c ****     /* AutoTunning start */
 409:Generated_Source\PSoC4/CapSense.c ****     #if(CapSense_TUNING_METHOD == CapSense__TUNING_AUTO)
 410:Generated_Source\PSoC4/CapSense.c ****         #if(0u != CapSense_CSHL_API_GENERATE)
 411:Generated_Source\PSoC4/CapSense.c ****             CapSense_AutoTune();
 412:Generated_Source\PSoC4/CapSense.c ****             CapSense_lowLevelTuningDone = 1u;
 413:Generated_Source\PSoC4/CapSense.c ****         #endif /* (0u != CapSense_CSHL_API_GENERATE) */
 414:Generated_Source\PSoC4/CapSense.c ****     #else
 415:Generated_Source\PSoC4/CapSense.c ****         #if(0u != CapSense_AUTOCALIBRATION_ENABLE)
 416:Generated_Source\PSoC4/CapSense.c **** 
 417:Generated_Source\PSoC4/CapSense.c ****             #if(CapSense_IDAC_CNT > 1u)
 418:Generated_Source\PSoC4/CapSense.c ****                 CapSense_CSD_IDAC_REG &= ~(CapSense_CSD_IDAC2_MODE_MASK);
 419:Generated_Source\PSoC4/CapSense.c ****             #endif /* (CapSense_IDAC_CNT > 1u) */
 420:Generated_Source\PSoC4/CapSense.c **** 
 421:Generated_Source\PSoC4/CapSense.c ****             for(curSensor = 0u; curSensor < CapSense_TOTAL_SCANSLOT_COUNT; curSensor++)
 422:Generated_Source\PSoC4/CapSense.c ****             {
 423:Generated_Source\PSoC4/CapSense.c ****                 widget = CapSense_widgetNumber[curSensor];
 424:Generated_Source\PSoC4/CapSense.c ****                 rawLevel = CapSense_widgetResolution[widget] >> CapSense_RESOLUTION_OFFSET;
 425:Generated_Source\PSoC4/CapSense.c **** 
 426:Generated_Source\PSoC4/CapSense.c ****                 /* Calibration level should be equal to 85% from scanning resolution */
 427:Generated_Source\PSoC4/CapSense.c ****                 rawLevel = (rawLevel * 85u) / 100u;
 428:Generated_Source\PSoC4/CapSense.c **** 
 429:Generated_Source\PSoC4/CapSense.c ****                 CapSense_CalibrateSensor(curSensor, rawLevel, CapSense_modulationIDAC);
 430:Generated_Source\PSoC4/CapSense.c ****             }
 431:Generated_Source\PSoC4/CapSense.c **** 
 432:Generated_Source\PSoC4/CapSense.c ****             #if(0u != CapSense_TOTAL_CENTROIDS_COUNT)
 433:Generated_Source\PSoC4/CapSense.c ****                 CapSense_NormalizeWidgets(CapSense_END_OF_WIDGETS_INDEX, CapSense_modulationIDAC);
 434:Generated_Source\PSoC4/CapSense.c ****             #endif /* (0u != CapSense_TOTAL_CENTROIDS_COUNT)  */
ARM GAS  C:\Users\young\AppData\Local\Temp\ccoFnsFE.s 			page 10


 435:Generated_Source\PSoC4/CapSense.c **** 
 436:Generated_Source\PSoC4/CapSense.c ****             #if(CapSense_IDAC_CNT > 1u)
 437:Generated_Source\PSoC4/CapSense.c ****                 for(curSensor = 0u; curSensor < CapSense_TOTAL_SCANSLOT_COUNT; curSensor++)
 438:Generated_Source\PSoC4/CapSense.c ****                 {
 439:Generated_Source\PSoC4/CapSense.c ****                     CapSense_compensationIDAC[curSensor] = CapSense_modulationIDAC[curSensor] / 2u;
 440:Generated_Source\PSoC4/CapSense.c ****                     CapSense_modulationIDAC[curSensor] = (CapSense_modulationIDAC[curSensor] + 1u) 
 441:Generated_Source\PSoC4/CapSense.c ****                 }
 442:Generated_Source\PSoC4/CapSense.c ****                 CapSense_CSD_IDAC_REG |= CapSense_CSD_IDAC2_MODE_FIXED;
 443:Generated_Source\PSoC4/CapSense.c ****             #endif /* (CapSense_IDAC_CNT > 1u) */
 444:Generated_Source\PSoC4/CapSense.c **** 
 445:Generated_Source\PSoC4/CapSense.c ****         #endif /* (0u != CapSense_AUTOCALIBRATION_ENABLE) */
 446:Generated_Source\PSoC4/CapSense.c **** 
 447:Generated_Source\PSoC4/CapSense.c ****     #endif /* ((CapSense_TUNING_METHOD == CapSense__TUNING_AUTO) */
 448:Generated_Source\PSoC4/CapSense.c **** 
 449:Generated_Source\PSoC4/CapSense.c ****     /* Initialize Advanced Centroid */
 450:Generated_Source\PSoC4/CapSense.c ****     #if(CapSense_TOTAL_TRACKPAD_GESTURES_COUNT > 0u)
 451:Generated_Source\PSoC4/CapSense.c ****         CapSense_AdvancedCentroidInit();
 452:Generated_Source\PSoC4/CapSense.c ****     #endif /* (CapSense_TOTAL_TRACKPAD_GESTURES_COUNT > 0u) */
 453:Generated_Source\PSoC4/CapSense.c **** 
 454:Generated_Source\PSoC4/CapSense.c ****     /* Connect sense comparator input to AMUXA */
 455:Generated_Source\PSoC4/CapSense.c ****     CapSense_CSD_CFG_REG |= CapSense_CSD_CFG_SENSE_INSEL;
 456:Generated_Source\PSoC4/CapSense.c **** }
 457:Generated_Source\PSoC4/CapSense.c **** 
 458:Generated_Source\PSoC4/CapSense.c **** 
 459:Generated_Source\PSoC4/CapSense.c **** /*******************************************************************************
 460:Generated_Source\PSoC4/CapSense.c **** * Function Name: CapSense_Stop
 461:Generated_Source\PSoC4/CapSense.c **** ********************************************************************************
 462:Generated_Source\PSoC4/CapSense.c **** *
 463:Generated_Source\PSoC4/CapSense.c **** * Summary:
 464:Generated_Source\PSoC4/CapSense.c **** *  Stops the sensor scanning, disables component interrupts, and resets all the
 465:Generated_Source\PSoC4/CapSense.c **** *  sensors to an inactive state. Disables the Active mode power template bits for
 466:Generated_Source\PSoC4/CapSense.c **** *  the subcomponents used within CapSense.
 467:Generated_Source\PSoC4/CapSense.c **** *
 468:Generated_Source\PSoC4/CapSense.c **** * Parameters:
 469:Generated_Source\PSoC4/CapSense.c **** *  None
 470:Generated_Source\PSoC4/CapSense.c **** *
 471:Generated_Source\PSoC4/CapSense.c **** * Return:
 472:Generated_Source\PSoC4/CapSense.c **** *  None
 473:Generated_Source\PSoC4/CapSense.c **** *
 474:Generated_Source\PSoC4/CapSense.c **** * Global Variables:
 475:Generated_Source\PSoC4/CapSense.c **** *  CapSense_csdTrim1 - Contains the IDAC trim register value for the Sourcing Mode.
 476:Generated_Source\PSoC4/CapSense.c **** *  CapSense_csdTrim2 - Contains the IDAC trim register value for vSinking Mode.
 477:Generated_Source\PSoC4/CapSense.c **** *
 478:Generated_Source\PSoC4/CapSense.c **** * Side Effects:
 479:Generated_Source\PSoC4/CapSense.c **** *  This function should be called after scans are completed.
 480:Generated_Source\PSoC4/CapSense.c **** *
 481:Generated_Source\PSoC4/CapSense.c **** *******************************************************************************/
 482:Generated_Source\PSoC4/CapSense.c **** void CapSense_Stop(void)
 483:Generated_Source\PSoC4/CapSense.c **** {
 484:Generated_Source\PSoC4/CapSense.c ****     /* Disable interrupt */
 485:Generated_Source\PSoC4/CapSense.c ****     CyIntDisable(CapSense_ISR_NUMBER);
 486:Generated_Source\PSoC4/CapSense.c **** 
 487:Generated_Source\PSoC4/CapSense.c ****     CapSense_CSD_CFG_REG &= ~(CapSense_CSD_CFG_SENSE_COMP_EN | CapSense_CSD_CFG_SENSE_EN);
 488:Generated_Source\PSoC4/CapSense.c **** 
 489:Generated_Source\PSoC4/CapSense.c ****     #if(CapSense_IDAC_CNT == 2u)
 490:Generated_Source\PSoC4/CapSense.c ****         CapSense_CSD_CFG_REG &= ~(CapSense_CSD_CFG_ENABLE);
 491:Generated_Source\PSoC4/CapSense.c ****     #endif /* (CapSense_IDAC_CNT == 2u) */
ARM GAS  C:\Users\young\AppData\Local\Temp\ccoFnsFE.s 			page 11


 492:Generated_Source\PSoC4/CapSense.c **** 
 493:Generated_Source\PSoC4/CapSense.c ****     /* Disable the Clocks */
 494:Generated_Source\PSoC4/CapSense.c ****     CapSense_SenseClk_Stop();
 495:Generated_Source\PSoC4/CapSense.c ****     CapSense_SampleClk_Stop();
 496:Generated_Source\PSoC4/CapSense.c **** }
 497:Generated_Source\PSoC4/CapSense.c **** 
 498:Generated_Source\PSoC4/CapSense.c **** 
 499:Generated_Source\PSoC4/CapSense.c **** /*******************************************************************************
 500:Generated_Source\PSoC4/CapSense.c **** * Function Name: CapSense_FindNextSensor
 501:Generated_Source\PSoC4/CapSense.c **** ********************************************************************************
 502:Generated_Source\PSoC4/CapSense.c **** *
 503:Generated_Source\PSoC4/CapSense.c **** * Summary:
 504:Generated_Source\PSoC4/CapSense.c **** *  Finds the next sensor to scan.
 505:Generated_Source\PSoC4/CapSense.c **** *
 506:Generated_Source\PSoC4/CapSense.c **** * Parameters:
 507:Generated_Source\PSoC4/CapSense.c **** *  snsIndex:  Current index of sensor.
 508:Generated_Source\PSoC4/CapSense.c **** *
 509:Generated_Source\PSoC4/CapSense.c **** * Return:
 510:Generated_Source\PSoC4/CapSense.c **** *  Returns the next sensor index to scan.
 511:Generated_Source\PSoC4/CapSense.c **** *
 512:Generated_Source\PSoC4/CapSense.c **** * Global Variables:
 513:Generated_Source\PSoC4/CapSense.c **** *  CapSense_sensorEnableMask[] - used to store bit masks of the enabled sensors.
 514:Generated_Source\PSoC4/CapSense.c **** *
 515:Generated_Source\PSoC4/CapSense.c **** * Side Effects:
 516:Generated_Source\PSoC4/CapSense.c **** *  This function affects the  current scanning and should not
 517:Generated_Source\PSoC4/CapSense.c **** *  be used outside the component.
 518:Generated_Source\PSoC4/CapSense.c **** *
 519:Generated_Source\PSoC4/CapSense.c **** *******************************************************************************/
 520:Generated_Source\PSoC4/CapSense.c **** uint8 CapSense_FindNextSensor(uint8 snsIndex)
 521:Generated_Source\PSoC4/CapSense.c **** {
 522:Generated_Source\PSoC4/CapSense.c ****     uint32 enableFlag;
 523:Generated_Source\PSoC4/CapSense.c **** 
 524:Generated_Source\PSoC4/CapSense.c ****     /* Check if sensor enabled */
 525:Generated_Source\PSoC4/CapSense.c ****     do
 526:Generated_Source\PSoC4/CapSense.c ****     {
 527:Generated_Source\PSoC4/CapSense.c ****         /* Proceed with next sensor */
 528:Generated_Source\PSoC4/CapSense.c ****         snsIndex++;
 529:Generated_Source\PSoC4/CapSense.c ****         if(snsIndex == CapSense_TOTAL_SENSOR_COUNT)
 530:Generated_Source\PSoC4/CapSense.c ****         {
 531:Generated_Source\PSoC4/CapSense.c ****             break;
 532:Generated_Source\PSoC4/CapSense.c ****         }
 533:Generated_Source\PSoC4/CapSense.c ****         enableFlag = CapSense_GetBitValue(CapSense_sensorEnableMask, (uint32)snsIndex);
 534:Generated_Source\PSoC4/CapSense.c ****     }
 535:Generated_Source\PSoC4/CapSense.c ****     while(enableFlag == 0u);
 536:Generated_Source\PSoC4/CapSense.c **** 
 537:Generated_Source\PSoC4/CapSense.c ****     return ((uint8)snsIndex);
 538:Generated_Source\PSoC4/CapSense.c **** }
 539:Generated_Source\PSoC4/CapSense.c **** 
 540:Generated_Source\PSoC4/CapSense.c **** 
 541:Generated_Source\PSoC4/CapSense.c **** /*******************************************************************************
 542:Generated_Source\PSoC4/CapSense.c **** * Function Name: CapSense_ScanSensor
 543:Generated_Source\PSoC4/CapSense.c **** ********************************************************************************
 544:Generated_Source\PSoC4/CapSense.c **** *
 545:Generated_Source\PSoC4/CapSense.c **** * Summary:
 546:Generated_Source\PSoC4/CapSense.c **** *  Sets the scan settings and starts scanning a sensor. After scanning is complete,
 547:Generated_Source\PSoC4/CapSense.c **** *  the ISR copies the measured sensor raw data to the global raw sensor array.
 548:Generated_Source\PSoC4/CapSense.c **** *  Use of the ISR ensures this function is non-blocking.
ARM GAS  C:\Users\young\AppData\Local\Temp\ccoFnsFE.s 			page 12


 549:Generated_Source\PSoC4/CapSense.c **** *  Each sensor has a unique number within the sensor array.
 550:Generated_Source\PSoC4/CapSense.c **** *  This number is assigned by the CapSense customizer in sequence.
 551:Generated_Source\PSoC4/CapSense.c **** *
 552:Generated_Source\PSoC4/CapSense.c **** * Parameters:
 553:Generated_Source\PSoC4/CapSense.c **** *  sensor:  Sensor number.
 554:Generated_Source\PSoC4/CapSense.c **** *
 555:Generated_Source\PSoC4/CapSense.c **** * Return:
 556:Generated_Source\PSoC4/CapSense.c **** *  None
 557:Generated_Source\PSoC4/CapSense.c **** *
 558:Generated_Source\PSoC4/CapSense.c **** * Global Variables:
 559:Generated_Source\PSoC4/CapSense.c **** *  CapSense_csdStatusVar - used to provide the status and mode of the scanning process.
 560:Generated_Source\PSoC4/CapSense.c **** *  Sets the busy status(scan in progress) and mode of scan as single scan.
 561:Generated_Source\PSoC4/CapSense.c **** *  CapSense_sensorIndex - used to store a sensor scanning sensor number.
 562:Generated_Source\PSoC4/CapSense.c **** *  Sets to the provided sensor argument.
 563:Generated_Source\PSoC4/CapSense.c **** *
 564:Generated_Source\PSoC4/CapSense.c **** * Side Effects:
 565:Generated_Source\PSoC4/CapSense.c **** *  None
 566:Generated_Source\PSoC4/CapSense.c **** *
 567:Generated_Source\PSoC4/CapSense.c **** *******************************************************************************/
 568:Generated_Source\PSoC4/CapSense.c **** void CapSense_ScanSensor(uint32 sensor)
 569:Generated_Source\PSoC4/CapSense.c **** {
 570:Generated_Source\PSoC4/CapSense.c ****     /* Clears status/control variable and set sensorIndex */
 571:Generated_Source\PSoC4/CapSense.c ****     CapSense_csdStatusVar = 0u;
 572:Generated_Source\PSoC4/CapSense.c ****     CapSense_sensorIndex = (uint8)sensor;
 573:Generated_Source\PSoC4/CapSense.c **** 
 574:Generated_Source\PSoC4/CapSense.c ****     /* Start of sensor scan */
 575:Generated_Source\PSoC4/CapSense.c ****     CapSense_csdStatusVar = (CapSense_SW_STS_BUSY | CapSense_SW_CTRL_SINGLE_SCAN);
 576:Generated_Source\PSoC4/CapSense.c ****     CapSense_PreScan(sensor);
 577:Generated_Source\PSoC4/CapSense.c **** }
 578:Generated_Source\PSoC4/CapSense.c **** 
 579:Generated_Source\PSoC4/CapSense.c **** 
 580:Generated_Source\PSoC4/CapSense.c **** #if(0u != CapSense_CSHL_API_GENERATE)
 581:Generated_Source\PSoC4/CapSense.c **** /*******************************************************************************
 582:Generated_Source\PSoC4/CapSense.c **** * Function Name: CapSense_ScanWidget
 583:Generated_Source\PSoC4/CapSense.c **** ********************************************************************************
 584:Generated_Source\PSoC4/CapSense.c **** *
 585:Generated_Source\PSoC4/CapSense.c **** * Summary:
 586:Generated_Source\PSoC4/CapSense.c **** *  Sets the scan settings and starts scanning a widget.
 587:Generated_Source\PSoC4/CapSense.c **** *
 588:Generated_Source\PSoC4/CapSense.c **** * Parameters:
 589:Generated_Source\PSoC4/CapSense.c **** *  uint32 widget: Widget number.
 590:Generated_Source\PSoC4/CapSense.c **** *
 591:Generated_Source\PSoC4/CapSense.c **** * Return:
 592:Generated_Source\PSoC4/CapSense.c **** *  None
 593:Generated_Source\PSoC4/CapSense.c **** *
 594:Generated_Source\PSoC4/CapSense.c **** * Global Variables:
 595:Generated_Source\PSoC4/CapSense.c **** *  CapSense_csdStatusVar - used to provide the status and mode of the scanning process.
 596:Generated_Source\PSoC4/CapSense.c **** *  Sets the busy status(scan in progress) and clears the single scan mode.
 597:Generated_Source\PSoC4/CapSense.c **** *  CapSense_sensorIndex - used to store a sensor scanning sensor number.
 598:Generated_Source\PSoC4/CapSense.c **** *  Sets to 0xFF and provided to function CapSense_FindNextSensor or
 599:Generated_Source\PSoC4/CapSense.c **** *  CapSense_sensorEnableMask[] - used to store bit masks of the enabled sensors.
 600:Generated_Source\PSoC4/CapSense.c **** *  CapSense_sensorEnableMaskBackup[] - used to backup bit masks of the enabled
 601:Generated_Source\PSoC4/CapSense.c **** *   sensors.
 602:Generated_Source\PSoC4/CapSense.c **** *
 603:Generated_Source\PSoC4/CapSense.c **** * Side Effects:
 604:Generated_Source\PSoC4/CapSense.c **** *  None
 605:Generated_Source\PSoC4/CapSense.c **** *
ARM GAS  C:\Users\young\AppData\Local\Temp\ccoFnsFE.s 			page 13


 606:Generated_Source\PSoC4/CapSense.c **** *******************************************************************************/
 607:Generated_Source\PSoC4/CapSense.c **** void CapSense_ScanWidget(uint32 widget)
 608:Generated_Source\PSoC4/CapSense.c **** {
 609:Generated_Source\PSoC4/CapSense.c ****     uint32 sensorsPerWidget;
 610:Generated_Source\PSoC4/CapSense.c ****     uint32 lastSensor;
 611:Generated_Source\PSoC4/CapSense.c ****     uint32 snsIndex;
 612:Generated_Source\PSoC4/CapSense.c **** 
 613:Generated_Source\PSoC4/CapSense.c ****     /* Get first sensor in widget */
 614:Generated_Source\PSoC4/CapSense.c ****     CapSense_sensorIndex = CapSense_rawDataIndex[widget];
 615:Generated_Source\PSoC4/CapSense.c **** 
 616:Generated_Source\PSoC4/CapSense.c ****     /* Get number of sensors in widget */
 617:Generated_Source\PSoC4/CapSense.c ****     sensorsPerWidget = CapSense_numberOfSensors[widget];
 618:Generated_Source\PSoC4/CapSense.c **** 
 619:Generated_Source\PSoC4/CapSense.c ****     /* Check if generic Sensor */
 620:Generated_Source\PSoC4/CapSense.c ****     if(sensorsPerWidget == 0u)
 621:Generated_Source\PSoC4/CapSense.c ****     {
 622:Generated_Source\PSoC4/CapSense.c ****         sensorsPerWidget = 1u;
 623:Generated_Source\PSoC4/CapSense.c ****     }
 624:Generated_Source\PSoC4/CapSense.c **** 
 625:Generated_Source\PSoC4/CapSense.c ****     /* Get last sensor in widget */
 626:Generated_Source\PSoC4/CapSense.c ****     lastSensor = (CapSense_rawDataIndex[widget] + sensorsPerWidget) - 1u;
 627:Generated_Source\PSoC4/CapSense.c **** 
 628:Generated_Source\PSoC4/CapSense.c ****     /* Backup sensorEnableMask array */
 629:Generated_Source\PSoC4/CapSense.c ****     for(snsIndex = 0u; snsIndex < CapSense_TOTAL_SENSOR_MASK; snsIndex++)
 630:Generated_Source\PSoC4/CapSense.c ****     {
 631:Generated_Source\PSoC4/CapSense.c ****         /* Backup sensorEnableMask array */
 632:Generated_Source\PSoC4/CapSense.c ****         CapSense_sensorEnableMaskBackup[snsIndex] = CapSense_sensorEnableMask[snsIndex];
 633:Generated_Source\PSoC4/CapSense.c ****     }
 634:Generated_Source\PSoC4/CapSense.c **** 
 635:Generated_Source\PSoC4/CapSense.c ****     /* Update sensorEnableMask to scan the sensors that belong to widget */
 636:Generated_Source\PSoC4/CapSense.c ****     for(snsIndex = 0u; snsIndex < CapSense_TOTAL_SENSOR_COUNT; snsIndex++)
 637:Generated_Source\PSoC4/CapSense.c ****     {
 638:Generated_Source\PSoC4/CapSense.c ****         /* Update sensorEnableMask array bits to scan the widget only */
 639:Generated_Source\PSoC4/CapSense.c ****         if((snsIndex >= CapSense_sensorIndex) && (snsIndex <= lastSensor))
 640:Generated_Source\PSoC4/CapSense.c ****         {
 641:Generated_Source\PSoC4/CapSense.c ****             /* Set sensor bit to scan */
 642:Generated_Source\PSoC4/CapSense.c ****             CapSense_SetBitValue(CapSense_sensorEnableMask, snsIndex, 1u);
 643:Generated_Source\PSoC4/CapSense.c ****         }
 644:Generated_Source\PSoC4/CapSense.c ****         else
 645:Generated_Source\PSoC4/CapSense.c ****         {
 646:Generated_Source\PSoC4/CapSense.c ****             /* Reset sensor bit to do not scan */
 647:Generated_Source\PSoC4/CapSense.c ****             CapSense_SetBitValue(CapSense_sensorEnableMask, snsIndex, 0u);
 648:Generated_Source\PSoC4/CapSense.c ****         }
 649:Generated_Source\PSoC4/CapSense.c ****     }
 650:Generated_Source\PSoC4/CapSense.c **** 
 651:Generated_Source\PSoC4/CapSense.c ****     /* Check end of scan condition */
 652:Generated_Source\PSoC4/CapSense.c ****     if(CapSense_sensorIndex < CapSense_TOTAL_SENSOR_COUNT)
 653:Generated_Source\PSoC4/CapSense.c ****     {
 654:Generated_Source\PSoC4/CapSense.c ****         /* Set widget busy bit in status/control variable*/
 655:Generated_Source\PSoC4/CapSense.c ****         CapSense_csdStatusVar = (CapSense_SW_STS_BUSY | CapSense_SW_CTRL_WIDGET_SCAN);
 656:Generated_Source\PSoC4/CapSense.c ****         /* Scan first sensor of widget*/
 657:Generated_Source\PSoC4/CapSense.c ****         CapSense_PreScan((uint32)CapSense_sensorIndex);
 658:Generated_Source\PSoC4/CapSense.c ****     }
 659:Generated_Source\PSoC4/CapSense.c **** }
 660:Generated_Source\PSoC4/CapSense.c **** #endif /* (0u != CapSense_CSHL_API_GENERATE) */
 661:Generated_Source\PSoC4/CapSense.c **** 
 662:Generated_Source\PSoC4/CapSense.c **** 
ARM GAS  C:\Users\young\AppData\Local\Temp\ccoFnsFE.s 			page 14


 663:Generated_Source\PSoC4/CapSense.c **** /*******************************************************************************
 664:Generated_Source\PSoC4/CapSense.c **** * Function Name: CapSense_ScanEnableWidgets
 665:Generated_Source\PSoC4/CapSense.c **** ********************************************************************************
 666:Generated_Source\PSoC4/CapSense.c **** *
 667:Generated_Source\PSoC4/CapSense.c **** * Summary:
 668:Generated_Source\PSoC4/CapSense.c **** *  This is the preferred method to scan all of the enabled widgets.
 669:Generated_Source\PSoC4/CapSense.c **** *  The API starts scanning a sensor within the enabled widgets.
 670:Generated_Source\PSoC4/CapSense.c **** *  The ISR continues scanning the sensors until all the enabled widgets are scanned.
 671:Generated_Source\PSoC4/CapSense.c **** *  Use of the ISR ensures this function is non-blocking.
 672:Generated_Source\PSoC4/CapSense.c **** *  All the widgets are enabled by default except proximity widgets.
 673:Generated_Source\PSoC4/CapSense.c **** *  The proximity widgets must be manually enabled as their long scan time
 674:Generated_Source\PSoC4/CapSense.c **** *  is incompatible with a fast response required of other widget types.
 675:Generated_Source\PSoC4/CapSense.c **** *
 676:Generated_Source\PSoC4/CapSense.c **** * Parameters:
 677:Generated_Source\PSoC4/CapSense.c **** *  None
 678:Generated_Source\PSoC4/CapSense.c **** *
 679:Generated_Source\PSoC4/CapSense.c **** * Return:
 680:Generated_Source\PSoC4/CapSense.c **** *  None
 681:Generated_Source\PSoC4/CapSense.c **** *
 682:Generated_Source\PSoC4/CapSense.c **** * Global Variables:
 683:Generated_Source\PSoC4/CapSense.c **** *  CapSense_csdStatusVar - used to provide the status and mode of the scanning process.
 684:Generated_Source\PSoC4/CapSense.c **** *  Sets the busy status(scan in progress) and clears the single scan mode.
 685:Generated_Source\PSoC4/CapSense.c **** *  CapSense_sensorIndex - used to store a sensor scanning sensor number.
 686:Generated_Source\PSoC4/CapSense.c **** *  Sets to 0xFF and provided to function CapSense_FindNextSensor or
 687:Generated_Source\PSoC4/CapSense.c **** *
 688:Generated_Source\PSoC4/CapSense.c **** * Side Effects:
 689:Generated_Source\PSoC4/CapSense.c **** *  None
 690:Generated_Source\PSoC4/CapSense.c **** *
 691:Generated_Source\PSoC4/CapSense.c **** *******************************************************************************/
 692:Generated_Source\PSoC4/CapSense.c **** void CapSense_ScanEnabledWidgets(void)
 693:Generated_Source\PSoC4/CapSense.c **** {
 694:Generated_Source\PSoC4/CapSense.c ****     /* Clears status/control variable and set sensorIndex */
 695:Generated_Source\PSoC4/CapSense.c ****     CapSense_csdStatusVar = 0u;
 696:Generated_Source\PSoC4/CapSense.c ****     CapSense_sensorIndex = 0xFFu;
 697:Generated_Source\PSoC4/CapSense.c **** 
 698:Generated_Source\PSoC4/CapSense.c ****     /* Find next sensor */
 699:Generated_Source\PSoC4/CapSense.c ****     CapSense_sensorIndex = (uint8)CapSense_FindNextSensor(CapSense_sensorIndex);
 700:Generated_Source\PSoC4/CapSense.c **** 
 701:Generated_Source\PSoC4/CapSense.c ****     /* Check end of scan condition */
 702:Generated_Source\PSoC4/CapSense.c ****     if(CapSense_sensorIndex < CapSense_TOTAL_SENSOR_COUNT)
 703:Generated_Source\PSoC4/CapSense.c ****     {
 704:Generated_Source\PSoC4/CapSense.c ****         CapSense_csdStatusVar |= CapSense_SW_STS_BUSY;
 705:Generated_Source\PSoC4/CapSense.c ****         CapSense_PreScan((uint32)CapSense_sensorIndex);
 706:Generated_Source\PSoC4/CapSense.c ****     }
 707:Generated_Source\PSoC4/CapSense.c **** }
 708:Generated_Source\PSoC4/CapSense.c **** 
 709:Generated_Source\PSoC4/CapSense.c **** 
 710:Generated_Source\PSoC4/CapSense.c **** /*******************************************************************************
 711:Generated_Source\PSoC4/CapSense.c **** * Function Name: CapSense_IsBusy
 712:Generated_Source\PSoC4/CapSense.c **** ********************************************************************************
 713:Generated_Source\PSoC4/CapSense.c **** *
 714:Generated_Source\PSoC4/CapSense.c **** * Summary:
 715:Generated_Source\PSoC4/CapSense.c **** *  Returns the state of the CapSense component. 1 means that scanning in
 716:Generated_Source\PSoC4/CapSense.c **** *  progress and 0 means that scanning is complete.
 717:Generated_Source\PSoC4/CapSense.c **** *
 718:Generated_Source\PSoC4/CapSense.c **** * Parameters:
 719:Generated_Source\PSoC4/CapSense.c **** *  None
ARM GAS  C:\Users\young\AppData\Local\Temp\ccoFnsFE.s 			page 15


 720:Generated_Source\PSoC4/CapSense.c **** *
 721:Generated_Source\PSoC4/CapSense.c **** * Return:
 722:Generated_Source\PSoC4/CapSense.c **** *  Returns the state of scanning. 1 - scanning in progress, 0 - scanning
 723:Generated_Source\PSoC4/CapSense.c **** *  completed.
 724:Generated_Source\PSoC4/CapSense.c **** *
 725:Generated_Source\PSoC4/CapSense.c **** * Global Variables:
 726:Generated_Source\PSoC4/CapSense.c **** *  CapSense_csdStatusVar - used to provide the status and mode of the scanning process.
 727:Generated_Source\PSoC4/CapSense.c **** *  Checks the busy status.
 728:Generated_Source\PSoC4/CapSense.c **** *
 729:Generated_Source\PSoC4/CapSense.c **** * Side Effects:
 730:Generated_Source\PSoC4/CapSense.c **** *  None
 731:Generated_Source\PSoC4/CapSense.c **** *
 732:Generated_Source\PSoC4/CapSense.c **** *******************************************************************************/
 733:Generated_Source\PSoC4/CapSense.c **** uint32 CapSense_IsBusy(void)
 734:Generated_Source\PSoC4/CapSense.c **** {
 735:Generated_Source\PSoC4/CapSense.c ****     return ((uint32)((0u != (CapSense_csdStatusVar & CapSense_SW_STS_BUSY)) ? 1u : 0u));
 736:Generated_Source\PSoC4/CapSense.c **** }
 737:Generated_Source\PSoC4/CapSense.c **** 
 738:Generated_Source\PSoC4/CapSense.c **** 
 739:Generated_Source\PSoC4/CapSense.c **** /*******************************************************************************
 740:Generated_Source\PSoC4/CapSense.c **** * Function Name: CapSense_ReadSensorRaw
 741:Generated_Source\PSoC4/CapSense.c **** ********************************************************************************
 742:Generated_Source\PSoC4/CapSense.c **** *
 743:Generated_Source\PSoC4/CapSense.c **** * Summary:
 744:Generated_Source\PSoC4/CapSense.c **** *  Returns sensor raw data from the global CapSense_sensorRaw[ ] array.
 745:Generated_Source\PSoC4/CapSense.c **** *  Each scan sensor has a unique number within the sensor array.
 746:Generated_Source\PSoC4/CapSense.c **** *  This number is assigned by the CapSense customizer in sequence.
 747:Generated_Source\PSoC4/CapSense.c **** *  Raw data can be used to perform calculations outside of the CapSense
 748:Generated_Source\PSoC4/CapSense.c **** *  provided framework.
 749:Generated_Source\PSoC4/CapSense.c **** *
 750:Generated_Source\PSoC4/CapSense.c **** * Parameters:
 751:Generated_Source\PSoC4/CapSense.c **** *  sensor:  Sensor number.
 752:Generated_Source\PSoC4/CapSense.c **** *
 753:Generated_Source\PSoC4/CapSense.c **** * Return:
 754:Generated_Source\PSoC4/CapSense.c **** *  Returns the current raw data value for a defined sensor number.
 755:Generated_Source\PSoC4/CapSense.c **** *
 756:Generated_Source\PSoC4/CapSense.c **** * Global Variables:
 757:Generated_Source\PSoC4/CapSense.c **** *  CapSense_sensorRaw[] - used to store sensors raw data.
 758:Generated_Source\PSoC4/CapSense.c **** *
 759:Generated_Source\PSoC4/CapSense.c **** * Side Effects:
 760:Generated_Source\PSoC4/CapSense.c **** *  None
 761:Generated_Source\PSoC4/CapSense.c **** *
 762:Generated_Source\PSoC4/CapSense.c **** *******************************************************************************/
 763:Generated_Source\PSoC4/CapSense.c **** uint16 CapSense_ReadSensorRaw(uint32 sensor)
 764:Generated_Source\PSoC4/CapSense.c **** {
 765:Generated_Source\PSoC4/CapSense.c ****     return CapSense_sensorRaw[sensor];
 766:Generated_Source\PSoC4/CapSense.c **** }
 767:Generated_Source\PSoC4/CapSense.c **** 
 768:Generated_Source\PSoC4/CapSense.c **** 
 769:Generated_Source\PSoC4/CapSense.c **** /*******************************************************************************
 770:Generated_Source\PSoC4/CapSense.c **** * Function Name: CapSense_WriteSensorRaw
 771:Generated_Source\PSoC4/CapSense.c **** ********************************************************************************
 772:Generated_Source\PSoC4/CapSense.c **** *
 773:Generated_Source\PSoC4/CapSense.c **** * Summary:
 774:Generated_Source\PSoC4/CapSense.c **** *  This API writes the raw count value passed as an argument to the sensor Raw count array.
 775:Generated_Source\PSoC4/CapSense.c **** *
 776:Generated_Source\PSoC4/CapSense.c **** * Parameters:
ARM GAS  C:\Users\young\AppData\Local\Temp\ccoFnsFE.s 			page 16


 777:Generated_Source\PSoC4/CapSense.c **** *  sensor:  Sensor number.
 778:Generated_Source\PSoC4/CapSense.c **** *  value: Raw count value.
 779:Generated_Source\PSoC4/CapSense.c **** *
 780:Generated_Source\PSoC4/CapSense.c **** * Global Variables:
 781:Generated_Source\PSoC4/CapSense.c **** *  CapSense_sensorRaw[] - used to store sensors raw data.
 782:Generated_Source\PSoC4/CapSense.c **** *
 783:Generated_Source\PSoC4/CapSense.c **** * Return:
 784:Generated_Source\PSoC4/CapSense.c **** *  None
 785:Generated_Source\PSoC4/CapSense.c **** *
 786:Generated_Source\PSoC4/CapSense.c **** * Side Effects:
 787:Generated_Source\PSoC4/CapSense.c **** *  None
 788:Generated_Source\PSoC4/CapSense.c **** *
 789:Generated_Source\PSoC4/CapSense.c **** *******************************************************************************/
 790:Generated_Source\PSoC4/CapSense.c **** void CapSense_WriteSensorRaw(uint32 sensor, uint16 value)
 791:Generated_Source\PSoC4/CapSense.c **** {
 792:Generated_Source\PSoC4/CapSense.c ****     CapSense_sensorRaw[sensor] = value;
 793:Generated_Source\PSoC4/CapSense.c **** }
 794:Generated_Source\PSoC4/CapSense.c **** 
 795:Generated_Source\PSoC4/CapSense.c **** 
 796:Generated_Source\PSoC4/CapSense.c **** #if (CapSense_TUNING_METHOD != CapSense__TUNING_NONE)
 797:Generated_Source\PSoC4/CapSense.c ****     /*******************************************************************************
 798:Generated_Source\PSoC4/CapSense.c ****     * Function Name: CapSense_SetScanResolution
 799:Generated_Source\PSoC4/CapSense.c ****     ********************************************************************************
 800:Generated_Source\PSoC4/CapSense.c ****     *
 801:Generated_Source\PSoC4/CapSense.c ****     * Summary:
 802:Generated_Source\PSoC4/CapSense.c ****     *  Sets a value of the sensor scan resolution for a widget.
 803:Generated_Source\PSoC4/CapSense.c ****     *  The MIN resolution can be set 8-bit. The MAX Resolution can be set 16 bit.
 804:Generated_Source\PSoC4/CapSense.c ****     *  This function is not available for the tuning mode "None".
 805:Generated_Source\PSoC4/CapSense.c ****     *
 806:Generated_Source\PSoC4/CapSense.c ****     * Parameters:
 807:Generated_Source\PSoC4/CapSense.c ****     *  widget:     Widget index.
 808:Generated_Source\PSoC4/CapSense.c ****     *  resolution: Represents the resolution value. The following defines which are available in th
 809:Generated_Source\PSoC4/CapSense.c ****     *              CapSense.h file should be used:
 810:Generated_Source\PSoC4/CapSense.c ****     *              CapSense_RESOLUTION_6_BITS
 811:Generated_Source\PSoC4/CapSense.c ****     *              CapSense_RESOLUTION_7_BITS
 812:Generated_Source\PSoC4/CapSense.c ****     *              CapSense_RESOLUTION_8_BITS
 813:Generated_Source\PSoC4/CapSense.c ****     *              CapSense_RESOLUTION_9_BITS
 814:Generated_Source\PSoC4/CapSense.c ****     *              CapSense_RESOLUTION_10_BITS
 815:Generated_Source\PSoC4/CapSense.c ****     *              CapSense_RESOLUTION_11_BITS
 816:Generated_Source\PSoC4/CapSense.c ****     *              CapSense_RESOLUTION_12_BITS
 817:Generated_Source\PSoC4/CapSense.c ****     *              CapSense_RESOLUTION_13_BITS
 818:Generated_Source\PSoC4/CapSense.c ****     *              CapSense_RESOLUTION_14_BITS
 819:Generated_Source\PSoC4/CapSense.c ****     *              CapSense_RESOLUTION_15_BITS
 820:Generated_Source\PSoC4/CapSense.c ****     *              CapSense_RESOLUTION_16_BITS
 821:Generated_Source\PSoC4/CapSense.c ****     *
 822:Generated_Source\PSoC4/CapSense.c ****     * Return:
 823:Generated_Source\PSoC4/CapSense.c ****     *  None
 824:Generated_Source\PSoC4/CapSense.c ****     *
 825:Generated_Source\PSoC4/CapSense.c ****     * Global Variables:
 826:Generated_Source\PSoC4/CapSense.c ****     *  CapSense_widgetResolution[] - used to store scan resolution of each widget.
 827:Generated_Source\PSoC4/CapSense.c ****     *
 828:Generated_Source\PSoC4/CapSense.c ****     * Side Effects:
 829:Generated_Source\PSoC4/CapSense.c ****     *  None
 830:Generated_Source\PSoC4/CapSense.c ****     *
 831:Generated_Source\PSoC4/CapSense.c ****     *******************************************************************************/
 832:Generated_Source\PSoC4/CapSense.c ****     void CapSense_SetScanResolution(uint32 widget, uint32 resolution)
 833:Generated_Source\PSoC4/CapSense.c ****     {
ARM GAS  C:\Users\young\AppData\Local\Temp\ccoFnsFE.s 			page 17


 834:Generated_Source\PSoC4/CapSense.c ****         CapSense_widgetResolution[widget] = resolution;
 835:Generated_Source\PSoC4/CapSense.c ****     }
 836:Generated_Source\PSoC4/CapSense.c **** #endif /* (CapSense_TUNING_METHOD != CapSense__TUNING_NONE) */
 837:Generated_Source\PSoC4/CapSense.c **** 
 838:Generated_Source\PSoC4/CapSense.c **** 
 839:Generated_Source\PSoC4/CapSense.c **** /*******************************************************************************
 840:Generated_Source\PSoC4/CapSense.c **** * Function Name: CapSense_GetScanResolution
 841:Generated_Source\PSoC4/CapSense.c **** ********************************************************************************
 842:Generated_Source\PSoC4/CapSense.c **** *
 843:Generated_Source\PSoC4/CapSense.c **** * Summary:
 844:Generated_Source\PSoC4/CapSense.c **** *  Returns the resolution value for the appropriate sensor.
 845:Generated_Source\PSoC4/CapSense.c **** *  This function is not available for tuning mode "None".
 846:Generated_Source\PSoC4/CapSense.c **** *
 847:Generated_Source\PSoC4/CapSense.c **** * Parameters:
 848:Generated_Source\PSoC4/CapSense.c **** *  widget:     Widget index.
 849:Generated_Source\PSoC4/CapSense.c **** *
 850:Generated_Source\PSoC4/CapSense.c **** * Return:
 851:Generated_Source\PSoC4/CapSense.c **** *  resolution: Returns the resolution value for the appropriate sensor.
 852:Generated_Source\PSoC4/CapSense.c **** *              The resolution values are defined in the CapSense.h file
 853:Generated_Source\PSoC4/CapSense.c **** *              The defines are encountered below:
 854:Generated_Source\PSoC4/CapSense.c **** *              CapSense_RESOLUTION_6_BITS
 855:Generated_Source\PSoC4/CapSense.c **** *              CapSense_RESOLUTION_7_BITS
 856:Generated_Source\PSoC4/CapSense.c **** *              CapSense_RESOLUTION_8_BITS
 857:Generated_Source\PSoC4/CapSense.c **** *              CapSense_RESOLUTION_9_BITS
 858:Generated_Source\PSoC4/CapSense.c **** *              CapSense_RESOLUTION_10_BITS
 859:Generated_Source\PSoC4/CapSense.c **** *              CapSense_RESOLUTION_11_BITS
 860:Generated_Source\PSoC4/CapSense.c **** *              CapSense_RESOLUTION_12_BITS
 861:Generated_Source\PSoC4/CapSense.c **** *              CapSense_RESOLUTION_13_BITS
 862:Generated_Source\PSoC4/CapSense.c **** *              CapSense_RESOLUTION_14_BITS
 863:Generated_Source\PSoC4/CapSense.c **** *              CapSense_RESOLUTION_15_BITS
 864:Generated_Source\PSoC4/CapSense.c **** *              CapSense_RESOLUTION_16_BITS
 865:Generated_Source\PSoC4/CapSense.c **** *
 866:Generated_Source\PSoC4/CapSense.c **** * Global Variables:
 867:Generated_Source\PSoC4/CapSense.c **** *  CapSense_widgetResolution[] - used to store scan resolution of every widget.
 868:Generated_Source\PSoC4/CapSense.c **** *
 869:Generated_Source\PSoC4/CapSense.c **** * Side Effects:
 870:Generated_Source\PSoC4/CapSense.c **** *  None
 871:Generated_Source\PSoC4/CapSense.c **** *
 872:Generated_Source\PSoC4/CapSense.c **** *******************************************************************************/
 873:Generated_Source\PSoC4/CapSense.c **** uint32 CapSense_GetScanResolution(uint32 widget)
 874:Generated_Source\PSoC4/CapSense.c **** {
 875:Generated_Source\PSoC4/CapSense.c ****     return(CapSense_widgetResolution[widget]);
 876:Generated_Source\PSoC4/CapSense.c **** }
 877:Generated_Source\PSoC4/CapSense.c **** 
 878:Generated_Source\PSoC4/CapSense.c **** 
 879:Generated_Source\PSoC4/CapSense.c **** /*******************************************************************************
 880:Generated_Source\PSoC4/CapSense.c **** * Function Name: CapSense_ClearSensors
 881:Generated_Source\PSoC4/CapSense.c **** ********************************************************************************
 882:Generated_Source\PSoC4/CapSense.c **** *
 883:Generated_Source\PSoC4/CapSense.c **** * Summary:
 884:Generated_Source\PSoC4/CapSense.c **** *  Resets all the sensors to the non-sampling state by sequentially disconnecting
 885:Generated_Source\PSoC4/CapSense.c **** *  all the sensors from Analog MUX Bus and putting them to an inactive state.
 886:Generated_Source\PSoC4/CapSense.c **** *
 887:Generated_Source\PSoC4/CapSense.c **** * Parameters:
 888:Generated_Source\PSoC4/CapSense.c **** *  None
 889:Generated_Source\PSoC4/CapSense.c **** *
 890:Generated_Source\PSoC4/CapSense.c **** * Return:
ARM GAS  C:\Users\young\AppData\Local\Temp\ccoFnsFE.s 			page 18


 891:Generated_Source\PSoC4/CapSense.c **** *  None
 892:Generated_Source\PSoC4/CapSense.c **** *
 893:Generated_Source\PSoC4/CapSense.c **** * Global Variables:
 894:Generated_Source\PSoC4/CapSense.c **** *  None
 895:Generated_Source\PSoC4/CapSense.c **** *
 896:Generated_Source\PSoC4/CapSense.c **** * Side Effects:
 897:Generated_Source\PSoC4/CapSense.c **** *  None
 898:Generated_Source\PSoC4/CapSense.c **** *
 899:Generated_Source\PSoC4/CapSense.c **** *******************************************************************************/
 900:Generated_Source\PSoC4/CapSense.c **** void CapSense_ClearSensors(void)
 901:Generated_Source\PSoC4/CapSense.c **** {
 902:Generated_Source\PSoC4/CapSense.c ****     uint32 snsIndex;
 903:Generated_Source\PSoC4/CapSense.c **** 
 904:Generated_Source\PSoC4/CapSense.c ****     for (snsIndex = 0u; snsIndex < CapSense_TOTAL_SENSOR_COUNT; snsIndex++)
  78              		.loc 1 904 0
  79 0028 0025     		movs	r5, #0
  80              	.LBE42:
  81              	.LBE41:
  82              	.LBB50:
  83              	.LBB40:
 272:Generated_Source\PSoC4/CapSense.c ****             newRegValue |= (uint32)((uint32)CapSense_SFLASH_CSD_TRIM1_REG & (uint32)CapSense_CSFLAS
  84              		.loc 1 272 0
  85 002a 0340     		ands	r3, r0
  86              	.LVL4:
  87 002c 1A00     		movs	r2, r3
  88              	.LVL5:
 273:Generated_Source\PSoC4/CapSense.c ****         #endif
  89              		.loc 1 273 0
  90 002e 2378     		ldrb	r3, [r4]
 281:Generated_Source\PSoC4/CapSense.c ****     #else
  91              		.loc 1 281 0
  92 0030 334C     		ldr	r4, .L7+16
 273:Generated_Source\PSoC4/CapSense.c ****         #endif
  93              		.loc 1 273 0
  94 0032 8343     		bics	r3, r0
  95 0034 1343     		orrs	r3, r2
  96              	.LVL6:
 275:Generated_Source\PSoC4/CapSense.c ****     #endif /* (CapSense_IDAC1_POLARITY == CapSense__IDAC_SINK) */
  97              		.loc 1 275 0
  98 0036 0B60     		str	r3, [r1]
 280:Generated_Source\PSoC4/CapSense.c ****         CapSense_CSD_CFG_REG = CapSense_DEFAULT_CSD_CONFIG;
  99              		.loc 1 280 0
 100 0038 324A     		ldr	r2, .L7+20
 101 003a 334B     		ldr	r3, .L7+24
 102              	.LVL7:
 303:Generated_Source\PSoC4/CapSense.c ****     #if !defined(CY_EXTERNAL_INTERRUPT_CONFIG)
 103              		.loc 1 303 0
 104 003c 0838     		subs	r0, r0, #8
 280:Generated_Source\PSoC4/CapSense.c ****         CapSense_CSD_CFG_REG = CapSense_DEFAULT_CSD_CONFIG;
 105              		.loc 1 280 0
 106 003e 1A60     		str	r2, [r3]
 107              	.LVL8:
 281:Generated_Source\PSoC4/CapSense.c ****     #else
 108              		.loc 1 281 0
 109 0040 324B     		ldr	r3, .L7+28
 292:Generated_Source\PSoC4/CapSense.c ****     newRegValue &= ~(CapSense_CSD_CMOD_CONNECTION_MASK);
 110              		.loc 1 292 0
ARM GAS  C:\Users\young\AppData\Local\Temp\ccoFnsFE.s 			page 19


 111 0042 334A     		ldr	r2, .L7+32
 281:Generated_Source\PSoC4/CapSense.c ****     #else
 112              		.loc 1 281 0
 113 0044 2360     		str	r3, [r4]
 292:Generated_Source\PSoC4/CapSense.c ****     newRegValue &= ~(CapSense_CSD_CMOD_CONNECTION_MASK);
 114              		.loc 1 292 0
 115 0046 1168     		ldr	r1, [r2]
 116              	.LVL9:
 293:Generated_Source\PSoC4/CapSense.c ****     newRegValue |= CapSense_CSD_CMOD_TO_AMUXBUS_A;
 117              		.loc 1 293 0
 118 0048 324B     		ldr	r3, .L7+36
 119 004a 0B40     		ands	r3, r1
 120              	.LVL10:
 294:Generated_Source\PSoC4/CapSense.c ****     CapSense_CMOD_CONNECTION_REG = newRegValue;
 121              		.loc 1 294 0
 122 004c C021     		movs	r1, #192
 123 004e C902     		lsls	r1, r1, #11
 124 0050 0B43     		orrs	r3, r1
 125              	.LVL11:
 295:Generated_Source\PSoC4/CapSense.c **** 
 126              		.loc 1 295 0
 127 0052 1360     		str	r3, [r2]
 303:Generated_Source\PSoC4/CapSense.c ****     #if !defined(CY_EXTERNAL_INTERRUPT_CONFIG)
 128              		.loc 1 303 0
 129 0054 FFF7FEFF 		bl	CyIntDisable
 130              	.LVL12:
 305:Generated_Source\PSoC4/CapSense.c ****         CyIntSetPriority(CapSense_ISR_NUMBER, CapSense_ISR_PRIORITY);
 131              		.loc 1 305 0
 132 0058 2F49     		ldr	r1, .L7+40
 133 005a 0720     		movs	r0, #7
 134 005c FFF7FEFF 		bl	CyIntSetVector
 135              	.LVL13:
 306:Generated_Source\PSoC4/CapSense.c ****     #endif /* (CY_EXTERNAL_INTERRUPT_CONFIG) */
 136              		.loc 1 306 0
 137 0060 0321     		movs	r1, #3
 138 0062 0720     		movs	r0, #7
 139 0064 FFF7FEFF 		bl	CyIntSetPriority
 140              	.LVL14:
 141              	.LBE40:
 142              	.LBE50:
 143              	.LBB51:
 144              	.LBB52:
 905:Generated_Source\PSoC4/CapSense.c ****     {
 906:Generated_Source\PSoC4/CapSense.c ****         CapSense_DisableScanSlot(snsIndex);
 907:Generated_Source\PSoC4/CapSense.c ****     }
 908:Generated_Source\PSoC4/CapSense.c **** }
 909:Generated_Source\PSoC4/CapSense.c **** 
 910:Generated_Source\PSoC4/CapSense.c **** 
 911:Generated_Source\PSoC4/CapSense.c **** #if (CapSense_IS_COMPLEX_SCANSLOTS)
 912:Generated_Source\PSoC4/CapSense.c ****     /*******************************************************************************
 913:Generated_Source\PSoC4/CapSense.c ****     * Function Name: CapSense_EnableScanSlot
 914:Generated_Source\PSoC4/CapSense.c ****     ********************************************************************************
 915:Generated_Source\PSoC4/CapSense.c ****     *
 916:Generated_Source\PSoC4/CapSense.c ****     * Summary:
 917:Generated_Source\PSoC4/CapSense.c ****     *  Configures the selected slot to measure during the next measurement
 918:Generated_Source\PSoC4/CapSense.c ****     *  cycle. The corresponding pin/pins are set to Analog High-Z mode and
 919:Generated_Source\PSoC4/CapSense.c ****     *  connected to the Analog Mux Bus. This also enables the comparator function.
ARM GAS  C:\Users\young\AppData\Local\Temp\ccoFnsFE.s 			page 20


 920:Generated_Source\PSoC4/CapSense.c ****     *
 921:Generated_Source\PSoC4/CapSense.c ****     * Parameters:
 922:Generated_Source\PSoC4/CapSense.c ****     *  slot:  Slot number.
 923:Generated_Source\PSoC4/CapSense.c ****     *
 924:Generated_Source\PSoC4/CapSense.c ****     * Return:
 925:Generated_Source\PSoC4/CapSense.c ****     *  None
 926:Generated_Source\PSoC4/CapSense.c ****     *
 927:Generated_Source\PSoC4/CapSense.c ****     * Global Constants:
 928:Generated_Source\PSoC4/CapSense.c ****     *  CapSense_portTable[]  - used to store the port number that pin
 929:Generated_Source\PSoC4/CapSense.c ****     *  belongs to for each sensor.
 930:Generated_Source\PSoC4/CapSense.c ****     *  CapSense_maskTable[]  - used to store the pin within the port for
 931:Generated_Source\PSoC4/CapSense.c ****     *  each sensor.
 932:Generated_Source\PSoC4/CapSense.c ****     *  CapSense_indexTable[] - used to store indexes of complex sensors.
 933:Generated_Source\PSoC4/CapSense.c ****     *  The offset and position in this array are stored in a port and mask table for
 934:Generated_Source\PSoC4/CapSense.c ****     *  complex sensors.
 935:Generated_Source\PSoC4/CapSense.c ****     *  Bit 7 (msb) is used to define the sensor type: single or complex.
 936:Generated_Source\PSoC4/CapSense.c ****     *
 937:Generated_Source\PSoC4/CapSense.c ****     * Side Effects:
 938:Generated_Source\PSoC4/CapSense.c ****     *  None
 939:Generated_Source\PSoC4/CapSense.c ****     *
 940:Generated_Source\PSoC4/CapSense.c ****     *******************************************************************************/
 941:Generated_Source\PSoC4/CapSense.c ****     void CapSense_EnableScanSlot(uint32 slot)
 942:Generated_Source\PSoC4/CapSense.c ****     {
 943:Generated_Source\PSoC4/CapSense.c ****         uint8 j;
 944:Generated_Source\PSoC4/CapSense.c ****         uint8 snsNumber;
 945:Generated_Source\PSoC4/CapSense.c ****         const uint8 *index;
 946:Generated_Source\PSoC4/CapSense.c ****         /* Read sensor type: single or complex */
 947:Generated_Source\PSoC4/CapSense.c ****         uint8 snsType = CapSense_portTable[slot];
 948:Generated_Source\PSoC4/CapSense.c **** 
 949:Generated_Source\PSoC4/CapSense.c ****         /* Check if sensor is complex */
 950:Generated_Source\PSoC4/CapSense.c ****         if ((snsType & CapSense_COMPLEX_SS_FLAG) == 0u)
 951:Generated_Source\PSoC4/CapSense.c ****         {
 952:Generated_Source\PSoC4/CapSense.c ****             /* Enable sensor (single) */
 953:Generated_Source\PSoC4/CapSense.c ****             CapSense_EnableSensor(slot);
 954:Generated_Source\PSoC4/CapSense.c ****         }
 955:Generated_Source\PSoC4/CapSense.c ****         else
 956:Generated_Source\PSoC4/CapSense.c ****         {
 957:Generated_Source\PSoC4/CapSense.c ****             /* Enable complex sensor */
 958:Generated_Source\PSoC4/CapSense.c ****             snsType &= ~CapSense_COMPLEX_SS_FLAG;
 959:Generated_Source\PSoC4/CapSense.c ****             index = &CapSense_indexTable[snsType];
 960:Generated_Source\PSoC4/CapSense.c ****             snsNumber = CapSense_maskTable[slot];
 961:Generated_Source\PSoC4/CapSense.c **** 
 962:Generated_Source\PSoC4/CapSense.c ****             for (j = 0u; j < snsNumber; j++)
 963:Generated_Source\PSoC4/CapSense.c ****             {
 964:Generated_Source\PSoC4/CapSense.c ****                 CapSense_EnableSensor(index[j]);
 965:Generated_Source\PSoC4/CapSense.c ****             }
 966:Generated_Source\PSoC4/CapSense.c ****         }
 967:Generated_Source\PSoC4/CapSense.c ****     }
 968:Generated_Source\PSoC4/CapSense.c **** 
 969:Generated_Source\PSoC4/CapSense.c **** 
 970:Generated_Source\PSoC4/CapSense.c ****     /*******************************************************************************
 971:Generated_Source\PSoC4/CapSense.c ****     * Function Name: CapSense_DisableScanSlot
 972:Generated_Source\PSoC4/CapSense.c ****     ********************************************************************************
 973:Generated_Source\PSoC4/CapSense.c ****     *
 974:Generated_Source\PSoC4/CapSense.c ****     * Summary:
 975:Generated_Source\PSoC4/CapSense.c ****     *  Disables the selected slot. The corresponding pin/pins is/are disconnected
 976:Generated_Source\PSoC4/CapSense.c ****     *  from the Analog Mux Bus and connected to GND, High_Z or Shield electrode.
ARM GAS  C:\Users\young\AppData\Local\Temp\ccoFnsFE.s 			page 21


 977:Generated_Source\PSoC4/CapSense.c ****     *
 978:Generated_Source\PSoC4/CapSense.c ****     * Parameters:
 979:Generated_Source\PSoC4/CapSense.c ****     *  slot:  Slot number.
 980:Generated_Source\PSoC4/CapSense.c ****     *
 981:Generated_Source\PSoC4/CapSense.c ****     * Return:
 982:Generated_Source\PSoC4/CapSense.c ****     *  None
 983:Generated_Source\PSoC4/CapSense.c ****     *
 984:Generated_Source\PSoC4/CapSense.c ****     * Global Variables:
 985:Generated_Source\PSoC4/CapSense.c ****     *  CapSense_portTable[]  - used to store the port number that pin
 986:Generated_Source\PSoC4/CapSense.c ****     *  belongs to for each sensor.
 987:Generated_Source\PSoC4/CapSense.c ****     *  CapSense_maskTable[]  - used to store the pin within the port for
 988:Generated_Source\PSoC4/CapSense.c ****     *  each sensor.
 989:Generated_Source\PSoC4/CapSense.c ****     *  CapSense_indexTable[] - used to store indexes of complex sensors.
 990:Generated_Source\PSoC4/CapSense.c ****     *  The offset and position in this array are stored in a port and mask table for
 991:Generated_Source\PSoC4/CapSense.c ****     *  complex sensors.
 992:Generated_Source\PSoC4/CapSense.c ****     *  7bit(msb) is used to define the sensor type: single or complex.
 993:Generated_Source\PSoC4/CapSense.c ****     *
 994:Generated_Source\PSoC4/CapSense.c ****     * Side Effects:
 995:Generated_Source\PSoC4/CapSense.c ****     *  None
 996:Generated_Source\PSoC4/CapSense.c ****     *
 997:Generated_Source\PSoC4/CapSense.c ****     *******************************************************************************/
 998:Generated_Source\PSoC4/CapSense.c ****     void CapSense_DisableScanSlot(uint32 slot)
 999:Generated_Source\PSoC4/CapSense.c ****     {
1000:Generated_Source\PSoC4/CapSense.c ****         uint8 j;
1001:Generated_Source\PSoC4/CapSense.c ****         uint8 snsNumber;
1002:Generated_Source\PSoC4/CapSense.c ****         const uint8 *index;
1003:Generated_Source\PSoC4/CapSense.c **** 
1004:Generated_Source\PSoC4/CapSense.c ****         /* Read sensor type: single or complex */
1005:Generated_Source\PSoC4/CapSense.c ****         uint8 snsType = CapSense_portTable[slot];
1006:Generated_Source\PSoC4/CapSense.c **** 
1007:Generated_Source\PSoC4/CapSense.c ****         /* Check if sensor is complex */
1008:Generated_Source\PSoC4/CapSense.c ****         if ((snsType & CapSense_COMPLEX_SS_FLAG) == 0u)
1009:Generated_Source\PSoC4/CapSense.c ****         {
1010:Generated_Source\PSoC4/CapSense.c ****             /* Disable sensor (single) */
1011:Generated_Source\PSoC4/CapSense.c ****             CapSense_DisableSensor(slot);
1012:Generated_Source\PSoC4/CapSense.c ****         }
1013:Generated_Source\PSoC4/CapSense.c ****         else
1014:Generated_Source\PSoC4/CapSense.c ****         {
1015:Generated_Source\PSoC4/CapSense.c ****             /* Disable complex sensor */
1016:Generated_Source\PSoC4/CapSense.c ****             snsType &= ~CapSense_COMPLEX_SS_FLAG;
1017:Generated_Source\PSoC4/CapSense.c ****             index = &CapSense_indexTable[snsType];
1018:Generated_Source\PSoC4/CapSense.c ****             snsNumber = CapSense_maskTable[slot];
1019:Generated_Source\PSoC4/CapSense.c **** 
1020:Generated_Source\PSoC4/CapSense.c ****             for (j=0; j < snsNumber; j++)
1021:Generated_Source\PSoC4/CapSense.c ****             {
1022:Generated_Source\PSoC4/CapSense.c ****                 CapSense_DisableSensor(index[j]);
1023:Generated_Source\PSoC4/CapSense.c ****             }
1024:Generated_Source\PSoC4/CapSense.c ****         }
1025:Generated_Source\PSoC4/CapSense.c ****     }
1026:Generated_Source\PSoC4/CapSense.c **** #endif  /* CapSense_IS_COMPLEX_SCANSLOTS */
1027:Generated_Source\PSoC4/CapSense.c **** 
1028:Generated_Source\PSoC4/CapSense.c **** 
1029:Generated_Source\PSoC4/CapSense.c **** /*******************************************************************************
1030:Generated_Source\PSoC4/CapSense.c **** * Function Name: CapSense_EnableSensor
1031:Generated_Source\PSoC4/CapSense.c **** ********************************************************************************
1032:Generated_Source\PSoC4/CapSense.c **** *
1033:Generated_Source\PSoC4/CapSense.c **** * Summary:
ARM GAS  C:\Users\young\AppData\Local\Temp\ccoFnsFE.s 			page 22


1034:Generated_Source\PSoC4/CapSense.c **** *  Configures the selected sensor to measure during the next measurement cycle.
1035:Generated_Source\PSoC4/CapSense.c **** *  The corresponding pins are set to Analog High-Z mode and connected to the
1036:Generated_Source\PSoC4/CapSense.c **** *  Analog Mux Bus. This also enables the comparator function.
1037:Generated_Source\PSoC4/CapSense.c **** *
1038:Generated_Source\PSoC4/CapSense.c **** * Parameters:
1039:Generated_Source\PSoC4/CapSense.c **** *  sensor:  Sensor number.
1040:Generated_Source\PSoC4/CapSense.c **** *
1041:Generated_Source\PSoC4/CapSense.c **** * Return:
1042:Generated_Source\PSoC4/CapSense.c **** *  None
1043:Generated_Source\PSoC4/CapSense.c **** *
1044:Generated_Source\PSoC4/CapSense.c **** * Global Variables:
1045:Generated_Source\PSoC4/CapSense.c **** *  CapSense_portTable[] - used to store the port number that pin
1046:Generated_Source\PSoC4/CapSense.c **** *  belongs to for each sensor.
1047:Generated_Source\PSoC4/CapSense.c **** *  CapSense_pinShiftTbl[] - used to store position of pin that
1048:Generated_Source\PSoC4/CapSense.c **** *  configured as sensor in port.
1049:Generated_Source\PSoC4/CapSense.c **** *  CapSense_prtSelTbl[] - Contains pointers to the HSIOM
1050:Generated_Source\PSoC4/CapSense.c **** *  registers for each port.
1051:Generated_Source\PSoC4/CapSense.c **** *  CapSense_PrtCfgTb[] - Contains pointers to the port config
1052:Generated_Source\PSoC4/CapSense.c **** *  registers for each port.
1053:Generated_Source\PSoC4/CapSense.c **** *
1054:Generated_Source\PSoC4/CapSense.c **** * Side Effects:
1055:Generated_Source\PSoC4/CapSense.c **** *  None
1056:Generated_Source\PSoC4/CapSense.c **** *
1057:Generated_Source\PSoC4/CapSense.c **** *******************************************************************************/
1058:Generated_Source\PSoC4/CapSense.c **** void CapSense_EnableSensor(uint32 sensor)
1059:Generated_Source\PSoC4/CapSense.c **** {
1060:Generated_Source\PSoC4/CapSense.c ****     uint8  pinModeShift;
1061:Generated_Source\PSoC4/CapSense.c ****     uint8  pinHSIOMShift;
1062:Generated_Source\PSoC4/CapSense.c ****     uint8 interruptState;
1063:Generated_Source\PSoC4/CapSense.c ****     uint32 newRegisterValue;
1064:Generated_Source\PSoC4/CapSense.c ****     uint32 port;
1065:Generated_Source\PSoC4/CapSense.c **** 
1066:Generated_Source\PSoC4/CapSense.c ****     port = (uint32) CapSense_portTable[sensor];
1067:Generated_Source\PSoC4/CapSense.c ****     pinModeShift = CapSense_pinShiftTbl[sensor]  * CapSense_PC_PIN_CFG_SIZE;
1068:Generated_Source\PSoC4/CapSense.c ****     pinHSIOMShift = CapSense_pinShiftTbl[sensor] * CapSense_HSIOM_PIN_CFG_SIZE;
1069:Generated_Source\PSoC4/CapSense.c **** 
1070:Generated_Source\PSoC4/CapSense.c ****     interruptState = CyEnterCriticalSection();
1071:Generated_Source\PSoC4/CapSense.c **** 
1072:Generated_Source\PSoC4/CapSense.c ****     newRegisterValue = *CapSense_prtSelTbl[port];
1073:Generated_Source\PSoC4/CapSense.c ****     newRegisterValue &= ~(CapSense_CSD_HSIOM_MASK << pinHSIOMShift);
1074:Generated_Source\PSoC4/CapSense.c ****     newRegisterValue |= (uint32)((uint32)CapSense_CSD_SENSE_PORT_MODE << pinHSIOMShift);
1075:Generated_Source\PSoC4/CapSense.c **** 
1076:Generated_Source\PSoC4/CapSense.c ****     *CapSense_prtCfgTbl[port] &= (uint32)~((uint32)CapSense_CSD_PIN_MODE_MASK << pinModeShift);
1077:Generated_Source\PSoC4/CapSense.c ****     *CapSense_prtSelTbl[port] = newRegisterValue;
1078:Generated_Source\PSoC4/CapSense.c **** 
1079:Generated_Source\PSoC4/CapSense.c ****     CyExitCriticalSection(interruptState);
1080:Generated_Source\PSoC4/CapSense.c **** }
1081:Generated_Source\PSoC4/CapSense.c **** 
1082:Generated_Source\PSoC4/CapSense.c **** 
1083:Generated_Source\PSoC4/CapSense.c **** /*******************************************************************************
1084:Generated_Source\PSoC4/CapSense.c **** * Function Name: CapSense_DisableSensor
1085:Generated_Source\PSoC4/CapSense.c **** ********************************************************************************
1086:Generated_Source\PSoC4/CapSense.c **** *
1087:Generated_Source\PSoC4/CapSense.c **** * Summary:
1088:Generated_Source\PSoC4/CapSense.c **** *  Disables the selected sensor. The corresponding pin is disconnected from the
1089:Generated_Source\PSoC4/CapSense.c **** *  Analog Mux Bus and connected to GND, High_Z or Shield electrode.
1090:Generated_Source\PSoC4/CapSense.c **** *
ARM GAS  C:\Users\young\AppData\Local\Temp\ccoFnsFE.s 			page 23


1091:Generated_Source\PSoC4/CapSense.c **** * Parameters:
1092:Generated_Source\PSoC4/CapSense.c **** *  sensor:  Sensor number
1093:Generated_Source\PSoC4/CapSense.c **** *
1094:Generated_Source\PSoC4/CapSense.c **** * Return:
1095:Generated_Source\PSoC4/CapSense.c **** *  None
1096:Generated_Source\PSoC4/CapSense.c **** *
1097:Generated_Source\PSoC4/CapSense.c **** * Global Variables:
1098:Generated_Source\PSoC4/CapSense.c **** *  CapSense_portTable[] - used to store the port number that pin
1099:Generated_Source\PSoC4/CapSense.c **** *  belongs to for each sensor.
1100:Generated_Source\PSoC4/CapSense.c **** *  CapSense_pinShiftTbl[] - used to store position of pin that
1101:Generated_Source\PSoC4/CapSense.c **** *  configured as a sensor in the port.
1102:Generated_Source\PSoC4/CapSense.c **** *  CapSense_prtSelTbl[] - Contains pointers to the HSIOM
1103:Generated_Source\PSoC4/CapSense.c **** *  registers for each port.
1104:Generated_Source\PSoC4/CapSense.c **** *  CapSense_PrtCfgTb[] - Contains pointers to the port config
1105:Generated_Source\PSoC4/CapSense.c **** *  registers for each port.
1106:Generated_Source\PSoC4/CapSense.c **** *
1107:Generated_Source\PSoC4/CapSense.c **** * Side Effects:
1108:Generated_Source\PSoC4/CapSense.c **** *  None
1109:Generated_Source\PSoC4/CapSense.c **** *
1110:Generated_Source\PSoC4/CapSense.c **** *******************************************************************************/
1111:Generated_Source\PSoC4/CapSense.c **** void CapSense_DisableSensor(uint32 sensor)
1112:Generated_Source\PSoC4/CapSense.c **** {
1113:Generated_Source\PSoC4/CapSense.c ****     uint8 interruptState;
1114:Generated_Source\PSoC4/CapSense.c ****     uint32 newRegisterValue;
1115:Generated_Source\PSoC4/CapSense.c **** 
1116:Generated_Source\PSoC4/CapSense.c ****     uint32 port = (uint32) CapSense_portTable[sensor];
1117:Generated_Source\PSoC4/CapSense.c ****     uint8  pinHSIOMShift = CapSense_pinShiftTbl[sensor] * CapSense_HSIOM_PIN_CFG_SIZE;
1118:Generated_Source\PSoC4/CapSense.c ****     uint8  pinModeShift = CapSense_pinShiftTbl[sensor]  * CapSense_PC_PIN_CFG_SIZE;
1119:Generated_Source\PSoC4/CapSense.c **** 
1120:Generated_Source\PSoC4/CapSense.c ****     uint32 inactiveConnect = CapSense_SNS_HIZANALOG_CONNECT;
1121:Generated_Source\PSoC4/CapSense.c ****     uint32 sensorState = CapSense_unscannedSnsDriveMode[sensor];
1122:Generated_Source\PSoC4/CapSense.c **** 
1123:Generated_Source\PSoC4/CapSense.c ****     *CapSense_prtSelTbl[port] &= ~(CapSense_CSD_HSIOM_MASK << pinHSIOMShift);
1124:Generated_Source\PSoC4/CapSense.c **** 
1125:Generated_Source\PSoC4/CapSense.c ****     #if(CapSense_IS_SHIELD_ENABLE != 0)
1126:Generated_Source\PSoC4/CapSense.c ****     if(sensorState != (uint32)CapSense__SHIELD)
1127:Generated_Source\PSoC4/CapSense.c ****     {
1128:Generated_Source\PSoC4/CapSense.c ****     #else
1129:Generated_Source\PSoC4/CapSense.c ****         /* Connected to Ground if shield is disabled */
1130:Generated_Source\PSoC4/CapSense.c ****         if(sensorState == (uint32)CapSense__SHIELD)
1131:Generated_Source\PSoC4/CapSense.c ****         {
1132:Generated_Source\PSoC4/CapSense.c ****             sensorState = (uint32)CapSense__GROUND;
1133:Generated_Source\PSoC4/CapSense.c ****         }
1134:Generated_Source\PSoC4/CapSense.c ****     #endif /* (CapSense_IS_SHIELD_ENABLE) */
1135:Generated_Source\PSoC4/CapSense.c ****         if(sensorState != (uint32)CapSense__HIZ_ANALOG)
1136:Generated_Source\PSoC4/CapSense.c ****         {
1137:Generated_Source\PSoC4/CapSense.c ****             /* Connected to Ground */
1138:Generated_Source\PSoC4/CapSense.c ****             inactiveConnect = (uint32)CapSense_SNS_GROUND_CONNECT;
1139:Generated_Source\PSoC4/CapSense.c ****         }
1140:Generated_Source\PSoC4/CapSense.c **** 
1141:Generated_Source\PSoC4/CapSense.c ****         interruptState = CyEnterCriticalSection();
1142:Generated_Source\PSoC4/CapSense.c **** 
1143:Generated_Source\PSoC4/CapSense.c ****         /* Set drive mode */
1144:Generated_Source\PSoC4/CapSense.c ****         newRegisterValue = *CapSense_prtCfgTbl[port];
1145:Generated_Source\PSoC4/CapSense.c ****         newRegisterValue &= ~(CapSense_CSD_PIN_MODE_MASK << pinModeShift);
1146:Generated_Source\PSoC4/CapSense.c ****         newRegisterValue |=  (uint32)(inactiveConnect << pinModeShift);
1147:Generated_Source\PSoC4/CapSense.c ****         *CapSense_prtCfgTbl[port] =  newRegisterValue;
ARM GAS  C:\Users\young\AppData\Local\Temp\ccoFnsFE.s 			page 24


1148:Generated_Source\PSoC4/CapSense.c **** 
1149:Generated_Source\PSoC4/CapSense.c ****         CyExitCriticalSection(interruptState);
1150:Generated_Source\PSoC4/CapSense.c **** 
1151:Generated_Source\PSoC4/CapSense.c ****         *CapSense_prtDRTbl[port]  &=  (uint32)~(uint32)((uint32)1u << CapSense_pinShiftTbl[sensor])
1152:Generated_Source\PSoC4/CapSense.c ****     #if(CapSense_IS_SHIELD_ENABLE != 0)
1153:Generated_Source\PSoC4/CapSense.c ****     }
1154:Generated_Source\PSoC4/CapSense.c ****     else
1155:Generated_Source\PSoC4/CapSense.c ****     {
1156:Generated_Source\PSoC4/CapSense.c ****         /* Connect to Shield */
1157:Generated_Source\PSoC4/CapSense.c ****         *CapSense_prtSelTbl[port] |= (CapSense_CSD_SHIELD_PORT_MODE << pinHSIOMShift);
1158:Generated_Source\PSoC4/CapSense.c ****     }
1159:Generated_Source\PSoC4/CapSense.c ****     #endif /* (CapSense_IS_SHIELD_ENABLE) */
1160:Generated_Source\PSoC4/CapSense.c **** }
1161:Generated_Source\PSoC4/CapSense.c **** 
1162:Generated_Source\PSoC4/CapSense.c **** 
1163:Generated_Source\PSoC4/CapSense.c **** /*******************************************************************************
1164:Generated_Source\PSoC4/CapSense.c **** * Function Name: CapSense_SetDriveModeAllPins
1165:Generated_Source\PSoC4/CapSense.c **** ********************************************************************************
1166:Generated_Source\PSoC4/CapSense.c **** *
1167:Generated_Source\PSoC4/CapSense.c **** * Summary:
1168:Generated_Source\PSoC4/CapSense.c **** * This API sets the drive mode of port pins used by the CapSense
1169:Generated_Source\PSoC4/CapSense.c **** * component (sensors, guard, shield, shield tank and Cmod) to drive the
1170:Generated_Source\PSoC4/CapSense.c **** * mode specified by the argument.
1171:Generated_Source\PSoC4/CapSense.c **** *
1172:Generated_Source\PSoC4/CapSense.c **** * Parameters:
1173:Generated_Source\PSoC4/CapSense.c **** *  driveMode:  Drive mode definition.
1174:Generated_Source\PSoC4/CapSense.c **** *
1175:Generated_Source\PSoC4/CapSense.c **** * Return:
1176:Generated_Source\PSoC4/CapSense.c **** *  None
1177:Generated_Source\PSoC4/CapSense.c **** *
1178:Generated_Source\PSoC4/CapSense.c **** * Global Variables:
1179:Generated_Source\PSoC4/CapSense.c **** *  CapSense_portTable[] - used to store the port number that pin
1180:Generated_Source\PSoC4/CapSense.c **** *  belongs to for each sensor.
1181:Generated_Source\PSoC4/CapSense.c **** *  CapSense_pinShiftTbl[] - used to store position of pin that
1182:Generated_Source\PSoC4/CapSense.c **** *  configured as a sensor in the port.
1183:Generated_Source\PSoC4/CapSense.c **** *
1184:Generated_Source\PSoC4/CapSense.c **** * Side Effects:
1185:Generated_Source\PSoC4/CapSense.c **** *  This API shall be called only after CapSense component is stopped.
1186:Generated_Source\PSoC4/CapSense.c **** *
1187:Generated_Source\PSoC4/CapSense.c **** *******************************************************************************/
1188:Generated_Source\PSoC4/CapSense.c **** void CapSense_SetDriveModeAllPins(uint32 driveMode)
1189:Generated_Source\PSoC4/CapSense.c **** {
1190:Generated_Source\PSoC4/CapSense.c ****     uint8 curSensor;
1191:Generated_Source\PSoC4/CapSense.c ****     #if (CapSense_IS_COMPLEX_SCANSLOTS)
1192:Generated_Source\PSoC4/CapSense.c ****         uint8 snsNumber;
1193:Generated_Source\PSoC4/CapSense.c ****         uint8 snsType;
1194:Generated_Source\PSoC4/CapSense.c ****     #endif  /* CapSense_IS_COMPLEX_SCANSLOTS */
1195:Generated_Source\PSoC4/CapSense.c ****     uint32 prtNumberTmp;
1196:Generated_Source\PSoC4/CapSense.c ****     uint32 pinNumberTmp;
1197:Generated_Source\PSoC4/CapSense.c **** 
1198:Generated_Source\PSoC4/CapSense.c ****     for(curSensor = 0u; curSensor < CapSense_TOTAL_SENSOR_COUNT; curSensor++)
1199:Generated_Source\PSoC4/CapSense.c ****     {
1200:Generated_Source\PSoC4/CapSense.c ****         #if (CapSense_IS_COMPLEX_SCANSLOTS)
1201:Generated_Source\PSoC4/CapSense.c ****             /* Read sensor type: single or complex */
1202:Generated_Source\PSoC4/CapSense.c ****             snsType = CapSense_portTable[curSensor];
1203:Generated_Source\PSoC4/CapSense.c **** 
1204:Generated_Source\PSoC4/CapSense.c ****             /* Check if sensor is complex */
ARM GAS  C:\Users\young\AppData\Local\Temp\ccoFnsFE.s 			page 25


1205:Generated_Source\PSoC4/CapSense.c ****             if ((snsType & CapSense_COMPLEX_SS_FLAG) == 0u)
1206:Generated_Source\PSoC4/CapSense.c ****             {
1207:Generated_Source\PSoC4/CapSense.c ****                 /* The sensor is not complex */
1208:Generated_Source\PSoC4/CapSense.c ****                 snsNumber = curSensor;
1209:Generated_Source\PSoC4/CapSense.c ****             }
1210:Generated_Source\PSoC4/CapSense.c ****             else
1211:Generated_Source\PSoC4/CapSense.c ****             {
1212:Generated_Source\PSoC4/CapSense.c ****                 /* Get dedicated sensor ID of the complex sensor */
1213:Generated_Source\PSoC4/CapSense.c ****                 snsType &= ~CapSense_COMPLEX_SS_FLAG;
1214:Generated_Source\PSoC4/CapSense.c ****                 snsNumber = CapSense_indexTable[snsType];
1215:Generated_Source\PSoC4/CapSense.c ****             }
1216:Generated_Source\PSoC4/CapSense.c **** 
1217:Generated_Source\PSoC4/CapSense.c ****             prtNumberTmp = CapSense_portTable[snsNumber];
1218:Generated_Source\PSoC4/CapSense.c ****             pinNumberTmp = CapSense_pinShiftTbl[snsNumber];
1219:Generated_Source\PSoC4/CapSense.c ****         #else
1220:Generated_Source\PSoC4/CapSense.c ****             prtNumberTmp = CapSense_portTable[curSensor];
1221:Generated_Source\PSoC4/CapSense.c ****             pinNumberTmp = CapSense_pinShiftTbl[curSensor];
1222:Generated_Source\PSoC4/CapSense.c ****         #endif  /* CapSense_IS_COMPLEX_SCANSLOTS */
1223:Generated_Source\PSoC4/CapSense.c **** 
1224:Generated_Source\PSoC4/CapSense.c ****         CapSense_SetPinDriveMode(driveMode, pinNumberTmp, prtNumberTmp);
1225:Generated_Source\PSoC4/CapSense.c ****     }
1226:Generated_Source\PSoC4/CapSense.c **** 
1227:Generated_Source\PSoC4/CapSense.c ****     CapSense_SetPinDriveMode(driveMode, (uint32)CapSense_CMOD_PIN_NUMBER, (uint32)CapSense_CMOD_PRT
1228:Generated_Source\PSoC4/CapSense.c **** 
1229:Generated_Source\PSoC4/CapSense.c ****     #if(0u != CapSense_CSH_TANK_ENABLE)
1230:Generated_Source\PSoC4/CapSense.c ****         CapSense_SetPinDriveMode(driveMode, (uint32)CapSense_CTANK_PIN_NUMBER, (uint32)CapSense_CTA
1231:Generated_Source\PSoC4/CapSense.c ****     #endif /* (0u != CapSense_CSH_TANK_ENABLE) */
1232:Generated_Source\PSoC4/CapSense.c **** 
1233:Generated_Source\PSoC4/CapSense.c ****     #if(0u != CapSense_IS_SHIELD_ENABLE)
1234:Generated_Source\PSoC4/CapSense.c ****         CapSense_SetPinDriveMode(driveMode, (uint32)CapSense_SHIELD_PIN_NUMBER, (uint32)CapSense_SH
1235:Generated_Source\PSoC4/CapSense.c ****     #endif /* (0u != CapSense_IS_SHIELD_ENABLE) */
1236:Generated_Source\PSoC4/CapSense.c **** }
1237:Generated_Source\PSoC4/CapSense.c **** 
1238:Generated_Source\PSoC4/CapSense.c **** 
1239:Generated_Source\PSoC4/CapSense.c **** /*******************************************************************************
1240:Generated_Source\PSoC4/CapSense.c **** * Function Name: CapSense_RestoreDriveModeAllPins
1241:Generated_Source\PSoC4/CapSense.c **** ********************************************************************************
1242:Generated_Source\PSoC4/CapSense.c **** *
1243:Generated_Source\PSoC4/CapSense.c **** * Summary:
1244:Generated_Source\PSoC4/CapSense.c **** *  This API restores the drive for all the CapSense port pins to the original
1245:Generated_Source\PSoC4/CapSense.c **** *  state.
1246:Generated_Source\PSoC4/CapSense.c **** *
1247:Generated_Source\PSoC4/CapSense.c **** * Parameters:
1248:Generated_Source\PSoC4/CapSense.c **** *  None
1249:Generated_Source\PSoC4/CapSense.c **** *
1250:Generated_Source\PSoC4/CapSense.c **** * Return:
1251:Generated_Source\PSoC4/CapSense.c **** *  None
1252:Generated_Source\PSoC4/CapSense.c **** *
1253:Generated_Source\PSoC4/CapSense.c **** * Global Variables:
1254:Generated_Source\PSoC4/CapSense.c **** *  CapSense_prtSelTbl[] - Contains pointers to the HSIOM
1255:Generated_Source\PSoC4/CapSense.c **** *  registers for each port.
1256:Generated_Source\PSoC4/CapSense.c **** *
1257:Generated_Source\PSoC4/CapSense.c **** * Side Effects:
1258:Generated_Source\PSoC4/CapSense.c **** *  This API is called only after the CapSense component is stopped.
1259:Generated_Source\PSoC4/CapSense.c **** *
1260:Generated_Source\PSoC4/CapSense.c **** *******************************************************************************/
1261:Generated_Source\PSoC4/CapSense.c **** void CapSense_RestoreDriveModeAllPins(void)
ARM GAS  C:\Users\young\AppData\Local\Temp\ccoFnsFE.s 			page 26


1262:Generated_Source\PSoC4/CapSense.c **** {
1263:Generated_Source\PSoC4/CapSense.c ****     uint32 newRegisterValue;
1264:Generated_Source\PSoC4/CapSense.c **** 
1265:Generated_Source\PSoC4/CapSense.c ****     CapSense_SetDriveModeAllPins(CY_SYS_PINS_DM_ALG_HIZ);
1266:Generated_Source\PSoC4/CapSense.c **** 
1267:Generated_Source\PSoC4/CapSense.c ****     newRegisterValue = CapSense_CMOD_CONNECTION_REG;
1268:Generated_Source\PSoC4/CapSense.c ****     newRegisterValue &= ~(CapSense_CSD_CMOD_CONNECTION_MASK);
1269:Generated_Source\PSoC4/CapSense.c ****     newRegisterValue |= CapSense_CSD_CMOD_TO_AMUXBUS_A;
1270:Generated_Source\PSoC4/CapSense.c ****     CapSense_CMOD_CONNECTION_REG = newRegisterValue;
1271:Generated_Source\PSoC4/CapSense.c **** 
1272:Generated_Source\PSoC4/CapSense.c ****     #if(0u != CapSense_CSH_TANK_ENABLE)
1273:Generated_Source\PSoC4/CapSense.c ****         newRegisterValue = CapSense_CTANK_CONNECTION_REG;
1274:Generated_Source\PSoC4/CapSense.c ****         newRegisterValue &= ~(CapSense_CSD_CTANK_CONNECTION_MASK);
1275:Generated_Source\PSoC4/CapSense.c ****         newRegisterValue |= CapSense_CSD_CTANK_TO_AMUXBUS_B;
1276:Generated_Source\PSoC4/CapSense.c ****         CapSense_CTANK_CONNECTION_REG = newRegisterValue;
1277:Generated_Source\PSoC4/CapSense.c ****     #endif/* (0u != CapSense_CSH_TANK_ENABLE) */
1278:Generated_Source\PSoC4/CapSense.c **** 
1279:Generated_Source\PSoC4/CapSense.c ****     #if(0u != CapSense_IS_SHIELD_ENABLE)
1280:Generated_Source\PSoC4/CapSense.c ****         newRegisterValue = *CapSense_prtSelTbl[CapSense_SHIELD_PORT_NUMBER];
1281:Generated_Source\PSoC4/CapSense.c ****         newRegisterValue &= ~(CapSense_CSD_HSIOM_MASK << ((uint32)CapSense_SHIELD_PIN_NUMBER * CapS
1282:Generated_Source\PSoC4/CapSense.c ****         newRegisterValue |= (CapSense_CSD_SHIELD_PORT_MODE << ((uint32)CapSense_SHIELD_PIN_NUMBER *
1283:Generated_Source\PSoC4/CapSense.c ****         *CapSense_prtSelTbl[CapSense_SHIELD_PORT_NUMBER] = newRegisterValue;
1284:Generated_Source\PSoC4/CapSense.c ****     #endif /* (0u != CapSense_IS_SHIELD_ENABLE) */
1285:Generated_Source\PSoC4/CapSense.c **** }
1286:Generated_Source\PSoC4/CapSense.c **** 
1287:Generated_Source\PSoC4/CapSense.c **** 
1288:Generated_Source\PSoC4/CapSense.c **** /*******************************************************************************
1289:Generated_Source\PSoC4/CapSense.c **** * Function Name: CapSense_SetPinDriveMode
1290:Generated_Source\PSoC4/CapSense.c **** ********************************************************************************
1291:Generated_Source\PSoC4/CapSense.c **** *
1292:Generated_Source\PSoC4/CapSense.c **** * Summary:
1293:Generated_Source\PSoC4/CapSense.c **** * This API sets the drive mode for the appropriate port/pin.
1294:Generated_Source\PSoC4/CapSense.c **** *
1295:Generated_Source\PSoC4/CapSense.c **** * Parameters:
1296:Generated_Source\PSoC4/CapSense.c **** *  driveMode:  Drive mode definition.
1297:Generated_Source\PSoC4/CapSense.c **** *  portNumber: contains port number (0, 1, 2).
1298:Generated_Source\PSoC4/CapSense.c **** *  pinNumber: contains pin number (0, 1, 2, ... , 7).
1299:Generated_Source\PSoC4/CapSense.c **** *
1300:Generated_Source\PSoC4/CapSense.c **** * Return:
1301:Generated_Source\PSoC4/CapSense.c **** *  None
1302:Generated_Source\PSoC4/CapSense.c **** *
1303:Generated_Source\PSoC4/CapSense.c **** * Global Variables:
1304:Generated_Source\PSoC4/CapSense.c **** *  CapSense_prtSelTbl[] - Contains pointers to the HSIOM
1305:Generated_Source\PSoC4/CapSense.c **** *  registers for each port.
1306:Generated_Source\PSoC4/CapSense.c **** *  CapSense_prtCfgTb[] - Contains pointers to the port config
1307:Generated_Source\PSoC4/CapSense.c **** *  registers for each port.
1308:Generated_Source\PSoC4/CapSense.c **** *
1309:Generated_Source\PSoC4/CapSense.c **** * Side Effects:
1310:Generated_Source\PSoC4/CapSense.c **** *  This API is called only after CapSense component is stopped.
1311:Generated_Source\PSoC4/CapSense.c **** *
1312:Generated_Source\PSoC4/CapSense.c **** *******************************************************************************/
1313:Generated_Source\PSoC4/CapSense.c **** void CapSense_SetPinDriveMode(uint32 driveMode, uint32 pinNumber, uint32 portNumber)
1314:Generated_Source\PSoC4/CapSense.c **** {
1315:Generated_Source\PSoC4/CapSense.c ****     uint32  pinModeShift;
1316:Generated_Source\PSoC4/CapSense.c ****     uint32 newRegisterValue;
1317:Generated_Source\PSoC4/CapSense.c **** 
1318:Generated_Source\PSoC4/CapSense.c ****     pinModeShift  = pinNumber * CapSense_PC_PIN_CFG_SIZE;
ARM GAS  C:\Users\young\AppData\Local\Temp\ccoFnsFE.s 			page 27


1319:Generated_Source\PSoC4/CapSense.c **** 
1320:Generated_Source\PSoC4/CapSense.c ****     newRegisterValue = *CapSense_prtCfgTbl[portNumber];
1321:Generated_Source\PSoC4/CapSense.c ****     newRegisterValue &= ~(CapSense_CSD_PIN_MODE_MASK << pinModeShift);
1322:Generated_Source\PSoC4/CapSense.c ****     newRegisterValue |=  (uint32)((uint32)driveMode << pinModeShift);
1323:Generated_Source\PSoC4/CapSense.c ****     *CapSense_prtCfgTbl[portNumber] =  newRegisterValue;
1324:Generated_Source\PSoC4/CapSense.c **** }
1325:Generated_Source\PSoC4/CapSense.c **** 
1326:Generated_Source\PSoC4/CapSense.c **** 
1327:Generated_Source\PSoC4/CapSense.c **** /*******************************************************************************
1328:Generated_Source\PSoC4/CapSense.c **** * Function Name: CapSense_PreScan
1329:Generated_Source\PSoC4/CapSense.c **** ********************************************************************************
1330:Generated_Source\PSoC4/CapSense.c **** *
1331:Generated_Source\PSoC4/CapSense.c **** * Summary:
1332:Generated_Source\PSoC4/CapSense.c **** *  Sets required settings, enables a sensor, removes Vref from AMUX and starts the
1333:Generated_Source\PSoC4/CapSense.c **** *  scanning process of the sensor.
1334:Generated_Source\PSoC4/CapSense.c **** *
1335:Generated_Source\PSoC4/CapSense.c **** * Parameters:
1336:Generated_Source\PSoC4/CapSense.c **** *  sensor:  Sensor number.
1337:Generated_Source\PSoC4/CapSense.c **** *
1338:Generated_Source\PSoC4/CapSense.c **** * Return:
1339:Generated_Source\PSoC4/CapSense.c **** *  None
1340:Generated_Source\PSoC4/CapSense.c **** *
1341:Generated_Source\PSoC4/CapSense.c **** * Global Variables:
1342:Generated_Source\PSoC4/CapSense.c **** * CapSense_widgetNumber[] - This array contains numbers of widgets for each sensor.
1343:Generated_Source\PSoC4/CapSense.c **** * CapSense_widgetResolution[] - Contains the widget resolution.
1344:Generated_Source\PSoC4/CapSense.c **** *
1345:Generated_Source\PSoC4/CapSense.c **** * Side Effects:
1346:Generated_Source\PSoC4/CapSense.c **** *  None
1347:Generated_Source\PSoC4/CapSense.c **** *
1348:Generated_Source\PSoC4/CapSense.c **** *******************************************************************************/
1349:Generated_Source\PSoC4/CapSense.c **** void CapSense_PreScan(uint32 sensor)
1350:Generated_Source\PSoC4/CapSense.c **** {
1351:Generated_Source\PSoC4/CapSense.c ****     uint8 widget;
1352:Generated_Source\PSoC4/CapSense.c ****     uint8 interruptState;
1353:Generated_Source\PSoC4/CapSense.c ****     uint32 newRegValue;
1354:Generated_Source\PSoC4/CapSense.c ****     uint32 counterResolution;
1355:Generated_Source\PSoC4/CapSense.c **** 
1356:Generated_Source\PSoC4/CapSense.c ****     #if(CapSense_PRS_OPTIONS == CapSense__PRS_AUTO)
1357:Generated_Source\PSoC4/CapSense.c ****         uint8 senseClkDivMath;
1358:Generated_Source\PSoC4/CapSense.c ****         uint8 sampleClkDivMath;
1359:Generated_Source\PSoC4/CapSense.c ****     #endif /* (CapSense_PRS_OPTIONS == CapSense__PRS_AUTO) */
1360:Generated_Source\PSoC4/CapSense.c **** 
1361:Generated_Source\PSoC4/CapSense.c ****     #if ((CapSense_TUNING_METHOD == CapSense__TUNING_AUTO) &&\
1362:Generated_Source\PSoC4/CapSense.c ****          (0 != CapSense_IS_OVERSAMPLING_EN))
1363:Generated_Source\PSoC4/CapSense.c ****         uint32 oversamplingFactor;
1364:Generated_Source\PSoC4/CapSense.c ****     #endif /* ((CapSense_TUNING_METHOD == CapSense__TUNING_AUTO) &&\
1365:Generated_Source\PSoC4/CapSense.c ****                (0 != CapSense_IS_OVERSAMPLING_EN)) */
1366:Generated_Source\PSoC4/CapSense.c **** 
1367:Generated_Source\PSoC4/CapSense.c ****     /* Define widget sensor belongs to */
1368:Generated_Source\PSoC4/CapSense.c ****     widget = CapSense_widgetNumber[sensor];
1369:Generated_Source\PSoC4/CapSense.c **** 
1370:Generated_Source\PSoC4/CapSense.c ****     /* Recalculate Counter Resolution to MSB 16 bits */
1371:Generated_Source\PSoC4/CapSense.c ****     counterResolution = CapSense_widgetResolution[widget];
1372:Generated_Source\PSoC4/CapSense.c **** 
1373:Generated_Source\PSoC4/CapSense.c ****     #if ((CapSense_TUNING_METHOD == CapSense__TUNING_AUTO) &&\
1374:Generated_Source\PSoC4/CapSense.c ****          (0 != CapSense_IS_OVERSAMPLING_EN))
1375:Generated_Source\PSoC4/CapSense.c ****         oversamplingFactor = CapSense_GetBitValue(CapSense_scanSpeedTbl, sensor);
ARM GAS  C:\Users\young\AppData\Local\Temp\ccoFnsFE.s 			page 28


1376:Generated_Source\PSoC4/CapSense.c **** 
1377:Generated_Source\PSoC4/CapSense.c ****         if(counterResolution < CapSense_RESOLUTION_16_BITS)
1378:Generated_Source\PSoC4/CapSense.c ****         {
1379:Generated_Source\PSoC4/CapSense.c ****             counterResolution <<= oversamplingFactor;
1380:Generated_Source\PSoC4/CapSense.c ****             counterResolution |= (uint32)(CapSense_RESOLUTION_8_BITS);
1381:Generated_Source\PSoC4/CapSense.c ****         }
1382:Generated_Source\PSoC4/CapSense.c ****     #endif /* ((CapSense_TUNING_METHOD == CapSense__TUNING_AUTO) &&\
1383:Generated_Source\PSoC4/CapSense.c ****                (0 != CapSense_IS_OVERSAMPLING_EN)) */
1384:Generated_Source\PSoC4/CapSense.c **** 
1385:Generated_Source\PSoC4/CapSense.c ****     #if (0u != CapSense_IS_M0S8PERI_BLOCK)
1386:Generated_Source\PSoC4/CapSense.c ****         CapSense_SenseClk_Stop();
1387:Generated_Source\PSoC4/CapSense.c ****         CapSense_SampleClk_Stop();
1388:Generated_Source\PSoC4/CapSense.c ****     #endif /* (0u != CapSense_IS_M0S8PERI_BLOCK) */
1389:Generated_Source\PSoC4/CapSense.c **** 
1390:Generated_Source\PSoC4/CapSense.c ****     #if (0u != CapSense_MULTIPLE_FREQUENCY_SET)
1391:Generated_Source\PSoC4/CapSense.c ****         CapSense_SampleClk_SetDividerValue((uint16)CapSense_sampleClkDividerVal[sensor]);
1392:Generated_Source\PSoC4/CapSense.c ****         CapSense_SenseClk_SetDividerValue((uint16)CapSense_senseClkDividerVal[sensor]);
1393:Generated_Source\PSoC4/CapSense.c ****     #else
1394:Generated_Source\PSoC4/CapSense.c ****         CapSense_SampleClk_SetDividerValue((uint16)CapSense_sampleClkDividerVal);
1395:Generated_Source\PSoC4/CapSense.c ****         CapSense_SenseClk_SetDividerValue((uint16)CapSense_senseClkDividerVal);
1396:Generated_Source\PSoC4/CapSense.c ****     #endif /* (0u != CapSense_MULTIPLE_FREQUENCY_SET) */
1397:Generated_Source\PSoC4/CapSense.c **** 
1398:Generated_Source\PSoC4/CapSense.c ****     #if (0u != CapSense_IS_M0S8PERI_BLOCK)
1399:Generated_Source\PSoC4/CapSense.c ****         CapSense_SampleClk_Start();
1400:Generated_Source\PSoC4/CapSense.c ****         CapSense_SenseClk_StartEx(CapSense_SampleClk__DIV_ID);
1401:Generated_Source\PSoC4/CapSense.c **** 
1402:Generated_Source\PSoC4/CapSense.c ****         #if(CapSense_PRS_OPTIONS == CapSense__PRS_NONE)
1403:Generated_Source\PSoC4/CapSense.c ****             CyIntDisable(CapSense_ISR_NUMBER);
1404:Generated_Source\PSoC4/CapSense.c ****             CapSense_CSD_CNT_REG = CapSense_ONE_CYCLE;
1405:Generated_Source\PSoC4/CapSense.c ****             while(0u != (CapSense_CSD_CNT_REG & CapSense_RESOLUTION_16_BITS))
1406:Generated_Source\PSoC4/CapSense.c ****             {
1407:Generated_Source\PSoC4/CapSense.c ****             /* Wait until scanning is complete */
1408:Generated_Source\PSoC4/CapSense.c ****             }
1409:Generated_Source\PSoC4/CapSense.c ****             CapSense_CSD_INTR_REG = 1u;
1410:Generated_Source\PSoC4/CapSense.c ****             CyIntClearPending(CapSense_ISR_NUMBER);
1411:Generated_Source\PSoC4/CapSense.c ****             CyIntEnable(CapSense_ISR_NUMBER);
1412:Generated_Source\PSoC4/CapSense.c ****         #endif /* CapSense_PRS_OPTIONS == CapSense__PRS_NONE */
1413:Generated_Source\PSoC4/CapSense.c ****     #endif /* (0u != CapSense_IS_M0S8PERI_BLOCK) */
1414:Generated_Source\PSoC4/CapSense.c **** 
1415:Generated_Source\PSoC4/CapSense.c **** #if(CapSense_PRS_OPTIONS != CapSense__PRS_NONE)
1416:Generated_Source\PSoC4/CapSense.c **** 
1417:Generated_Source\PSoC4/CapSense.c ****     #if(CapSense_TUNING_METHOD == CapSense__TUNING_AUTO)
1418:Generated_Source\PSoC4/CapSense.c ****         if(CapSense_prescalersTuningDone != 0u)
1419:Generated_Source\PSoC4/CapSense.c ****         {
1420:Generated_Source\PSoC4/CapSense.c ****     #endif /* (CapSense_TUNING_METHOD == CapSense__TUNING_AUTO) */
1421:Generated_Source\PSoC4/CapSense.c **** 
1422:Generated_Source\PSoC4/CapSense.c ****             CyIntDisable(CapSense_ISR_NUMBER);
1423:Generated_Source\PSoC4/CapSense.c **** 
1424:Generated_Source\PSoC4/CapSense.c ****             newRegValue = CapSense_CSD_CFG_REG;
1425:Generated_Source\PSoC4/CapSense.c ****             newRegValue |= CapSense_CSD_CFG_PRS_SELECT;
1426:Generated_Source\PSoC4/CapSense.c **** 
1427:Generated_Source\PSoC4/CapSense.c ****             #if(CapSense_PRS_OPTIONS == CapSense__PRS_AUTO)
1428:Generated_Source\PSoC4/CapSense.c **** 
1429:Generated_Source\PSoC4/CapSense.c ****                 newRegValue &= ~(CapSense_PRS_MODE_MASK);
1430:Generated_Source\PSoC4/CapSense.c **** 
1431:Generated_Source\PSoC4/CapSense.c ****                 #if (0u != CapSense_MULTIPLE_FREQUENCY_SET)
1432:Generated_Source\PSoC4/CapSense.c ****                     senseClkDivMath = CapSense_senseClkDividerVal[sensor];
ARM GAS  C:\Users\young\AppData\Local\Temp\ccoFnsFE.s 			page 29


1433:Generated_Source\PSoC4/CapSense.c ****                     sampleClkDivMath = CapSense_sampleClkDividerVal[sensor];
1434:Generated_Source\PSoC4/CapSense.c ****                 #else
1435:Generated_Source\PSoC4/CapSense.c ****                     senseClkDivMath = CapSense_senseClkDividerVal;
1436:Generated_Source\PSoC4/CapSense.c ****                     sampleClkDivMath = CapSense_sampleClkDividerVal;
1437:Generated_Source\PSoC4/CapSense.c ****                 #endif /* ( CapSense_MULTIPLE_FREQUENCY_SET) */
1438:Generated_Source\PSoC4/CapSense.c **** 
1439:Generated_Source\PSoC4/CapSense.c ****                 #if(0u == CapSense_IS_M0S8PERI_BLOCK)
1440:Generated_Source\PSoC4/CapSense.c ****                     senseClkDivMath *= sampleClkDivMath;
1441:Generated_Source\PSoC4/CapSense.c ****                 #endif /* (0u == CapSense_IS_M0S8PERI_BLOCK) */
1442:Generated_Source\PSoC4/CapSense.c **** 
1443:Generated_Source\PSoC4/CapSense.c ****                 if((senseClkDivMath * CapSense_RESOLUTION_12_BITS) <
1444:Generated_Source\PSoC4/CapSense.c ****                    (sampleClkDivMath * CapSense_widgetResolution[widget]))
1445:Generated_Source\PSoC4/CapSense.c ****                 {
1446:Generated_Source\PSoC4/CapSense.c ****                     newRegValue |= CapSense_CSD_PRS_12_BIT;
1447:Generated_Source\PSoC4/CapSense.c ****                 }
1448:Generated_Source\PSoC4/CapSense.c ****             #endif /* (CapSense_PRS_OPTIONS == CapSense__PRS_AUTO) */
1449:Generated_Source\PSoC4/CapSense.c **** 
1450:Generated_Source\PSoC4/CapSense.c ****             CapSense_CSD_CFG_REG = newRegValue;
1451:Generated_Source\PSoC4/CapSense.c **** 
1452:Generated_Source\PSoC4/CapSense.c ****             CyIntEnable(CapSense_ISR_NUMBER);
1453:Generated_Source\PSoC4/CapSense.c **** 
1454:Generated_Source\PSoC4/CapSense.c ****     #if(CapSense_TUNING_METHOD == CapSense__TUNING_AUTO)
1455:Generated_Source\PSoC4/CapSense.c ****         }
1456:Generated_Source\PSoC4/CapSense.c ****     #endif /* (CapSense_PRS_OPTIONS != CapSense__PRS_NONE) */
1457:Generated_Source\PSoC4/CapSense.c **** 
1458:Generated_Source\PSoC4/CapSense.c **** #endif /* (CapSense_PRS_OPTIONS == CapSense__PRS_NONE) */
1459:Generated_Source\PSoC4/CapSense.c **** 
1460:Generated_Source\PSoC4/CapSense.c ****     /* Set Idac Value */
1461:Generated_Source\PSoC4/CapSense.c ****     CyIntDisable(CapSense_ISR_NUMBER);
1462:Generated_Source\PSoC4/CapSense.c ****     newRegValue = CapSense_CSD_IDAC_REG;
1463:Generated_Source\PSoC4/CapSense.c **** 
1464:Generated_Source\PSoC4/CapSense.c **** #if (CapSense_IDAC_CNT == 1u)
1465:Generated_Source\PSoC4/CapSense.c ****     newRegValue &= ~(CapSense_CSD_IDAC1_DATA_MASK);
1466:Generated_Source\PSoC4/CapSense.c ****     newRegValue |= CapSense_modulationIDAC[sensor];
1467:Generated_Source\PSoC4/CapSense.c **** #else
1468:Generated_Source\PSoC4/CapSense.c ****     newRegValue &= ~(CapSense_CSD_IDAC1_DATA_MASK | CapSense_CSD_IDAC2_DATA_MASK);
1469:Generated_Source\PSoC4/CapSense.c ****     newRegValue |= (CapSense_modulationIDAC[sensor] |
1470:Generated_Source\PSoC4/CapSense.c ****                             (uint32)((uint32)CapSense_compensationIDAC[sensor] <<
1471:Generated_Source\PSoC4/CapSense.c ****                             CapSense_CSD_IDAC2_DATA_OFFSET));
1472:Generated_Source\PSoC4/CapSense.c **** #endif /* (CapSense_IDAC_CNT == 1u) */
1473:Generated_Source\PSoC4/CapSense.c **** 
1474:Generated_Source\PSoC4/CapSense.c ****     CapSense_CSD_IDAC_REG = newRegValue;
1475:Generated_Source\PSoC4/CapSense.c **** 
1476:Generated_Source\PSoC4/CapSense.c **** #if(CapSense_CMOD_PREGARGE_OPTION == CapSense__CAPPRIOBUF)
1477:Generated_Source\PSoC4/CapSense.c ****     newRegValue = CapSense_CMOD_CONNECTION_REG;
1478:Generated_Source\PSoC4/CapSense.c ****     newRegValue &= ~(CapSense_CSD_CMOD_CONNECTION_MASK);
1479:Generated_Source\PSoC4/CapSense.c ****     newRegValue |= CapSense_CSD_CMOD_TO_AMUXBUS_A;
1480:Generated_Source\PSoC4/CapSense.c ****     CapSense_CMOD_CONNECTION_REG = newRegValue;
1481:Generated_Source\PSoC4/CapSense.c **** 
1482:Generated_Source\PSoC4/CapSense.c ****     newRegValue = CapSense_CMOD_PORT_PC_REG;
1483:Generated_Source\PSoC4/CapSense.c ****     newRegValue &= ~(CapSense_CSD_CMOD_PC_MASK);
1484:Generated_Source\PSoC4/CapSense.c ****     newRegValue |= CapSense_CMOD_PC_HIGH_Z_MODE;
1485:Generated_Source\PSoC4/CapSense.c ****     CapSense_CMOD_PORT_PC_REG = newRegValue;
1486:Generated_Source\PSoC4/CapSense.c **** #endif /* (CapSense_CMOD_PREGARGE_OPTION == CapSense__CAPPRIOBUF) */
1487:Generated_Source\PSoC4/CapSense.c **** 
1488:Generated_Source\PSoC4/CapSense.c ****     /* Disconnect Vref Buffer from AMUX */
1489:Generated_Source\PSoC4/CapSense.c ****     newRegValue = CapSense_CSD_CFG_REG;
ARM GAS  C:\Users\young\AppData\Local\Temp\ccoFnsFE.s 			page 30


1490:Generated_Source\PSoC4/CapSense.c ****     newRegValue &= ~(CapSense_PRECHARGE_CONFIG_MASK);
1491:Generated_Source\PSoC4/CapSense.c ****     newRegValue |= CapSense_CTANK_PRECHARGE_CONFIG;
1492:Generated_Source\PSoC4/CapSense.c **** 
1493:Generated_Source\PSoC4/CapSense.c ****     CyIntEnable(CapSense_ISR_NUMBER);
1494:Generated_Source\PSoC4/CapSense.c **** 
1495:Generated_Source\PSoC4/CapSense.c ****     /* Enable Sensor */
1496:Generated_Source\PSoC4/CapSense.c ****     CapSense_EnableScanSlot(sensor);
1497:Generated_Source\PSoC4/CapSense.c **** 
1498:Generated_Source\PSoC4/CapSense.c ****     interruptState = CyEnterCriticalSection();
1499:Generated_Source\PSoC4/CapSense.c ****     CapSense_CSD_CFG_REG = newRegValue;
1500:Generated_Source\PSoC4/CapSense.c **** 
1501:Generated_Source\PSoC4/CapSense.c ****     /* `#START CapSense_PreSettlingDelay_Debug` */
1502:Generated_Source\PSoC4/CapSense.c **** 
1503:Generated_Source\PSoC4/CapSense.c ****     /* `#END` */
1504:Generated_Source\PSoC4/CapSense.c **** 
1505:Generated_Source\PSoC4/CapSense.c **** #ifdef CapSense_PRE_SCAN_PRE_SETTLING_DELAY_DEBUG_CALLBACK
1506:Generated_Source\PSoC4/CapSense.c ****     CapSense_PreScan_Pre_SettlingDelay_Debug_Callback();
1507:Generated_Source\PSoC4/CapSense.c **** #endif /* CapSense_PRE_SCAN_PRE_SETTLING_DELAY_DEBUG_CALLBACK */
1508:Generated_Source\PSoC4/CapSense.c **** 
1509:Generated_Source\PSoC4/CapSense.c ****     CyDelayCycles(CapSense_GLITCH_ELIMINATION_CYCLES);
1510:Generated_Source\PSoC4/CapSense.c **** 
1511:Generated_Source\PSoC4/CapSense.c ****     /* `#START CapSense_PreScan_Debug` */
1512:Generated_Source\PSoC4/CapSense.c **** 
1513:Generated_Source\PSoC4/CapSense.c ****     /* `#END` */
1514:Generated_Source\PSoC4/CapSense.c **** 
1515:Generated_Source\PSoC4/CapSense.c **** #ifdef CapSense_PRE_SCAN_DEBUG_CALLBACK
1516:Generated_Source\PSoC4/CapSense.c ****     CapSense_PreScan_Debug_Callback();
1517:Generated_Source\PSoC4/CapSense.c **** #endif /* CapSense_PRE_SCAN_DEBUG_CALLBACK */
1518:Generated_Source\PSoC4/CapSense.c **** 
1519:Generated_Source\PSoC4/CapSense.c ****     CapSense_CSD_CNT_REG = counterResolution;
1520:Generated_Source\PSoC4/CapSense.c ****     CyExitCriticalSection(interruptState);
1521:Generated_Source\PSoC4/CapSense.c **** }
1522:Generated_Source\PSoC4/CapSense.c **** 
1523:Generated_Source\PSoC4/CapSense.c **** 
1524:Generated_Source\PSoC4/CapSense.c **** /*******************************************************************************
1525:Generated_Source\PSoC4/CapSense.c **** * Function Name: CapSense_PostScan
1526:Generated_Source\PSoC4/CapSense.c **** ********************************************************************************
1527:Generated_Source\PSoC4/CapSense.c **** *
1528:Generated_Source\PSoC4/CapSense.c **** * Summary:
1529:Generated_Source\PSoC4/CapSense.c **** *  Stores the results of measurement in the CapSense_sensorRaw[] array,
1530:Generated_Source\PSoC4/CapSense.c **** *  sets the scanning sensor in the non-sampling state, turns off Idac(Current Source IDAC),
1531:Generated_Source\PSoC4/CapSense.c **** *  disconnects the IDAC(Sink mode), and applies Vref on AMUX.
1532:Generated_Source\PSoC4/CapSense.c **** *
1533:Generated_Source\PSoC4/CapSense.c **** * Parameters:
1534:Generated_Source\PSoC4/CapSense.c **** *  sensor:  Sensor number.
1535:Generated_Source\PSoC4/CapSense.c **** *
1536:Generated_Source\PSoC4/CapSense.c **** * Return:
1537:Generated_Source\PSoC4/CapSense.c **** *  None
1538:Generated_Source\PSoC4/CapSense.c **** *
1539:Generated_Source\PSoC4/CapSense.c **** * Global Variables:
1540:Generated_Source\PSoC4/CapSense.c **** *  CapSense_sensorRaw[] - used to store sensors raw data.
1541:Generated_Source\PSoC4/CapSense.c **** *
1542:Generated_Source\PSoC4/CapSense.c **** * Side Effects:
1543:Generated_Source\PSoC4/CapSense.c **** *  None
1544:Generated_Source\PSoC4/CapSense.c **** *
1545:Generated_Source\PSoC4/CapSense.c **** *******************************************************************************/
1546:Generated_Source\PSoC4/CapSense.c **** void CapSense_PostScan(uint32 sensor)
ARM GAS  C:\Users\young\AppData\Local\Temp\ccoFnsFE.s 			page 31


1547:Generated_Source\PSoC4/CapSense.c **** {
1548:Generated_Source\PSoC4/CapSense.c ****     uint32 newRegValue;
1549:Generated_Source\PSoC4/CapSense.c **** #if ((CapSense_TUNING_METHOD == CapSense__TUNING_AUTO) &&\
1550:Generated_Source\PSoC4/CapSense.c ****      (0 != CapSense_IS_OVERSAMPLING_EN))
1551:Generated_Source\PSoC4/CapSense.c ****     uint32 oversamplingFactor;
1552:Generated_Source\PSoC4/CapSense.c ****     uint32 widget;
1553:Generated_Source\PSoC4/CapSense.c **** #endif /* ((CapSense_TUNING_METHOD == CapSense__TUNING_AUTO) &&\
1554:Generated_Source\PSoC4/CapSense.c ****            (0 != CapSense_IS_OVERSAMPLING_EN)) */
1555:Generated_Source\PSoC4/CapSense.c **** 
1556:Generated_Source\PSoC4/CapSense.c ****     /* `#START CapSense_PostScan_Debug` */
1557:Generated_Source\PSoC4/CapSense.c **** 
1558:Generated_Source\PSoC4/CapSense.c ****     /* `#END` */
1559:Generated_Source\PSoC4/CapSense.c **** 
1560:Generated_Source\PSoC4/CapSense.c **** #ifdef CapSense_POST_SCAN_DEBUG_CALLBACK
1561:Generated_Source\PSoC4/CapSense.c ****     CapSense_PostScan_Debug_Callback();
1562:Generated_Source\PSoC4/CapSense.c **** #endif /* CapSense_POST_SCAN_DEBUG_Callback */
1563:Generated_Source\PSoC4/CapSense.c **** 
1564:Generated_Source\PSoC4/CapSense.c ****     /* Read SlotResult from Raw Counter */
1565:Generated_Source\PSoC4/CapSense.c ****     CapSense_sensorRaw[sensor]  = (uint16)CapSense_CSD_CNT_REG;
1566:Generated_Source\PSoC4/CapSense.c **** 
1567:Generated_Source\PSoC4/CapSense.c **** #if ((CapSense_TUNING_METHOD == CapSense__TUNING_AUTO) &&\
1568:Generated_Source\PSoC4/CapSense.c ****      (0 != CapSense_IS_OVERSAMPLING_EN))
1569:Generated_Source\PSoC4/CapSense.c ****     widget = CapSense_widgetNumber[sensor];
1570:Generated_Source\PSoC4/CapSense.c ****     if(CapSense_widgetResolution[widget] < CapSense_RESOLUTION_16_BITS)
1571:Generated_Source\PSoC4/CapSense.c ****     {
1572:Generated_Source\PSoC4/CapSense.c ****         oversamplingFactor = CapSense_GetBitValue(CapSense_scanSpeedTbl, sensor);
1573:Generated_Source\PSoC4/CapSense.c ****         CapSense_sensorRaw[sensor] >>= oversamplingFactor;
1574:Generated_Source\PSoC4/CapSense.c ****     }
1575:Generated_Source\PSoC4/CapSense.c **** #endif /* ((CapSense_TUNING_METHOD == CapSense__TUNING_AUTO) &&\
1576:Generated_Source\PSoC4/CapSense.c ****            (0 != CapSense_IS_OVERSAMPLING_EN)) */
1577:Generated_Source\PSoC4/CapSense.c **** 
1578:Generated_Source\PSoC4/CapSense.c ****     /* Disable Sensor */
1579:Generated_Source\PSoC4/CapSense.c ****     CapSense_DisableScanSlot(sensor);
1580:Generated_Source\PSoC4/CapSense.c **** 
1581:Generated_Source\PSoC4/CapSense.c ****     CyIntDisable(CapSense_ISR_NUMBER);
1582:Generated_Source\PSoC4/CapSense.c **** 
1583:Generated_Source\PSoC4/CapSense.c **** #if(CapSense_CMOD_PREGARGE_OPTION == CapSense__CAPPRIOBUF)
1584:Generated_Source\PSoC4/CapSense.c ****     newRegValue = CapSense_CMOD_CONNECTION_REG;
1585:Generated_Source\PSoC4/CapSense.c ****     newRegValue &= ~(CapSense_CSD_CMOD_CONNECTION_MASK);
1586:Generated_Source\PSoC4/CapSense.c ****     newRegValue |= CapSense_CSD_CMOD_TO_AMUXBUS_B;
1587:Generated_Source\PSoC4/CapSense.c ****     CapSense_CMOD_CONNECTION_REG = newRegValue;
1588:Generated_Source\PSoC4/CapSense.c **** 
1589:Generated_Source\PSoC4/CapSense.c ****     newRegValue = CapSense_CMOD_PORT_PC_REG;
1590:Generated_Source\PSoC4/CapSense.c ****     newRegValue &= ~(CapSense_CSD_CMOD_PC_MASK);
1591:Generated_Source\PSoC4/CapSense.c ****     newRegValue |= CapSense_CMOD_PC_STRONG_MODE;
1592:Generated_Source\PSoC4/CapSense.c ****     CapSense_CMOD_PORT_PC_REG = newRegValue;
1593:Generated_Source\PSoC4/CapSense.c **** 
1594:Generated_Source\PSoC4/CapSense.c ****     newRegValue = CapSense_CMOD_PORT_DR_REG;
1595:Generated_Source\PSoC4/CapSense.c ****     newRegValue &= ~(CapSense_CMOD_DR_MASK);
1596:Generated_Source\PSoC4/CapSense.c ****     newRegValue |= CapSense_CMOD_DR_CONFIG;
1597:Generated_Source\PSoC4/CapSense.c ****     CapSense_CMOD_PORT_DR_REG = newRegValue;
1598:Generated_Source\PSoC4/CapSense.c **** #endif /* (CapSense_CMOD_PREGARGE_OPTION == CapSense__CAPPRIOBUF) */
1599:Generated_Source\PSoC4/CapSense.c **** 
1600:Generated_Source\PSoC4/CapSense.c ****     /* Connect Vref Buffer to AMUX bus  */
1601:Generated_Source\PSoC4/CapSense.c ****     newRegValue = CapSense_CSD_CFG_REG;
1602:Generated_Source\PSoC4/CapSense.c ****     newRegValue &= ~(CapSense_PRECHARGE_CONFIG_MASK);
1603:Generated_Source\PSoC4/CapSense.c ****     newRegValue |= CapSense_CMOD_PRECHARGE_CONFIG;
ARM GAS  C:\Users\young\AppData\Local\Temp\ccoFnsFE.s 			page 32


1604:Generated_Source\PSoC4/CapSense.c ****     CapSense_CSD_CFG_REG = newRegValue;
1605:Generated_Source\PSoC4/CapSense.c **** 
1606:Generated_Source\PSoC4/CapSense.c ****     /* Set Idac Value = 0 */
1607:Generated_Source\PSoC4/CapSense.c **** #if (CapSense_IDAC_CNT == 1u)
1608:Generated_Source\PSoC4/CapSense.c ****     CapSense_CSD_IDAC_REG &= ~(CapSense_CSD_IDAC1_DATA_MASK);
1609:Generated_Source\PSoC4/CapSense.c **** #else
1610:Generated_Source\PSoC4/CapSense.c ****     CapSense_CSD_IDAC_REG &= ~(CapSense_CSD_IDAC1_DATA_MASK | CapSense_CSD_IDAC2_DATA_MASK);
1611:Generated_Source\PSoC4/CapSense.c **** #endif /* (CapSense_IDAC_CNT == 1u) */
1612:Generated_Source\PSoC4/CapSense.c **** 
1613:Generated_Source\PSoC4/CapSense.c ****     CyIntEnable(CapSense_ISR_NUMBER);
1614:Generated_Source\PSoC4/CapSense.c **** }
1615:Generated_Source\PSoC4/CapSense.c **** 
1616:Generated_Source\PSoC4/CapSense.c **** 
1617:Generated_Source\PSoC4/CapSense.c **** /*******************************************************************************
1618:Generated_Source\PSoC4/CapSense.c **** * Function Name: CapSense_EnableShieldElectrode
1619:Generated_Source\PSoC4/CapSense.c **** ********************************************************************************
1620:Generated_Source\PSoC4/CapSense.c **** *
1621:Generated_Source\PSoC4/CapSense.c **** * Summary:
1622:Generated_Source\PSoC4/CapSense.c **** *  This API enables or disables the shield electrode on a specified port pin.
1623:Generated_Source\PSoC4/CapSense.c **** *
1624:Generated_Source\PSoC4/CapSense.c **** * Parameters:
1625:Generated_Source\PSoC4/CapSense.c **** *  portNumber: contains the shield electrode port number (0, 1, 2).
1626:Generated_Source\PSoC4/CapSense.c **** *  pinNumber: contains the shield electrode pin number (0, 1, 2, ... , 7).
1627:Generated_Source\PSoC4/CapSense.c **** *
1628:Generated_Source\PSoC4/CapSense.c **** * Return:
1629:Generated_Source\PSoC4/CapSense.c **** *  None
1630:Generated_Source\PSoC4/CapSense.c **** *
1631:Generated_Source\PSoC4/CapSense.c **** * Global Variables:
1632:Generated_Source\PSoC4/CapSense.c **** *  CapSense_prtCfgTbl[] - Contains pointers to the port config registers for each port.
1633:Generated_Source\PSoC4/CapSense.c **** *  CapSense_prtSelTbl[] - Contains pointers to the HSIOM registers for each port.
1634:Generated_Source\PSoC4/CapSense.c **** *
1635:Generated_Source\PSoC4/CapSense.c **** * Side Effects:
1636:Generated_Source\PSoC4/CapSense.c **** *  None
1637:Generated_Source\PSoC4/CapSense.c **** *
1638:Generated_Source\PSoC4/CapSense.c **** *******************************************************************************/
1639:Generated_Source\PSoC4/CapSense.c **** void CapSense_EnableShieldElectrode(uint32 pinNumber, uint32 portNumber)
1640:Generated_Source\PSoC4/CapSense.c **** {
1641:Generated_Source\PSoC4/CapSense.c ****     uint32 newRegValue;
1642:Generated_Source\PSoC4/CapSense.c **** 
1643:Generated_Source\PSoC4/CapSense.c ****     *CapSense_prtCfgTbl[portNumber] &= ~(CapSense_CSD_PIN_MODE_MASK << (pinNumber * CapSense_PC_PIN
1644:Generated_Source\PSoC4/CapSense.c ****     newRegValue = *CapSense_prtSelTbl[portNumber];
1645:Generated_Source\PSoC4/CapSense.c ****     newRegValue &= ~(CapSense_CSD_HSIOM_MASK << (pinNumber * CapSense_HSIOM_PIN_CFG_SIZE));
1646:Generated_Source\PSoC4/CapSense.c ****     newRegValue |= (CapSense_CSD_SHIELD_PORT_MODE << (pinNumber * CapSense_HSIOM_PIN_CFG_SIZE));
1647:Generated_Source\PSoC4/CapSense.c ****     *CapSense_prtSelTbl[portNumber] = newRegValue;
1648:Generated_Source\PSoC4/CapSense.c **** }
1649:Generated_Source\PSoC4/CapSense.c **** 
1650:Generated_Source\PSoC4/CapSense.c **** 
1651:Generated_Source\PSoC4/CapSense.c **** /*******************************************************************************
1652:Generated_Source\PSoC4/CapSense.c **** * Function Name: CapSense_SetShieldDelay
1653:Generated_Source\PSoC4/CapSense.c **** ********************************************************************************
1654:Generated_Source\PSoC4/CapSense.c **** *
1655:Generated_Source\PSoC4/CapSense.c **** * Summary:
1656:Generated_Source\PSoC4/CapSense.c **** *  This API sets a shield delay.
1657:Generated_Source\PSoC4/CapSense.c **** *
1658:Generated_Source\PSoC4/CapSense.c **** * Parameters:
1659:Generated_Source\PSoC4/CapSense.c **** *  delay:  shield delay value:
1660:Generated_Source\PSoC4/CapSense.c **** *                               0 - no delay
ARM GAS  C:\Users\young\AppData\Local\Temp\ccoFnsFE.s 			page 33


1661:Generated_Source\PSoC4/CapSense.c **** *                               1 - 1 cycle delay
1662:Generated_Source\PSoC4/CapSense.c **** *                               2 - 2 cycles delay
1663:Generated_Source\PSoC4/CapSense.c **** *
1664:Generated_Source\PSoC4/CapSense.c **** * Return:
1665:Generated_Source\PSoC4/CapSense.c **** *  None
1666:Generated_Source\PSoC4/CapSense.c **** *
1667:Generated_Source\PSoC4/CapSense.c **** * Global Variables:
1668:Generated_Source\PSoC4/CapSense.c **** *  None
1669:Generated_Source\PSoC4/CapSense.c **** *
1670:Generated_Source\PSoC4/CapSense.c **** * Side Effects:
1671:Generated_Source\PSoC4/CapSense.c **** *  None
1672:Generated_Source\PSoC4/CapSense.c **** *
1673:Generated_Source\PSoC4/CapSense.c **** *******************************************************************************/
1674:Generated_Source\PSoC4/CapSense.c **** void CapSense_SetShieldDelay(uint32 delay)
1675:Generated_Source\PSoC4/CapSense.c **** {
1676:Generated_Source\PSoC4/CapSense.c ****     uint32 newRegValue;
1677:Generated_Source\PSoC4/CapSense.c **** 
1678:Generated_Source\PSoC4/CapSense.c ****     delay &= 0x03u;
1679:Generated_Source\PSoC4/CapSense.c **** 
1680:Generated_Source\PSoC4/CapSense.c ****     newRegValue = CapSense_CSD_CFG_REG;
 145              		.loc 1 1680 0
 146 0068 2368     		ldr	r3, [r4]
 147              	.LVL15:
1681:Generated_Source\PSoC4/CapSense.c ****     newRegValue &= (uint32)(~(uint32)CapSense_SHIELD_DELAY);
1682:Generated_Source\PSoC4/CapSense.c ****     newRegValue |= (delay << CapSense_CSD_CFG_SHIELD_DELAY_POS);
1683:Generated_Source\PSoC4/CapSense.c ****     CapSense_CSD_CFG_REG = newRegValue;
 148              		.loc 1 1683 0
 149 006a 2C49     		ldr	r1, .L7+44
 150 006c 2360     		str	r3, [r4]
 151              	.LVL16:
 152 006e 2C4B     		ldr	r3, .L7+48
 153              	.LVL17:
 154 0070 9946     		mov	r9, r3
 155 0072 2C4B     		ldr	r3, .L7+52
 156 0074 9846     		mov	r8, r3
 157 0076 2C4B     		ldr	r3, .L7+56
 158 0078 9A46     		mov	r10, r3
 159 007a 1FE0     		b	.L5
 160              	.LVL18:
 161              	.L3:
 162              	.LBE52:
 163              	.LBE51:
 164              	.LBB53:
 165              	.LBB49:
 166              	.LBB43:
 167              	.LBB44:
1141:Generated_Source\PSoC4/CapSense.c **** 
 168              		.loc 1 1141 0
 169 007c FFF7FEFF 		bl	CyEnterCriticalSection
 170              	.LVL19:
1145:Generated_Source\PSoC4/CapSense.c ****         newRegisterValue |=  (uint32)(inactiveConnect << pinModeShift);
 171              		.loc 1 1145 0
 172 0080 0722     		movs	r2, #7
1144:Generated_Source\PSoC4/CapSense.c ****         newRegisterValue &= ~(CapSense_CSD_PIN_MODE_MASK << pinModeShift);
 173              		.loc 1 1144 0
 174 0082 4346     		mov	r3, r8
1145:Generated_Source\PSoC4/CapSense.c ****         newRegisterValue |=  (uint32)(inactiveConnect << pinModeShift);
ARM GAS  C:\Users\young\AppData\Local\Temp\ccoFnsFE.s 			page 34


 175              		.loc 1 1145 0
 176 0084 A240     		lsls	r2, r2, r4
1144:Generated_Source\PSoC4/CapSense.c ****         newRegisterValue &= ~(CapSense_CSD_PIN_MODE_MASK << pinModeShift);
 177              		.loc 1 1144 0
 178 0086 1B68     		ldr	r3, [r3]
 179              	.LVL20:
 180              	.LBE44:
 181              	.LBE43:
 904:Generated_Source\PSoC4/CapSense.c ****     {
 182              		.loc 1 904 0
 183 0088 0135     		adds	r5, r5, #1
 184              	.LVL21:
 185              	.LBB47:
 186              	.LBB45:
1145:Generated_Source\PSoC4/CapSense.c ****         newRegisterValue |=  (uint32)(inactiveConnect << pinModeShift);
 187              		.loc 1 1145 0
 188 008a 9343     		bics	r3, r2
 189              	.LVL22:
1146:Generated_Source\PSoC4/CapSense.c ****         *CapSense_prtCfgTbl[port] =  newRegisterValue;
 190              		.loc 1 1146 0
 191 008c 1F43     		orrs	r7, r3
 192              	.LVL23:
1147:Generated_Source\PSoC4/CapSense.c **** 
 193              		.loc 1 1147 0
 194 008e 4346     		mov	r3, r8
 195 0090 1F60     		str	r7, [r3]
1149:Generated_Source\PSoC4/CapSense.c **** 
 196              		.loc 1 1149 0
 197 0092 FFF7FEFF 		bl	CyExitCriticalSection
 198              	.LVL24:
1151:Generated_Source\PSoC4/CapSense.c ****     #if(CapSense_IS_SHIELD_ENABLE != 0)
 199              		.loc 1 1151 0
 200 0096 0122     		movs	r2, #1
 201 0098 4B46     		mov	r3, r9
 202 009a B240     		lsls	r2, r2, r6
 203 009c 1B68     		ldr	r3, [r3]
 204 009e 9343     		bics	r3, r2
 205 00a0 4A46     		mov	r2, r9
 206 00a2 1360     		str	r3, [r2]
 207              	.LVL25:
 208              	.LBE45:
 209              	.LBE47:
 904:Generated_Source\PSoC4/CapSense.c ****     {
 210              		.loc 1 904 0
 211 00a4 062D     		cmp	r5, #6
 212 00a6 1DD0     		beq	.L1
 213 00a8 5346     		mov	r3, r10
 214 00aa 0833     		adds	r3, r3, #8
 215 00ac EB5C     		ldrb	r3, [r5, r3]
 216 00ae 9B00     		lsls	r3, r3, #2
 217 00b0 5344     		add	r3, r3, r10
 218 00b2 1A6A     		ldr	r2, [r3, #32]
 219 00b4 1969     		ldr	r1, [r3, #16]
 220 00b6 1B6B     		ldr	r3, [r3, #48]
 221 00b8 9046     		mov	r8, r2
 222 00ba 9946     		mov	r9, r3
 223              	.LVL26:
ARM GAS  C:\Users\young\AppData\Local\Temp\ccoFnsFE.s 			page 35


 224              	.L5:
 225              	.LBB48:
 226              	.LBB46:
1117:Generated_Source\PSoC4/CapSense.c ****     uint8  pinModeShift = CapSense_pinShiftTbl[sensor]  * CapSense_PC_PIN_CFG_SIZE;
 227              		.loc 1 1117 0
 228 00bc 5346     		mov	r3, r10
1123:Generated_Source\PSoC4/CapSense.c **** 
 229              		.loc 1 1123 0
 230 00be 0F27     		movs	r7, #15
1117:Generated_Source\PSoC4/CapSense.c ****     uint8  pinModeShift = CapSense_pinShiftTbl[sensor]  * CapSense_PC_PIN_CFG_SIZE;
 231              		.loc 1 1117 0
 232 00c0 5E5D     		ldrb	r6, [r3, r5]
 233              	.LVL27:
1121:Generated_Source\PSoC4/CapSense.c **** 
 234              		.loc 1 1121 0
 235 00c2 5B46     		mov	r3, fp
1123:Generated_Source\PSoC4/CapSense.c **** 
 236              		.loc 1 1123 0
 237 00c4 B200     		lsls	r2, r6, #2
 238 00c6 D2B2     		uxtb	r2, r2
 239 00c8 9740     		lsls	r7, r7, r2
1121:Generated_Source\PSoC4/CapSense.c **** 
 240              		.loc 1 1121 0
 241 00ca 585D     		ldrb	r0, [r3, r5]
1123:Generated_Source\PSoC4/CapSense.c **** 
 242              		.loc 1 1123 0
 243 00cc 0B68     		ldr	r3, [r1]
1118:Generated_Source\PSoC4/CapSense.c **** 
 244              		.loc 1 1118 0
 245 00ce 7400     		lsls	r4, r6, #1
1123:Generated_Source\PSoC4/CapSense.c **** 
 246              		.loc 1 1123 0
 247 00d0 BB43     		bics	r3, r7
 248 00d2 0627     		movs	r7, #6
1118:Generated_Source\PSoC4/CapSense.c **** 
 249              		.loc 1 1118 0
 250 00d4 3419     		adds	r4, r6, r4
 251 00d6 E4B2     		uxtb	r4, r4
 252              	.LVL28:
1123:Generated_Source\PSoC4/CapSense.c **** 
 253              		.loc 1 1123 0
 254 00d8 0B60     		str	r3, [r1]
 255 00da A740     		lsls	r7, r7, r4
1135:Generated_Source\PSoC4/CapSense.c ****         {
 256              		.loc 1 1135 0
 257 00dc 0128     		cmp	r0, #1
 258 00de CDD1     		bne	.L3
 259 00e0 0027     		movs	r7, #0
 260 00e2 CBE7     		b	.L3
 261              	.LVL29:
 262              	.L1:
 263              	.LBE46:
 264              	.LBE48:
 265              	.LBE49:
 266              	.LBE53:
 223:Generated_Source\PSoC4/CapSense.c **** 
 267              		.loc 1 223 0
ARM GAS  C:\Users\young\AppData\Local\Temp\ccoFnsFE.s 			page 36


 268              		@ sp needed
 269              	.LVL30:
 270 00e4 3CBC     		pop	{r2, r3, r4, r5}
 271 00e6 9046     		mov	r8, r2
 272 00e8 9946     		mov	r9, r3
 273 00ea A246     		mov	r10, r4
 274 00ec AB46     		mov	fp, r5
 275 00ee F8BD     		pop	{r3, r4, r5, r6, r7, pc}
 276              	.L8:
 277              		.align	2
 278              	.L7:
 279 00f0 00000000 		.word	CapSense_unscannedSnsDriveMode
 280 00f4 00FF0840 		.word	1074331392
 281 00f8 00000000 		.word	CapSense_csdTrim1
 282 00fc 62F1FF0F 		.word	268431714
 283 0100 04000840 		.word	1074266116
 284 0104 00020001 		.word	16777728
 285 0108 08000840 		.word	1074266120
 286 010c C008A001 		.word	27265216
 287 0110 00000240 		.word	1073872896
 288 0114 FFFFF0FF 		.word	-983041
 289 0118 00000000 		.word	CapSense_ISR
 290 011c 00010240 		.word	1073873152
 291 0120 00010440 		.word	1074004224
 292 0124 08010440 		.word	1074004232
 293 0128 00000000 		.word	.LANCHOR0
 294              		.cfi_endproc
 295              	.LFE32:
 296              		.size	CapSense_Init, .-CapSense_Init
 297              		.section	.text.CapSense_CsdHwBlockInit,"ax",%progbits
 298              		.align	2
 299              		.global	CapSense_CsdHwBlockInit
 300              		.code	16
 301              		.thumb_func
 302              		.type	CapSense_CsdHwBlockInit, %function
 303              	CapSense_CsdHwBlockInit:
 304              	.LFB33:
 247:Generated_Source\PSoC4/CapSense.c ****     uint32 newRegValue;
 305              		.loc 1 247 0
 306              		.cfi_startproc
 307              		@ args = 0, pretend = 0, frame = 0
 308              		@ frame_needed = 0, uses_anonymous_args = 0
 269:Generated_Source\PSoC4/CapSense.c ****         #if (CapSense_IDAC_CNT == 2u)
 309              		.loc 1 269 0
 310 0000 0F20     		movs	r0, #15
 247:Generated_Source\PSoC4/CapSense.c ****     uint32 newRegValue;
 311              		.loc 1 247 0
 312 0002 10B5     		push	{r4, lr}
 313              		.cfi_def_cfa_offset 8
 314              		.cfi_offset 4, -8
 315              		.cfi_offset 14, -4
 266:Generated_Source\PSoC4/CapSense.c ****         newRegValue = CapSense_csdTrim1;
 316              		.loc 1 266 0
 317 0004 1249     		ldr	r1, .L10
 318 0006 134B     		ldr	r3, .L10+4
 319 0008 0A68     		ldr	r2, [r1]
 320              	.LVL31:
ARM GAS  C:\Users\young\AppData\Local\Temp\ccoFnsFE.s 			page 37


 269:Generated_Source\PSoC4/CapSense.c ****         #if (CapSense_IDAC_CNT == 2u)
 321              		.loc 1 269 0
 322 000a 134C     		ldr	r4, .L10+8
 266:Generated_Source\PSoC4/CapSense.c ****         newRegValue = CapSense_csdTrim1;
 323              		.loc 1 266 0
 324 000c 1A70     		strb	r2, [r3]
 269:Generated_Source\PSoC4/CapSense.c ****         #if (CapSense_IDAC_CNT == 2u)
 325              		.loc 1 269 0
 326 000e 2378     		ldrb	r3, [r4]
 327              	.LVL32:
 308:Generated_Source\PSoC4/CapSense.c **** 
 328              		.loc 1 308 0
 329              		@ sp needed
 272:Generated_Source\PSoC4/CapSense.c ****             newRegValue |= (uint32)((uint32)CapSense_SFLASH_CSD_TRIM1_REG & (uint32)CapSense_CSFLAS
 330              		.loc 1 272 0
 331 0010 0340     		ands	r3, r0
 332              	.LVL33:
 333 0012 1A00     		movs	r2, r3
 334              	.LVL34:
 273:Generated_Source\PSoC4/CapSense.c ****         #endif
 335              		.loc 1 273 0
 336 0014 2378     		ldrb	r3, [r4]
 337 0016 8343     		bics	r3, r0
 338 0018 1343     		orrs	r3, r2
 339              	.LVL35:
 275:Generated_Source\PSoC4/CapSense.c ****     #endif /* (CapSense_IDAC1_POLARITY == CapSense__IDAC_SINK) */
 340              		.loc 1 275 0
 341 001a 0B60     		str	r3, [r1]
 280:Generated_Source\PSoC4/CapSense.c ****         CapSense_CSD_CFG_REG = CapSense_DEFAULT_CSD_CONFIG;
 342              		.loc 1 280 0
 343 001c 0F4A     		ldr	r2, .L10+12
 344 001e 104B     		ldr	r3, .L10+16
 345              	.LVL36:
 303:Generated_Source\PSoC4/CapSense.c ****     #if !defined(CY_EXTERNAL_INTERRUPT_CONFIG)
 346              		.loc 1 303 0
 347 0020 0838     		subs	r0, r0, #8
 280:Generated_Source\PSoC4/CapSense.c ****         CapSense_CSD_CFG_REG = CapSense_DEFAULT_CSD_CONFIG;
 348              		.loc 1 280 0
 349 0022 1A60     		str	r2, [r3]
 350              	.LVL37:
 281:Generated_Source\PSoC4/CapSense.c ****     #else
 351              		.loc 1 281 0
 352 0024 0F4A     		ldr	r2, .L10+20
 353 0026 104B     		ldr	r3, .L10+24
 354 0028 1A60     		str	r2, [r3]
 292:Generated_Source\PSoC4/CapSense.c ****     newRegValue &= ~(CapSense_CSD_CMOD_CONNECTION_MASK);
 355              		.loc 1 292 0
 356 002a 104A     		ldr	r2, .L10+28
 293:Generated_Source\PSoC4/CapSense.c ****     newRegValue |= CapSense_CSD_CMOD_TO_AMUXBUS_A;
 357              		.loc 1 293 0
 358 002c 104B     		ldr	r3, .L10+32
 292:Generated_Source\PSoC4/CapSense.c ****     newRegValue &= ~(CapSense_CSD_CMOD_CONNECTION_MASK);
 359              		.loc 1 292 0
 360 002e 1168     		ldr	r1, [r2]
 361              	.LVL38:
 293:Generated_Source\PSoC4/CapSense.c ****     newRegValue |= CapSense_CSD_CMOD_TO_AMUXBUS_A;
 362              		.loc 1 293 0
ARM GAS  C:\Users\young\AppData\Local\Temp\ccoFnsFE.s 			page 38


 363 0030 0B40     		ands	r3, r1
 364              	.LVL39:
 294:Generated_Source\PSoC4/CapSense.c ****     CapSense_CMOD_CONNECTION_REG = newRegValue;
 365              		.loc 1 294 0
 366 0032 C021     		movs	r1, #192
 367 0034 C902     		lsls	r1, r1, #11
 368 0036 0B43     		orrs	r3, r1
 369              	.LVL40:
 295:Generated_Source\PSoC4/CapSense.c **** 
 370              		.loc 1 295 0
 371 0038 1360     		str	r3, [r2]
 303:Generated_Source\PSoC4/CapSense.c ****     #if !defined(CY_EXTERNAL_INTERRUPT_CONFIG)
 372              		.loc 1 303 0
 373 003a FFF7FEFF 		bl	CyIntDisable
 374              	.LVL41:
 305:Generated_Source\PSoC4/CapSense.c ****         CyIntSetPriority(CapSense_ISR_NUMBER, CapSense_ISR_PRIORITY);
 375              		.loc 1 305 0
 376 003e 0D49     		ldr	r1, .L10+36
 377 0040 0720     		movs	r0, #7
 378 0042 FFF7FEFF 		bl	CyIntSetVector
 379              	.LVL42:
 306:Generated_Source\PSoC4/CapSense.c ****     #endif /* (CY_EXTERNAL_INTERRUPT_CONFIG) */
 380              		.loc 1 306 0
 381 0046 0321     		movs	r1, #3
 382 0048 0720     		movs	r0, #7
 383 004a FFF7FEFF 		bl	CyIntSetPriority
 384              	.LVL43:
 308:Generated_Source\PSoC4/CapSense.c **** 
 385              		.loc 1 308 0
 386 004e 10BD     		pop	{r4, pc}
 387              	.L11:
 388              		.align	2
 389              	.L10:
 390 0050 00FF0840 		.word	1074331392
 391 0054 00000000 		.word	CapSense_csdTrim1
 392 0058 62F1FF0F 		.word	268431714
 393 005c 00020001 		.word	16777728
 394 0060 08000840 		.word	1074266120
 395 0064 C008A001 		.word	27265216
 396 0068 04000840 		.word	1074266116
 397 006c 00000240 		.word	1073872896
 398 0070 FFFFF0FF 		.word	-983041
 399 0074 00000000 		.word	CapSense_ISR
 400              		.cfi_endproc
 401              	.LFE33:
 402              		.size	CapSense_CsdHwBlockInit, .-CapSense_CsdHwBlockInit
 403              		.section	.text.CapSense_Enable,"ax",%progbits
 404              		.align	2
 405              		.global	CapSense_Enable
 406              		.code	16
 407              		.thumb_func
 408              		.type	CapSense_Enable, %function
 409              	CapSense_Enable:
 410              	.LFB34:
 332:Generated_Source\PSoC4/CapSense.c ****     uint32 newRegValue;
 411              		.loc 1 332 0
 412              		.cfi_startproc
ARM GAS  C:\Users\young\AppData\Local\Temp\ccoFnsFE.s 			page 39


 413              		@ args = 0, pretend = 0, frame = 0
 414              		@ frame_needed = 0, uses_anonymous_args = 0
 415 0000 10B5     		push	{r4, lr}
 416              		.cfi_def_cfa_offset 8
 417              		.cfi_offset 4, -8
 418              		.cfi_offset 14, -4
 336:Generated_Source\PSoC4/CapSense.c ****     CapSense_SampleClk_Stop();
 419              		.loc 1 336 0
 420 0002 FFF7FEFF 		bl	CapSense_SenseClk_Stop
 421              	.LVL44:
 337:Generated_Source\PSoC4/CapSense.c **** 
 422              		.loc 1 337 0
 423 0006 FFF7FEFF 		bl	CapSense_SampleClk_Stop
 424              	.LVL45:
 339:Generated_Source\PSoC4/CapSense.c ****     CapSense_SenseClk_SetDividerValue((uint16)CapSense_INITIAL_CLK_DIVIDER);
 425              		.loc 1 339 0
 426 000a 0021     		movs	r1, #0
 427 000c 0020     		movs	r0, #0
 428 000e FFF7FEFF 		bl	CapSense_SampleClk_SetFractionalDividerRegister
 429              	.LVL46:
 340:Generated_Source\PSoC4/CapSense.c **** 
 430              		.loc 1 340 0
 431 0012 0021     		movs	r1, #0
 432 0014 0020     		movs	r0, #0
 433 0016 FFF7FEFF 		bl	CapSense_SenseClk_SetFractionalDividerRegister
 434              	.LVL47:
 346:Generated_Source\PSoC4/CapSense.c ****         CapSense_SenseClk_StartEx(CapSense_SampleClk__DIV_ID);
 435              		.loc 1 346 0
 436 001a FF20     		movs	r0, #255
 437 001c FFF7FEFF 		bl	CapSense_SampleClk_StartEx
 438              	.LVL48:
 347:Generated_Source\PSoC4/CapSense.c ****     #endif /* (0u == CapSense_IS_M0S8PERI_BLOCK) */
 439              		.loc 1 347 0
 440 0020 4020     		movs	r0, #64
 441 0022 FFF7FEFF 		bl	CapSense_SenseClk_StartEx
 442              	.LVL49:
 351:Generated_Source\PSoC4/CapSense.c ****     newRegValue |= (CapSense_CSD_CFG_ENABLE | CapSense_CSD_CFG_SENSE_COMP_EN
 443              		.loc 1 351 0
 444 0026 044A     		ldr	r2, .L13
 352:Generated_Source\PSoC4/CapSense.c ****                                                    | CapSense_CSD_CFG_SENSE_EN);
 445              		.loc 1 352 0
 446 0028 0449     		ldr	r1, .L13+4
 351:Generated_Source\PSoC4/CapSense.c ****     newRegValue |= (CapSense_CSD_CFG_ENABLE | CapSense_CSD_CFG_SENSE_COMP_EN
 447              		.loc 1 351 0
 448 002a 1368     		ldr	r3, [r2]
 449              	.LVL50:
 357:Generated_Source\PSoC4/CapSense.c **** }
 450              		.loc 1 357 0
 451 002c 0720     		movs	r0, #7
 352:Generated_Source\PSoC4/CapSense.c ****                                                    | CapSense_CSD_CFG_SENSE_EN);
 452              		.loc 1 352 0
 453 002e 0B43     		orrs	r3, r1
 454              	.LVL51:
 354:Generated_Source\PSoC4/CapSense.c **** 
 455              		.loc 1 354 0
 456 0030 1360     		str	r3, [r2]
 357:Generated_Source\PSoC4/CapSense.c **** }
ARM GAS  C:\Users\young\AppData\Local\Temp\ccoFnsFE.s 			page 40


 457              		.loc 1 357 0
 458 0032 FFF7FEFF 		bl	CyIntEnable
 459              	.LVL52:
 358:Generated_Source\PSoC4/CapSense.c **** 
 460              		.loc 1 358 0
 461              		@ sp needed
 462 0036 10BD     		pop	{r4, pc}
 463              	.L14:
 464              		.align	2
 465              	.L13:
 466 0038 04000840 		.word	1074266116
 467 003c 00100880 		.word	-2146955264
 468              		.cfi_endproc
 469              	.LFE34:
 470              		.size	CapSense_Enable, .-CapSense_Enable
 471              		.section	.text.CapSense_Start,"ax",%progbits
 472              		.align	2
 473              		.global	CapSense_Start
 474              		.code	16
 475              		.thumb_func
 476              		.type	CapSense_Start, %function
 477              	CapSense_Start:
 478              	.LFB35:
 391:Generated_Source\PSoC4/CapSense.c **** 
 479              		.loc 1 391 0
 480              		.cfi_startproc
 481              		@ args = 0, pretend = 0, frame = 0
 482              		@ frame_needed = 0, uses_anonymous_args = 0
 483 0000 F8B5     		push	{r3, r4, r5, r6, r7, lr}
 484              		.cfi_def_cfa_offset 24
 485              		.cfi_offset 3, -24
 486              		.cfi_offset 4, -20
 487              		.cfi_offset 5, -16
 488              		.cfi_offset 6, -12
 489              		.cfi_offset 7, -8
 490              		.cfi_offset 14, -4
 491 0002 5F46     		mov	r7, fp
 492 0004 5646     		mov	r6, r10
 493 0006 4D46     		mov	r5, r9
 494 0008 4446     		mov	r4, r8
 495 000a F0B4     		push	{r4, r5, r6, r7}
 496              		.cfi_def_cfa_offset 40
 497              		.cfi_offset 8, -40
 498              		.cfi_offset 9, -36
 499              		.cfi_offset 10, -32
 500              		.cfi_offset 11, -28
 401:Generated_Source\PSoC4/CapSense.c ****     {
 501              		.loc 1 401 0
 502 000c 4C4B     		ldr	r3, .L22
 503 000e 1B78     		ldrb	r3, [r3]
 504 0010 002B     		cmp	r3, #0
 505 0012 24D0     		beq	.L21
 506              	.L16:
 507              	.LBB68:
 508              	.LBB69:
 336:Generated_Source\PSoC4/CapSense.c ****     CapSense_SampleClk_Stop();
 509              		.loc 1 336 0
ARM GAS  C:\Users\young\AppData\Local\Temp\ccoFnsFE.s 			page 41


 510 0014 FFF7FEFF 		bl	CapSense_SenseClk_Stop
 511              	.LVL53:
 337:Generated_Source\PSoC4/CapSense.c **** 
 512              		.loc 1 337 0
 513 0018 FFF7FEFF 		bl	CapSense_SampleClk_Stop
 514              	.LVL54:
 339:Generated_Source\PSoC4/CapSense.c ****     CapSense_SenseClk_SetDividerValue((uint16)CapSense_INITIAL_CLK_DIVIDER);
 515              		.loc 1 339 0
 516 001c 0021     		movs	r1, #0
 517 001e 0020     		movs	r0, #0
 518 0020 FFF7FEFF 		bl	CapSense_SampleClk_SetFractionalDividerRegister
 519              	.LVL55:
 340:Generated_Source\PSoC4/CapSense.c **** 
 520              		.loc 1 340 0
 521 0024 0021     		movs	r1, #0
 522 0026 0020     		movs	r0, #0
 523 0028 FFF7FEFF 		bl	CapSense_SenseClk_SetFractionalDividerRegister
 524              	.LVL56:
 351:Generated_Source\PSoC4/CapSense.c ****     newRegValue |= (CapSense_CSD_CFG_ENABLE | CapSense_CSD_CFG_SENSE_COMP_EN
 525              		.loc 1 351 0
 526 002c 454C     		ldr	r4, .L22+4
 346:Generated_Source\PSoC4/CapSense.c ****         CapSense_SenseClk_StartEx(CapSense_SampleClk__DIV_ID);
 527              		.loc 1 346 0
 528 002e FF20     		movs	r0, #255
 529 0030 FFF7FEFF 		bl	CapSense_SampleClk_StartEx
 530              	.LVL57:
 347:Generated_Source\PSoC4/CapSense.c ****     #endif /* (0u == CapSense_IS_M0S8PERI_BLOCK) */
 531              		.loc 1 347 0
 532 0034 4020     		movs	r0, #64
 533 0036 FFF7FEFF 		bl	CapSense_SenseClk_StartEx
 534              	.LVL58:
 351:Generated_Source\PSoC4/CapSense.c ****     newRegValue |= (CapSense_CSD_CFG_ENABLE | CapSense_CSD_CFG_SENSE_COMP_EN
 535              		.loc 1 351 0
 536 003a 2368     		ldr	r3, [r4]
 537              	.LVL59:
 352:Generated_Source\PSoC4/CapSense.c ****                                                    | CapSense_CSD_CFG_SENSE_EN);
 538              		.loc 1 352 0
 539 003c 424A     		ldr	r2, .L22+8
 357:Generated_Source\PSoC4/CapSense.c **** }
 540              		.loc 1 357 0
 541 003e 0720     		movs	r0, #7
 352:Generated_Source\PSoC4/CapSense.c ****                                                    | CapSense_CSD_CFG_SENSE_EN);
 542              		.loc 1 352 0
 543 0040 1343     		orrs	r3, r2
 544              	.LVL60:
 354:Generated_Source\PSoC4/CapSense.c **** 
 545              		.loc 1 354 0
 546 0042 2360     		str	r3, [r4]
 357:Generated_Source\PSoC4/CapSense.c **** }
 547              		.loc 1 357 0
 548 0044 FFF7FEFF 		bl	CyIntEnable
 549              	.LVL61:
 550              	.LBE69:
 551              	.LBE68:
 455:Generated_Source\PSoC4/CapSense.c **** }
 552              		.loc 1 455 0
 553 0048 8022     		movs	r2, #128
ARM GAS  C:\Users\young\AppData\Local\Temp\ccoFnsFE.s 			page 42


 554 004a 2368     		ldr	r3, [r4]
 555 004c D203     		lsls	r2, r2, #15
 556 004e 1343     		orrs	r3, r2
 557 0050 2360     		str	r3, [r4]
 456:Generated_Source\PSoC4/CapSense.c **** 
 558              		.loc 1 456 0
 559              		@ sp needed
 560 0052 3CBC     		pop	{r2, r3, r4, r5}
 561 0054 9046     		mov	r8, r2
 562 0056 9946     		mov	r9, r3
 563 0058 A246     		mov	r10, r4
 564 005a AB46     		mov	fp, r5
 565 005c F8BD     		pop	{r3, r4, r5, r6, r7, pc}
 566              	.L21:
 567 005e 3B4B     		ldr	r3, .L22+12
 568 0060 0622     		movs	r2, #6
 569 0062 0021     		movs	r1, #0
 570 0064 1800     		movs	r0, r3
 571 0066 9B46     		mov	fp, r3
 572 0068 FFF7FEFF 		bl	memset
 573              	.LVL62:
 574              	.LBB70:
 575              	.LBB71:
 576              	.LBB72:
 577              	.LBB73:
 269:Generated_Source\PSoC4/CapSense.c ****         #if (CapSense_IDAC_CNT == 2u)
 578              		.loc 1 269 0
 579 006c 0F20     		movs	r0, #15
 266:Generated_Source\PSoC4/CapSense.c ****         newRegValue = CapSense_csdTrim1;
 580              		.loc 1 266 0
 581 006e 3849     		ldr	r1, .L22+16
 582 0070 384B     		ldr	r3, .L22+20
 583 0072 0A68     		ldr	r2, [r1]
 584              	.LVL63:
 269:Generated_Source\PSoC4/CapSense.c ****         #if (CapSense_IDAC_CNT == 2u)
 585              		.loc 1 269 0
 586 0074 384C     		ldr	r4, .L22+24
 266:Generated_Source\PSoC4/CapSense.c ****         newRegValue = CapSense_csdTrim1;
 587              		.loc 1 266 0
 588 0076 1A70     		strb	r2, [r3]
 269:Generated_Source\PSoC4/CapSense.c ****         #if (CapSense_IDAC_CNT == 2u)
 589              		.loc 1 269 0
 590 0078 2378     		ldrb	r3, [r4]
 591              	.LVL64:
 592              	.LBE73:
 593              	.LBE72:
 594              	.LBB75:
 595              	.LBB76:
 904:Generated_Source\PSoC4/CapSense.c ****     {
 596              		.loc 1 904 0
 597 007a 0026     		movs	r6, #0
 598              	.LBE76:
 599              	.LBE75:
 600              	.LBB84:
 601              	.LBB74:
 272:Generated_Source\PSoC4/CapSense.c ****             newRegValue |= (uint32)((uint32)CapSense_SFLASH_CSD_TRIM1_REG & (uint32)CapSense_CSFLAS
 602              		.loc 1 272 0
ARM GAS  C:\Users\young\AppData\Local\Temp\ccoFnsFE.s 			page 43


 603 007c 0340     		ands	r3, r0
 604              	.LVL65:
 605 007e 1A00     		movs	r2, r3
 606              	.LVL66:
 273:Generated_Source\PSoC4/CapSense.c ****         #endif
 607              		.loc 1 273 0
 608 0080 2378     		ldrb	r3, [r4]
 281:Generated_Source\PSoC4/CapSense.c ****     #else
 609              		.loc 1 281 0
 610 0082 304C     		ldr	r4, .L22+4
 273:Generated_Source\PSoC4/CapSense.c ****         #endif
 611              		.loc 1 273 0
 612 0084 8343     		bics	r3, r0
 613 0086 1343     		orrs	r3, r2
 614              	.LVL67:
 275:Generated_Source\PSoC4/CapSense.c ****     #endif /* (CapSense_IDAC1_POLARITY == CapSense__IDAC_SINK) */
 615              		.loc 1 275 0
 616 0088 0B60     		str	r3, [r1]
 280:Generated_Source\PSoC4/CapSense.c ****         CapSense_CSD_CFG_REG = CapSense_DEFAULT_CSD_CONFIG;
 617              		.loc 1 280 0
 618 008a 344A     		ldr	r2, .L22+28
 619 008c 344B     		ldr	r3, .L22+32
 620              	.LVL68:
 303:Generated_Source\PSoC4/CapSense.c ****     #if !defined(CY_EXTERNAL_INTERRUPT_CONFIG)
 621              		.loc 1 303 0
 622 008e 0838     		subs	r0, r0, #8
 280:Generated_Source\PSoC4/CapSense.c ****         CapSense_CSD_CFG_REG = CapSense_DEFAULT_CSD_CONFIG;
 623              		.loc 1 280 0
 624 0090 1A60     		str	r2, [r3]
 625              	.LVL69:
 281:Generated_Source\PSoC4/CapSense.c ****     #else
 626              		.loc 1 281 0
 627 0092 344B     		ldr	r3, .L22+36
 292:Generated_Source\PSoC4/CapSense.c ****     newRegValue &= ~(CapSense_CSD_CMOD_CONNECTION_MASK);
 628              		.loc 1 292 0
 629 0094 344A     		ldr	r2, .L22+40
 281:Generated_Source\PSoC4/CapSense.c ****     #else
 630              		.loc 1 281 0
 631 0096 2360     		str	r3, [r4]
 292:Generated_Source\PSoC4/CapSense.c ****     newRegValue &= ~(CapSense_CSD_CMOD_CONNECTION_MASK);
 632              		.loc 1 292 0
 633 0098 1168     		ldr	r1, [r2]
 634              	.LVL70:
 293:Generated_Source\PSoC4/CapSense.c ****     newRegValue |= CapSense_CSD_CMOD_TO_AMUXBUS_A;
 635              		.loc 1 293 0
 636 009a 344B     		ldr	r3, .L22+44
 637 009c 0B40     		ands	r3, r1
 638              	.LVL71:
 294:Generated_Source\PSoC4/CapSense.c ****     CapSense_CMOD_CONNECTION_REG = newRegValue;
 639              		.loc 1 294 0
 640 009e C021     		movs	r1, #192
 641 00a0 C902     		lsls	r1, r1, #11
 642 00a2 0B43     		orrs	r3, r1
 643              	.LVL72:
 295:Generated_Source\PSoC4/CapSense.c **** 
 644              		.loc 1 295 0
 645 00a4 1360     		str	r3, [r2]
ARM GAS  C:\Users\young\AppData\Local\Temp\ccoFnsFE.s 			page 44


 303:Generated_Source\PSoC4/CapSense.c ****     #if !defined(CY_EXTERNAL_INTERRUPT_CONFIG)
 646              		.loc 1 303 0
 647 00a6 FFF7FEFF 		bl	CyIntDisable
 648              	.LVL73:
 305:Generated_Source\PSoC4/CapSense.c ****         CyIntSetPriority(CapSense_ISR_NUMBER, CapSense_ISR_PRIORITY);
 649              		.loc 1 305 0
 650 00aa 3149     		ldr	r1, .L22+48
 651 00ac 0720     		movs	r0, #7
 652 00ae FFF7FEFF 		bl	CyIntSetVector
 653              	.LVL74:
 306:Generated_Source\PSoC4/CapSense.c ****     #endif /* (CY_EXTERNAL_INTERRUPT_CONFIG) */
 654              		.loc 1 306 0
 655 00b2 0321     		movs	r1, #3
 656 00b4 0720     		movs	r0, #7
 657 00b6 FFF7FEFF 		bl	CyIntSetPriority
 658              	.LVL75:
 659              	.LBE74:
 660              	.LBE84:
 661              	.LBB85:
 662              	.LBB86:
1680:Generated_Source\PSoC4/CapSense.c ****     newRegValue &= (uint32)(~(uint32)CapSense_SHIELD_DELAY);
 663              		.loc 1 1680 0
 664 00ba 2368     		ldr	r3, [r4]
 665              	.LVL76:
 666              		.loc 1 1683 0
 667 00bc 2D49     		ldr	r1, .L22+52
 668 00be 2360     		str	r3, [r4]
 669              	.LVL77:
 670 00c0 2D4B     		ldr	r3, .L22+56
 671              	.LVL78:
 672 00c2 9946     		mov	r9, r3
 673 00c4 2D4B     		ldr	r3, .L22+60
 674 00c6 9846     		mov	r8, r3
 675 00c8 2D4B     		ldr	r3, .L22+64
 676 00ca 9A46     		mov	r10, r3
 677 00cc 20E0     		b	.L20
 678              	.LVL79:
 679              	.L18:
 680              	.LBE86:
 681              	.LBE85:
 682              	.LBB87:
 683              	.LBB83:
 684              	.LBB77:
 685              	.LBB78:
1141:Generated_Source\PSoC4/CapSense.c **** 
 686              		.loc 1 1141 0
 687 00ce FFF7FEFF 		bl	CyEnterCriticalSection
 688              	.LVL80:
1145:Generated_Source\PSoC4/CapSense.c ****         newRegisterValue |=  (uint32)(inactiveConnect << pinModeShift);
 689              		.loc 1 1145 0
 690 00d2 0722     		movs	r2, #7
1144:Generated_Source\PSoC4/CapSense.c ****         newRegisterValue &= ~(CapSense_CSD_PIN_MODE_MASK << pinModeShift);
 691              		.loc 1 1144 0
 692 00d4 4346     		mov	r3, r8
1145:Generated_Source\PSoC4/CapSense.c ****         newRegisterValue |=  (uint32)(inactiveConnect << pinModeShift);
 693              		.loc 1 1145 0
 694 00d6 A240     		lsls	r2, r2, r4
ARM GAS  C:\Users\young\AppData\Local\Temp\ccoFnsFE.s 			page 45


1144:Generated_Source\PSoC4/CapSense.c ****         newRegisterValue &= ~(CapSense_CSD_PIN_MODE_MASK << pinModeShift);
 695              		.loc 1 1144 0
 696 00d8 1B68     		ldr	r3, [r3]
 697              	.LVL81:
 698              	.LBE78:
 699              	.LBE77:
 904:Generated_Source\PSoC4/CapSense.c ****     {
 700              		.loc 1 904 0
 701 00da 0136     		adds	r6, r6, #1
 702              	.LVL82:
 703              	.LBB81:
 704              	.LBB79:
1145:Generated_Source\PSoC4/CapSense.c ****         newRegisterValue |=  (uint32)(inactiveConnect << pinModeShift);
 705              		.loc 1 1145 0
 706 00dc 9343     		bics	r3, r2
 707              	.LVL83:
1146:Generated_Source\PSoC4/CapSense.c ****         *CapSense_prtCfgTbl[port] =  newRegisterValue;
 708              		.loc 1 1146 0
 709 00de 1F43     		orrs	r7, r3
 710              	.LVL84:
1147:Generated_Source\PSoC4/CapSense.c **** 
 711              		.loc 1 1147 0
 712 00e0 4346     		mov	r3, r8
 713 00e2 1F60     		str	r7, [r3]
1149:Generated_Source\PSoC4/CapSense.c **** 
 714              		.loc 1 1149 0
 715 00e4 FFF7FEFF 		bl	CyExitCriticalSection
 716              	.LVL85:
1151:Generated_Source\PSoC4/CapSense.c ****     #if(CapSense_IS_SHIELD_ENABLE != 0)
 717              		.loc 1 1151 0
 718 00e8 0122     		movs	r2, #1
 719 00ea 1100     		movs	r1, r2
 720 00ec 4B46     		mov	r3, r9
 721 00ee A940     		lsls	r1, r1, r5
 722 00f0 1B68     		ldr	r3, [r3]
 723 00f2 8B43     		bics	r3, r1
 724 00f4 4946     		mov	r1, r9
 725 00f6 0B60     		str	r3, [r1]
 726              	.LVL86:
 727              	.LBE79:
 728              	.LBE81:
 904:Generated_Source\PSoC4/CapSense.c ****     {
 729              		.loc 1 904 0
 730 00f8 062E     		cmp	r6, #6
 731 00fa 1DD0     		beq	.L19
 732 00fc 5346     		mov	r3, r10
 733 00fe 0833     		adds	r3, r3, #8
 734 0100 F35C     		ldrb	r3, [r6, r3]
 735 0102 9B00     		lsls	r3, r3, #2
 736 0104 5344     		add	r3, r3, r10
 737 0106 1A6A     		ldr	r2, [r3, #32]
 738 0108 1969     		ldr	r1, [r3, #16]
 739 010a 1B6B     		ldr	r3, [r3, #48]
 740 010c 9046     		mov	r8, r2
 741 010e 9946     		mov	r9, r3
 742              	.LVL87:
 743              	.L20:
ARM GAS  C:\Users\young\AppData\Local\Temp\ccoFnsFE.s 			page 46


 744              	.LBB82:
 745              	.LBB80:
1117:Generated_Source\PSoC4/CapSense.c ****     uint8  pinModeShift = CapSense_pinShiftTbl[sensor]  * CapSense_PC_PIN_CFG_SIZE;
 746              		.loc 1 1117 0
 747 0110 5346     		mov	r3, r10
1123:Generated_Source\PSoC4/CapSense.c **** 
 748              		.loc 1 1123 0
 749 0112 0F27     		movs	r7, #15
1117:Generated_Source\PSoC4/CapSense.c ****     uint8  pinModeShift = CapSense_pinShiftTbl[sensor]  * CapSense_PC_PIN_CFG_SIZE;
 750              		.loc 1 1117 0
 751 0114 9D5D     		ldrb	r5, [r3, r6]
 752              	.LVL88:
1121:Generated_Source\PSoC4/CapSense.c **** 
 753              		.loc 1 1121 0
 754 0116 5B46     		mov	r3, fp
1123:Generated_Source\PSoC4/CapSense.c **** 
 755              		.loc 1 1123 0
 756 0118 AA00     		lsls	r2, r5, #2
 757 011a D2B2     		uxtb	r2, r2
 758 011c 9740     		lsls	r7, r7, r2
1121:Generated_Source\PSoC4/CapSense.c **** 
 759              		.loc 1 1121 0
 760 011e 985D     		ldrb	r0, [r3, r6]
1123:Generated_Source\PSoC4/CapSense.c **** 
 761              		.loc 1 1123 0
 762 0120 0B68     		ldr	r3, [r1]
1118:Generated_Source\PSoC4/CapSense.c **** 
 763              		.loc 1 1118 0
 764 0122 6C00     		lsls	r4, r5, #1
1123:Generated_Source\PSoC4/CapSense.c **** 
 765              		.loc 1 1123 0
 766 0124 BB43     		bics	r3, r7
 767 0126 0627     		movs	r7, #6
1118:Generated_Source\PSoC4/CapSense.c **** 
 768              		.loc 1 1118 0
 769 0128 2C19     		adds	r4, r5, r4
 770 012a E4B2     		uxtb	r4, r4
 771              	.LVL89:
1123:Generated_Source\PSoC4/CapSense.c **** 
 772              		.loc 1 1123 0
 773 012c 0B60     		str	r3, [r1]
 774 012e A740     		lsls	r7, r7, r4
1135:Generated_Source\PSoC4/CapSense.c ****         {
 775              		.loc 1 1135 0
 776 0130 0128     		cmp	r0, #1
 777 0132 CCD1     		bne	.L18
 778 0134 0027     		movs	r7, #0
 779 0136 CAE7     		b	.L18
 780              	.LVL90:
 781              	.L19:
 782              	.LBE80:
 783              	.LBE82:
 784              	.LBE83:
 785              	.LBE87:
 786              	.LBE71:
 787              	.LBE70:
 404:Generated_Source\PSoC4/CapSense.c ****     }
ARM GAS  C:\Users\young\AppData\Local\Temp\ccoFnsFE.s 			page 47


 788              		.loc 1 404 0
 789 0138 014B     		ldr	r3, .L22
 790 013a 1A70     		strb	r2, [r3]
 791 013c 6AE7     		b	.L16
 792              	.L23:
 793 013e C046     		.align	2
 794              	.L22:
 795 0140 00000000 		.word	.LANCHOR1
 796 0144 04000840 		.word	1074266116
 797 0148 00100880 		.word	-2146955264
 798 014c 00000000 		.word	CapSense_unscannedSnsDriveMode
 799 0150 00FF0840 		.word	1074331392
 800 0154 00000000 		.word	CapSense_csdTrim1
 801 0158 62F1FF0F 		.word	268431714
 802 015c 00020001 		.word	16777728
 803 0160 08000840 		.word	1074266120
 804 0164 C008A001 		.word	27265216
 805 0168 00000240 		.word	1073872896
 806 016c FFFFF0FF 		.word	-983041
 807 0170 00000000 		.word	CapSense_ISR
 808 0174 00010240 		.word	1073873152
 809 0178 00010440 		.word	1074004224
 810 017c 08010440 		.word	1074004232
 811 0180 00000000 		.word	.LANCHOR0
 812              		.cfi_endproc
 813              	.LFE35:
 814              		.size	CapSense_Start, .-CapSense_Start
 815              		.section	.text.CapSense_Stop,"ax",%progbits
 816              		.align	2
 817              		.global	CapSense_Stop
 818              		.code	16
 819              		.thumb_func
 820              		.type	CapSense_Stop, %function
 821              	CapSense_Stop:
 822              	.LFB36:
 483:Generated_Source\PSoC4/CapSense.c ****     /* Disable interrupt */
 823              		.loc 1 483 0
 824              		.cfi_startproc
 825              		@ args = 0, pretend = 0, frame = 0
 826              		@ frame_needed = 0, uses_anonymous_args = 0
 827 0000 10B5     		push	{r4, lr}
 828              		.cfi_def_cfa_offset 8
 829              		.cfi_offset 4, -8
 830              		.cfi_offset 14, -4
 485:Generated_Source\PSoC4/CapSense.c **** 
 831              		.loc 1 485 0
 832 0002 0720     		movs	r0, #7
 833 0004 FFF7FEFF 		bl	CyIntDisable
 834              	.LVL91:
 487:Generated_Source\PSoC4/CapSense.c **** 
 835              		.loc 1 487 0
 836 0008 064A     		ldr	r2, .L25
 837 000a 074B     		ldr	r3, .L25+4
 838 000c 1168     		ldr	r1, [r2]
 496:Generated_Source\PSoC4/CapSense.c **** 
 839              		.loc 1 496 0
 840              		@ sp needed
ARM GAS  C:\Users\young\AppData\Local\Temp\ccoFnsFE.s 			page 48


 487:Generated_Source\PSoC4/CapSense.c **** 
 841              		.loc 1 487 0
 842 000e 0B40     		ands	r3, r1
 843 0010 1360     		str	r3, [r2]
 490:Generated_Source\PSoC4/CapSense.c ****     #endif /* (CapSense_IDAC_CNT == 2u) */
 844              		.loc 1 490 0
 845 0012 1368     		ldr	r3, [r2]
 846 0014 5B00     		lsls	r3, r3, #1
 847 0016 5B08     		lsrs	r3, r3, #1
 848 0018 1360     		str	r3, [r2]
 494:Generated_Source\PSoC4/CapSense.c ****     CapSense_SampleClk_Stop();
 849              		.loc 1 494 0
 850 001a FFF7FEFF 		bl	CapSense_SenseClk_Stop
 851              	.LVL92:
 495:Generated_Source\PSoC4/CapSense.c **** }
 852              		.loc 1 495 0
 853 001e FFF7FEFF 		bl	CapSense_SampleClk_Stop
 854              	.LVL93:
 496:Generated_Source\PSoC4/CapSense.c **** 
 855              		.loc 1 496 0
 856 0022 10BD     		pop	{r4, pc}
 857              	.L26:
 858              		.align	2
 859              	.L25:
 860 0024 04000840 		.word	1074266116
 861 0028 FFEFF7FF 		.word	-528385
 862              		.cfi_endproc
 863              	.LFE36:
 864              		.size	CapSense_Stop, .-CapSense_Stop
 865              		.section	.text.CapSense_FindNextSensor,"ax",%progbits
 866              		.align	2
 867              		.global	CapSense_FindNextSensor
 868              		.code	16
 869              		.thumb_func
 870              		.type	CapSense_FindNextSensor, %function
 871              	CapSense_FindNextSensor:
 872              	.LFB37:
 521:Generated_Source\PSoC4/CapSense.c ****     uint32 enableFlag;
 873              		.loc 1 521 0
 874              		.cfi_startproc
 875              		@ args = 0, pretend = 0, frame = 0
 876              		@ frame_needed = 0, uses_anonymous_args = 0
 877              	.LVL94:
 878 0000 70B5     		push	{r4, r5, r6, lr}
 879              		.cfi_def_cfa_offset 16
 880              		.cfi_offset 4, -16
 881              		.cfi_offset 5, -12
 882              		.cfi_offset 6, -8
 883              		.cfi_offset 14, -4
 884              	.LBB88:
 885              	.LBB89:
1684:Generated_Source\PSoC4/CapSense.c **** }
1685:Generated_Source\PSoC4/CapSense.c **** 
1686:Generated_Source\PSoC4/CapSense.c **** 
1687:Generated_Source\PSoC4/CapSense.c **** /*******************************************************************************
1688:Generated_Source\PSoC4/CapSense.c **** * Function Name: CapSense_ReadCurrentScanningSensor
1689:Generated_Source\PSoC4/CapSense.c **** ********************************************************************************
ARM GAS  C:\Users\young\AppData\Local\Temp\ccoFnsFE.s 			page 49


1690:Generated_Source\PSoC4/CapSense.c **** *
1691:Generated_Source\PSoC4/CapSense.c **** * Summary:
1692:Generated_Source\PSoC4/CapSense.c **** *  This API returns scanning sensor number when sensor scan is in progress.
1693:Generated_Source\PSoC4/CapSense.c **** *  When sensor scan is completed the API returns
1694:Generated_Source\PSoC4/CapSense.c **** *  $INSTANCE_NAME`_NOT_SENSOR (0xFFFFFFFF) (when no sensor is scanned).
1695:Generated_Source\PSoC4/CapSense.c **** *
1696:Generated_Source\PSoC4/CapSense.c **** * Parameters:
1697:Generated_Source\PSoC4/CapSense.c **** *   None.
1698:Generated_Source\PSoC4/CapSense.c **** *
1699:Generated_Source\PSoC4/CapSense.c **** * Return:
1700:Generated_Source\PSoC4/CapSense.c **** *  Returns Sensor number if sensor is being scanned and
1701:Generated_Source\PSoC4/CapSense.c **** *  $INSTANCE_NAME`_NOT_SENSOR (0xFFFFFFFF) if scanning is complete.
1702:Generated_Source\PSoC4/CapSense.c **** *
1703:Generated_Source\PSoC4/CapSense.c **** * Global Variables:
1704:Generated_Source\PSoC4/CapSense.c **** *  CapSense_sensorIndex - the sensor number is being scanned.
1705:Generated_Source\PSoC4/CapSense.c **** *
1706:Generated_Source\PSoC4/CapSense.c **** * Side Effects:
1707:Generated_Source\PSoC4/CapSense.c **** *  None
1708:Generated_Source\PSoC4/CapSense.c **** *
1709:Generated_Source\PSoC4/CapSense.c **** *******************************************************************************/
1710:Generated_Source\PSoC4/CapSense.c **** uint32 CapSense_ReadCurrentScanningSensor(void)
1711:Generated_Source\PSoC4/CapSense.c **** {
1712:Generated_Source\PSoC4/CapSense.c ****     return ((uint32)(( 0u != (CapSense_csdStatusVar & CapSense_SW_STS_BUSY)) ?
1713:Generated_Source\PSoC4/CapSense.c ****                      CapSense_sensorIndex : CapSense_NOT_SENSOR));
1714:Generated_Source\PSoC4/CapSense.c **** }
1715:Generated_Source\PSoC4/CapSense.c **** 
1716:Generated_Source\PSoC4/CapSense.c **** 
1717:Generated_Source\PSoC4/CapSense.c **** /*******************************************************************************
1718:Generated_Source\PSoC4/CapSense.c **** * Function Name: CapSense_GetBitValue
1719:Generated_Source\PSoC4/CapSense.c **** ********************************************************************************
1720:Generated_Source\PSoC4/CapSense.c **** *
1721:Generated_Source\PSoC4/CapSense.c **** * Summary:
1722:Generated_Source\PSoC4/CapSense.c **** *  The API returns a bit status of the bit in the table array which contains the masks.
1723:Generated_Source\PSoC4/CapSense.c **** *
1724:Generated_Source\PSoC4/CapSense.c **** * Parameters:
1725:Generated_Source\PSoC4/CapSense.c **** *  table[] - array with bit masks.
1726:Generated_Source\PSoC4/CapSense.c **** *  position - position of bit in the table[] array.
1727:Generated_Source\PSoC4/CapSense.c **** *
1728:Generated_Source\PSoC4/CapSense.c **** * Return:
1729:Generated_Source\PSoC4/CapSense.c **** *  0 - bit is not set; 1 - bit is set.
1730:Generated_Source\PSoC4/CapSense.c **** *
1731:Generated_Source\PSoC4/CapSense.c **** * Global Variables:
1732:Generated_Source\PSoC4/CapSense.c **** *  None
1733:Generated_Source\PSoC4/CapSense.c **** *
1734:Generated_Source\PSoC4/CapSense.c **** * Side Effects:
1735:Generated_Source\PSoC4/CapSense.c **** *  None
1736:Generated_Source\PSoC4/CapSense.c **** *
1737:Generated_Source\PSoC4/CapSense.c **** *******************************************************************************/
1738:Generated_Source\PSoC4/CapSense.c **** uint32 CapSense_GetBitValue(const uint8 table[], uint32 position)
1739:Generated_Source\PSoC4/CapSense.c **** {
1740:Generated_Source\PSoC4/CapSense.c ****     uint32 offset;
1741:Generated_Source\PSoC4/CapSense.c ****     uint8 enMask;
1742:Generated_Source\PSoC4/CapSense.c **** 
1743:Generated_Source\PSoC4/CapSense.c ****     /* position is divided by 8 to calculate the element of the
1744:Generated_Source\PSoC4/CapSense.c ****        table[] array that contains the enable bit
1745:Generated_Source\PSoC4/CapSense.c ****        for an appropriate sensor.
1746:Generated_Source\PSoC4/CapSense.c ****     */
ARM GAS  C:\Users\young\AppData\Local\Temp\ccoFnsFE.s 			page 50


1747:Generated_Source\PSoC4/CapSense.c ****     offset = (position >> 3u);
1748:Generated_Source\PSoC4/CapSense.c **** 
1749:Generated_Source\PSoC4/CapSense.c ****     /* The enMask calculation for the appropriate sensor. Operation (position & 0x07u)
1750:Generated_Source\PSoC4/CapSense.c ****        intends to calculate the enable bit offset for the 8-bit element of the
1751:Generated_Source\PSoC4/CapSense.c ****        table[] array.
1752:Generated_Source\PSoC4/CapSense.c ****     */
1753:Generated_Source\PSoC4/CapSense.c ****     enMask = 0x01u << (position & 0x07u);
1754:Generated_Source\PSoC4/CapSense.c **** 
1755:Generated_Source\PSoC4/CapSense.c ****     return ((0u !=(table[offset] & enMask)) ? 1Lu : 0Lu);
 886              		.loc 1 1755 0
 887 0002 0121     		movs	r1, #1
 888 0004 0724     		movs	r4, #7
 889 0006 074D     		ldr	r5, .L35
 890              	.L29:
 891              	.LBE89:
 892              	.LBE88:
 528:Generated_Source\PSoC4/CapSense.c ****         if(snsIndex == CapSense_TOTAL_SENSOR_COUNT)
 893              		.loc 1 528 0
 894 0008 0130     		adds	r0, r0, #1
 895              	.LVL95:
 896 000a C0B2     		uxtb	r0, r0
 897              	.LVL96:
 529:Generated_Source\PSoC4/CapSense.c ****         {
 898              		.loc 1 529 0
 899 000c 0628     		cmp	r0, #6
 900 000e 07D0     		beq	.L28
 901              	.LVL97:
 902              	.LBB91:
 903              	.LBB90:
 904              		.loc 1 1755 0
 905 0010 2200     		movs	r2, r4
 906 0012 0E00     		movs	r6, r1
 907 0014 0240     		ands	r2, r0
 908 0016 9640     		lsls	r6, r6, r2
 909 0018 C308     		lsrs	r3, r0, #3
 910 001a EB5C     		ldrb	r3, [r5, r3]
 911 001c 1E42     		tst	r6, r3
 912 001e F3D0     		beq	.L29
 913              	.LVL98:
 914              	.L28:
 915              	.LBE90:
 916              	.LBE91:
 538:Generated_Source\PSoC4/CapSense.c **** 
 917              		.loc 1 538 0
 918              		@ sp needed
 919 0020 70BD     		pop	{r4, r5, r6, pc}
 920              	.L36:
 921 0022 C046     		.align	2
 922              	.L35:
 923 0024 00000000 		.word	.LANCHOR2
 924              		.cfi_endproc
 925              	.LFE37:
 926              		.size	CapSense_FindNextSensor, .-CapSense_FindNextSensor
 927              		.section	.text.CapSense_IsBusy,"ax",%progbits
 928              		.align	2
 929              		.global	CapSense_IsBusy
 930              		.code	16
ARM GAS  C:\Users\young\AppData\Local\Temp\ccoFnsFE.s 			page 51


 931              		.thumb_func
 932              		.type	CapSense_IsBusy, %function
 933              	CapSense_IsBusy:
 934              	.LFB41:
 734:Generated_Source\PSoC4/CapSense.c ****     return ((uint32)((0u != (CapSense_csdStatusVar & CapSense_SW_STS_BUSY)) ? 1u : 0u));
 935              		.loc 1 734 0
 936              		.cfi_startproc
 937              		@ args = 0, pretend = 0, frame = 0
 938              		@ frame_needed = 0, uses_anonymous_args = 0
 939              		@ link register save eliminated.
 735:Generated_Source\PSoC4/CapSense.c **** }
 940              		.loc 1 735 0
 941 0000 0120     		movs	r0, #1
 942 0002 024B     		ldr	r3, .L38
 736:Generated_Source\PSoC4/CapSense.c **** 
 943              		.loc 1 736 0
 944              		@ sp needed
 735:Generated_Source\PSoC4/CapSense.c **** }
 945              		.loc 1 735 0
 946 0004 5B78     		ldrb	r3, [r3, #1]
 947 0006 1840     		ands	r0, r3
 736:Generated_Source\PSoC4/CapSense.c **** 
 948              		.loc 1 736 0
 949 0008 7047     		bx	lr
 950              	.L39:
 951 000a C046     		.align	2
 952              	.L38:
 953 000c 00000000 		.word	.LANCHOR1
 954              		.cfi_endproc
 955              	.LFE41:
 956              		.size	CapSense_IsBusy, .-CapSense_IsBusy
 957              		.section	.text.CapSense_ReadSensorRaw,"ax",%progbits
 958              		.align	2
 959              		.global	CapSense_ReadSensorRaw
 960              		.code	16
 961              		.thumb_func
 962              		.type	CapSense_ReadSensorRaw, %function
 963              	CapSense_ReadSensorRaw:
 964              	.LFB42:
 764:Generated_Source\PSoC4/CapSense.c ****     return CapSense_sensorRaw[sensor];
 965              		.loc 1 764 0
 966              		.cfi_startproc
 967              		@ args = 0, pretend = 0, frame = 0
 968              		@ frame_needed = 0, uses_anonymous_args = 0
 969              		@ link register save eliminated.
 970              	.LVL99:
 765:Generated_Source\PSoC4/CapSense.c **** }
 971              		.loc 1 765 0
 972 0000 024B     		ldr	r3, .L41
 973 0002 4000     		lsls	r0, r0, #1
 974              	.LVL100:
 975 0004 1818     		adds	r0, r3, r0
 976 0006 8088     		ldrh	r0, [r0, #4]
 766:Generated_Source\PSoC4/CapSense.c **** 
 977              		.loc 1 766 0
 978              		@ sp needed
 979 0008 7047     		bx	lr
ARM GAS  C:\Users\young\AppData\Local\Temp\ccoFnsFE.s 			page 52


 980              	.L42:
 981 000a C046     		.align	2
 982              	.L41:
 983 000c 00000000 		.word	.LANCHOR1
 984              		.cfi_endproc
 985              	.LFE42:
 986              		.size	CapSense_ReadSensorRaw, .-CapSense_ReadSensorRaw
 987              		.section	.text.CapSense_WriteSensorRaw,"ax",%progbits
 988              		.align	2
 989              		.global	CapSense_WriteSensorRaw
 990              		.code	16
 991              		.thumb_func
 992              		.type	CapSense_WriteSensorRaw, %function
 993              	CapSense_WriteSensorRaw:
 994              	.LFB43:
 791:Generated_Source\PSoC4/CapSense.c ****     CapSense_sensorRaw[sensor] = value;
 995              		.loc 1 791 0
 996              		.cfi_startproc
 997              		@ args = 0, pretend = 0, frame = 0
 998              		@ frame_needed = 0, uses_anonymous_args = 0
 999              		@ link register save eliminated.
 1000              	.LVL101:
 792:Generated_Source\PSoC4/CapSense.c **** }
 1001              		.loc 1 792 0
 1002 0000 024B     		ldr	r3, .L44
 1003 0002 4000     		lsls	r0, r0, #1
 1004              	.LVL102:
 1005 0004 1818     		adds	r0, r3, r0
 1006 0006 8180     		strh	r1, [r0, #4]
 793:Generated_Source\PSoC4/CapSense.c **** 
 1007              		.loc 1 793 0
 1008              		@ sp needed
 1009 0008 7047     		bx	lr
 1010              	.L45:
 1011 000a C046     		.align	2
 1012              	.L44:
 1013 000c 00000000 		.word	.LANCHOR1
 1014              		.cfi_endproc
 1015              	.LFE43:
 1016              		.size	CapSense_WriteSensorRaw, .-CapSense_WriteSensorRaw
 1017              		.section	.text.CapSense_SetScanResolution,"ax",%progbits
 1018              		.align	2
 1019              		.global	CapSense_SetScanResolution
 1020              		.code	16
 1021              		.thumb_func
 1022              		.type	CapSense_SetScanResolution, %function
 1023              	CapSense_SetScanResolution:
 1024              	.LFB44:
 833:Generated_Source\PSoC4/CapSense.c ****         CapSense_widgetResolution[widget] = resolution;
 1025              		.loc 1 833 0
 1026              		.cfi_startproc
 1027              		@ args = 0, pretend = 0, frame = 0
 1028              		@ frame_needed = 0, uses_anonymous_args = 0
 1029              		@ link register save eliminated.
 1030              	.LVL103:
 834:Generated_Source\PSoC4/CapSense.c ****     }
 1031              		.loc 1 834 0
ARM GAS  C:\Users\young\AppData\Local\Temp\ccoFnsFE.s 			page 53


 1032 0000 024B     		ldr	r3, .L47
 1033 0002 8000     		lsls	r0, r0, #2
 1034              	.LVL104:
 1035 0004 1818     		adds	r0, r3, r0
 1036 0006 4160     		str	r1, [r0, #4]
 835:Generated_Source\PSoC4/CapSense.c **** #endif /* (CapSense_TUNING_METHOD != CapSense__TUNING_NONE) */
 1037              		.loc 1 835 0
 1038              		@ sp needed
 1039 0008 7047     		bx	lr
 1040              	.L48:
 1041 000a C046     		.align	2
 1042              	.L47:
 1043 000c 00000000 		.word	.LANCHOR2
 1044              		.cfi_endproc
 1045              	.LFE44:
 1046              		.size	CapSense_SetScanResolution, .-CapSense_SetScanResolution
 1047              		.section	.text.CapSense_GetScanResolution,"ax",%progbits
 1048              		.align	2
 1049              		.global	CapSense_GetScanResolution
 1050              		.code	16
 1051              		.thumb_func
 1052              		.type	CapSense_GetScanResolution, %function
 1053              	CapSense_GetScanResolution:
 1054              	.LFB45:
 874:Generated_Source\PSoC4/CapSense.c ****     return(CapSense_widgetResolution[widget]);
 1055              		.loc 1 874 0
 1056              		.cfi_startproc
 1057              		@ args = 0, pretend = 0, frame = 0
 1058              		@ frame_needed = 0, uses_anonymous_args = 0
 1059              		@ link register save eliminated.
 1060              	.LVL105:
 875:Generated_Source\PSoC4/CapSense.c **** }
 1061              		.loc 1 875 0
 1062 0000 024B     		ldr	r3, .L50
 1063 0002 8000     		lsls	r0, r0, #2
 1064              	.LVL106:
 1065 0004 1818     		adds	r0, r3, r0
 1066 0006 4068     		ldr	r0, [r0, #4]
 876:Generated_Source\PSoC4/CapSense.c **** 
 1067              		.loc 1 876 0
 1068              		@ sp needed
 1069 0008 7047     		bx	lr
 1070              	.L51:
 1071 000a C046     		.align	2
 1072              	.L50:
 1073 000c 00000000 		.word	.LANCHOR2
 1074              		.cfi_endproc
 1075              	.LFE45:
 1076              		.size	CapSense_GetScanResolution, .-CapSense_GetScanResolution
 1077              		.section	.text.CapSense_ClearSensors,"ax",%progbits
 1078              		.align	2
 1079              		.global	CapSense_ClearSensors
 1080              		.code	16
 1081              		.thumb_func
 1082              		.type	CapSense_ClearSensors, %function
 1083              	CapSense_ClearSensors:
 1084              	.LFB46:
ARM GAS  C:\Users\young\AppData\Local\Temp\ccoFnsFE.s 			page 54


 901:Generated_Source\PSoC4/CapSense.c ****     uint32 snsIndex;
 1085              		.loc 1 901 0
 1086              		.cfi_startproc
 1087              		@ args = 0, pretend = 0, frame = 0
 1088              		@ frame_needed = 0, uses_anonymous_args = 0
 1089              	.LVL107:
 1090 0000 F8B5     		push	{r3, r4, r5, r6, r7, lr}
 1091              		.cfi_def_cfa_offset 24
 1092              		.cfi_offset 3, -24
 1093              		.cfi_offset 4, -20
 1094              		.cfi_offset 5, -16
 1095              		.cfi_offset 6, -12
 1096              		.cfi_offset 7, -8
 1097              		.cfi_offset 14, -4
 1098 0002 4D46     		mov	r5, r9
 1099 0004 5F46     		mov	r7, fp
 1100 0006 5646     		mov	r6, r10
 1101 0008 4446     		mov	r4, r8
 1102 000a 234B     		ldr	r3, .L57
 1103 000c F0B4     		push	{r4, r5, r6, r7}
 1104              		.cfi_def_cfa_offset 40
 1105              		.cfi_offset 8, -40
 1106              		.cfi_offset 9, -36
 1107              		.cfi_offset 10, -32
 1108              		.cfi_offset 11, -28
 901:Generated_Source\PSoC4/CapSense.c ****     uint32 snsIndex;
 1109              		.loc 1 901 0
 1110 000e 9946     		mov	r9, r3
 1111 0010 224B     		ldr	r3, .L57+4
 1112 0012 2349     		ldr	r1, .L57+8
 1113 0014 9846     		mov	r8, r3
 1114 0016 234B     		ldr	r3, .L57+12
 904:Generated_Source\PSoC4/CapSense.c ****     {
 1115              		.loc 1 904 0
 1116 0018 0025     		movs	r5, #0
 1117 001a 9A46     		mov	r10, r3
 1118 001c 224B     		ldr	r3, .L57+16
 1119 001e 9B46     		mov	fp, r3
 1120 0020 1FE0     		b	.L56
 1121              	.LVL108:
 1122              	.L54:
 1123              	.LBB94:
 1124              	.LBB95:
1141:Generated_Source\PSoC4/CapSense.c **** 
 1125              		.loc 1 1141 0
 1126 0022 FFF7FEFF 		bl	CyEnterCriticalSection
 1127              	.LVL109:
1145:Generated_Source\PSoC4/CapSense.c ****         newRegisterValue |=  (uint32)(inactiveConnect << pinModeShift);
 1128              		.loc 1 1145 0
 1129 0026 0722     		movs	r2, #7
1144:Generated_Source\PSoC4/CapSense.c ****         newRegisterValue &= ~(CapSense_CSD_PIN_MODE_MASK << pinModeShift);
 1130              		.loc 1 1144 0
 1131 0028 4346     		mov	r3, r8
1145:Generated_Source\PSoC4/CapSense.c ****         newRegisterValue |=  (uint32)(inactiveConnect << pinModeShift);
 1132              		.loc 1 1145 0
 1133 002a A240     		lsls	r2, r2, r4
1144:Generated_Source\PSoC4/CapSense.c ****         newRegisterValue &= ~(CapSense_CSD_PIN_MODE_MASK << pinModeShift);
ARM GAS  C:\Users\young\AppData\Local\Temp\ccoFnsFE.s 			page 55


 1134              		.loc 1 1144 0
 1135 002c 1B68     		ldr	r3, [r3]
 1136              	.LVL110:
 1137              	.LBE95:
 1138              	.LBE94:
 904:Generated_Source\PSoC4/CapSense.c ****     {
 1139              		.loc 1 904 0
 1140 002e 0135     		adds	r5, r5, #1
 1141              	.LVL111:
 1142              	.LBB98:
 1143              	.LBB96:
1145:Generated_Source\PSoC4/CapSense.c ****         newRegisterValue |=  (uint32)(inactiveConnect << pinModeShift);
 1144              		.loc 1 1145 0
 1145 0030 9343     		bics	r3, r2
 1146              	.LVL112:
1146:Generated_Source\PSoC4/CapSense.c ****         *CapSense_prtCfgTbl[port] =  newRegisterValue;
 1147              		.loc 1 1146 0
 1148 0032 1F43     		orrs	r7, r3
 1149              	.LVL113:
1147:Generated_Source\PSoC4/CapSense.c **** 
 1150              		.loc 1 1147 0
 1151 0034 4346     		mov	r3, r8
 1152 0036 1F60     		str	r7, [r3]
1149:Generated_Source\PSoC4/CapSense.c **** 
 1153              		.loc 1 1149 0
 1154 0038 FFF7FEFF 		bl	CyExitCriticalSection
 1155              	.LVL114:
1151:Generated_Source\PSoC4/CapSense.c ****     #if(CapSense_IS_SHIELD_ENABLE != 0)
 1156              		.loc 1 1151 0
 1157 003c 0122     		movs	r2, #1
 1158 003e 4B46     		mov	r3, r9
 1159 0040 B240     		lsls	r2, r2, r6
 1160 0042 1B68     		ldr	r3, [r3]
 1161 0044 9343     		bics	r3, r2
 1162 0046 4A46     		mov	r2, r9
 1163 0048 1360     		str	r3, [r2]
 1164              	.LVL115:
 1165              	.LBE96:
 1166              	.LBE98:
 904:Generated_Source\PSoC4/CapSense.c ****     {
 1167              		.loc 1 904 0
 1168 004a 062D     		cmp	r5, #6
 1169 004c 1DD0     		beq	.L52
 1170 004e 5346     		mov	r3, r10
 1171 0050 0833     		adds	r3, r3, #8
 1172 0052 EB5C     		ldrb	r3, [r5, r3]
 1173 0054 9B00     		lsls	r3, r3, #2
 1174 0056 5344     		add	r3, r3, r10
 1175 0058 1A6A     		ldr	r2, [r3, #32]
 1176 005a 1969     		ldr	r1, [r3, #16]
 1177 005c 1B6B     		ldr	r3, [r3, #48]
 1178 005e 9046     		mov	r8, r2
 1179 0060 9946     		mov	r9, r3
 1180              	.LVL116:
 1181              	.L56:
 1182              	.LBB99:
 1183              	.LBB97:
ARM GAS  C:\Users\young\AppData\Local\Temp\ccoFnsFE.s 			page 56


1117:Generated_Source\PSoC4/CapSense.c ****     uint8  pinModeShift = CapSense_pinShiftTbl[sensor]  * CapSense_PC_PIN_CFG_SIZE;
 1184              		.loc 1 1117 0
 1185 0062 5346     		mov	r3, r10
1123:Generated_Source\PSoC4/CapSense.c **** 
 1186              		.loc 1 1123 0
 1187 0064 0F27     		movs	r7, #15
1117:Generated_Source\PSoC4/CapSense.c ****     uint8  pinModeShift = CapSense_pinShiftTbl[sensor]  * CapSense_PC_PIN_CFG_SIZE;
 1188              		.loc 1 1117 0
 1189 0066 5E5D     		ldrb	r6, [r3, r5]
 1190              	.LVL117:
1121:Generated_Source\PSoC4/CapSense.c **** 
 1191              		.loc 1 1121 0
 1192 0068 5B46     		mov	r3, fp
1123:Generated_Source\PSoC4/CapSense.c **** 
 1193              		.loc 1 1123 0
 1194 006a B200     		lsls	r2, r6, #2
 1195 006c D2B2     		uxtb	r2, r2
 1196 006e 9740     		lsls	r7, r7, r2
1121:Generated_Source\PSoC4/CapSense.c **** 
 1197              		.loc 1 1121 0
 1198 0070 585D     		ldrb	r0, [r3, r5]
1123:Generated_Source\PSoC4/CapSense.c **** 
 1199              		.loc 1 1123 0
 1200 0072 0B68     		ldr	r3, [r1]
1118:Generated_Source\PSoC4/CapSense.c **** 
 1201              		.loc 1 1118 0
 1202 0074 7400     		lsls	r4, r6, #1
1123:Generated_Source\PSoC4/CapSense.c **** 
 1203              		.loc 1 1123 0
 1204 0076 BB43     		bics	r3, r7
 1205 0078 0627     		movs	r7, #6
1118:Generated_Source\PSoC4/CapSense.c **** 
 1206              		.loc 1 1118 0
 1207 007a 3419     		adds	r4, r6, r4
 1208 007c E4B2     		uxtb	r4, r4
 1209              	.LVL118:
1123:Generated_Source\PSoC4/CapSense.c **** 
 1210              		.loc 1 1123 0
 1211 007e 0B60     		str	r3, [r1]
 1212 0080 A740     		lsls	r7, r7, r4
1135:Generated_Source\PSoC4/CapSense.c ****         {
 1213              		.loc 1 1135 0
 1214 0082 0128     		cmp	r0, #1
 1215 0084 CDD1     		bne	.L54
 1216 0086 0027     		movs	r7, #0
 1217 0088 CBE7     		b	.L54
 1218              	.LVL119:
 1219              	.L52:
 1220              	.LBE97:
 1221              	.LBE99:
 908:Generated_Source\PSoC4/CapSense.c **** 
 1222              		.loc 1 908 0
 1223              		@ sp needed
 1224              	.LVL120:
 1225 008a 3CBC     		pop	{r2, r3, r4, r5}
 1226 008c 9046     		mov	r8, r2
 1227 008e 9946     		mov	r9, r3
ARM GAS  C:\Users\young\AppData\Local\Temp\ccoFnsFE.s 			page 57


 1228 0090 A246     		mov	r10, r4
 1229 0092 AB46     		mov	fp, r5
 1230 0094 F8BD     		pop	{r3, r4, r5, r6, r7, pc}
 1231              	.L58:
 1232 0096 C046     		.align	2
 1233              	.L57:
 1234 0098 00010440 		.word	1074004224
 1235 009c 08010440 		.word	1074004232
 1236 00a0 00010240 		.word	1073873152
 1237 00a4 00000000 		.word	.LANCHOR0
 1238 00a8 00000000 		.word	CapSense_unscannedSnsDriveMode
 1239              		.cfi_endproc
 1240              	.LFE46:
 1241              		.size	CapSense_ClearSensors, .-CapSense_ClearSensors
 1242              		.section	.text.CapSense_EnableSensor,"ax",%progbits
 1243              		.align	2
 1244              		.global	CapSense_EnableSensor
 1245              		.code	16
 1246              		.thumb_func
 1247              		.type	CapSense_EnableSensor, %function
 1248              	CapSense_EnableSensor:
 1249              	.LFB47:
1059:Generated_Source\PSoC4/CapSense.c ****     uint8  pinModeShift;
 1250              		.loc 1 1059 0
 1251              		.cfi_startproc
 1252              		@ args = 0, pretend = 0, frame = 0
 1253              		@ frame_needed = 0, uses_anonymous_args = 0
 1254              	.LVL121:
 1255 0000 F8B5     		push	{r3, r4, r5, r6, r7, lr}
 1256              		.cfi_def_cfa_offset 24
 1257              		.cfi_offset 3, -24
 1258              		.cfi_offset 4, -20
 1259              		.cfi_offset 5, -16
 1260              		.cfi_offset 6, -12
 1261              		.cfi_offset 7, -8
 1262              		.cfi_offset 14, -4
1066:Generated_Source\PSoC4/CapSense.c ****     pinModeShift = CapSense_pinShiftTbl[sensor]  * CapSense_PC_PIN_CFG_SIZE;
 1263              		.loc 1 1066 0
 1264 0002 104E     		ldr	r6, .L60
1080:Generated_Source\PSoC4/CapSense.c **** 
 1265              		.loc 1 1080 0
 1266              		@ sp needed
1066:Generated_Source\PSoC4/CapSense.c ****     pinModeShift = CapSense_pinShiftTbl[sensor]  * CapSense_PC_PIN_CFG_SIZE;
 1267              		.loc 1 1066 0
 1268 0004 3318     		adds	r3, r6, r0
1067:Generated_Source\PSoC4/CapSense.c ****     pinHSIOMShift = CapSense_pinShiftTbl[sensor] * CapSense_HSIOM_PIN_CFG_SIZE;
 1269              		.loc 1 1067 0
 1270 0006 355C     		ldrb	r5, [r6, r0]
1066:Generated_Source\PSoC4/CapSense.c ****     pinModeShift = CapSense_pinShiftTbl[sensor]  * CapSense_PC_PIN_CFG_SIZE;
 1271              		.loc 1 1066 0
 1272 0008 1C7A     		ldrb	r4, [r3, #8]
 1273              	.LVL122:
1070:Generated_Source\PSoC4/CapSense.c **** 
 1274              		.loc 1 1070 0
 1275 000a FFF7FEFF 		bl	CyEnterCriticalSection
 1276              	.LVL123:
1073:Generated_Source\PSoC4/CapSense.c ****     newRegisterValue |= (uint32)((uint32)CapSense_CSD_SENSE_PORT_MODE << pinHSIOMShift);
ARM GAS  C:\Users\young\AppData\Local\Temp\ccoFnsFE.s 			page 58


 1277              		.loc 1 1073 0
 1278 000e 0F21     		movs	r1, #15
1072:Generated_Source\PSoC4/CapSense.c ****     newRegisterValue &= ~(CapSense_CSD_HSIOM_MASK << pinHSIOMShift);
 1279              		.loc 1 1072 0
 1280 0010 A300     		lsls	r3, r4, #2
1073:Generated_Source\PSoC4/CapSense.c ****     newRegisterValue |= (uint32)((uint32)CapSense_CSD_SENSE_PORT_MODE << pinHSIOMShift);
 1281              		.loc 1 1073 0
 1282 0012 AC00     		lsls	r4, r5, #2
 1283              	.LVL124:
 1284 0014 E4B2     		uxtb	r4, r4
 1285 0016 A140     		lsls	r1, r1, r4
1072:Generated_Source\PSoC4/CapSense.c ****     newRegisterValue &= ~(CapSense_CSD_HSIOM_MASK << pinHSIOMShift);
 1286              		.loc 1 1072 0
 1287 0018 F318     		adds	r3, r6, r3
 1288 001a 1E69     		ldr	r6, [r3, #16]
 1289              	.LVL125:
1076:Generated_Source\PSoC4/CapSense.c ****     *CapSense_prtSelTbl[port] = newRegisterValue;
 1290              		.loc 1 1076 0
 1291 001c 1F6A     		ldr	r7, [r3, #32]
1072:Generated_Source\PSoC4/CapSense.c ****     newRegisterValue &= ~(CapSense_CSD_HSIOM_MASK << pinHSIOMShift);
 1292              		.loc 1 1072 0
 1293 001e 3268     		ldr	r2, [r6]
 1294              	.LVL126:
1076:Generated_Source\PSoC4/CapSense.c ****     *CapSense_prtSelTbl[port] = newRegisterValue;
 1295              		.loc 1 1076 0
 1296 0020 6B00     		lsls	r3, r5, #1
1073:Generated_Source\PSoC4/CapSense.c ****     newRegisterValue |= (uint32)((uint32)CapSense_CSD_SENSE_PORT_MODE << pinHSIOMShift);
 1297              		.loc 1 1073 0
 1298 0022 8A43     		bics	r2, r1
 1299              	.LVL127:
 1300 0024 1100     		movs	r1, r2
 1301              	.LVL128:
1074:Generated_Source\PSoC4/CapSense.c **** 
 1302              		.loc 1 1074 0
 1303 0026 0422     		movs	r2, #4
 1304 0028 A240     		lsls	r2, r2, r4
1076:Generated_Source\PSoC4/CapSense.c ****     *CapSense_prtSelTbl[port] = newRegisterValue;
 1305              		.loc 1 1076 0
 1306 002a 0724     		movs	r4, #7
 1307 002c EB18     		adds	r3, r5, r3
 1308 002e DBB2     		uxtb	r3, r3
 1309 0030 9C40     		lsls	r4, r4, r3
1074:Generated_Source\PSoC4/CapSense.c **** 
 1310              		.loc 1 1074 0
 1311 0032 0A43     		orrs	r2, r1
 1312              	.LVL129:
1076:Generated_Source\PSoC4/CapSense.c ****     *CapSense_prtSelTbl[port] = newRegisterValue;
 1313              		.loc 1 1076 0
 1314 0034 3968     		ldr	r1, [r7]
 1315 0036 A143     		bics	r1, r4
 1316 0038 3960     		str	r1, [r7]
1077:Generated_Source\PSoC4/CapSense.c **** 
 1317              		.loc 1 1077 0
 1318 003a 3260     		str	r2, [r6]
1079:Generated_Source\PSoC4/CapSense.c **** }
 1319              		.loc 1 1079 0
 1320 003c FFF7FEFF 		bl	CyExitCriticalSection
ARM GAS  C:\Users\young\AppData\Local\Temp\ccoFnsFE.s 			page 59


 1321              	.LVL130:
 1322              	.LVL131:
1080:Generated_Source\PSoC4/CapSense.c **** 
 1323              		.loc 1 1080 0
 1324 0040 F8BD     		pop	{r3, r4, r5, r6, r7, pc}
 1325              	.L61:
 1326 0042 C046     		.align	2
 1327              	.L60:
 1328 0044 00000000 		.word	.LANCHOR0
 1329              		.cfi_endproc
 1330              	.LFE47:
 1331              		.size	CapSense_EnableSensor, .-CapSense_EnableSensor
 1332              		.section	.text.CapSense_DisableSensor,"ax",%progbits
 1333              		.align	2
 1334              		.global	CapSense_DisableSensor
 1335              		.code	16
 1336              		.thumb_func
 1337              		.type	CapSense_DisableSensor, %function
 1338              	CapSense_DisableSensor:
 1339              	.LFB48:
1112:Generated_Source\PSoC4/CapSense.c ****     uint8 interruptState;
 1340              		.loc 1 1112 0
 1341              		.cfi_startproc
 1342              		@ args = 0, pretend = 0, frame = 0
 1343              		@ frame_needed = 0, uses_anonymous_args = 0
 1344              	.LVL132:
 1345 0000 F0B5     		push	{r4, r5, r6, r7, lr}
 1346              		.cfi_def_cfa_offset 20
 1347              		.cfi_offset 4, -20
 1348              		.cfi_offset 5, -16
 1349              		.cfi_offset 6, -12
 1350              		.cfi_offset 7, -8
 1351              		.cfi_offset 14, -4
 1352 0002 4746     		mov	r7, r8
1123:Generated_Source\PSoC4/CapSense.c **** 
 1353              		.loc 1 1123 0
 1354 0004 0F22     		movs	r2, #15
1112:Generated_Source\PSoC4/CapSense.c ****     uint8 interruptState;
 1355              		.loc 1 1112 0
 1356 0006 80B4     		push	{r7}
 1357              		.cfi_def_cfa_offset 24
 1358              		.cfi_offset 8, -24
1116:Generated_Source\PSoC4/CapSense.c ****     uint8  pinHSIOMShift = CapSense_pinShiftTbl[sensor] * CapSense_HSIOM_PIN_CFG_SIZE;
 1359              		.loc 1 1116 0
 1360 0008 184F     		ldr	r7, .L66
1117:Generated_Source\PSoC4/CapSense.c ****     uint8  pinModeShift = CapSense_pinShiftTbl[sensor]  * CapSense_PC_PIN_CFG_SIZE;
 1361              		.loc 1 1117 0
 1362 000a 3E5C     		ldrb	r6, [r7, r0]
1116:Generated_Source\PSoC4/CapSense.c ****     uint8  pinHSIOMShift = CapSense_pinShiftTbl[sensor] * CapSense_HSIOM_PIN_CFG_SIZE;
 1363              		.loc 1 1116 0
 1364 000c 3B18     		adds	r3, r7, r0
 1365 000e 1C7A     		ldrb	r4, [r3, #8]
 1366              	.LVL133:
1121:Generated_Source\PSoC4/CapSense.c **** 
 1367              		.loc 1 1121 0
 1368 0010 174B     		ldr	r3, .L66+4
1123:Generated_Source\PSoC4/CapSense.c **** 
ARM GAS  C:\Users\young\AppData\Local\Temp\ccoFnsFE.s 			page 60


 1369              		.loc 1 1123 0
 1370 0012 B100     		lsls	r1, r6, #2
1121:Generated_Source\PSoC4/CapSense.c **** 
 1371              		.loc 1 1121 0
 1372 0014 1B5C     		ldrb	r3, [r3, r0]
1123:Generated_Source\PSoC4/CapSense.c **** 
 1373              		.loc 1 1123 0
 1374 0016 C9B2     		uxtb	r1, r1
 1375 0018 8A40     		lsls	r2, r2, r1
1121:Generated_Source\PSoC4/CapSense.c **** 
 1376              		.loc 1 1121 0
 1377 001a 9C46     		mov	ip, r3
1123:Generated_Source\PSoC4/CapSense.c **** 
 1378              		.loc 1 1123 0
 1379 001c A400     		lsls	r4, r4, #2
 1380              	.LVL134:
 1381 001e 3B19     		adds	r3, r7, r4
 1382 0020 1869     		ldr	r0, [r3, #16]
 1383              	.LVL135:
1118:Generated_Source\PSoC4/CapSense.c **** 
 1384              		.loc 1 1118 0
 1385 0022 7500     		lsls	r5, r6, #1
1123:Generated_Source\PSoC4/CapSense.c **** 
 1386              		.loc 1 1123 0
 1387 0024 0368     		ldr	r3, [r0]
1118:Generated_Source\PSoC4/CapSense.c **** 
 1388              		.loc 1 1118 0
 1389 0026 7519     		adds	r5, r6, r5
1123:Generated_Source\PSoC4/CapSense.c **** 
 1390              		.loc 1 1123 0
 1391 0028 9343     		bics	r3, r2
 1392 002a 0360     		str	r3, [r0]
1135:Generated_Source\PSoC4/CapSense.c ****         {
 1393              		.loc 1 1135 0
 1394 002c 6346     		mov	r3, ip
1118:Generated_Source\PSoC4/CapSense.c **** 
 1395              		.loc 1 1118 0
 1396 002e EDB2     		uxtb	r5, r5
 1397              	.LVL136:
1135:Generated_Source\PSoC4/CapSense.c ****         {
 1398              		.loc 1 1135 0
 1399 0030 012B     		cmp	r3, #1
 1400 0032 18D0     		beq	.L65
 1401              	.LVL137:
 1402 0034 0623     		movs	r3, #6
 1403 0036 AB40     		lsls	r3, r3, r5
 1404 0038 9846     		mov	r8, r3
 1405              	.LVL138:
 1406              	.L64:
1141:Generated_Source\PSoC4/CapSense.c **** 
 1407              		.loc 1 1141 0
 1408 003a FFF7FEFF 		bl	CyEnterCriticalSection
 1409              	.LVL139:
1145:Generated_Source\PSoC4/CapSense.c ****         newRegisterValue |=  (uint32)(inactiveConnect << pinModeShift);
 1410              		.loc 1 1145 0
 1411 003e 0722     		movs	r2, #7
 1412 0040 AA40     		lsls	r2, r2, r5
ARM GAS  C:\Users\young\AppData\Local\Temp\ccoFnsFE.s 			page 61


1144:Generated_Source\PSoC4/CapSense.c ****         newRegisterValue &= ~(CapSense_CSD_PIN_MODE_MASK << pinModeShift);
 1413              		.loc 1 1144 0
 1414 0042 3C19     		adds	r4, r7, r4
 1415 0044 216A     		ldr	r1, [r4, #32]
1160:Generated_Source\PSoC4/CapSense.c **** 
 1416              		.loc 1 1160 0
 1417              		@ sp needed
1144:Generated_Source\PSoC4/CapSense.c ****         newRegisterValue &= ~(CapSense_CSD_PIN_MODE_MASK << pinModeShift);
 1418              		.loc 1 1144 0
 1419 0046 0B68     		ldr	r3, [r1]
 1420              	.LVL140:
1145:Generated_Source\PSoC4/CapSense.c ****         newRegisterValue |=  (uint32)(inactiveConnect << pinModeShift);
 1421              		.loc 1 1145 0
 1422 0048 9343     		bics	r3, r2
 1423              	.LVL141:
1146:Generated_Source\PSoC4/CapSense.c ****         *CapSense_prtCfgTbl[port] =  newRegisterValue;
 1424              		.loc 1 1146 0
 1425 004a 4246     		mov	r2, r8
 1426 004c 1343     		orrs	r3, r2
 1427              	.LVL142:
1147:Generated_Source\PSoC4/CapSense.c **** 
 1428              		.loc 1 1147 0
 1429 004e 0B60     		str	r3, [r1]
1149:Generated_Source\PSoC4/CapSense.c **** 
 1430              		.loc 1 1149 0
 1431 0050 FFF7FEFF 		bl	CyExitCriticalSection
 1432              	.LVL143:
1151:Generated_Source\PSoC4/CapSense.c ****     #if(CapSense_IS_SHIELD_ENABLE != 0)
 1433              		.loc 1 1151 0
 1434 0054 0122     		movs	r2, #1
 1435 0056 B240     		lsls	r2, r2, r6
 1436 0058 216B     		ldr	r1, [r4, #48]
 1437 005a 0B68     		ldr	r3, [r1]
 1438 005c 9343     		bics	r3, r2
 1439 005e 0B60     		str	r3, [r1]
 1440              	.LVL144:
 1441              	.LVL145:
 1442              	.LVL146:
1160:Generated_Source\PSoC4/CapSense.c **** 
 1443              		.loc 1 1160 0
 1444 0060 04BC     		pop	{r2}
 1445 0062 9046     		mov	r8, r2
 1446 0064 F0BD     		pop	{r4, r5, r6, r7, pc}
 1447              	.LVL147:
 1448              	.L65:
1135:Generated_Source\PSoC4/CapSense.c ****         {
 1449              		.loc 1 1135 0
 1450 0066 0023     		movs	r3, #0
 1451 0068 9846     		mov	r8, r3
 1452 006a E6E7     		b	.L64
 1453              	.L67:
 1454              		.align	2
 1455              	.L66:
 1456 006c 00000000 		.word	.LANCHOR0
 1457 0070 00000000 		.word	CapSense_unscannedSnsDriveMode
 1458              		.cfi_endproc
 1459              	.LFE48:
ARM GAS  C:\Users\young\AppData\Local\Temp\ccoFnsFE.s 			page 62


 1460              		.size	CapSense_DisableSensor, .-CapSense_DisableSensor
 1461              		.section	.text.CapSense_SetDriveModeAllPins,"ax",%progbits
 1462              		.align	2
 1463              		.global	CapSense_SetDriveModeAllPins
 1464              		.code	16
 1465              		.thumb_func
 1466              		.type	CapSense_SetDriveModeAllPins, %function
 1467              	CapSense_SetDriveModeAllPins:
 1468              	.LFB49:
1189:Generated_Source\PSoC4/CapSense.c ****     uint8 curSensor;
 1469              		.loc 1 1189 0
 1470              		.cfi_startproc
 1471              		@ args = 0, pretend = 0, frame = 0
 1472              		@ frame_needed = 0, uses_anonymous_args = 0
 1473              	.LVL148:
 1474 0000 30B5     		push	{r4, r5, lr}
 1475              		.cfi_def_cfa_offset 12
 1476              		.cfi_offset 4, -12
 1477              		.cfi_offset 5, -8
 1478              		.cfi_offset 14, -4
 1479              	.LBB104:
 1480              	.LBB105:
1321:Generated_Source\PSoC4/CapSense.c ****     newRegisterValue |=  (uint32)((uint32)driveMode << pinModeShift);
 1481              		.loc 1 1321 0
 1482 0002 3825     		movs	r5, #56
1320:Generated_Source\PSoC4/CapSense.c ****     newRegisterValue &= ~(CapSense_CSD_PIN_MODE_MASK << pinModeShift);
 1483              		.loc 1 1320 0
 1484 0004 144B     		ldr	r3, .L69
1321:Generated_Source\PSoC4/CapSense.c ****     newRegisterValue |=  (uint32)((uint32)driveMode << pinModeShift);
 1485              		.loc 1 1321 0
 1486 0006 154C     		ldr	r4, .L69+4
1320:Generated_Source\PSoC4/CapSense.c ****     newRegisterValue &= ~(CapSense_CSD_PIN_MODE_MASK << pinModeShift);
 1487              		.loc 1 1320 0
 1488 0008 1A68     		ldr	r2, [r3]
 1489              	.LVL149:
1322:Generated_Source\PSoC4/CapSense.c ****     *CapSense_prtCfgTbl[portNumber] =  newRegisterValue;
 1490              		.loc 1 1322 0
 1491 000a 0103     		lsls	r1, r0, #12
1321:Generated_Source\PSoC4/CapSense.c ****     newRegisterValue |=  (uint32)((uint32)driveMode << pinModeShift);
 1492              		.loc 1 1321 0
 1493 000c 2240     		ands	r2, r4
 1494              	.LVL150:
1322:Generated_Source\PSoC4/CapSense.c ****     *CapSense_prtCfgTbl[portNumber] =  newRegisterValue;
 1495              		.loc 1 1322 0
 1496 000e 0A43     		orrs	r2, r1
 1497              	.LVL151:
1323:Generated_Source\PSoC4/CapSense.c **** }
 1498              		.loc 1 1323 0
 1499 0010 1A60     		str	r2, [r3]
 1500              	.LVL152:
1320:Generated_Source\PSoC4/CapSense.c ****     newRegisterValue &= ~(CapSense_CSD_PIN_MODE_MASK << pinModeShift);
 1501              		.loc 1 1320 0
 1502 0012 1A68     		ldr	r2, [r3]
 1503              	.LVL153:
 1504              	.LBE105:
 1505              	.LBE104:
1236:Generated_Source\PSoC4/CapSense.c **** 
ARM GAS  C:\Users\young\AppData\Local\Temp\ccoFnsFE.s 			page 63


 1506              		.loc 1 1236 0
 1507              		@ sp needed
 1508              	.LBB107:
 1509              	.LBB106:
1321:Generated_Source\PSoC4/CapSense.c ****     newRegisterValue |=  (uint32)((uint32)driveMode << pinModeShift);
 1510              		.loc 1 1321 0
 1511 0014 AA43     		bics	r2, r5
 1512              	.LVL154:
1322:Generated_Source\PSoC4/CapSense.c ****     *CapSense_prtCfgTbl[portNumber] =  newRegisterValue;
 1513              		.loc 1 1322 0
 1514 0016 C500     		lsls	r5, r0, #3
 1515 0018 2A43     		orrs	r2, r5
 1516              	.LVL155:
1323:Generated_Source\PSoC4/CapSense.c **** }
 1517              		.loc 1 1323 0
 1518 001a 1A60     		str	r2, [r3]
 1519              	.LVL156:
1320:Generated_Source\PSoC4/CapSense.c ****     newRegisterValue &= ~(CapSense_CSD_PIN_MODE_MASK << pinModeShift);
 1520              		.loc 1 1320 0
 1521 001c 1D68     		ldr	r5, [r3]
 1522              	.LVL157:
1321:Generated_Source\PSoC4/CapSense.c ****     newRegisterValue |=  (uint32)((uint32)driveMode << pinModeShift);
 1523              		.loc 1 1321 0
 1524 001e 104A     		ldr	r2, .L69+8
 1525 0020 2A40     		ands	r2, r5
 1526              	.LVL158:
1322:Generated_Source\PSoC4/CapSense.c ****     *CapSense_prtCfgTbl[portNumber] =  newRegisterValue;
 1527              		.loc 1 1322 0
 1528 0022 8501     		lsls	r5, r0, #6
 1529 0024 2A43     		orrs	r2, r5
 1530              	.LVL159:
1323:Generated_Source\PSoC4/CapSense.c **** }
 1531              		.loc 1 1323 0
 1532 0026 1A60     		str	r2, [r3]
 1533              	.LVL160:
1320:Generated_Source\PSoC4/CapSense.c ****     newRegisterValue &= ~(CapSense_CSD_PIN_MODE_MASK << pinModeShift);
 1534              		.loc 1 1320 0
 1535 0028 1D68     		ldr	r5, [r3]
 1536              	.LVL161:
1321:Generated_Source\PSoC4/CapSense.c ****     newRegisterValue |=  (uint32)((uint32)driveMode << pinModeShift);
 1537              		.loc 1 1321 0
 1538 002a 0E4A     		ldr	r2, .L69+12
 1539 002c 2A40     		ands	r2, r5
 1540              	.LVL162:
1322:Generated_Source\PSoC4/CapSense.c ****     *CapSense_prtCfgTbl[portNumber] =  newRegisterValue;
 1541              		.loc 1 1322 0
 1542 002e C503     		lsls	r5, r0, #15
 1543 0030 2A43     		orrs	r2, r5
 1544              	.LVL163:
1321:Generated_Source\PSoC4/CapSense.c ****     newRegisterValue |=  (uint32)((uint32)driveMode << pinModeShift);
 1545              		.loc 1 1321 0
 1546 0032 0725     		movs	r5, #7
1323:Generated_Source\PSoC4/CapSense.c **** }
 1547              		.loc 1 1323 0
 1548 0034 1A60     		str	r2, [r3]
 1549              	.LVL164:
1320:Generated_Source\PSoC4/CapSense.c ****     newRegisterValue &= ~(CapSense_CSD_PIN_MODE_MASK << pinModeShift);
ARM GAS  C:\Users\young\AppData\Local\Temp\ccoFnsFE.s 			page 64


 1550              		.loc 1 1320 0
 1551 0036 1A68     		ldr	r2, [r3]
 1552              	.LVL165:
1321:Generated_Source\PSoC4/CapSense.c ****     newRegisterValue |=  (uint32)((uint32)driveMode << pinModeShift);
 1553              		.loc 1 1321 0
 1554 0038 AA43     		bics	r2, r5
 1555              	.LVL166:
1322:Generated_Source\PSoC4/CapSense.c ****     *CapSense_prtCfgTbl[portNumber] =  newRegisterValue;
 1556              		.loc 1 1322 0
 1557 003a 0243     		orrs	r2, r0
 1558              	.LVL167:
1323:Generated_Source\PSoC4/CapSense.c **** }
 1559              		.loc 1 1323 0
 1560 003c 1A60     		str	r2, [r3]
 1561              	.LVL168:
1320:Generated_Source\PSoC4/CapSense.c ****     newRegisterValue &= ~(CapSense_CSD_PIN_MODE_MASK << pinModeShift);
 1562              		.loc 1 1320 0
 1563 003e 1D68     		ldr	r5, [r3]
 1564              	.LVL169:
1321:Generated_Source\PSoC4/CapSense.c ****     newRegisterValue |=  (uint32)((uint32)driveMode << pinModeShift);
 1565              		.loc 1 1321 0
 1566 0040 094A     		ldr	r2, .L69+16
1322:Generated_Source\PSoC4/CapSense.c ****     *CapSense_prtCfgTbl[portNumber] =  newRegisterValue;
 1567              		.loc 1 1322 0
 1568 0042 4002     		lsls	r0, r0, #9
 1569              	.LVL170:
1321:Generated_Source\PSoC4/CapSense.c ****     newRegisterValue |=  (uint32)((uint32)driveMode << pinModeShift);
 1570              		.loc 1 1321 0
 1571 0044 2A40     		ands	r2, r5
 1572              	.LVL171:
1322:Generated_Source\PSoC4/CapSense.c ****     *CapSense_prtCfgTbl[portNumber] =  newRegisterValue;
 1573              		.loc 1 1322 0
 1574 0046 1043     		orrs	r0, r2
 1575              	.LVL172:
1323:Generated_Source\PSoC4/CapSense.c **** }
 1576              		.loc 1 1323 0
 1577 0048 1860     		str	r0, [r3]
 1578              	.LVL173:
 1579              	.LBE106:
 1580              	.LBE107:
 1581              	.LBB108:
 1582              	.LBB109:
1320:Generated_Source\PSoC4/CapSense.c ****     newRegisterValue &= ~(CapSense_CSD_PIN_MODE_MASK << pinModeShift);
 1583              		.loc 1 1320 0
 1584 004a 084B     		ldr	r3, .L69+20
 1585 004c 1A68     		ldr	r2, [r3]
 1586              	.LVL174:
1321:Generated_Source\PSoC4/CapSense.c ****     newRegisterValue |=  (uint32)((uint32)driveMode << pinModeShift);
 1587              		.loc 1 1321 0
 1588 004e 1440     		ands	r4, r2
 1589              	.LVL175:
1322:Generated_Source\PSoC4/CapSense.c ****     *CapSense_prtCfgTbl[portNumber] =  newRegisterValue;
 1590              		.loc 1 1322 0
 1591 0050 2143     		orrs	r1, r4
 1592              	.LVL176:
1323:Generated_Source\PSoC4/CapSense.c **** }
 1593              		.loc 1 1323 0
ARM GAS  C:\Users\young\AppData\Local\Temp\ccoFnsFE.s 			page 65


 1594 0052 1960     		str	r1, [r3]
 1595              	.LVL177:
 1596              	.LBE109:
 1597              	.LBE108:
1236:Generated_Source\PSoC4/CapSense.c **** 
 1598              		.loc 1 1236 0
 1599 0054 30BD     		pop	{r4, r5, pc}
 1600              	.L70:
 1601 0056 C046     		.align	2
 1602              	.L69:
 1603 0058 08010440 		.word	1074004232
 1604 005c FF8FFFFF 		.word	-28673
 1605 0060 3FFEFFFF 		.word	-449
 1606 0064 FF7FFCFF 		.word	-229377
 1607 0068 FFF1FFFF 		.word	-3585
 1608 006c 08000440 		.word	1074003976
 1609              		.cfi_endproc
 1610              	.LFE49:
 1611              		.size	CapSense_SetDriveModeAllPins, .-CapSense_SetDriveModeAllPins
 1612              		.section	.text.CapSense_RestoreDriveModeAllPins,"ax",%progbits
 1613              		.align	2
 1614              		.global	CapSense_RestoreDriveModeAllPins
 1615              		.code	16
 1616              		.thumb_func
 1617              		.type	CapSense_RestoreDriveModeAllPins, %function
 1618              	CapSense_RestoreDriveModeAllPins:
 1619              	.LFB50:
1262:Generated_Source\PSoC4/CapSense.c ****     uint32 newRegisterValue;
 1620              		.loc 1 1262 0
 1621              		.cfi_startproc
 1622              		@ args = 0, pretend = 0, frame = 0
 1623              		@ frame_needed = 0, uses_anonymous_args = 0
 1624              		@ link register save eliminated.
 1625              	.LVL178:
 1626              	.LBB116:
 1627              	.LBB117:
 1628              	.LBB118:
 1629              	.LBB119:
1321:Generated_Source\PSoC4/CapSense.c ****     newRegisterValue |=  (uint32)((uint32)driveMode << pinModeShift);
 1630              		.loc 1 1321 0
 1631 0000 3820     		movs	r0, #56
1320:Generated_Source\PSoC4/CapSense.c ****     newRegisterValue &= ~(CapSense_CSD_PIN_MODE_MASK << pinModeShift);
 1632              		.loc 1 1320 0
 1633 0002 124B     		ldr	r3, .L72
1321:Generated_Source\PSoC4/CapSense.c ****     newRegisterValue |=  (uint32)((uint32)driveMode << pinModeShift);
 1634              		.loc 1 1321 0
 1635 0004 124A     		ldr	r2, .L72+4
1320:Generated_Source\PSoC4/CapSense.c ****     newRegisterValue &= ~(CapSense_CSD_PIN_MODE_MASK << pinModeShift);
 1636              		.loc 1 1320 0
 1637 0006 1968     		ldr	r1, [r3]
 1638              	.LVL179:
 1639              	.LBE119:
 1640              	.LBE118:
 1641              	.LBE117:
 1642              	.LBE116:
1285:Generated_Source\PSoC4/CapSense.c **** 
 1643              		.loc 1 1285 0
ARM GAS  C:\Users\young\AppData\Local\Temp\ccoFnsFE.s 			page 66


 1644              		@ sp needed
 1645              	.LBB125:
 1646              	.LBB124:
 1647              	.LBB121:
 1648              	.LBB120:
1321:Generated_Source\PSoC4/CapSense.c ****     newRegisterValue |=  (uint32)((uint32)driveMode << pinModeShift);
 1649              		.loc 1 1321 0
 1650 0008 1140     		ands	r1, r2
 1651              	.LVL180:
1323:Generated_Source\PSoC4/CapSense.c **** }
 1652              		.loc 1 1323 0
 1653 000a 1960     		str	r1, [r3]
 1654              	.LVL181:
1320:Generated_Source\PSoC4/CapSense.c ****     newRegisterValue &= ~(CapSense_CSD_PIN_MODE_MASK << pinModeShift);
 1655              		.loc 1 1320 0
 1656 000c 1968     		ldr	r1, [r3]
 1657              	.LVL182:
1321:Generated_Source\PSoC4/CapSense.c ****     newRegisterValue |=  (uint32)((uint32)driveMode << pinModeShift);
 1658              		.loc 1 1321 0
 1659 000e 8143     		bics	r1, r0
 1660              	.LVL183:
1323:Generated_Source\PSoC4/CapSense.c **** }
 1661              		.loc 1 1323 0
 1662 0010 1960     		str	r1, [r3]
 1663              	.LVL184:
1320:Generated_Source\PSoC4/CapSense.c ****     newRegisterValue &= ~(CapSense_CSD_PIN_MODE_MASK << pinModeShift);
 1664              		.loc 1 1320 0
 1665 0012 1868     		ldr	r0, [r3]
 1666              	.LVL185:
1321:Generated_Source\PSoC4/CapSense.c ****     newRegisterValue |=  (uint32)((uint32)driveMode << pinModeShift);
 1667              		.loc 1 1321 0
 1668 0014 0F49     		ldr	r1, .L72+8
 1669 0016 0140     		ands	r1, r0
 1670              	.LVL186:
1323:Generated_Source\PSoC4/CapSense.c **** }
 1671              		.loc 1 1323 0
 1672 0018 1960     		str	r1, [r3]
 1673              	.LVL187:
1320:Generated_Source\PSoC4/CapSense.c ****     newRegisterValue &= ~(CapSense_CSD_PIN_MODE_MASK << pinModeShift);
 1674              		.loc 1 1320 0
 1675 001a 1868     		ldr	r0, [r3]
 1676              	.LVL188:
1321:Generated_Source\PSoC4/CapSense.c ****     newRegisterValue |=  (uint32)((uint32)driveMode << pinModeShift);
 1677              		.loc 1 1321 0
 1678 001c 0E49     		ldr	r1, .L72+12
 1679 001e 0140     		ands	r1, r0
 1680              	.LVL189:
 1681 0020 0720     		movs	r0, #7
1323:Generated_Source\PSoC4/CapSense.c **** }
 1682              		.loc 1 1323 0
 1683 0022 1960     		str	r1, [r3]
 1684              	.LVL190:
1320:Generated_Source\PSoC4/CapSense.c ****     newRegisterValue &= ~(CapSense_CSD_PIN_MODE_MASK << pinModeShift);
 1685              		.loc 1 1320 0
 1686 0024 1968     		ldr	r1, [r3]
 1687              	.LVL191:
1321:Generated_Source\PSoC4/CapSense.c ****     newRegisterValue |=  (uint32)((uint32)driveMode << pinModeShift);
ARM GAS  C:\Users\young\AppData\Local\Temp\ccoFnsFE.s 			page 67


 1688              		.loc 1 1321 0
 1689 0026 8143     		bics	r1, r0
 1690              	.LVL192:
1323:Generated_Source\PSoC4/CapSense.c **** }
 1691              		.loc 1 1323 0
 1692 0028 1960     		str	r1, [r3]
 1693              	.LVL193:
1320:Generated_Source\PSoC4/CapSense.c ****     newRegisterValue &= ~(CapSense_CSD_PIN_MODE_MASK << pinModeShift);
 1694              		.loc 1 1320 0
 1695 002a 1868     		ldr	r0, [r3]
 1696              	.LVL194:
1321:Generated_Source\PSoC4/CapSense.c ****     newRegisterValue |=  (uint32)((uint32)driveMode << pinModeShift);
 1697              		.loc 1 1321 0
 1698 002c 0B49     		ldr	r1, .L72+16
 1699 002e 0140     		ands	r1, r0
 1700              	.LVL195:
1323:Generated_Source\PSoC4/CapSense.c **** }
 1701              		.loc 1 1323 0
 1702 0030 1960     		str	r1, [r3]
 1703              	.LVL196:
 1704              	.LBE120:
 1705              	.LBE121:
 1706              	.LBB122:
 1707              	.LBB123:
1320:Generated_Source\PSoC4/CapSense.c ****     newRegisterValue &= ~(CapSense_CSD_PIN_MODE_MASK << pinModeShift);
 1708              		.loc 1 1320 0
 1709 0032 0B4B     		ldr	r3, .L72+20
 1710 0034 1968     		ldr	r1, [r3]
 1711              	.LVL197:
1321:Generated_Source\PSoC4/CapSense.c ****     newRegisterValue |=  (uint32)((uint32)driveMode << pinModeShift);
 1712              		.loc 1 1321 0
 1713 0036 0A40     		ands	r2, r1
 1714              	.LVL198:
1323:Generated_Source\PSoC4/CapSense.c **** }
 1715              		.loc 1 1323 0
 1716 0038 1A60     		str	r2, [r3]
 1717              	.LVL199:
 1718              	.LBE123:
 1719              	.LBE122:
 1720              	.LBE124:
 1721              	.LBE125:
1267:Generated_Source\PSoC4/CapSense.c ****     newRegisterValue &= ~(CapSense_CSD_CMOD_CONNECTION_MASK);
 1722              		.loc 1 1267 0
 1723 003a 0A4A     		ldr	r2, .L72+24
1268:Generated_Source\PSoC4/CapSense.c ****     newRegisterValue |= CapSense_CSD_CMOD_TO_AMUXBUS_A;
 1724              		.loc 1 1268 0
 1725 003c 0A4B     		ldr	r3, .L72+28
1267:Generated_Source\PSoC4/CapSense.c ****     newRegisterValue &= ~(CapSense_CSD_CMOD_CONNECTION_MASK);
 1726              		.loc 1 1267 0
 1727 003e 1168     		ldr	r1, [r2]
 1728              	.LVL200:
1268:Generated_Source\PSoC4/CapSense.c ****     newRegisterValue |= CapSense_CSD_CMOD_TO_AMUXBUS_A;
 1729              		.loc 1 1268 0
 1730 0040 0B40     		ands	r3, r1
 1731              	.LVL201:
1269:Generated_Source\PSoC4/CapSense.c ****     CapSense_CMOD_CONNECTION_REG = newRegisterValue;
 1732              		.loc 1 1269 0
ARM GAS  C:\Users\young\AppData\Local\Temp\ccoFnsFE.s 			page 68


 1733 0042 C021     		movs	r1, #192
 1734 0044 C902     		lsls	r1, r1, #11
 1735 0046 0B43     		orrs	r3, r1
 1736              	.LVL202:
1270:Generated_Source\PSoC4/CapSense.c **** 
 1737              		.loc 1 1270 0
 1738 0048 1360     		str	r3, [r2]
1285:Generated_Source\PSoC4/CapSense.c **** 
 1739              		.loc 1 1285 0
 1740 004a 7047     		bx	lr
 1741              	.L73:
 1742              		.align	2
 1743              	.L72:
 1744 004c 08010440 		.word	1074004232
 1745 0050 FF8FFFFF 		.word	-28673
 1746 0054 3FFEFFFF 		.word	-449
 1747 0058 FF7FFCFF 		.word	-229377
 1748 005c FFF1FFFF 		.word	-3585
 1749 0060 08000440 		.word	1074003976
 1750 0064 00000240 		.word	1073872896
 1751 0068 FFFFF0FF 		.word	-983041
 1752              		.cfi_endproc
 1753              	.LFE50:
 1754              		.size	CapSense_RestoreDriveModeAllPins, .-CapSense_RestoreDriveModeAllPins
 1755              		.section	.text.CapSense_SetPinDriveMode,"ax",%progbits
 1756              		.align	2
 1757              		.global	CapSense_SetPinDriveMode
 1758              		.code	16
 1759              		.thumb_func
 1760              		.type	CapSense_SetPinDriveMode, %function
 1761              	CapSense_SetPinDriveMode:
 1762              	.LFB51:
1314:Generated_Source\PSoC4/CapSense.c ****     uint32  pinModeShift;
 1763              		.loc 1 1314 0
 1764              		.cfi_startproc
 1765              		@ args = 0, pretend = 0, frame = 0
 1766              		@ frame_needed = 0, uses_anonymous_args = 0
 1767              	.LVL203:
1318:Generated_Source\PSoC4/CapSense.c **** 
 1768              		.loc 1 1318 0
 1769 0000 4B00     		lsls	r3, r1, #1
 1770 0002 5918     		adds	r1, r3, r1
 1771              	.LVL204:
1320:Generated_Source\PSoC4/CapSense.c ****     newRegisterValue &= ~(CapSense_CSD_PIN_MODE_MASK << pinModeShift);
 1772              		.loc 1 1320 0
 1773 0004 064B     		ldr	r3, .L75
 1774 0006 9200     		lsls	r2, r2, #2
 1775              	.LVL205:
 1776 0008 9A18     		adds	r2, r3, r2
1314:Generated_Source\PSoC4/CapSense.c ****     uint32  pinModeShift;
 1777              		.loc 1 1314 0
 1778 000a 10B5     		push	{r4, lr}
 1779              		.cfi_def_cfa_offset 8
 1780              		.cfi_offset 4, -8
 1781              		.cfi_offset 14, -4
1320:Generated_Source\PSoC4/CapSense.c ****     newRegisterValue &= ~(CapSense_CSD_PIN_MODE_MASK << pinModeShift);
 1782              		.loc 1 1320 0
ARM GAS  C:\Users\young\AppData\Local\Temp\ccoFnsFE.s 			page 69


 1783 000c 146A     		ldr	r4, [r2, #32]
1321:Generated_Source\PSoC4/CapSense.c ****     newRegisterValue |=  (uint32)((uint32)driveMode << pinModeShift);
 1784              		.loc 1 1321 0
 1785 000e 0722     		movs	r2, #7
 1786 0010 8A40     		lsls	r2, r2, r1
1322:Generated_Source\PSoC4/CapSense.c ****     *CapSense_prtCfgTbl[portNumber] =  newRegisterValue;
 1787              		.loc 1 1322 0
 1788 0012 8840     		lsls	r0, r0, r1
 1789              	.LVL206:
1320:Generated_Source\PSoC4/CapSense.c ****     newRegisterValue &= ~(CapSense_CSD_PIN_MODE_MASK << pinModeShift);
 1790              		.loc 1 1320 0
 1791 0014 2368     		ldr	r3, [r4]
 1792              	.LVL207:
1324:Generated_Source\PSoC4/CapSense.c **** 
 1793              		.loc 1 1324 0
 1794              		@ sp needed
1321:Generated_Source\PSoC4/CapSense.c ****     newRegisterValue |=  (uint32)((uint32)driveMode << pinModeShift);
 1795              		.loc 1 1321 0
 1796 0016 9343     		bics	r3, r2
 1797              	.LVL208:
1322:Generated_Source\PSoC4/CapSense.c ****     *CapSense_prtCfgTbl[portNumber] =  newRegisterValue;
 1798              		.loc 1 1322 0
 1799 0018 1843     		orrs	r0, r3
 1800              	.LVL209:
1323:Generated_Source\PSoC4/CapSense.c **** }
 1801              		.loc 1 1323 0
 1802 001a 2060     		str	r0, [r4]
1324:Generated_Source\PSoC4/CapSense.c **** 
 1803              		.loc 1 1324 0
 1804 001c 10BD     		pop	{r4, pc}
 1805              	.L76:
 1806 001e C046     		.align	2
 1807              	.L75:
 1808 0020 00000000 		.word	.LANCHOR0
 1809              		.cfi_endproc
 1810              	.LFE51:
 1811              		.size	CapSense_SetPinDriveMode, .-CapSense_SetPinDriveMode
 1812              		.section	.text.CapSense_PreScan,"ax",%progbits
 1813              		.align	2
 1814              		.global	CapSense_PreScan
 1815              		.code	16
 1816              		.thumb_func
 1817              		.type	CapSense_PreScan, %function
 1818              	CapSense_PreScan:
 1819              	.LFB52:
1350:Generated_Source\PSoC4/CapSense.c ****     uint8 widget;
 1820              		.loc 1 1350 0
 1821              		.cfi_startproc
 1822              		@ args = 0, pretend = 0, frame = 0
 1823              		@ frame_needed = 0, uses_anonymous_args = 0
 1824              	.LVL210:
1368:Generated_Source\PSoC4/CapSense.c **** 
 1825              		.loc 1 1368 0
 1826 0000 434B     		ldr	r3, .L78
1350:Generated_Source\PSoC4/CapSense.c ****     uint8 widget;
 1827              		.loc 1 1350 0
 1828 0002 F0B5     		push	{r4, r5, r6, r7, lr}
ARM GAS  C:\Users\young\AppData\Local\Temp\ccoFnsFE.s 			page 70


 1829              		.cfi_def_cfa_offset 20
 1830              		.cfi_offset 4, -20
 1831              		.cfi_offset 5, -16
 1832              		.cfi_offset 6, -12
 1833              		.cfi_offset 7, -8
 1834              		.cfi_offset 14, -4
 1835 0004 4546     		mov	r5, r8
1368:Generated_Source\PSoC4/CapSense.c **** 
 1836              		.loc 1 1368 0
 1837 0006 9846     		mov	r8, r3
 1838 0008 4023     		movs	r3, #64
1350:Generated_Source\PSoC4/CapSense.c ****     uint8 widget;
 1839              		.loc 1 1350 0
 1840 000a 4E46     		mov	r6, r9
1368:Generated_Source\PSoC4/CapSense.c **** 
 1841              		.loc 1 1368 0
 1842 000c 8146     		mov	r9, r0
1350:Generated_Source\PSoC4/CapSense.c ****     uint8 widget;
 1843              		.loc 1 1350 0
 1844 000e 5746     		mov	r7, r10
1368:Generated_Source\PSoC4/CapSense.c **** 
 1845              		.loc 1 1368 0
 1846 0010 9A46     		mov	r10, r3
 1847 0012 C144     		add	r9, r9, r8
1371:Generated_Source\PSoC4/CapSense.c **** 
 1848              		.loc 1 1371 0
 1849 0014 5246     		mov	r2, r10
 1850 0016 4B46     		mov	r3, r9
1350:Generated_Source\PSoC4/CapSense.c ****     uint8 widget;
 1851              		.loc 1 1350 0
 1852 0018 E0B4     		push	{r5, r6, r7}
 1853              		.cfi_def_cfa_offset 32
 1854              		.cfi_offset 8, -32
 1855              		.cfi_offset 9, -28
 1856              		.cfi_offset 10, -24
1350:Generated_Source\PSoC4/CapSense.c ****     uint8 widget;
 1857              		.loc 1 1350 0
 1858 001a 0700     		movs	r7, r0
1371:Generated_Source\PSoC4/CapSense.c **** 
 1859              		.loc 1 1371 0
 1860 001c 9B5C     		ldrb	r3, [r3, r2]
 1861 001e 3D4C     		ldr	r4, .L78+4
 1862 0020 9B00     		lsls	r3, r3, #2
 1863 0022 E318     		adds	r3, r4, r3
1391:Generated_Source\PSoC4/CapSense.c ****         CapSense_SenseClk_SetDividerValue((uint16)CapSense_senseClkDividerVal[sensor]);
 1864              		.loc 1 1391 0
 1865 0024 E419     		adds	r4, r4, r7
1371:Generated_Source\PSoC4/CapSense.c **** 
 1866              		.loc 1 1371 0
 1867 0026 5E68     		ldr	r6, [r3, #4]
 1868              	.LVL211:
1386:Generated_Source\PSoC4/CapSense.c ****         CapSense_SampleClk_Stop();
 1869              		.loc 1 1386 0
 1870 0028 FFF7FEFF 		bl	CapSense_SenseClk_Stop
 1871              	.LVL212:
1387:Generated_Source\PSoC4/CapSense.c ****     #endif /* (0u != CapSense_IS_M0S8PERI_BLOCK) */
 1872              		.loc 1 1387 0
ARM GAS  C:\Users\young\AppData\Local\Temp\ccoFnsFE.s 			page 71


 1873 002c FFF7FEFF 		bl	CapSense_SampleClk_Stop
 1874              	.LVL213:
1391:Generated_Source\PSoC4/CapSense.c ****         CapSense_SenseClk_SetDividerValue((uint16)CapSense_senseClkDividerVal[sensor]);
 1875              		.loc 1 1391 0
 1876 0030 207F     		ldrb	r0, [r4, #28]
 1877 0032 0021     		movs	r1, #0
 1878 0034 0138     		subs	r0, r0, #1
 1879 0036 80B2     		uxth	r0, r0
 1880 0038 FFF7FEFF 		bl	CapSense_SampleClk_SetFractionalDividerRegister
 1881              	.LVL214:
1392:Generated_Source\PSoC4/CapSense.c ****     #else
 1882              		.loc 1 1392 0
 1883 003c 2423     		movs	r3, #36
 1884 003e E05C     		ldrb	r0, [r4, r3]
 1885 0040 0021     		movs	r1, #0
 1886 0042 0138     		subs	r0, r0, #1
 1887 0044 80B2     		uxth	r0, r0
 1888 0046 FFF7FEFF 		bl	CapSense_SenseClk_SetFractionalDividerRegister
 1889              	.LVL215:
1399:Generated_Source\PSoC4/CapSense.c ****         CapSense_SenseClk_StartEx(CapSense_SampleClk__DIV_ID);
 1890              		.loc 1 1399 0
 1891 004a FF20     		movs	r0, #255
 1892 004c FFF7FEFF 		bl	CapSense_SampleClk_StartEx
 1893              	.LVL216:
1400:Generated_Source\PSoC4/CapSense.c **** 
 1894              		.loc 1 1400 0
 1895 0050 4020     		movs	r0, #64
 1896 0052 FFF7FEFF 		bl	CapSense_SenseClk_StartEx
 1897              	.LVL217:
1422:Generated_Source\PSoC4/CapSense.c **** 
 1898              		.loc 1 1422 0
 1899 0056 0720     		movs	r0, #7
 1900 0058 FFF7FEFF 		bl	CyIntDisable
 1901              	.LVL218:
1425:Generated_Source\PSoC4/CapSense.c **** 
 1902              		.loc 1 1425 0
 1903 005c 5246     		mov	r2, r10
1424:Generated_Source\PSoC4/CapSense.c ****             newRegValue |= CapSense_CSD_CFG_PRS_SELECT;
 1904              		.loc 1 1424 0
 1905 005e 2E4D     		ldr	r5, .L78+8
1452:Generated_Source\PSoC4/CapSense.c **** 
 1906              		.loc 1 1452 0
 1907 0060 0720     		movs	r0, #7
1424:Generated_Source\PSoC4/CapSense.c ****             newRegValue |= CapSense_CSD_CFG_PRS_SELECT;
 1908              		.loc 1 1424 0
 1909 0062 2B68     		ldr	r3, [r5]
 1910              	.LVL219:
1521:Generated_Source\PSoC4/CapSense.c **** 
 1911              		.loc 1 1521 0
 1912              		@ sp needed
1425:Generated_Source\PSoC4/CapSense.c **** 
 1913              		.loc 1 1425 0
 1914 0064 1343     		orrs	r3, r2
 1915              	.LVL220:
1450:Generated_Source\PSoC4/CapSense.c **** 
 1916              		.loc 1 1450 0
 1917 0066 2B60     		str	r3, [r5]
ARM GAS  C:\Users\young\AppData\Local\Temp\ccoFnsFE.s 			page 72


1452:Generated_Source\PSoC4/CapSense.c **** 
 1918              		.loc 1 1452 0
 1919 0068 FFF7FEFF 		bl	CyIntEnable
 1920              	.LVL221:
1461:Generated_Source\PSoC4/CapSense.c ****     newRegValue = CapSense_CSD_IDAC_REG;
 1921              		.loc 1 1461 0
 1922 006c 0720     		movs	r0, #7
 1923 006e FFF7FEFF 		bl	CyIntDisable
 1924              	.LVL222:
1462:Generated_Source\PSoC4/CapSense.c **** 
 1925              		.loc 1 1462 0
 1926 0072 2A48     		ldr	r0, .L78+12
 1927 0074 2A4B     		ldr	r3, .L78+16
 1928 0076 0268     		ldr	r2, [r0]
 1929              	.LVL223:
 1930 0078 1340     		ands	r3, r2
 1931              	.LVL224:
1469:Generated_Source\PSoC4/CapSense.c ****                             (uint32)((uint32)CapSense_compensationIDAC[sensor] <<
 1932              		.loc 1 1469 0
 1933 007a 2C22     		movs	r2, #44
 1934 007c A15C     		ldrb	r1, [r4, r2]
 1935 007e 0B43     		orrs	r3, r1
 1936              	.LVL225:
 1937 0080 1A00     		movs	r2, r3
1470:Generated_Source\PSoC4/CapSense.c ****                             CapSense_CSD_IDAC2_DATA_OFFSET));
 1938              		.loc 1 1470 0
 1939 0082 284B     		ldr	r3, .L78+20
 1940 0084 DB19     		adds	r3, r3, r7
1469:Generated_Source\PSoC4/CapSense.c ****                             (uint32)((uint32)CapSense_compensationIDAC[sensor] <<
 1941              		.loc 1 1469 0
 1942 0086 1B7C     		ldrb	r3, [r3, #16]
 1943 0088 1B04     		lsls	r3, r3, #16
 1944 008a 1343     		orrs	r3, r2
 1945              	.LVL226:
1474:Generated_Source\PSoC4/CapSense.c **** 
 1946              		.loc 1 1474 0
 1947 008c 0360     		str	r3, [r0]
1489:Generated_Source\PSoC4/CapSense.c ****     newRegValue &= ~(CapSense_PRECHARGE_CONFIG_MASK);
 1948              		.loc 1 1489 0
 1949 008e 2C68     		ldr	r4, [r5]
 1950              	.LVL227:
1490:Generated_Source\PSoC4/CapSense.c ****     newRegValue |= CapSense_CTANK_PRECHARGE_CONFIG;
 1951              		.loc 1 1490 0
 1952 0090 254B     		ldr	r3, .L78+24
1493:Generated_Source\PSoC4/CapSense.c **** 
 1953              		.loc 1 1493 0
 1954 0092 0720     		movs	r0, #7
1490:Generated_Source\PSoC4/CapSense.c ****     newRegValue |= CapSense_CTANK_PRECHARGE_CONFIG;
 1955              		.loc 1 1490 0
 1956 0094 1C40     		ands	r4, r3
 1957              	.LVL228:
1491:Generated_Source\PSoC4/CapSense.c **** 
 1958              		.loc 1 1491 0
 1959 0096 254B     		ldr	r3, .L78+28
 1960 0098 1C43     		orrs	r4, r3
 1961              	.LVL229:
1493:Generated_Source\PSoC4/CapSense.c **** 
ARM GAS  C:\Users\young\AppData\Local\Temp\ccoFnsFE.s 			page 73


 1962              		.loc 1 1493 0
 1963 009a FFF7FEFF 		bl	CyIntEnable
 1964              	.LVL230:
 1965              	.LBB128:
 1966              	.LBB129:
1066:Generated_Source\PSoC4/CapSense.c ****     pinModeShift = CapSense_pinShiftTbl[sensor]  * CapSense_PC_PIN_CFG_SIZE;
 1967              		.loc 1 1066 0
 1968 009e 4B46     		mov	r3, r9
 1969 00a0 1B7A     		ldrb	r3, [r3, #8]
 1970 00a2 9946     		mov	r9, r3
 1971              	.LVL231:
1067:Generated_Source\PSoC4/CapSense.c ****     pinHSIOMShift = CapSense_pinShiftTbl[sensor] * CapSense_HSIOM_PIN_CFG_SIZE;
 1972              		.loc 1 1067 0
 1973 00a4 4346     		mov	r3, r8
 1974              	.LVL232:
 1975 00a6 DF5D     		ldrb	r7, [r3, r7]
 1976              	.LVL233:
1070:Generated_Source\PSoC4/CapSense.c **** 
 1977              		.loc 1 1070 0
 1978 00a8 FFF7FEFF 		bl	CyEnterCriticalSection
 1979              	.LVL234:
 1980 00ac 8246     		mov	r10, r0
 1981              	.LVL235:
1073:Generated_Source\PSoC4/CapSense.c ****     newRegisterValue |= (uint32)((uint32)CapSense_CSD_SENSE_PORT_MODE << pinHSIOMShift);
 1982              		.loc 1 1073 0
 1983 00ae 0F20     		movs	r0, #15
1072:Generated_Source\PSoC4/CapSense.c ****     newRegisterValue &= ~(CapSense_CSD_HSIOM_MASK << pinHSIOMShift);
 1984              		.loc 1 1072 0
 1985 00b0 4B46     		mov	r3, r9
1073:Generated_Source\PSoC4/CapSense.c ****     newRegisterValue |= (uint32)((uint32)CapSense_CSD_SENSE_PORT_MODE << pinHSIOMShift);
 1986              		.loc 1 1073 0
 1987 00b2 B900     		lsls	r1, r7, #2
 1988 00b4 C9B2     		uxtb	r1, r1
 1989 00b6 8840     		lsls	r0, r0, r1
1072:Generated_Source\PSoC4/CapSense.c ****     newRegisterValue &= ~(CapSense_CSD_HSIOM_MASK << pinHSIOMShift);
 1990              		.loc 1 1072 0
 1991 00b8 9B00     		lsls	r3, r3, #2
 1992 00ba 4344     		add	r3, r3, r8
 1993 00bc 1A69     		ldr	r2, [r3, #16]
1076:Generated_Source\PSoC4/CapSense.c ****     *CapSense_prtSelTbl[port] = newRegisterValue;
 1994              		.loc 1 1076 0
 1995 00be 1B6A     		ldr	r3, [r3, #32]
1072:Generated_Source\PSoC4/CapSense.c ****     newRegisterValue &= ~(CapSense_CSD_HSIOM_MASK << pinHSIOMShift);
 1996              		.loc 1 1072 0
 1997 00c0 9446     		mov	ip, r2
 1998 00c2 1268     		ldr	r2, [r2]
 1999              	.LVL236:
1076:Generated_Source\PSoC4/CapSense.c ****     *CapSense_prtSelTbl[port] = newRegisterValue;
 2000              		.loc 1 1076 0
 2001 00c4 9846     		mov	r8, r3
1073:Generated_Source\PSoC4/CapSense.c ****     newRegisterValue |= (uint32)((uint32)CapSense_CSD_SENSE_PORT_MODE << pinHSIOMShift);
 2002              		.loc 1 1073 0
 2003 00c6 8243     		bics	r2, r0
 2004              	.LVL237:
1074:Generated_Source\PSoC4/CapSense.c **** 
 2005              		.loc 1 1074 0
 2006 00c8 0420     		movs	r0, #4
ARM GAS  C:\Users\young\AppData\Local\Temp\ccoFnsFE.s 			page 74


 2007 00ca 8840     		lsls	r0, r0, r1
1076:Generated_Source\PSoC4/CapSense.c ****     *CapSense_prtSelTbl[port] = newRegisterValue;
 2008              		.loc 1 1076 0
 2009 00cc 1968     		ldr	r1, [r3]
 2010 00ce 7B00     		lsls	r3, r7, #1
 2011 00d0 FB18     		adds	r3, r7, r3
 2012 00d2 0727     		movs	r7, #7
 2013              	.LVL238:
 2014 00d4 DBB2     		uxtb	r3, r3
 2015 00d6 9F40     		lsls	r7, r7, r3
 2016 00d8 B943     		bics	r1, r7
 2017 00da 0B00     		movs	r3, r1
 2018 00dc 4146     		mov	r1, r8
 2019 00de 0B60     		str	r3, [r1]
1077:Generated_Source\PSoC4/CapSense.c **** 
 2020              		.loc 1 1077 0
 2021 00e0 6346     		mov	r3, ip
1074:Generated_Source\PSoC4/CapSense.c **** 
 2022              		.loc 1 1074 0
 2023 00e2 0243     		orrs	r2, r0
 2024              	.LVL239:
1077:Generated_Source\PSoC4/CapSense.c **** 
 2025              		.loc 1 1077 0
 2026 00e4 1A60     		str	r2, [r3]
1079:Generated_Source\PSoC4/CapSense.c **** }
 2027              		.loc 1 1079 0
 2028 00e6 5046     		mov	r0, r10
 2029 00e8 FFF7FEFF 		bl	CyExitCriticalSection
 2030              	.LVL240:
 2031              	.LBE129:
 2032              	.LBE128:
1498:Generated_Source\PSoC4/CapSense.c ****     CapSense_CSD_CFG_REG = newRegValue;
 2033              		.loc 1 1498 0
 2034 00ec FFF7FEFF 		bl	CyEnterCriticalSection
 2035              	.LVL241:
 2036 00f0 0700     		movs	r7, r0
 2037              	.LVL242:
1499:Generated_Source\PSoC4/CapSense.c **** 
 2038              		.loc 1 1499 0
 2039 00f2 2C60     		str	r4, [r5]
1509:Generated_Source\PSoC4/CapSense.c **** 
 2040              		.loc 1 1509 0
 2041 00f4 0020     		movs	r0, #0
 2042 00f6 FFF7FEFF 		bl	CyDelayCycles
 2043              	.LVL243:
1519:Generated_Source\PSoC4/CapSense.c ****     CyExitCriticalSection(interruptState);
 2044              		.loc 1 1519 0
 2045 00fa 0D4B     		ldr	r3, .L78+32
1520:Generated_Source\PSoC4/CapSense.c **** }
 2046              		.loc 1 1520 0
 2047 00fc 3800     		movs	r0, r7
1519:Generated_Source\PSoC4/CapSense.c ****     CyExitCriticalSection(interruptState);
 2048              		.loc 1 1519 0
 2049 00fe 1E60     		str	r6, [r3]
1520:Generated_Source\PSoC4/CapSense.c **** }
 2050              		.loc 1 1520 0
 2051 0100 FFF7FEFF 		bl	CyExitCriticalSection
ARM GAS  C:\Users\young\AppData\Local\Temp\ccoFnsFE.s 			page 75


 2052              	.LVL244:
 2053              	.LVL245:
 2054              	.LVL246:
 2055              	.LVL247:
1521:Generated_Source\PSoC4/CapSense.c **** 
 2056              		.loc 1 1521 0
 2057 0104 1CBC     		pop	{r2, r3, r4}
 2058 0106 9046     		mov	r8, r2
 2059 0108 9946     		mov	r9, r3
 2060 010a A246     		mov	r10, r4
 2061 010c F0BD     		pop	{r4, r5, r6, r7, pc}
 2062              	.L79:
 2063 010e C046     		.align	2
 2064              	.L78:
 2065 0110 00000000 		.word	.LANCHOR0
 2066 0114 00000000 		.word	.LANCHOR2
 2067 0118 04000840 		.word	1074266116
 2068 011c 08000840 		.word	1074266120
 2069 0120 00FF80FF 		.word	-8323328
 2070 0124 00000000 		.word	.LANCHOR1
 2071 0128 FF1FDFFF 		.word	-2154497
 2072 012c 20002000 		.word	2097184
 2073 0130 0C000840 		.word	1074266124
 2074              		.cfi_endproc
 2075              	.LFE52:
 2076              		.size	CapSense_PreScan, .-CapSense_PreScan
 2077              		.section	.text.CapSense_ScanSensor,"ax",%progbits
 2078              		.align	2
 2079              		.global	CapSense_ScanSensor
 2080              		.code	16
 2081              		.thumb_func
 2082              		.type	CapSense_ScanSensor, %function
 2083              	CapSense_ScanSensor:
 2084              	.LFB38:
 569:Generated_Source\PSoC4/CapSense.c ****     /* Clears status/control variable and set sensorIndex */
 2085              		.loc 1 569 0
 2086              		.cfi_startproc
 2087              		@ args = 0, pretend = 0, frame = 0
 2088              		@ frame_needed = 0, uses_anonymous_args = 0
 2089              	.LVL248:
 571:Generated_Source\PSoC4/CapSense.c ****     CapSense_sensorIndex = (uint8)sensor;
 2090              		.loc 1 571 0
 2091 0000 0022     		movs	r2, #0
 2092 0002 054B     		ldr	r3, .L81
 569:Generated_Source\PSoC4/CapSense.c ****     /* Clears status/control variable and set sensorIndex */
 2093              		.loc 1 569 0
 2094 0004 10B5     		push	{r4, lr}
 2095              		.cfi_def_cfa_offset 8
 2096              		.cfi_offset 4, -8
 2097              		.cfi_offset 14, -4
 571:Generated_Source\PSoC4/CapSense.c ****     CapSense_sensorIndex = (uint8)sensor;
 2098              		.loc 1 571 0
 2099 0006 5A70     		strb	r2, [r3, #1]
 572:Generated_Source\PSoC4/CapSense.c **** 
 2100              		.loc 1 572 0
 2101 0008 C2B2     		uxtb	r2, r0
 2102 000a 9A75     		strb	r2, [r3, #22]
ARM GAS  C:\Users\young\AppData\Local\Temp\ccoFnsFE.s 			page 76


 575:Generated_Source\PSoC4/CapSense.c ****     CapSense_PreScan(sensor);
 2103              		.loc 1 575 0
 2104 000c 8122     		movs	r2, #129
 577:Generated_Source\PSoC4/CapSense.c **** 
 2105              		.loc 1 577 0
 2106              		@ sp needed
 575:Generated_Source\PSoC4/CapSense.c ****     CapSense_PreScan(sensor);
 2107              		.loc 1 575 0
 2108 000e 5A70     		strb	r2, [r3, #1]
 576:Generated_Source\PSoC4/CapSense.c **** }
 2109              		.loc 1 576 0
 2110 0010 FFF7FEFF 		bl	CapSense_PreScan
 2111              	.LVL249:
 577:Generated_Source\PSoC4/CapSense.c **** 
 2112              		.loc 1 577 0
 2113 0014 10BD     		pop	{r4, pc}
 2114              	.L82:
 2115 0016 C046     		.align	2
 2116              	.L81:
 2117 0018 00000000 		.word	.LANCHOR1
 2118              		.cfi_endproc
 2119              	.LFE38:
 2120              		.size	CapSense_ScanSensor, .-CapSense_ScanSensor
 2121              		.section	.text.CapSense_ScanEnabledWidgets,"ax",%progbits
 2122              		.align	2
 2123              		.global	CapSense_ScanEnabledWidgets
 2124              		.code	16
 2125              		.thumb_func
 2126              		.type	CapSense_ScanEnabledWidgets, %function
 2127              	CapSense_ScanEnabledWidgets:
 2128              	.LFB40:
 693:Generated_Source\PSoC4/CapSense.c ****     /* Clears status/control variable and set sensorIndex */
 2129              		.loc 1 693 0
 2130              		.cfi_startproc
 2131              		@ args = 0, pretend = 0, frame = 0
 2132              		@ frame_needed = 0, uses_anonymous_args = 0
 2133 0000 F8B5     		push	{r3, r4, r5, r6, r7, lr}
 2134              		.cfi_def_cfa_offset 24
 2135              		.cfi_offset 3, -24
 2136              		.cfi_offset 4, -20
 2137              		.cfi_offset 5, -16
 2138              		.cfi_offset 6, -12
 2139              		.cfi_offset 7, -8
 2140              		.cfi_offset 14, -4
 695:Generated_Source\PSoC4/CapSense.c ****     CapSense_sensorIndex = 0xFFu;
 2141              		.loc 1 695 0
 2142 0002 0023     		movs	r3, #0
 2143              	.LBB130:
 2144              	.LBB131:
 2145              	.LBB132:
 2146              	.LBB133:
 2147              		.loc 1 1755 0
 2148 0004 0724     		movs	r4, #7
 2149 0006 0120     		movs	r0, #1
 2150              	.LBE133:
 2151              	.LBE132:
 2152              	.LBE131:
ARM GAS  C:\Users\young\AppData\Local\Temp\ccoFnsFE.s 			page 77


 2153              	.LBE130:
 695:Generated_Source\PSoC4/CapSense.c ****     CapSense_sensorIndex = 0xFFu;
 2154              		.loc 1 695 0
 2155 0008 0F4E     		ldr	r6, .L92
 2156              	.LBB140:
 2157              	.LBB138:
 2158              	.LBB136:
 2159              	.LBB134:
 2160              		.loc 1 1755 0
 2161 000a 104D     		ldr	r5, .L92+4
 2162              	.LBE134:
 2163              	.LBE136:
 2164              	.LBE138:
 2165              	.LBE140:
 695:Generated_Source\PSoC4/CapSense.c ****     CapSense_sensorIndex = 0xFFu;
 2166              		.loc 1 695 0
 2167 000c 7370     		strb	r3, [r6, #1]
 696:Generated_Source\PSoC4/CapSense.c **** 
 2168              		.loc 1 696 0
 2169 000e FF33     		adds	r3, r3, #255
 2170 0010 B375     		strb	r3, [r6, #22]
 699:Generated_Source\PSoC4/CapSense.c **** 
 2171              		.loc 1 699 0
 2172 0012 B37D     		ldrb	r3, [r6, #22]
 2173 0014 DBB2     		uxtb	r3, r3
 2174              	.LVL250:
 2175              	.L85:
 2176              	.LBB141:
 2177              	.LBB139:
 528:Generated_Source\PSoC4/CapSense.c ****         if(snsIndex == CapSense_TOTAL_SENSOR_COUNT)
 2178              		.loc 1 528 0
 2179 0016 0133     		adds	r3, r3, #1
 2180              	.LVL251:
 2181 0018 DBB2     		uxtb	r3, r3
 2182              	.LVL252:
 529:Generated_Source\PSoC4/CapSense.c ****         {
 2183              		.loc 1 529 0
 2184 001a 062B     		cmp	r3, #6
 2185 001c 07D0     		beq	.L84
 2186              	.LVL253:
 2187              	.LBB137:
 2188              	.LBB135:
 2189              		.loc 1 1755 0
 2190 001e 2100     		movs	r1, r4
 2191 0020 0700     		movs	r7, r0
 2192 0022 1940     		ands	r1, r3
 2193 0024 8F40     		lsls	r7, r7, r1
 2194 0026 DA08     		lsrs	r2, r3, #3
 2195 0028 AA5C     		ldrb	r2, [r5, r2]
 2196 002a 1742     		tst	r7, r2
 2197 002c F3D0     		beq	.L85
 2198              	.LVL254:
 2199              	.L84:
 2200              	.LBE135:
 2201              	.LBE137:
 2202              	.LBE139:
 2203              	.LBE141:
ARM GAS  C:\Users\young\AppData\Local\Temp\ccoFnsFE.s 			page 78


 699:Generated_Source\PSoC4/CapSense.c **** 
 2204              		.loc 1 699 0
 2205 002e B375     		strb	r3, [r6, #22]
 702:Generated_Source\PSoC4/CapSense.c ****     {
 2206              		.loc 1 702 0
 2207 0030 B37D     		ldrb	r3, [r6, #22]
 2208 0032 052B     		cmp	r3, #5
 2209 0034 07D8     		bhi	.L83
 704:Generated_Source\PSoC4/CapSense.c ****         CapSense_PreScan((uint32)CapSense_sensorIndex);
 2210              		.loc 1 704 0
 2211 0036 0123     		movs	r3, #1
 2212 0038 7278     		ldrb	r2, [r6, #1]
 2213 003a 1343     		orrs	r3, r2
 2214 003c 7370     		strb	r3, [r6, #1]
 705:Generated_Source\PSoC4/CapSense.c ****     }
 2215              		.loc 1 705 0
 2216 003e B07D     		ldrb	r0, [r6, #22]
 2217 0040 C0B2     		uxtb	r0, r0
 2218 0042 FFF7FEFF 		bl	CapSense_PreScan
 2219              	.LVL255:
 2220              	.L83:
 707:Generated_Source\PSoC4/CapSense.c **** 
 2221              		.loc 1 707 0
 2222              		@ sp needed
 2223 0046 F8BD     		pop	{r3, r4, r5, r6, r7, pc}
 2224              	.L93:
 2225              		.align	2
 2226              	.L92:
 2227 0048 00000000 		.word	.LANCHOR1
 2228 004c 00000000 		.word	.LANCHOR2
 2229              		.cfi_endproc
 2230              	.LFE40:
 2231              		.size	CapSense_ScanEnabledWidgets, .-CapSense_ScanEnabledWidgets
 2232              		.section	.text.CapSense_ScanWidget,"ax",%progbits
 2233              		.align	2
 2234              		.global	CapSense_ScanWidget
 2235              		.code	16
 2236              		.thumb_func
 2237              		.type	CapSense_ScanWidget, %function
 2238              	CapSense_ScanWidget:
 2239              	.LFB39:
 608:Generated_Source\PSoC4/CapSense.c ****     uint32 sensorsPerWidget;
 2240              		.loc 1 608 0
 2241              		.cfi_startproc
 2242              		@ args = 0, pretend = 0, frame = 0
 2243              		@ frame_needed = 0, uses_anonymous_args = 0
 2244              	.LVL256:
 614:Generated_Source\PSoC4/CapSense.c **** 
 2245              		.loc 1 614 0
 2246 0000 2A4B     		ldr	r3, .L123
 617:Generated_Source\PSoC4/CapSense.c **** 
 2247              		.loc 1 617 0
 2248 0002 2B49     		ldr	r1, .L123+4
 614:Generated_Source\PSoC4/CapSense.c **** 
 2249              		.loc 1 614 0
 2250 0004 1B5C     		ldrb	r3, [r3, r0]
 2251 0006 2B4A     		ldr	r2, .L123+8
ARM GAS  C:\Users\young\AppData\Local\Temp\ccoFnsFE.s 			page 79


 617:Generated_Source\PSoC4/CapSense.c **** 
 2252              		.loc 1 617 0
 2253 0008 095C     		ldrb	r1, [r1, r0]
 2254              	.LVL257:
 608:Generated_Source\PSoC4/CapSense.c ****     uint32 sensorsPerWidget;
 2255              		.loc 1 608 0
 2256 000a 10B5     		push	{r4, lr}
 2257              		.cfi_def_cfa_offset 8
 2258              		.cfi_offset 4, -8
 2259              		.cfi_offset 14, -4
 614:Generated_Source\PSoC4/CapSense.c **** 
 2260              		.loc 1 614 0
 2261 000c 9375     		strb	r3, [r2, #22]
 620:Generated_Source\PSoC4/CapSense.c ****     {
 2262              		.loc 1 620 0
 2263 000e 0029     		cmp	r1, #0
 2264 0010 00D1     		bne	.L95
 622:Generated_Source\PSoC4/CapSense.c ****     }
 2265              		.loc 1 622 0
 2266 0012 0131     		adds	r1, r1, #1
 2267              	.LVL258:
 2268              	.L95:
 632:Generated_Source\PSoC4/CapSense.c ****     }
 2269              		.loc 1 632 0
 2270 0014 2848     		ldr	r0, .L123+12
 2271              	.LVL259:
 626:Generated_Source\PSoC4/CapSense.c **** 
 2272              		.loc 1 626 0
 2273 0016 013B     		subs	r3, r3, #1
 632:Generated_Source\PSoC4/CapSense.c ****     }
 2274              		.loc 1 632 0
 2275 0018 284C     		ldr	r4, .L123+16
 626:Generated_Source\PSoC4/CapSense.c **** 
 2276              		.loc 1 626 0
 2277 001a 5918     		adds	r1, r3, r1
 2278              	.LVL260:
 632:Generated_Source\PSoC4/CapSense.c ****     }
 2279              		.loc 1 632 0
 2280 001c 0378     		ldrb	r3, [r0]
 2281 001e 2370     		strb	r3, [r4]
 639:Generated_Source\PSoC4/CapSense.c ****         {
 2282              		.loc 1 639 0
 2283 0020 947D     		ldrb	r4, [r2, #22]
 2284 0022 002C     		cmp	r4, #0
 2285 0024 2FD1     		bne	.L117
 2286              	.LVL261:
 2287              	.LBB142:
 2288              	.LBB143:
1756:Generated_Source\PSoC4/CapSense.c **** }
1757:Generated_Source\PSoC4/CapSense.c **** 
1758:Generated_Source\PSoC4/CapSense.c **** 
1759:Generated_Source\PSoC4/CapSense.c **** /*******************************************************************************
1760:Generated_Source\PSoC4/CapSense.c **** * Function Name: CapSense_SetBitValue
1761:Generated_Source\PSoC4/CapSense.c **** ********************************************************************************
1762:Generated_Source\PSoC4/CapSense.c **** *
1763:Generated_Source\PSoC4/CapSense.c **** * Summary:
1764:Generated_Source\PSoC4/CapSense.c **** *  The API sets a bit status of the bit in the table array which contains masks.
ARM GAS  C:\Users\young\AppData\Local\Temp\ccoFnsFE.s 			page 80


1765:Generated_Source\PSoC4/CapSense.c **** *
1766:Generated_Source\PSoC4/CapSense.c **** * Parameters:
1767:Generated_Source\PSoC4/CapSense.c **** *  table[] - array with bit masks.
1768:Generated_Source\PSoC4/CapSense.c **** *  position - position of bit in the table[] array.
1769:Generated_Source\PSoC4/CapSense.c **** *  value: 0 - bit is not set; 1 - bit is set.
1770:Generated_Source\PSoC4/CapSense.c **** *
1771:Generated_Source\PSoC4/CapSense.c **** * Return:
1772:Generated_Source\PSoC4/CapSense.c **** *  None
1773:Generated_Source\PSoC4/CapSense.c **** *
1774:Generated_Source\PSoC4/CapSense.c **** * Global Variables:
1775:Generated_Source\PSoC4/CapSense.c **** *  None
1776:Generated_Source\PSoC4/CapSense.c **** *
1777:Generated_Source\PSoC4/CapSense.c **** * Side Effects:
1778:Generated_Source\PSoC4/CapSense.c **** *  None
1779:Generated_Source\PSoC4/CapSense.c **** *
1780:Generated_Source\PSoC4/CapSense.c **** *******************************************************************************/
1781:Generated_Source\PSoC4/CapSense.c **** void CapSense_SetBitValue(uint8 table[], uint32 position, uint32 value)
1782:Generated_Source\PSoC4/CapSense.c **** {
1783:Generated_Source\PSoC4/CapSense.c ****     uint32 offset;
1784:Generated_Source\PSoC4/CapSense.c ****     uint8 enMask;
1785:Generated_Source\PSoC4/CapSense.c **** 
1786:Generated_Source\PSoC4/CapSense.c ****     /* position is divided by 8 to calculate the element of the
1787:Generated_Source\PSoC4/CapSense.c ****        table[] array that contains the enable bit
1788:Generated_Source\PSoC4/CapSense.c ****        for an appropriate sensor.
1789:Generated_Source\PSoC4/CapSense.c ****     */
1790:Generated_Source\PSoC4/CapSense.c ****     offset = (position >> 3u);
1791:Generated_Source\PSoC4/CapSense.c **** 
1792:Generated_Source\PSoC4/CapSense.c ****     /* The enMask calculation for the appropriate sensor. Operation (position & 0x07u)
1793:Generated_Source\PSoC4/CapSense.c ****        intends to calculate the enable bit offset for the 8-bit element of the
1794:Generated_Source\PSoC4/CapSense.c ****        table[] array.
1795:Generated_Source\PSoC4/CapSense.c ****     */
1796:Generated_Source\PSoC4/CapSense.c ****     enMask = 0x01u << (position & 0x07u);
1797:Generated_Source\PSoC4/CapSense.c **** 
1798:Generated_Source\PSoC4/CapSense.c ****     if(0u != value)
1799:Generated_Source\PSoC4/CapSense.c ****     {
1800:Generated_Source\PSoC4/CapSense.c ****         table[offset] |= enMask;
 2289              		.loc 1 1800 0
 2290 0026 0124     		movs	r4, #1
 2291 0028 2343     		orrs	r3, r4
 2292              	.LVL262:
 2293              	.L97:
 2294              	.LBE143:
 2295              	.LBE142:
 639:Generated_Source\PSoC4/CapSense.c ****         {
 2296              		.loc 1 639 0
 2297 002a 947D     		ldrb	r4, [r2, #22]
 2298 002c 012C     		cmp	r4, #1
 2299 002e 01D8     		bhi	.L100
 2300 0030 0029     		cmp	r1, #0
 2301 0032 37D1     		bne	.L118
 2302              	.L100:
 2303              	.LVL263:
 2304              	.LBB145:
 2305              	.LBB146:
1801:Generated_Source\PSoC4/CapSense.c ****     }
1802:Generated_Source\PSoC4/CapSense.c ****     else
1803:Generated_Source\PSoC4/CapSense.c ****     {
ARM GAS  C:\Users\young\AppData\Local\Temp\ccoFnsFE.s 			page 81


1804:Generated_Source\PSoC4/CapSense.c ****         table[offset] &= (uint8)~(enMask);
 2306              		.loc 1 1804 0
 2307 0034 0224     		movs	r4, #2
 2308 0036 A343     		bics	r3, r4
 2309              	.LVL264:
 2310              	.L99:
 2311              	.LBE146:
 2312              	.LBE145:
 639:Generated_Source\PSoC4/CapSense.c ****         {
 2313              		.loc 1 639 0
 2314 0038 947D     		ldrb	r4, [r2, #22]
 2315 003a 022C     		cmp	r4, #2
 2316 003c 01D8     		bhi	.L103
 2317 003e 0129     		cmp	r1, #1
 2318 0040 2DD8     		bhi	.L119
 2319              	.L103:
 2320              	.LVL265:
 2321              	.LBB152:
 2322              	.LBB147:
 2323              		.loc 1 1804 0
 2324 0042 0424     		movs	r4, #4
 2325 0044 A343     		bics	r3, r4
 2326              	.LVL266:
 2327              	.L102:
 2328              	.LBE147:
 2329              	.LBE152:
 639:Generated_Source\PSoC4/CapSense.c ****         {
 2330              		.loc 1 639 0
 2331 0046 947D     		ldrb	r4, [r2, #22]
 2332 0048 032C     		cmp	r4, #3
 2333 004a 01D8     		bhi	.L106
 2334 004c 0229     		cmp	r1, #2
 2335 004e 23D8     		bhi	.L120
 2336              	.L106:
 2337              	.LVL267:
 2338              	.LBB153:
 2339              	.LBB148:
 2340              		.loc 1 1804 0
 2341 0050 0824     		movs	r4, #8
 2342 0052 A343     		bics	r3, r4
 2343              	.LVL268:
 2344              	.L105:
 2345              	.LBE148:
 2346              	.LBE153:
 639:Generated_Source\PSoC4/CapSense.c ****         {
 2347              		.loc 1 639 0
 2348 0054 947D     		ldrb	r4, [r2, #22]
 2349 0056 042C     		cmp	r4, #4
 2350 0058 01D8     		bhi	.L109
 2351 005a 0329     		cmp	r1, #3
 2352 005c 19D8     		bhi	.L121
 2353              	.L109:
 2354              	.LVL269:
 2355              	.LBB154:
 2356              	.LBB149:
 2357              		.loc 1 1804 0
 2358 005e 1024     		movs	r4, #16
ARM GAS  C:\Users\young\AppData\Local\Temp\ccoFnsFE.s 			page 82


 2359 0060 A343     		bics	r3, r4
 2360              	.LVL270:
 2361              	.L108:
 2362              	.LBE149:
 2363              	.LBE154:
 639:Generated_Source\PSoC4/CapSense.c ****         {
 2364              		.loc 1 639 0
 2365 0062 947D     		ldrb	r4, [r2, #22]
 2366 0064 052C     		cmp	r4, #5
 2367 0066 01D8     		bhi	.L110
 639:Generated_Source\PSoC4/CapSense.c ****         {
 2368              		.loc 1 639 0 is_stmt 0 discriminator 1
 2369 0068 0429     		cmp	r1, #4
 2370 006a 0FD8     		bhi	.L122
 2371              	.L110:
 2372              	.LVL271:
 2373              	.LBB155:
 2374              	.LBB150:
 2375              		.loc 1 1804 0 is_stmt 1
 2376 006c 2021     		movs	r1, #32
 2377              	.LVL272:
 2378 006e 8B43     		bics	r3, r1
 2379              	.LVL273:
 2380              	.L111:
 2381 0070 0370     		strb	r3, [r0]
 2382              	.LBE150:
 2383              	.LBE155:
 652:Generated_Source\PSoC4/CapSense.c ****     {
 2384              		.loc 1 652 0 discriminator 2
 2385 0072 937D     		ldrb	r3, [r2, #22]
 2386 0074 052B     		cmp	r3, #5
 2387 0076 05D8     		bhi	.L94
 655:Generated_Source\PSoC4/CapSense.c ****         /* Scan first sensor of widget*/
 2388              		.loc 1 655 0
 2389 0078 4123     		movs	r3, #65
 2390 007a 5370     		strb	r3, [r2, #1]
 657:Generated_Source\PSoC4/CapSense.c ****     }
 2391              		.loc 1 657 0
 2392 007c 907D     		ldrb	r0, [r2, #22]
 2393 007e C0B2     		uxtb	r0, r0
 2394 0080 FFF7FEFF 		bl	CapSense_PreScan
 2395              	.LVL274:
 2396              	.L94:
 659:Generated_Source\PSoC4/CapSense.c **** #endif /* (0u != CapSense_CSHL_API_GENERATE) */
 2397              		.loc 1 659 0
 2398              		@ sp needed
 2399 0084 10BD     		pop	{r4, pc}
 2400              	.LVL275:
 2401              	.L117:
 2402              	.LBB156:
 2403              	.LBB151:
 2404              		.loc 1 1804 0
 2405 0086 0124     		movs	r4, #1
 2406 0088 A343     		bics	r3, r4
 2407 008a CEE7     		b	.L97
 2408              	.LVL276:
 2409              	.L122:
ARM GAS  C:\Users\young\AppData\Local\Temp\ccoFnsFE.s 			page 83


 2410              	.LBE151:
 2411              	.LBE156:
 2412              	.LBB157:
 2413              	.LBB144:
1800:Generated_Source\PSoC4/CapSense.c ****     }
 2414              		.loc 1 1800 0
 2415 008c 2021     		movs	r1, #32
 2416              	.LVL277:
 2417 008e 0B43     		orrs	r3, r1
 2418 0090 EEE7     		b	.L111
 2419              	.LVL278:
 2420              	.L121:
 2421 0092 1024     		movs	r4, #16
 2422 0094 2343     		orrs	r3, r4
 2423 0096 E4E7     		b	.L108
 2424              	.LVL279:
 2425              	.L120:
 2426 0098 0824     		movs	r4, #8
 2427 009a 2343     		orrs	r3, r4
 2428 009c DAE7     		b	.L105
 2429              	.LVL280:
 2430              	.L119:
 2431 009e 0424     		movs	r4, #4
 2432 00a0 2343     		orrs	r3, r4
 2433 00a2 D0E7     		b	.L102
 2434              	.LVL281:
 2435              	.L118:
 2436 00a4 0224     		movs	r4, #2
 2437 00a6 2343     		orrs	r3, r4
 2438 00a8 C6E7     		b	.L99
 2439              	.L124:
 2440 00aa C046     		.align	2
 2441              	.L123:
 2442 00ac 00000000 		.word	CapSense_rawDataIndex
 2443 00b0 00000000 		.word	CapSense_numberOfSensors
 2444 00b4 00000000 		.word	.LANCHOR1
 2445 00b8 00000000 		.word	.LANCHOR2
 2446 00bc 00000000 		.word	CapSense_sensorEnableMaskBackup
 2447              	.LBE144:
 2448              	.LBE157:
 2449              		.cfi_endproc
 2450              	.LFE39:
 2451              		.size	CapSense_ScanWidget, .-CapSense_ScanWidget
 2452              		.section	.text.CapSense_PostScan,"ax",%progbits
 2453              		.align	2
 2454              		.global	CapSense_PostScan
 2455              		.code	16
 2456              		.thumb_func
 2457              		.type	CapSense_PostScan, %function
 2458              	CapSense_PostScan:
 2459              	.LFB53:
1547:Generated_Source\PSoC4/CapSense.c ****     uint32 newRegValue;
 2460              		.loc 1 1547 0
 2461              		.cfi_startproc
 2462              		@ args = 0, pretend = 0, frame = 0
 2463              		@ frame_needed = 0, uses_anonymous_args = 0
 2464              	.LVL282:
ARM GAS  C:\Users\young\AppData\Local\Temp\ccoFnsFE.s 			page 84


 2465 0000 F0B5     		push	{r4, r5, r6, r7, lr}
 2466              		.cfi_def_cfa_offset 20
 2467              		.cfi_offset 4, -20
 2468              		.cfi_offset 5, -16
 2469              		.cfi_offset 6, -12
 2470              		.cfi_offset 7, -8
 2471              		.cfi_offset 14, -4
 2472 0002 4746     		mov	r7, r8
1565:Generated_Source\PSoC4/CapSense.c **** 
 2473              		.loc 1 1565 0
 2474 0004 264B     		ldr	r3, .L129
 2475 0006 2749     		ldr	r1, .L129+4
 2476 0008 1A68     		ldr	r2, [r3]
 2477 000a 4300     		lsls	r3, r0, #1
 2478 000c CB18     		adds	r3, r1, r3
1547:Generated_Source\PSoC4/CapSense.c ****     uint32 newRegValue;
 2479              		.loc 1 1547 0
 2480 000e 80B4     		push	{r7}
 2481              		.cfi_def_cfa_offset 24
 2482              		.cfi_offset 8, -24
1565:Generated_Source\PSoC4/CapSense.c **** 
 2483              		.loc 1 1565 0
 2484 0010 9A80     		strh	r2, [r3, #4]
 2485              	.LVL283:
 2486              	.LBB160:
 2487              	.LBB161:
1123:Generated_Source\PSoC4/CapSense.c **** 
 2488              		.loc 1 1123 0
 2489 0012 0F22     		movs	r2, #15
1116:Generated_Source\PSoC4/CapSense.c ****     uint8  pinHSIOMShift = CapSense_pinShiftTbl[sensor] * CapSense_HSIOM_PIN_CFG_SIZE;
 2490              		.loc 1 1116 0
 2491 0014 244F     		ldr	r7, .L129+8
1117:Generated_Source\PSoC4/CapSense.c ****     uint8  pinModeShift = CapSense_pinShiftTbl[sensor]  * CapSense_PC_PIN_CFG_SIZE;
 2492              		.loc 1 1117 0
 2493 0016 3E5C     		ldrb	r6, [r7, r0]
1116:Generated_Source\PSoC4/CapSense.c ****     uint8  pinHSIOMShift = CapSense_pinShiftTbl[sensor] * CapSense_HSIOM_PIN_CFG_SIZE;
 2494              		.loc 1 1116 0
 2495 0018 3B18     		adds	r3, r7, r0
 2496 001a 1C7A     		ldrb	r4, [r3, #8]
 2497              	.LVL284:
1121:Generated_Source\PSoC4/CapSense.c **** 
 2498              		.loc 1 1121 0
 2499 001c 234B     		ldr	r3, .L129+12
1123:Generated_Source\PSoC4/CapSense.c **** 
 2500              		.loc 1 1123 0
 2501 001e B100     		lsls	r1, r6, #2
1121:Generated_Source\PSoC4/CapSense.c **** 
 2502              		.loc 1 1121 0
 2503 0020 1B5C     		ldrb	r3, [r3, r0]
1123:Generated_Source\PSoC4/CapSense.c **** 
 2504              		.loc 1 1123 0
 2505 0022 C9B2     		uxtb	r1, r1
 2506 0024 8A40     		lsls	r2, r2, r1
1121:Generated_Source\PSoC4/CapSense.c **** 
 2507              		.loc 1 1121 0
 2508 0026 9C46     		mov	ip, r3
1123:Generated_Source\PSoC4/CapSense.c **** 
ARM GAS  C:\Users\young\AppData\Local\Temp\ccoFnsFE.s 			page 85


 2509              		.loc 1 1123 0
 2510 0028 A400     		lsls	r4, r4, #2
 2511              	.LVL285:
 2512 002a 3B19     		adds	r3, r7, r4
 2513 002c 1869     		ldr	r0, [r3, #16]
 2514              	.LVL286:
1118:Generated_Source\PSoC4/CapSense.c **** 
 2515              		.loc 1 1118 0
 2516 002e 7500     		lsls	r5, r6, #1
1123:Generated_Source\PSoC4/CapSense.c **** 
 2517              		.loc 1 1123 0
 2518 0030 0368     		ldr	r3, [r0]
1118:Generated_Source\PSoC4/CapSense.c **** 
 2519              		.loc 1 1118 0
 2520 0032 7519     		adds	r5, r6, r5
1123:Generated_Source\PSoC4/CapSense.c **** 
 2521              		.loc 1 1123 0
 2522 0034 9343     		bics	r3, r2
 2523 0036 0360     		str	r3, [r0]
1135:Generated_Source\PSoC4/CapSense.c ****         {
 2524              		.loc 1 1135 0
 2525 0038 6346     		mov	r3, ip
1118:Generated_Source\PSoC4/CapSense.c **** 
 2526              		.loc 1 1118 0
 2527 003a EDB2     		uxtb	r5, r5
 2528              	.LVL287:
1135:Generated_Source\PSoC4/CapSense.c ****         {
 2529              		.loc 1 1135 0
 2530 003c 012B     		cmp	r3, #1
 2531 003e 2BD0     		beq	.L128
 2532              	.LVL288:
 2533 0040 0623     		movs	r3, #6
 2534 0042 AB40     		lsls	r3, r3, r5
 2535 0044 9846     		mov	r8, r3
 2536              	.LVL289:
 2537              	.L127:
1141:Generated_Source\PSoC4/CapSense.c **** 
 2538              		.loc 1 1141 0
 2539 0046 FFF7FEFF 		bl	CyEnterCriticalSection
 2540              	.LVL290:
1145:Generated_Source\PSoC4/CapSense.c ****         newRegisterValue |=  (uint32)(inactiveConnect << pinModeShift);
 2541              		.loc 1 1145 0
 2542 004a 0722     		movs	r2, #7
 2543 004c AA40     		lsls	r2, r2, r5
1144:Generated_Source\PSoC4/CapSense.c ****         newRegisterValue &= ~(CapSense_CSD_PIN_MODE_MASK << pinModeShift);
 2544              		.loc 1 1144 0
 2545 004e 3C19     		adds	r4, r7, r4
 2546 0050 216A     		ldr	r1, [r4, #32]
 2547              	.LBE161:
 2548              	.LBE160:
1614:Generated_Source\PSoC4/CapSense.c **** 
 2549              		.loc 1 1614 0
 2550              		@ sp needed
 2551              	.LBB165:
 2552              	.LBB162:
1144:Generated_Source\PSoC4/CapSense.c ****         newRegisterValue &= ~(CapSense_CSD_PIN_MODE_MASK << pinModeShift);
 2553              		.loc 1 1144 0
ARM GAS  C:\Users\young\AppData\Local\Temp\ccoFnsFE.s 			page 86


 2554 0052 0B68     		ldr	r3, [r1]
 2555              	.LVL291:
1145:Generated_Source\PSoC4/CapSense.c ****         newRegisterValue |=  (uint32)(inactiveConnect << pinModeShift);
 2556              		.loc 1 1145 0
 2557 0054 9343     		bics	r3, r2
 2558              	.LVL292:
1146:Generated_Source\PSoC4/CapSense.c ****         *CapSense_prtCfgTbl[port] =  newRegisterValue;
 2559              		.loc 1 1146 0
 2560 0056 4246     		mov	r2, r8
 2561 0058 1343     		orrs	r3, r2
 2562              	.LVL293:
1147:Generated_Source\PSoC4/CapSense.c **** 
 2563              		.loc 1 1147 0
 2564 005a 0B60     		str	r3, [r1]
1149:Generated_Source\PSoC4/CapSense.c **** 
 2565              		.loc 1 1149 0
 2566 005c FFF7FEFF 		bl	CyExitCriticalSection
 2567              	.LVL294:
1151:Generated_Source\PSoC4/CapSense.c ****     #if(CapSense_IS_SHIELD_ENABLE != 0)
 2568              		.loc 1 1151 0
 2569 0060 0122     		movs	r2, #1
 2570 0062 B240     		lsls	r2, r2, r6
 2571 0064 216B     		ldr	r1, [r4, #48]
 2572              	.LBE162:
 2573              	.LBE165:
1581:Generated_Source\PSoC4/CapSense.c **** 
 2574              		.loc 1 1581 0
 2575 0066 0720     		movs	r0, #7
 2576              	.LBB166:
 2577              	.LBB163:
1151:Generated_Source\PSoC4/CapSense.c ****     #if(CapSense_IS_SHIELD_ENABLE != 0)
 2578              		.loc 1 1151 0
 2579 0068 0B68     		ldr	r3, [r1]
 2580 006a 9343     		bics	r3, r2
 2581 006c 0B60     		str	r3, [r1]
 2582              	.LVL295:
 2583              	.LBE163:
 2584              	.LBE166:
1581:Generated_Source\PSoC4/CapSense.c **** 
 2585              		.loc 1 1581 0
 2586 006e FFF7FEFF 		bl	CyIntDisable
 2587              	.LVL296:
1601:Generated_Source\PSoC4/CapSense.c ****     newRegValue &= ~(CapSense_PRECHARGE_CONFIG_MASK);
 2588              		.loc 1 1601 0
 2589 0072 0F4A     		ldr	r2, .L129+16
1602:Generated_Source\PSoC4/CapSense.c ****     newRegValue |= CapSense_CMOD_PRECHARGE_CONFIG;
 2590              		.loc 1 1602 0
 2591 0074 0F4B     		ldr	r3, .L129+20
1601:Generated_Source\PSoC4/CapSense.c ****     newRegValue &= ~(CapSense_PRECHARGE_CONFIG_MASK);
 2592              		.loc 1 1601 0
 2593 0076 1168     		ldr	r1, [r2]
 2594              	.LVL297:
1613:Generated_Source\PSoC4/CapSense.c **** }
 2595              		.loc 1 1613 0
 2596 0078 0720     		movs	r0, #7
1602:Generated_Source\PSoC4/CapSense.c ****     newRegValue |= CapSense_CMOD_PRECHARGE_CONFIG;
 2597              		.loc 1 1602 0
ARM GAS  C:\Users\young\AppData\Local\Temp\ccoFnsFE.s 			page 87


 2598 007a 0B40     		ands	r3, r1
 2599              	.LVL298:
1603:Generated_Source\PSoC4/CapSense.c ****     CapSense_CSD_CFG_REG = newRegValue;
 2600              		.loc 1 1603 0
 2601 007c A021     		movs	r1, #160
 2602 007e 0902     		lsls	r1, r1, #8
 2603 0080 0B43     		orrs	r3, r1
 2604              	.LVL299:
1604:Generated_Source\PSoC4/CapSense.c **** 
 2605              		.loc 1 1604 0
 2606 0082 1360     		str	r3, [r2]
1610:Generated_Source\PSoC4/CapSense.c **** #endif /* (CapSense_IDAC_CNT == 1u) */
 2607              		.loc 1 1610 0
 2608 0084 0C4A     		ldr	r2, .L129+24
 2609 0086 0D4B     		ldr	r3, .L129+28
 2610              	.LVL300:
 2611 0088 1168     		ldr	r1, [r2]
 2612 008a 0B40     		ands	r3, r1
 2613 008c 1360     		str	r3, [r2]
 2614              	.LVL301:
1613:Generated_Source\PSoC4/CapSense.c **** }
 2615              		.loc 1 1613 0
 2616 008e FFF7FEFF 		bl	CyIntEnable
 2617              	.LVL302:
1614:Generated_Source\PSoC4/CapSense.c **** 
 2618              		.loc 1 1614 0
 2619 0092 04BC     		pop	{r2}
 2620 0094 9046     		mov	r8, r2
 2621 0096 F0BD     		pop	{r4, r5, r6, r7, pc}
 2622              	.LVL303:
 2623              	.L128:
 2624              	.LBB167:
 2625              	.LBB164:
1135:Generated_Source\PSoC4/CapSense.c ****         {
 2626              		.loc 1 1135 0
 2627 0098 0023     		movs	r3, #0
 2628 009a 9846     		mov	r8, r3
 2629 009c D3E7     		b	.L127
 2630              	.L130:
 2631 009e C046     		.align	2
 2632              	.L129:
 2633 00a0 0C000840 		.word	1074266124
 2634 00a4 00000000 		.word	.LANCHOR1
 2635 00a8 00000000 		.word	.LANCHOR0
 2636 00ac 00000000 		.word	CapSense_unscannedSnsDriveMode
 2637 00b0 04000840 		.word	1074266116
 2638 00b4 FF1FDFFF 		.word	-2154497
 2639 00b8 08000840 		.word	1074266120
 2640 00bc 00FF80FF 		.word	-8323328
 2641              	.LBE164:
 2642              	.LBE167:
 2643              		.cfi_endproc
 2644              	.LFE53:
 2645              		.size	CapSense_PostScan, .-CapSense_PostScan
 2646              		.section	.text.CapSense_EnableShieldElectrode,"ax",%progbits
 2647              		.align	2
 2648              		.global	CapSense_EnableShieldElectrode
ARM GAS  C:\Users\young\AppData\Local\Temp\ccoFnsFE.s 			page 88


 2649              		.code	16
 2650              		.thumb_func
 2651              		.type	CapSense_EnableShieldElectrode, %function
 2652              	CapSense_EnableShieldElectrode:
 2653              	.LFB54:
1640:Generated_Source\PSoC4/CapSense.c ****     uint32 newRegValue;
 2654              		.loc 1 1640 0
 2655              		.cfi_startproc
 2656              		@ args = 0, pretend = 0, frame = 0
 2657              		@ frame_needed = 0, uses_anonymous_args = 0
 2658              	.LVL304:
1643:Generated_Source\PSoC4/CapSense.c ****     newRegValue = *CapSense_prtSelTbl[portNumber];
 2659              		.loc 1 1643 0
 2660 0000 0722     		movs	r2, #7
1640:Generated_Source\PSoC4/CapSense.c ****     uint32 newRegValue;
 2661              		.loc 1 1640 0
 2662 0002 30B5     		push	{r4, r5, lr}
 2663              		.cfi_def_cfa_offset 12
 2664              		.cfi_offset 4, -12
 2665              		.cfi_offset 5, -8
 2666              		.cfi_offset 14, -4
1643:Generated_Source\PSoC4/CapSense.c ****     newRegValue = *CapSense_prtSelTbl[portNumber];
 2667              		.loc 1 1643 0
 2668 0004 4400     		lsls	r4, r0, #1
 2669 0006 2418     		adds	r4, r4, r0
 2670 0008 A240     		lsls	r2, r2, r4
 2671 000a 094B     		ldr	r3, .L132
 2672 000c 8900     		lsls	r1, r1, #2
 2673              	.LVL305:
 2674 000e 5918     		adds	r1, r3, r1
 2675 0010 0D6A     		ldr	r5, [r1, #32]
1645:Generated_Source\PSoC4/CapSense.c ****     newRegValue |= (CapSense_CSD_SHIELD_PORT_MODE << (pinNumber * CapSense_HSIOM_PIN_CFG_SIZE));
 2676              		.loc 1 1645 0
 2677 0012 8000     		lsls	r0, r0, #2
 2678              	.LVL306:
1643:Generated_Source\PSoC4/CapSense.c ****     newRegValue = *CapSense_prtSelTbl[portNumber];
 2679              		.loc 1 1643 0
 2680 0014 2B68     		ldr	r3, [r5]
1644:Generated_Source\PSoC4/CapSense.c ****     newRegValue &= ~(CapSense_CSD_HSIOM_MASK << (pinNumber * CapSense_HSIOM_PIN_CFG_SIZE));
 2681              		.loc 1 1644 0
 2682 0016 0969     		ldr	r1, [r1, #16]
1643:Generated_Source\PSoC4/CapSense.c ****     newRegValue = *CapSense_prtSelTbl[portNumber];
 2683              		.loc 1 1643 0
 2684 0018 9343     		bics	r3, r2
1645:Generated_Source\PSoC4/CapSense.c ****     newRegValue |= (CapSense_CSD_SHIELD_PORT_MODE << (pinNumber * CapSense_HSIOM_PIN_CFG_SIZE));
 2685              		.loc 1 1645 0
 2686 001a 0F22     		movs	r2, #15
 2687 001c 8240     		lsls	r2, r2, r0
1643:Generated_Source\PSoC4/CapSense.c ****     newRegValue = *CapSense_prtSelTbl[portNumber];
 2688              		.loc 1 1643 0
 2689 001e 2B60     		str	r3, [r5]
1644:Generated_Source\PSoC4/CapSense.c ****     newRegValue &= ~(CapSense_CSD_HSIOM_MASK << (pinNumber * CapSense_HSIOM_PIN_CFG_SIZE));
 2690              		.loc 1 1644 0
 2691 0020 0B68     		ldr	r3, [r1]
 2692              	.LVL307:
1648:Generated_Source\PSoC4/CapSense.c **** 
 2693              		.loc 1 1648 0
ARM GAS  C:\Users\young\AppData\Local\Temp\ccoFnsFE.s 			page 89


 2694              		@ sp needed
1645:Generated_Source\PSoC4/CapSense.c ****     newRegValue |= (CapSense_CSD_SHIELD_PORT_MODE << (pinNumber * CapSense_HSIOM_PIN_CFG_SIZE));
 2695              		.loc 1 1645 0
 2696 0022 9343     		bics	r3, r2
 2697              	.LVL308:
 2698 0024 1A00     		movs	r2, r3
 2699              	.LVL309:
1646:Generated_Source\PSoC4/CapSense.c ****     *CapSense_prtSelTbl[portNumber] = newRegValue;
 2700              		.loc 1 1646 0
 2701 0026 0523     		movs	r3, #5
 2702 0028 8340     		lsls	r3, r3, r0
 2703 002a 1343     		orrs	r3, r2
 2704              	.LVL310:
1647:Generated_Source\PSoC4/CapSense.c **** }
 2705              		.loc 1 1647 0
 2706 002c 0B60     		str	r3, [r1]
1648:Generated_Source\PSoC4/CapSense.c **** 
 2707              		.loc 1 1648 0
 2708 002e 30BD     		pop	{r4, r5, pc}
 2709              	.L133:
 2710              		.align	2
 2711              	.L132:
 2712 0030 00000000 		.word	.LANCHOR0
 2713              		.cfi_endproc
 2714              	.LFE54:
 2715              		.size	CapSense_EnableShieldElectrode, .-CapSense_EnableShieldElectrode
 2716              		.section	.text.CapSense_SetShieldDelay,"ax",%progbits
 2717              		.align	2
 2718              		.global	CapSense_SetShieldDelay
 2719              		.code	16
 2720              		.thumb_func
 2721              		.type	CapSense_SetShieldDelay, %function
 2722              	CapSense_SetShieldDelay:
 2723              	.LFB55:
1675:Generated_Source\PSoC4/CapSense.c ****     uint32 newRegValue;
 2724              		.loc 1 1675 0
 2725              		.cfi_startproc
 2726              		@ args = 0, pretend = 0, frame = 0
 2727              		@ frame_needed = 0, uses_anonymous_args = 0
 2728              		@ link register save eliminated.
 2729              	.LVL311:
1682:Generated_Source\PSoC4/CapSense.c ****     CapSense_CSD_CFG_REG = newRegValue;
 2730              		.loc 1 1682 0
 2731 0000 C022     		movs	r2, #192
1680:Generated_Source\PSoC4/CapSense.c ****     newRegValue &= (uint32)(~(uint32)CapSense_SHIELD_DELAY);
 2732              		.loc 1 1680 0
 2733 0002 0449     		ldr	r1, .L135
1682:Generated_Source\PSoC4/CapSense.c ****     CapSense_CSD_CFG_REG = newRegValue;
 2734              		.loc 1 1682 0
 2735 0004 D200     		lsls	r2, r2, #3
1680:Generated_Source\PSoC4/CapSense.c ****     newRegValue &= (uint32)(~(uint32)CapSense_SHIELD_DELAY);
 2736              		.loc 1 1680 0
 2737 0006 0B68     		ldr	r3, [r1]
 2738              	.LVL312:
1682:Generated_Source\PSoC4/CapSense.c ****     CapSense_CSD_CFG_REG = newRegValue;
 2739              		.loc 1 1682 0
 2740 0008 4002     		lsls	r0, r0, #9
ARM GAS  C:\Users\young\AppData\Local\Temp\ccoFnsFE.s 			page 90


 2741              	.LVL313:
 2742 000a 1040     		ands	r0, r2
 2743 000c 1843     		orrs	r0, r3
 2744              	.LVL314:
1683:Generated_Source\PSoC4/CapSense.c **** }
 2745              		.loc 1 1683 0
 2746 000e 0860     		str	r0, [r1]
1684:Generated_Source\PSoC4/CapSense.c **** 
 2747              		.loc 1 1684 0
 2748              		@ sp needed
 2749 0010 7047     		bx	lr
 2750              	.L136:
 2751 0012 C046     		.align	2
 2752              	.L135:
 2753 0014 04000840 		.word	1074266116
 2754              		.cfi_endproc
 2755              	.LFE55:
 2756              		.size	CapSense_SetShieldDelay, .-CapSense_SetShieldDelay
 2757              		.section	.text.CapSense_ReadCurrentScanningSensor,"ax",%progbits
 2758              		.align	2
 2759              		.global	CapSense_ReadCurrentScanningSensor
 2760              		.code	16
 2761              		.thumb_func
 2762              		.type	CapSense_ReadCurrentScanningSensor, %function
 2763              	CapSense_ReadCurrentScanningSensor:
 2764              	.LFB56:
1711:Generated_Source\PSoC4/CapSense.c ****     return ((uint32)(( 0u != (CapSense_csdStatusVar & CapSense_SW_STS_BUSY)) ?
 2765              		.loc 1 1711 0
 2766              		.cfi_startproc
 2767              		@ args = 0, pretend = 0, frame = 0
 2768              		@ frame_needed = 0, uses_anonymous_args = 0
 2769              		@ link register save eliminated.
1712:Generated_Source\PSoC4/CapSense.c ****                      CapSense_sensorIndex : CapSense_NOT_SENSOR));
 2770              		.loc 1 1712 0
 2771 0000 044B     		ldr	r3, .L141
 2772 0002 5A78     		ldrb	r2, [r3, #1]
 2773 0004 D207     		lsls	r2, r2, #31
 2774 0006 02D4     		bmi	.L140
 2775 0008 0120     		movs	r0, #1
 2776 000a 4042     		rsbs	r0, r0, #0
 2777              	.L138:
1714:Generated_Source\PSoC4/CapSense.c **** 
 2778              		.loc 1 1714 0 discriminator 4
 2779              		@ sp needed
 2780 000c 7047     		bx	lr
 2781              	.L140:
1712:Generated_Source\PSoC4/CapSense.c ****                      CapSense_sensorIndex : CapSense_NOT_SENSOR));
 2782              		.loc 1 1712 0 discriminator 1
 2783 000e 987D     		ldrb	r0, [r3, #22]
 2784 0010 C0B2     		uxtb	r0, r0
 2785 0012 FBE7     		b	.L138
 2786              	.L142:
 2787              		.align	2
 2788              	.L141:
 2789 0014 00000000 		.word	.LANCHOR1
 2790              		.cfi_endproc
 2791              	.LFE56:
ARM GAS  C:\Users\young\AppData\Local\Temp\ccoFnsFE.s 			page 91


 2792              		.size	CapSense_ReadCurrentScanningSensor, .-CapSense_ReadCurrentScanningSensor
 2793              		.section	.text.CapSense_GetBitValue,"ax",%progbits
 2794              		.align	2
 2795              		.global	CapSense_GetBitValue
 2796              		.code	16
 2797              		.thumb_func
 2798              		.type	CapSense_GetBitValue, %function
 2799              	CapSense_GetBitValue:
 2800              	.LFB57:
1739:Generated_Source\PSoC4/CapSense.c ****     uint32 offset;
 2801              		.loc 1 1739 0
 2802              		.cfi_startproc
 2803              		@ args = 0, pretend = 0, frame = 0
 2804              		@ frame_needed = 0, uses_anonymous_args = 0
 2805              		@ link register save eliminated.
 2806              	.LVL315:
1739:Generated_Source\PSoC4/CapSense.c ****     uint32 offset;
 2807              		.loc 1 1739 0
 2808 0000 0200     		movs	r2, r0
1755:Generated_Source\PSoC4/CapSense.c **** }
 2809              		.loc 1 1755 0
 2810 0002 0720     		movs	r0, #7
 2811              	.LVL316:
 2812 0004 CB08     		lsrs	r3, r1, #3
 2813              	.LVL317:
 2814 0006 0140     		ands	r1, r0
 2815              	.LVL318:
 2816 0008 0638     		subs	r0, r0, #6
 2817 000a 8840     		lsls	r0, r0, r1
 2818 000c D35C     		ldrb	r3, [r2, r3]
 2819              	.LVL319:
1756:Generated_Source\PSoC4/CapSense.c **** 
 2820              		.loc 1 1756 0
 2821              		@ sp needed
1755:Generated_Source\PSoC4/CapSense.c **** }
 2822              		.loc 1 1755 0
 2823 000e 1840     		ands	r0, r3
 2824 0010 431E     		subs	r3, r0, #1
 2825 0012 9841     		sbcs	r0, r0, r3
1756:Generated_Source\PSoC4/CapSense.c **** 
 2826              		.loc 1 1756 0
 2827 0014 7047     		bx	lr
 2828              		.cfi_endproc
 2829              	.LFE57:
 2830              		.size	CapSense_GetBitValue, .-CapSense_GetBitValue
 2831 0016 C046     		.section	.text.CapSense_SetBitValue,"ax",%progbits
 2832              		.align	2
 2833              		.global	CapSense_SetBitValue
 2834              		.code	16
 2835              		.thumb_func
 2836              		.type	CapSense_SetBitValue, %function
 2837              	CapSense_SetBitValue:
 2838              	.LFB58:
1782:Generated_Source\PSoC4/CapSense.c ****     uint32 offset;
 2839              		.loc 1 1782 0
 2840              		.cfi_startproc
 2841              		@ args = 0, pretend = 0, frame = 0
ARM GAS  C:\Users\young\AppData\Local\Temp\ccoFnsFE.s 			page 92


 2842              		@ frame_needed = 0, uses_anonymous_args = 0
 2843              	.LVL320:
1796:Generated_Source\PSoC4/CapSense.c **** 
 2844              		.loc 1 1796 0
 2845 0000 0723     		movs	r3, #7
1782:Generated_Source\PSoC4/CapSense.c ****     uint32 offset;
 2846              		.loc 1 1782 0
 2847 0002 10B5     		push	{r4, lr}
 2848              		.cfi_def_cfa_offset 8
 2849              		.cfi_offset 4, -8
 2850              		.cfi_offset 14, -4
1790:Generated_Source\PSoC4/CapSense.c **** 
 2851              		.loc 1 1790 0
 2852 0004 CC08     		lsrs	r4, r1, #3
 2853              	.LVL321:
1796:Generated_Source\PSoC4/CapSense.c **** 
 2854              		.loc 1 1796 0
 2855 0006 1940     		ands	r1, r3
 2856              	.LVL322:
 2857 0008 063B     		subs	r3, r3, #6
 2858 000a 8B40     		lsls	r3, r3, r1
1800:Generated_Source\PSoC4/CapSense.c ****     }
 2859              		.loc 1 1800 0
 2860 000c 0419     		adds	r4, r0, r4
 2861              	.LVL323:
1796:Generated_Source\PSoC4/CapSense.c **** 
 2862              		.loc 1 1796 0
 2863 000e DBB2     		uxtb	r3, r3
 2864              	.LVL324:
1798:Generated_Source\PSoC4/CapSense.c ****     {
 2865              		.loc 1 1798 0
 2866 0010 002A     		cmp	r2, #0
 2867 0012 03D1     		bne	.L147
 2868              		.loc 1 1804 0
 2869 0014 2278     		ldrb	r2, [r4]
 2870              	.LVL325:
 2871 0016 9A43     		bics	r2, r3
 2872 0018 2270     		strb	r2, [r4]
 2873              	.LVL326:
 2874              	.L144:
1805:Generated_Source\PSoC4/CapSense.c ****     }
1806:Generated_Source\PSoC4/CapSense.c **** }
 2875              		.loc 1 1806 0
 2876              		@ sp needed
 2877 001a 10BD     		pop	{r4, pc}
 2878              	.LVL327:
 2879              	.L147:
1800:Generated_Source\PSoC4/CapSense.c ****     }
 2880              		.loc 1 1800 0
 2881 001c 2278     		ldrb	r2, [r4]
 2882              	.LVL328:
 2883 001e 1343     		orrs	r3, r2
 2884              	.LVL329:
 2885 0020 2370     		strb	r3, [r4]
 2886 0022 FAE7     		b	.L144
 2887              		.cfi_endproc
 2888              	.LFE58:
ARM GAS  C:\Users\young\AppData\Local\Temp\ccoFnsFE.s 			page 93


 2889              		.size	CapSense_SetBitValue, .-CapSense_SetBitValue
 2890              		.section	.text.CapSense_GetSenseClkDivider,"ax",%progbits
 2891              		.align	2
 2892              		.global	CapSense_GetSenseClkDivider
 2893              		.code	16
 2894              		.thumb_func
 2895              		.type	CapSense_GetSenseClkDivider, %function
 2896              	CapSense_GetSenseClkDivider:
 2897              	.LFB59:
1807:Generated_Source\PSoC4/CapSense.c **** 
1808:Generated_Source\PSoC4/CapSense.c **** 
1809:Generated_Source\PSoC4/CapSense.c **** 
1810:Generated_Source\PSoC4/CapSense.c **** /*******************************************************************************
1811:Generated_Source\PSoC4/CapSense.c **** * Function Name: CapSense_GetSenseClkDivider
1812:Generated_Source\PSoC4/CapSense.c **** ********************************************************************************
1813:Generated_Source\PSoC4/CapSense.c **** *
1814:Generated_Source\PSoC4/CapSense.c **** * Summary:
1815:Generated_Source\PSoC4/CapSense.c **** *  This API returns a value of the sense clock divider for the  sensor.
1816:Generated_Source\PSoC4/CapSense.c **** *
1817:Generated_Source\PSoC4/CapSense.c **** * Parameters:
1818:Generated_Source\PSoC4/CapSense.c **** *  sensor: sensor index. The index value can be
1819:Generated_Source\PSoC4/CapSense.c **** *  from 0 to (CapSense_TOTAL_SENSOR_COUNT-1).
1820:Generated_Source\PSoC4/CapSense.c **** *
1821:Generated_Source\PSoC4/CapSense.c **** * Return:
1822:Generated_Source\PSoC4/CapSense.c **** *  This API returns the sense clock divider of the sensor.
1823:Generated_Source\PSoC4/CapSense.c **** *
1824:Generated_Source\PSoC4/CapSense.c **** * Global Variables:
1825:Generated_Source\PSoC4/CapSense.c **** *  CapSense_senseClkDividerVal[] - stores the sense clock divider values.
1826:Generated_Source\PSoC4/CapSense.c **** *
1827:Generated_Source\PSoC4/CapSense.c **** * Side Effects:
1828:Generated_Source\PSoC4/CapSense.c **** *  None
1829:Generated_Source\PSoC4/CapSense.c **** *
1830:Generated_Source\PSoC4/CapSense.c **** *******************************************************************************/
1831:Generated_Source\PSoC4/CapSense.c **** uint32 CapSense_GetSenseClkDivider(uint32 sensor)
1832:Generated_Source\PSoC4/CapSense.c **** {
 2898              		.loc 1 1832 0
 2899              		.cfi_startproc
 2900              		@ args = 0, pretend = 0, frame = 0
 2901              		@ frame_needed = 0, uses_anonymous_args = 0
 2902              		@ link register save eliminated.
 2903              	.LVL330:
1833:Generated_Source\PSoC4/CapSense.c ****     #if(0u != CapSense_MULTIPLE_FREQUENCY_SET)
1834:Generated_Source\PSoC4/CapSense.c ****         return((uint32)CapSense_senseClkDividerVal[sensor]);
 2904              		.loc 1 1834 0
 2905 0000 024B     		ldr	r3, .L149
1835:Generated_Source\PSoC4/CapSense.c ****     #else
1836:Generated_Source\PSoC4/CapSense.c ****         return((uint32)CapSense_senseClkDividerVal);
1837:Generated_Source\PSoC4/CapSense.c ****     #endif /* (0u != CapSense_MULTIPLE_FREQUENCY_SET) */
1838:Generated_Source\PSoC4/CapSense.c **** }
 2906              		.loc 1 1838 0
 2907              		@ sp needed
1834:Generated_Source\PSoC4/CapSense.c ****     #else
 2908              		.loc 1 1834 0
 2909 0002 1818     		adds	r0, r3, r0
 2910              	.LVL331:
 2911 0004 2423     		movs	r3, #36
 2912 0006 C05C     		ldrb	r0, [r0, r3]
ARM GAS  C:\Users\young\AppData\Local\Temp\ccoFnsFE.s 			page 94


 2913              		.loc 1 1838 0
 2914 0008 7047     		bx	lr
 2915              	.L150:
 2916 000a C046     		.align	2
 2917              	.L149:
 2918 000c 00000000 		.word	.LANCHOR2
 2919              		.cfi_endproc
 2920              	.LFE59:
 2921              		.size	CapSense_GetSenseClkDivider, .-CapSense_GetSenseClkDivider
 2922              		.section	.text.CapSense_SetSenseClkDivider,"ax",%progbits
 2923              		.align	2
 2924              		.global	CapSense_SetSenseClkDivider
 2925              		.code	16
 2926              		.thumb_func
 2927              		.type	CapSense_SetSenseClkDivider, %function
 2928              	CapSense_SetSenseClkDivider:
 2929              	.LFB60:
1839:Generated_Source\PSoC4/CapSense.c **** 
1840:Generated_Source\PSoC4/CapSense.c **** #if (CapSense_TUNING_METHOD != CapSense__TUNING_NONE)
1841:Generated_Source\PSoC4/CapSense.c ****     /*******************************************************************************
1842:Generated_Source\PSoC4/CapSense.c ****     * Function Name: CapSense_SetSenseClkDivider
1843:Generated_Source\PSoC4/CapSense.c ****     ********************************************************************************
1844:Generated_Source\PSoC4/CapSense.c ****     *
1845:Generated_Source\PSoC4/CapSense.c ****     * Summary:
1846:Generated_Source\PSoC4/CapSense.c ****     *  This API sets a value of the sense clock divider for the  sensor.
1847:Generated_Source\PSoC4/CapSense.c ****     *
1848:Generated_Source\PSoC4/CapSense.c ****     * Parameters:
1849:Generated_Source\PSoC4/CapSense.c ****     *  sensor:  Sensor index.
1850:Generated_Source\PSoC4/CapSense.c ****     *  senseClk: represents the sense clock value.
1851:Generated_Source\PSoC4/CapSense.c ****     *
1852:Generated_Source\PSoC4/CapSense.c ****     * Return:
1853:Generated_Source\PSoC4/CapSense.c ****     *  None.
1854:Generated_Source\PSoC4/CapSense.c ****     *
1855:Generated_Source\PSoC4/CapSense.c ****     * Global Variables:
1856:Generated_Source\PSoC4/CapSense.c ****     *  CapSense_senseClkDividerVal[] - stores the sense clock divider values.
1857:Generated_Source\PSoC4/CapSense.c ****     *
1858:Generated_Source\PSoC4/CapSense.c ****     * Side Effects:
1859:Generated_Source\PSoC4/CapSense.c ****     *  None
1860:Generated_Source\PSoC4/CapSense.c ****     *
1861:Generated_Source\PSoC4/CapSense.c ****     *******************************************************************************/
1862:Generated_Source\PSoC4/CapSense.c ****     void CapSense_SetSenseClkDivider(uint32 sensor, uint32 senseClk)
1863:Generated_Source\PSoC4/CapSense.c ****     {
 2930              		.loc 1 1863 0
 2931              		.cfi_startproc
 2932              		@ args = 0, pretend = 0, frame = 0
 2933              		@ frame_needed = 0, uses_anonymous_args = 0
 2934              		@ link register save eliminated.
 2935              	.LVL332:
1864:Generated_Source\PSoC4/CapSense.c ****         #if(0u != CapSense_MULTIPLE_FREQUENCY_SET)
1865:Generated_Source\PSoC4/CapSense.c ****             CapSense_senseClkDividerVal[sensor] = (uint8)senseClk;
 2936              		.loc 1 1865 0
 2937 0000 024B     		ldr	r3, .L152
1866:Generated_Source\PSoC4/CapSense.c ****         #else
1867:Generated_Source\PSoC4/CapSense.c ****             CapSense_senseClkDividerVal = (uint8)senseClk;
1868:Generated_Source\PSoC4/CapSense.c ****         #endif /* (0u != CapSense_MULTIPLE_FREQUENCY_SET) */
1869:Generated_Source\PSoC4/CapSense.c ****     }
 2938              		.loc 1 1869 0
ARM GAS  C:\Users\young\AppData\Local\Temp\ccoFnsFE.s 			page 95


 2939              		@ sp needed
1865:Generated_Source\PSoC4/CapSense.c ****         #else
 2940              		.loc 1 1865 0
 2941 0002 1818     		adds	r0, r3, r0
 2942              	.LVL333:
 2943 0004 2423     		movs	r3, #36
 2944 0006 C154     		strb	r1, [r0, r3]
 2945              		.loc 1 1869 0
 2946 0008 7047     		bx	lr
 2947              	.L153:
 2948 000a C046     		.align	2
 2949              	.L152:
 2950 000c 00000000 		.word	.LANCHOR2
 2951              		.cfi_endproc
 2952              	.LFE60:
 2953              		.size	CapSense_SetSenseClkDivider, .-CapSense_SetSenseClkDivider
 2954              		.section	.text.CapSense_GetModulatorClkDivider,"ax",%progbits
 2955              		.align	2
 2956              		.global	CapSense_GetModulatorClkDivider
 2957              		.code	16
 2958              		.thumb_func
 2959              		.type	CapSense_GetModulatorClkDivider, %function
 2960              	CapSense_GetModulatorClkDivider:
 2961              	.LFB61:
1870:Generated_Source\PSoC4/CapSense.c **** #endif /* (CapSense_TUNING_METHOD != CapSense__TUNING_NONE) */
1871:Generated_Source\PSoC4/CapSense.c **** 
1872:Generated_Source\PSoC4/CapSense.c **** 
1873:Generated_Source\PSoC4/CapSense.c **** /*******************************************************************************
1874:Generated_Source\PSoC4/CapSense.c **** * Function Name: CapSense_GetModulatorClkDivider
1875:Generated_Source\PSoC4/CapSense.c **** ********************************************************************************
1876:Generated_Source\PSoC4/CapSense.c **** *
1877:Generated_Source\PSoC4/CapSense.c **** * Summary:
1878:Generated_Source\PSoC4/CapSense.c **** *  This API returns a value of the modulator sample clock divider for the  sensor.
1879:Generated_Source\PSoC4/CapSense.c **** *
1880:Generated_Source\PSoC4/CapSense.c **** * Parameters:
1881:Generated_Source\PSoC4/CapSense.c **** *  sensor: sensor index. The value of index can be
1882:Generated_Source\PSoC4/CapSense.c **** *  from 0 to (CapSense_TOTAL_SENSOR_COUNT-1).
1883:Generated_Source\PSoC4/CapSense.c **** *
1884:Generated_Source\PSoC4/CapSense.c **** * Return:
1885:Generated_Source\PSoC4/CapSense.c **** *  This API returns the modulator sample clock divider for the  sensor.
1886:Generated_Source\PSoC4/CapSense.c **** *
1887:Generated_Source\PSoC4/CapSense.c **** * Global Variables:
1888:Generated_Source\PSoC4/CapSense.c **** *  CapSense_sampleClkDividerVal[] - stores the modulator sample divider values.
1889:Generated_Source\PSoC4/CapSense.c **** *
1890:Generated_Source\PSoC4/CapSense.c **** * Side Effects:
1891:Generated_Source\PSoC4/CapSense.c **** *  None
1892:Generated_Source\PSoC4/CapSense.c **** *
1893:Generated_Source\PSoC4/CapSense.c **** *******************************************************************************/
1894:Generated_Source\PSoC4/CapSense.c **** uint32 CapSense_GetModulatorClkDivider(uint32 sensor)
1895:Generated_Source\PSoC4/CapSense.c **** {
 2962              		.loc 1 1895 0
 2963              		.cfi_startproc
 2964              		@ args = 0, pretend = 0, frame = 0
 2965              		@ frame_needed = 0, uses_anonymous_args = 0
 2966              		@ link register save eliminated.
 2967              	.LVL334:
1896:Generated_Source\PSoC4/CapSense.c ****     #if(0u != CapSense_MULTIPLE_FREQUENCY_SET)
ARM GAS  C:\Users\young\AppData\Local\Temp\ccoFnsFE.s 			page 96


1897:Generated_Source\PSoC4/CapSense.c ****         return((uint32)CapSense_sampleClkDividerVal[sensor]);
 2968              		.loc 1 1897 0
 2969 0000 014B     		ldr	r3, .L155
1898:Generated_Source\PSoC4/CapSense.c ****     #else
1899:Generated_Source\PSoC4/CapSense.c ****         return((uint32)CapSense_sampleClkDividerVal);
1900:Generated_Source\PSoC4/CapSense.c ****     #endif /* (0u != CapSense_MULTIPLE_FREQUENCY_SET) */
1901:Generated_Source\PSoC4/CapSense.c **** }
 2970              		.loc 1 1901 0
 2971              		@ sp needed
1897:Generated_Source\PSoC4/CapSense.c ****     #else
 2972              		.loc 1 1897 0
 2973 0002 1818     		adds	r0, r3, r0
 2974              	.LVL335:
 2975 0004 007F     		ldrb	r0, [r0, #28]
 2976              		.loc 1 1901 0
 2977 0006 7047     		bx	lr
 2978              	.L156:
 2979              		.align	2
 2980              	.L155:
 2981 0008 00000000 		.word	.LANCHOR2
 2982              		.cfi_endproc
 2983              	.LFE61:
 2984              		.size	CapSense_GetModulatorClkDivider, .-CapSense_GetModulatorClkDivider
 2985              		.section	.text.CapSense_SetModulatorClkDivider,"ax",%progbits
 2986              		.align	2
 2987              		.global	CapSense_SetModulatorClkDivider
 2988              		.code	16
 2989              		.thumb_func
 2990              		.type	CapSense_SetModulatorClkDivider, %function
 2991              	CapSense_SetModulatorClkDivider:
 2992              	.LFB62:
1902:Generated_Source\PSoC4/CapSense.c **** 
1903:Generated_Source\PSoC4/CapSense.c **** #if (CapSense_TUNING_METHOD != CapSense__TUNING_NONE)
1904:Generated_Source\PSoC4/CapSense.c ****     /*******************************************************************************
1905:Generated_Source\PSoC4/CapSense.c ****     * Function Name: CapSense_SetModulatorClkDivider
1906:Generated_Source\PSoC4/CapSense.c ****     ********************************************************************************
1907:Generated_Source\PSoC4/CapSense.c ****     *
1908:Generated_Source\PSoC4/CapSense.c ****     * Summary:
1909:Generated_Source\PSoC4/CapSense.c ****     *  This API sets a value of the modulator sample clock divider for the  sensor.
1910:Generated_Source\PSoC4/CapSense.c ****     *
1911:Generated_Source\PSoC4/CapSense.c ****     * Parameters:
1912:Generated_Source\PSoC4/CapSense.c ****     *  sensor:  Sensor index.
1913:Generated_Source\PSoC4/CapSense.c ****     *  modulatorClk: represents the modulator sample clock value.
1914:Generated_Source\PSoC4/CapSense.c ****     *
1915:Generated_Source\PSoC4/CapSense.c ****     * Return:
1916:Generated_Source\PSoC4/CapSense.c ****     *  None.
1917:Generated_Source\PSoC4/CapSense.c ****     *
1918:Generated_Source\PSoC4/CapSense.c ****     * Global Variables:
1919:Generated_Source\PSoC4/CapSense.c ****     *  CapSense_sampleClkDividerVal[] - stores the modulator sample divider values.
1920:Generated_Source\PSoC4/CapSense.c ****     *
1921:Generated_Source\PSoC4/CapSense.c ****     * Side Effects:
1922:Generated_Source\PSoC4/CapSense.c ****     *  None
1923:Generated_Source\PSoC4/CapSense.c ****     *
1924:Generated_Source\PSoC4/CapSense.c ****     *******************************************************************************/
1925:Generated_Source\PSoC4/CapSense.c ****     void CapSense_SetModulatorClkDivider(uint32 sensor, uint32 modulatorClk)
1926:Generated_Source\PSoC4/CapSense.c ****     {
 2993              		.loc 1 1926 0
ARM GAS  C:\Users\young\AppData\Local\Temp\ccoFnsFE.s 			page 97


 2994              		.cfi_startproc
 2995              		@ args = 0, pretend = 0, frame = 0
 2996              		@ frame_needed = 0, uses_anonymous_args = 0
 2997              		@ link register save eliminated.
 2998              	.LVL336:
1927:Generated_Source\PSoC4/CapSense.c ****         #if(0u != CapSense_MULTIPLE_FREQUENCY_SET)
1928:Generated_Source\PSoC4/CapSense.c ****             CapSense_sampleClkDividerVal[sensor] = (uint8)modulatorClk;
 2999              		.loc 1 1928 0
 3000 0000 014B     		ldr	r3, .L158
1929:Generated_Source\PSoC4/CapSense.c ****         #else
1930:Generated_Source\PSoC4/CapSense.c ****             CapSense_sampleClkDividerVal = (uint8)modulatorClk;
1931:Generated_Source\PSoC4/CapSense.c ****         #endif /* (0u != CapSense_MULTIPLE_FREQUENCY_SET) */
1932:Generated_Source\PSoC4/CapSense.c ****     }
 3001              		.loc 1 1932 0
 3002              		@ sp needed
1928:Generated_Source\PSoC4/CapSense.c ****         #else
 3003              		.loc 1 1928 0
 3004 0002 1818     		adds	r0, r3, r0
 3005              	.LVL337:
 3006 0004 0177     		strb	r1, [r0, #28]
 3007              		.loc 1 1932 0
 3008 0006 7047     		bx	lr
 3009              	.L159:
 3010              		.align	2
 3011              	.L158:
 3012 0008 00000000 		.word	.LANCHOR2
 3013              		.cfi_endproc
 3014              	.LFE62:
 3015              		.size	CapSense_SetModulatorClkDivider, .-CapSense_SetModulatorClkDivider
 3016              		.section	.text.CapSense_GetModulationIDAC,"ax",%progbits
 3017              		.align	2
 3018              		.global	CapSense_GetModulationIDAC
 3019              		.code	16
 3020              		.thumb_func
 3021              		.type	CapSense_GetModulationIDAC, %function
 3022              	CapSense_GetModulationIDAC:
 3023              	.LFB63:
1933:Generated_Source\PSoC4/CapSense.c **** #endif /* (CapSense_TUNING_METHOD != CapSense__TUNING_NONE) */
1934:Generated_Source\PSoC4/CapSense.c **** 
1935:Generated_Source\PSoC4/CapSense.c **** /*******************************************************************************
1936:Generated_Source\PSoC4/CapSense.c **** * Function Name: CapSense_GetModulationIDAC
1937:Generated_Source\PSoC4/CapSense.c **** ********************************************************************************
1938:Generated_Source\PSoC4/CapSense.c **** *
1939:Generated_Source\PSoC4/CapSense.c **** * Summary:
1940:Generated_Source\PSoC4/CapSense.c **** *  This API returns a value of the modulation IDAC for the  sensor.
1941:Generated_Source\PSoC4/CapSense.c **** *
1942:Generated_Source\PSoC4/CapSense.c **** * Parameters:
1943:Generated_Source\PSoC4/CapSense.c **** *  sensor: sensor index. The index value can be
1944:Generated_Source\PSoC4/CapSense.c **** *  from 0 to (CapSense_TOTAL_SENSOR_COUNT-1).
1945:Generated_Source\PSoC4/CapSense.c **** *
1946:Generated_Source\PSoC4/CapSense.c **** * Return:
1947:Generated_Source\PSoC4/CapSense.c **** *  This API returns the modulation IDAC of the sensor.
1948:Generated_Source\PSoC4/CapSense.c **** *
1949:Generated_Source\PSoC4/CapSense.c **** * Global Variables:
1950:Generated_Source\PSoC4/CapSense.c **** *  CapSense_modulationIDAC[] - stores modulation IDAC values.
1951:Generated_Source\PSoC4/CapSense.c **** *
1952:Generated_Source\PSoC4/CapSense.c **** * Side Effects:
ARM GAS  C:\Users\young\AppData\Local\Temp\ccoFnsFE.s 			page 98


1953:Generated_Source\PSoC4/CapSense.c **** *  None
1954:Generated_Source\PSoC4/CapSense.c **** *
1955:Generated_Source\PSoC4/CapSense.c **** *******************************************************************************/
1956:Generated_Source\PSoC4/CapSense.c **** uint32 CapSense_GetModulationIDAC(uint32 sensor)
1957:Generated_Source\PSoC4/CapSense.c **** {
 3024              		.loc 1 1957 0
 3025              		.cfi_startproc
 3026              		@ args = 0, pretend = 0, frame = 0
 3027              		@ frame_needed = 0, uses_anonymous_args = 0
 3028              		@ link register save eliminated.
 3029              	.LVL338:
1958:Generated_Source\PSoC4/CapSense.c ****         return((uint32)CapSense_modulationIDAC[sensor]);
 3030              		.loc 1 1958 0
 3031 0000 024B     		ldr	r3, .L161
1959:Generated_Source\PSoC4/CapSense.c **** }
 3032              		.loc 1 1959 0
 3033              		@ sp needed
1958:Generated_Source\PSoC4/CapSense.c ****         return((uint32)CapSense_modulationIDAC[sensor]);
 3034              		.loc 1 1958 0
 3035 0002 1818     		adds	r0, r3, r0
 3036              	.LVL339:
 3037 0004 2C23     		movs	r3, #44
 3038 0006 C05C     		ldrb	r0, [r0, r3]
 3039              		.loc 1 1959 0
 3040 0008 7047     		bx	lr
 3041              	.L162:
 3042 000a C046     		.align	2
 3043              	.L161:
 3044 000c 00000000 		.word	.LANCHOR2
 3045              		.cfi_endproc
 3046              	.LFE63:
 3047              		.size	CapSense_GetModulationIDAC, .-CapSense_GetModulationIDAC
 3048              		.section	.text.CapSense_SetModulationIDAC,"ax",%progbits
 3049              		.align	2
 3050              		.global	CapSense_SetModulationIDAC
 3051              		.code	16
 3052              		.thumb_func
 3053              		.type	CapSense_SetModulationIDAC, %function
 3054              	CapSense_SetModulationIDAC:
 3055              	.LFB64:
1960:Generated_Source\PSoC4/CapSense.c **** 
1961:Generated_Source\PSoC4/CapSense.c **** #if (CapSense_TUNING_METHOD != CapSense__TUNING_NONE)
1962:Generated_Source\PSoC4/CapSense.c ****     /*******************************************************************************
1963:Generated_Source\PSoC4/CapSense.c ****     * Function Name: CapSense_SetModulationIDAC
1964:Generated_Source\PSoC4/CapSense.c ****     ********************************************************************************
1965:Generated_Source\PSoC4/CapSense.c ****     *
1966:Generated_Source\PSoC4/CapSense.c ****     * Summary:
1967:Generated_Source\PSoC4/CapSense.c ****     *  This API sets a value of the modulation IDAC for the  sensor.
1968:Generated_Source\PSoC4/CapSense.c ****     *
1969:Generated_Source\PSoC4/CapSense.c ****     * Parameters:
1970:Generated_Source\PSoC4/CapSense.c ****     *  sensor:  Sensor index.
1971:Generated_Source\PSoC4/CapSense.c ****     *  compIdacValue: represents the modulation IDAC data register value.
1972:Generated_Source\PSoC4/CapSense.c ****     *
1973:Generated_Source\PSoC4/CapSense.c ****     * Return:
1974:Generated_Source\PSoC4/CapSense.c ****     *  None.
1975:Generated_Source\PSoC4/CapSense.c ****     *
1976:Generated_Source\PSoC4/CapSense.c ****     * Global Variables:
ARM GAS  C:\Users\young\AppData\Local\Temp\ccoFnsFE.s 			page 99


1977:Generated_Source\PSoC4/CapSense.c ****     *  CapSense_modulationIDAC[] - array with modulation IDAC values
1978:Generated_Source\PSoC4/CapSense.c ****     *
1979:Generated_Source\PSoC4/CapSense.c ****     * Side Effects:
1980:Generated_Source\PSoC4/CapSense.c ****     *  None
1981:Generated_Source\PSoC4/CapSense.c ****     *
1982:Generated_Source\PSoC4/CapSense.c ****     *******************************************************************************/
1983:Generated_Source\PSoC4/CapSense.c ****     void CapSense_SetModulationIDAC(uint32 sensor, uint32 modIdacValue)
1984:Generated_Source\PSoC4/CapSense.c ****     {
 3056              		.loc 1 1984 0
 3057              		.cfi_startproc
 3058              		@ args = 0, pretend = 0, frame = 0
 3059              		@ frame_needed = 0, uses_anonymous_args = 0
 3060              		@ link register save eliminated.
 3061              	.LVL340:
1985:Generated_Source\PSoC4/CapSense.c ****         CapSense_modulationIDAC[sensor] = (uint8)modIdacValue;
 3062              		.loc 1 1985 0
 3063 0000 024B     		ldr	r3, .L164
1986:Generated_Source\PSoC4/CapSense.c ****     }
 3064              		.loc 1 1986 0
 3065              		@ sp needed
1985:Generated_Source\PSoC4/CapSense.c ****         CapSense_modulationIDAC[sensor] = (uint8)modIdacValue;
 3066              		.loc 1 1985 0
 3067 0002 1818     		adds	r0, r3, r0
 3068              	.LVL341:
 3069 0004 2C23     		movs	r3, #44
 3070 0006 C154     		strb	r1, [r0, r3]
 3071              		.loc 1 1986 0
 3072 0008 7047     		bx	lr
 3073              	.L165:
 3074 000a C046     		.align	2
 3075              	.L164:
 3076 000c 00000000 		.word	.LANCHOR2
 3077              		.cfi_endproc
 3078              	.LFE64:
 3079              		.size	CapSense_SetModulationIDAC, .-CapSense_SetModulationIDAC
 3080              		.section	.text.CapSense_GetCompensationIDAC,"ax",%progbits
 3081              		.align	2
 3082              		.global	CapSense_GetCompensationIDAC
 3083              		.code	16
 3084              		.thumb_func
 3085              		.type	CapSense_GetCompensationIDAC, %function
 3086              	CapSense_GetCompensationIDAC:
 3087              	.LFB65:
1987:Generated_Source\PSoC4/CapSense.c **** #endif /* (CapSense_TUNING_METHOD != CapSense__TUNING_NONE) */
1988:Generated_Source\PSoC4/CapSense.c **** 
1989:Generated_Source\PSoC4/CapSense.c **** 
1990:Generated_Source\PSoC4/CapSense.c **** #if(CapSense_IDAC_CNT > 1u)
1991:Generated_Source\PSoC4/CapSense.c ****     /*******************************************************************************
1992:Generated_Source\PSoC4/CapSense.c ****     * Function Name: CapSense_GetCompensationIDAC
1993:Generated_Source\PSoC4/CapSense.c ****     ********************************************************************************
1994:Generated_Source\PSoC4/CapSense.c ****     *
1995:Generated_Source\PSoC4/CapSense.c ****     * Summary:
1996:Generated_Source\PSoC4/CapSense.c ****     *  This API returns a value of the compensation IDAC for the  sensor.
1997:Generated_Source\PSoC4/CapSense.c ****     *
1998:Generated_Source\PSoC4/CapSense.c ****     * Parameters:
1999:Generated_Source\PSoC4/CapSense.c ****     *  sensor: sensor index. The index value can be
2000:Generated_Source\PSoC4/CapSense.c ****     *  from 0 to (CapSense_TOTAL_SENSOR_COUNT-1).
ARM GAS  C:\Users\young\AppData\Local\Temp\ccoFnsFE.s 			page 100


2001:Generated_Source\PSoC4/CapSense.c ****     *
2002:Generated_Source\PSoC4/CapSense.c ****     * Return:
2003:Generated_Source\PSoC4/CapSense.c ****     *  This API returns the compensation IDAC of the sensor.
2004:Generated_Source\PSoC4/CapSense.c ****     *
2005:Generated_Source\PSoC4/CapSense.c ****     * Global Variables:
2006:Generated_Source\PSoC4/CapSense.c ****     *  CapSense_compensationIDAC[] - stores the compensation IDAC values.
2007:Generated_Source\PSoC4/CapSense.c ****     *
2008:Generated_Source\PSoC4/CapSense.c ****     * Side Effects:
2009:Generated_Source\PSoC4/CapSense.c ****     *  None
2010:Generated_Source\PSoC4/CapSense.c ****     *
2011:Generated_Source\PSoC4/CapSense.c ****     *******************************************************************************/
2012:Generated_Source\PSoC4/CapSense.c ****     uint32 CapSense_GetCompensationIDAC(uint32 sensor)
2013:Generated_Source\PSoC4/CapSense.c ****     {
 3088              		.loc 1 2013 0
 3089              		.cfi_startproc
 3090              		@ args = 0, pretend = 0, frame = 0
 3091              		@ frame_needed = 0, uses_anonymous_args = 0
 3092              		@ link register save eliminated.
 3093              	.LVL342:
2014:Generated_Source\PSoC4/CapSense.c ****         return((uint32)CapSense_compensationIDAC[sensor]);
 3094              		.loc 1 2014 0
 3095 0000 014B     		ldr	r3, .L167
2015:Generated_Source\PSoC4/CapSense.c ****     }
 3096              		.loc 1 2015 0
 3097              		@ sp needed
2014:Generated_Source\PSoC4/CapSense.c ****         return((uint32)CapSense_compensationIDAC[sensor]);
 3098              		.loc 1 2014 0
 3099 0002 1818     		adds	r0, r3, r0
 3100              	.LVL343:
 3101 0004 007C     		ldrb	r0, [r0, #16]
 3102              		.loc 1 2015 0
 3103 0006 7047     		bx	lr
 3104              	.L168:
 3105              		.align	2
 3106              	.L167:
 3107 0008 00000000 		.word	.LANCHOR1
 3108              		.cfi_endproc
 3109              	.LFE65:
 3110              		.size	CapSense_GetCompensationIDAC, .-CapSense_GetCompensationIDAC
 3111              		.section	.text.CapSense_SetCompensationIDAC,"ax",%progbits
 3112              		.align	2
 3113              		.global	CapSense_SetCompensationIDAC
 3114              		.code	16
 3115              		.thumb_func
 3116              		.type	CapSense_SetCompensationIDAC, %function
 3117              	CapSense_SetCompensationIDAC:
 3118              	.LFB66:
2016:Generated_Source\PSoC4/CapSense.c **** #endif /* (CapSense_IDAC_CNT > 1u) */
2017:Generated_Source\PSoC4/CapSense.c **** 
2018:Generated_Source\PSoC4/CapSense.c **** 
2019:Generated_Source\PSoC4/CapSense.c **** #if((CapSense_TUNING_METHOD != CapSense__TUNING_NONE) && (CapSense_IDAC_CNT > 1u))
2020:Generated_Source\PSoC4/CapSense.c ****     /*******************************************************************************
2021:Generated_Source\PSoC4/CapSense.c ****     * Function Name: CapSense_SetCompensationIDAC
2022:Generated_Source\PSoC4/CapSense.c ****     ********************************************************************************
2023:Generated_Source\PSoC4/CapSense.c ****     *
2024:Generated_Source\PSoC4/CapSense.c ****     * Summary:
2025:Generated_Source\PSoC4/CapSense.c ****     *  This API sets a value of compensation IDAC for the  sensor.
ARM GAS  C:\Users\young\AppData\Local\Temp\ccoFnsFE.s 			page 101


2026:Generated_Source\PSoC4/CapSense.c ****     *
2027:Generated_Source\PSoC4/CapSense.c ****     * Parameters:
2028:Generated_Source\PSoC4/CapSense.c ****     *  sensor:  Sensor index.
2029:Generated_Source\PSoC4/CapSense.c ****     *  compIdacValue: represents the compensation IDAC data register value.
2030:Generated_Source\PSoC4/CapSense.c ****     *
2031:Generated_Source\PSoC4/CapSense.c ****     * Return:
2032:Generated_Source\PSoC4/CapSense.c ****     *  None.
2033:Generated_Source\PSoC4/CapSense.c ****     *
2034:Generated_Source\PSoC4/CapSense.c ****     * Global Variables:
2035:Generated_Source\PSoC4/CapSense.c ****     *  CapSense_compensationIDAC[] - an array with compensation IDAC values
2036:Generated_Source\PSoC4/CapSense.c ****     *
2037:Generated_Source\PSoC4/CapSense.c ****     * Side Effects:
2038:Generated_Source\PSoC4/CapSense.c ****     *  None
2039:Generated_Source\PSoC4/CapSense.c ****     *
2040:Generated_Source\PSoC4/CapSense.c ****     *******************************************************************************/
2041:Generated_Source\PSoC4/CapSense.c ****     void CapSense_SetCompensationIDAC(uint32 sensor, uint32 compIdacValue)
2042:Generated_Source\PSoC4/CapSense.c ****     {
 3119              		.loc 1 2042 0
 3120              		.cfi_startproc
 3121              		@ args = 0, pretend = 0, frame = 0
 3122              		@ frame_needed = 0, uses_anonymous_args = 0
 3123              		@ link register save eliminated.
 3124              	.LVL344:
2043:Generated_Source\PSoC4/CapSense.c ****         CapSense_compensationIDAC[sensor] = (uint8)compIdacValue;
 3125              		.loc 1 2043 0
 3126 0000 014B     		ldr	r3, .L170
2044:Generated_Source\PSoC4/CapSense.c ****     }
 3127              		.loc 1 2044 0
 3128              		@ sp needed
2043:Generated_Source\PSoC4/CapSense.c ****         CapSense_compensationIDAC[sensor] = (uint8)compIdacValue;
 3129              		.loc 1 2043 0
 3130 0002 1818     		adds	r0, r3, r0
 3131              	.LVL345:
 3132 0004 0174     		strb	r1, [r0, #16]
 3133              		.loc 1 2044 0
 3134 0006 7047     		bx	lr
 3135              	.L171:
 3136              		.align	2
 3137              	.L170:
 3138 0008 00000000 		.word	.LANCHOR1
 3139              		.cfi_endproc
 3140              	.LFE66:
 3141              		.size	CapSense_SetCompensationIDAC, .-CapSense_SetCompensationIDAC
 3142              		.section	.text.CapSense_GetIDACRange,"ax",%progbits
 3143              		.align	2
 3144              		.global	CapSense_GetIDACRange
 3145              		.code	16
 3146              		.thumb_func
 3147              		.type	CapSense_GetIDACRange, %function
 3148              	CapSense_GetIDACRange:
 3149              	.LFB67:
2045:Generated_Source\PSoC4/CapSense.c **** #endif /* ((CapSense_TUNING_METHOD != CapSense__TUNING_NONE) && (CapSense_IDAC_CNT > 1u)) */
2046:Generated_Source\PSoC4/CapSense.c **** 
2047:Generated_Source\PSoC4/CapSense.c **** /*******************************************************************************
2048:Generated_Source\PSoC4/CapSense.c **** * Function Name: CapSense_GetIDACRange
2049:Generated_Source\PSoC4/CapSense.c **** ********************************************************************************
2050:Generated_Source\PSoC4/CapSense.c **** *
ARM GAS  C:\Users\young\AppData\Local\Temp\ccoFnsFE.s 			page 102


2051:Generated_Source\PSoC4/CapSense.c **** * Summary:
2052:Generated_Source\PSoC4/CapSense.c **** *  This API returns a value that indicates the IDAC range used by the
2053:Generated_Source\PSoC4/CapSense.c **** *  component to scan sensors. The IDAC range is common for all the sensors.
2054:Generated_Source\PSoC4/CapSense.c **** *
2055:Generated_Source\PSoC4/CapSense.c **** * Parameters:
2056:Generated_Source\PSoC4/CapSense.c **** *  None
2057:Generated_Source\PSoC4/CapSense.c **** *
2058:Generated_Source\PSoC4/CapSense.c **** * Return:
2059:Generated_Source\PSoC4/CapSense.c **** *  This API Returns a value that indicates the IDAC range:
2060:Generated_Source\PSoC4/CapSense.c **** *      0 - IDAC range set to 4x
2061:Generated_Source\PSoC4/CapSense.c **** *      1 - IDAC range set to 8x
2062:Generated_Source\PSoC4/CapSense.c **** *
2063:Generated_Source\PSoC4/CapSense.c **** * Global Variables:
2064:Generated_Source\PSoC4/CapSense.c **** *  None
2065:Generated_Source\PSoC4/CapSense.c **** *
2066:Generated_Source\PSoC4/CapSense.c **** * Side Effects:
2067:Generated_Source\PSoC4/CapSense.c **** *  None
2068:Generated_Source\PSoC4/CapSense.c **** *
2069:Generated_Source\PSoC4/CapSense.c **** *******************************************************************************/
2070:Generated_Source\PSoC4/CapSense.c **** uint32 CapSense_GetIDACRange(void)
2071:Generated_Source\PSoC4/CapSense.c **** {
 3150              		.loc 1 2071 0
 3151              		.cfi_startproc
 3152              		@ args = 0, pretend = 0, frame = 0
 3153              		@ frame_needed = 0, uses_anonymous_args = 0
 3154              		@ link register save eliminated.
2072:Generated_Source\PSoC4/CapSense.c ****     return((0u != (CapSense_CSD_IDAC_REG & CapSense_CSD_IDAC1_RANGE_8X)) ? 1uL : 0uL);
 3155              		.loc 1 2072 0
 3156 0000 024B     		ldr	r3, .L173
2073:Generated_Source\PSoC4/CapSense.c **** }
 3157              		.loc 1 2073 0
 3158              		@ sp needed
2072:Generated_Source\PSoC4/CapSense.c ****     return((0u != (CapSense_CSD_IDAC_REG & CapSense_CSD_IDAC1_RANGE_8X)) ? 1uL : 0uL);
 3159              		.loc 1 2072 0
 3160 0002 1868     		ldr	r0, [r3]
 3161 0004 4005     		lsls	r0, r0, #21
 3162 0006 C00F     		lsrs	r0, r0, #31
 3163              		.loc 1 2073 0
 3164 0008 7047     		bx	lr
 3165              	.L174:
 3166 000a C046     		.align	2
 3167              	.L173:
 3168 000c 08000840 		.word	1074266120
 3169              		.cfi_endproc
 3170              	.LFE67:
 3171              		.size	CapSense_GetIDACRange, .-CapSense_GetIDACRange
 3172              		.section	.text.CapSense_SetIDACRange,"ax",%progbits
 3173              		.align	2
 3174              		.global	CapSense_SetIDACRange
 3175              		.code	16
 3176              		.thumb_func
 3177              		.type	CapSense_SetIDACRange, %function
 3178              	CapSense_SetIDACRange:
 3179              	.LFB68:
2074:Generated_Source\PSoC4/CapSense.c **** 
2075:Generated_Source\PSoC4/CapSense.c **** #if (CapSense_TUNING_METHOD != CapSense__TUNING_NONE)
2076:Generated_Source\PSoC4/CapSense.c ****     /*******************************************************************************
ARM GAS  C:\Users\young\AppData\Local\Temp\ccoFnsFE.s 			page 103


2077:Generated_Source\PSoC4/CapSense.c ****     * Function Name: CapSense_SetIDACRange
2078:Generated_Source\PSoC4/CapSense.c ****     ********************************************************************************
2079:Generated_Source\PSoC4/CapSense.c ****     *
2080:Generated_Source\PSoC4/CapSense.c ****     * Summary:
2081:Generated_Source\PSoC4/CapSense.c ****     *  This API sets the IDAC range to the 4x (1.2uA/bit) or 8x (2.4uA/bit) mode.
2082:Generated_Source\PSoC4/CapSense.c ****     *  The IDAC range is common for all the sensors and common for the modulation and
2083:Generated_Source\PSoC4/CapSense.c ****     *  compensation IDACs.
2084:Generated_Source\PSoC4/CapSense.c ****     *
2085:Generated_Source\PSoC4/CapSense.c ****     * Parameters:
2086:Generated_Source\PSoC4/CapSense.c ****     *  iDacRange:  represents value for IDAC range
2087:Generated_Source\PSoC4/CapSense.c ****     *  0 -  IDAC range set to 4x (1.2uA/bit)
2088:Generated_Source\PSoC4/CapSense.c ****     *  1 or >1 - IDAC range set to 8x (2.4uA/bit)
2089:Generated_Source\PSoC4/CapSense.c ****     *
2090:Generated_Source\PSoC4/CapSense.c ****     * Return:
2091:Generated_Source\PSoC4/CapSense.c ****     *  None.
2092:Generated_Source\PSoC4/CapSense.c ****     *
2093:Generated_Source\PSoC4/CapSense.c ****     * Global Variables:
2094:Generated_Source\PSoC4/CapSense.c ****     *  None
2095:Generated_Source\PSoC4/CapSense.c ****     *
2096:Generated_Source\PSoC4/CapSense.c ****     * Side Effects:
2097:Generated_Source\PSoC4/CapSense.c ****     *  None
2098:Generated_Source\PSoC4/CapSense.c ****     *
2099:Generated_Source\PSoC4/CapSense.c ****     *******************************************************************************/
2100:Generated_Source\PSoC4/CapSense.c ****     void CapSense_SetIDACRange(uint32 iDacRange)
2101:Generated_Source\PSoC4/CapSense.c ****     {
 3180              		.loc 1 2101 0
 3181              		.cfi_startproc
 3182              		@ args = 0, pretend = 0, frame = 0
 3183              		@ frame_needed = 0, uses_anonymous_args = 0
 3184              		@ link register save eliminated.
 3185              	.LVL346:
2102:Generated_Source\PSoC4/CapSense.c ****         if(iDacRange != 0u)
2103:Generated_Source\PSoC4/CapSense.c ****         {
2104:Generated_Source\PSoC4/CapSense.c ****             /*  IDAC range = 8x (2.4uA/bit) */
2105:Generated_Source\PSoC4/CapSense.c ****             CapSense_CSD_IDAC_REG |= (CapSense_CSD_IDAC1_RANGE_8X |\
 3186              		.loc 1 2105 0
 3187 0000 064A     		ldr	r2, .L179
2102:Generated_Source\PSoC4/CapSense.c ****         if(iDacRange != 0u)
 3188              		.loc 1 2102 0
 3189 0002 0028     		cmp	r0, #0
 3190 0004 04D1     		bne	.L178
2106:Generated_Source\PSoC4/CapSense.c ****                                               CapSense_CSD_IDAC2_RANGE_8X);
2107:Generated_Source\PSoC4/CapSense.c ****         }
2108:Generated_Source\PSoC4/CapSense.c ****         else
2109:Generated_Source\PSoC4/CapSense.c ****         {
2110:Generated_Source\PSoC4/CapSense.c ****             /*  IDAC range = 4x (1.2uA/bit) */
2111:Generated_Source\PSoC4/CapSense.c ****             /*  IDAC range = 8x (2.4uA/bit) */
2112:Generated_Source\PSoC4/CapSense.c ****             CapSense_CSD_IDAC_REG &= ~(CapSense_CSD_IDAC1_RANGE_8X |\
 3191              		.loc 1 2112 0
 3192 0006 1168     		ldr	r1, [r2]
 3193 0008 054B     		ldr	r3, .L179+4
 3194 000a 0B40     		ands	r3, r1
 3195 000c 1360     		str	r3, [r2]
 3196              	.L175:
2113:Generated_Source\PSoC4/CapSense.c ****                                                CapSense_CSD_IDAC2_RANGE_8X);
2114:Generated_Source\PSoC4/CapSense.c ****         }
2115:Generated_Source\PSoC4/CapSense.c ****     }
ARM GAS  C:\Users\young\AppData\Local\Temp\ccoFnsFE.s 			page 104


 3197              		.loc 1 2115 0
 3198              		@ sp needed
 3199 000e 7047     		bx	lr
 3200              	.L178:
2105:Generated_Source\PSoC4/CapSense.c ****                                               CapSense_CSD_IDAC2_RANGE_8X);
 3201              		.loc 1 2105 0
 3202 0010 1368     		ldr	r3, [r2]
 3203 0012 0449     		ldr	r1, .L179+8
 3204 0014 0B43     		orrs	r3, r1
 3205 0016 1360     		str	r3, [r2]
 3206 0018 F9E7     		b	.L175
 3207              	.L180:
 3208 001a C046     		.align	2
 3209              	.L179:
 3210 001c 08000840 		.word	1074266120
 3211 0020 FFFBFFFB 		.word	-67109889
 3212 0024 00040004 		.word	67109888
 3213              		.cfi_endproc
 3214              	.LFE68:
 3215              		.size	CapSense_SetIDACRange, .-CapSense_SetIDACRange
 3216              		.section	.text.CapSense_SetUnscannedSensorState,"ax",%progbits
 3217              		.align	2
 3218              		.global	CapSense_SetUnscannedSensorState
 3219              		.code	16
 3220              		.thumb_func
 3221              		.type	CapSense_SetUnscannedSensorState, %function
 3222              	CapSense_SetUnscannedSensorState:
 3223              	.LFB69:
2116:Generated_Source\PSoC4/CapSense.c **** #endif /* (CapSense_TUNING_METHOD != CapSense__TUNING_NONE) */
2117:Generated_Source\PSoC4/CapSense.c **** 
2118:Generated_Source\PSoC4/CapSense.c **** 
2119:Generated_Source\PSoC4/CapSense.c **** #if((0u != CapSense_AUTOCALIBRATION_ENABLE) || (CapSense_TUNING_METHOD == CapSense__TUNING_AUTO))
2120:Generated_Source\PSoC4/CapSense.c ****     /*******************************************************************************
2121:Generated_Source\PSoC4/CapSense.c ****     * Function Name: CapSense_GetSensorRaw
2122:Generated_Source\PSoC4/CapSense.c ****     ********************************************************************************
2123:Generated_Source\PSoC4/CapSense.c ****     *
2124:Generated_Source\PSoC4/CapSense.c ****     * Summary:
2125:Generated_Source\PSoC4/CapSense.c ****     *  The API updates and gets uprated raw data from the sensor.
2126:Generated_Source\PSoC4/CapSense.c ****     *
2127:Generated_Source\PSoC4/CapSense.c ****     * Parameters:
2128:Generated_Source\PSoC4/CapSense.c ****     *  sensor - Sensor number.
2129:Generated_Source\PSoC4/CapSense.c ****     *
2130:Generated_Source\PSoC4/CapSense.c ****     * Return:
2131:Generated_Source\PSoC4/CapSense.c ****     *  Returns the current raw data value for a defined sensor number.
2132:Generated_Source\PSoC4/CapSense.c ****     *
2133:Generated_Source\PSoC4/CapSense.c ****     * Global Variables:
2134:Generated_Source\PSoC4/CapSense.c ****     *  None
2135:Generated_Source\PSoC4/CapSense.c ****     *
2136:Generated_Source\PSoC4/CapSense.c ****     * Side Effects:
2137:Generated_Source\PSoC4/CapSense.c ****     *  None
2138:Generated_Source\PSoC4/CapSense.c ****     *
2139:Generated_Source\PSoC4/CapSense.c ****     *******************************************************************************/
2140:Generated_Source\PSoC4/CapSense.c ****     uint16  CapSense_GetSensorRaw(uint32 sensor)
2141:Generated_Source\PSoC4/CapSense.c ****     {
2142:Generated_Source\PSoC4/CapSense.c ****         uint32 curSample;
2143:Generated_Source\PSoC4/CapSense.c ****         uint32 avgVal = 0u;
2144:Generated_Source\PSoC4/CapSense.c **** 
ARM GAS  C:\Users\young\AppData\Local\Temp\ccoFnsFE.s 			page 105


2145:Generated_Source\PSoC4/CapSense.c ****         for(curSample = 0u; curSample < CapSense_AVG_SAMPLES_NUM; curSample++)
2146:Generated_Source\PSoC4/CapSense.c ****         {
2147:Generated_Source\PSoC4/CapSense.c **** 
2148:Generated_Source\PSoC4/CapSense.c ****             CapSense_ScanSensor((uint32)sensor);
2149:Generated_Source\PSoC4/CapSense.c ****             while(CapSense_IsBusy() == 1u)
2150:Generated_Source\PSoC4/CapSense.c ****             {
2151:Generated_Source\PSoC4/CapSense.c ****                 /* Wait while sensor is busy */
2152:Generated_Source\PSoC4/CapSense.c ****             }
2153:Generated_Source\PSoC4/CapSense.c ****             avgVal += CapSense_ReadSensorRaw((uint32)sensor);
2154:Generated_Source\PSoC4/CapSense.c ****         }
2155:Generated_Source\PSoC4/CapSense.c **** 
2156:Generated_Source\PSoC4/CapSense.c ****         return((uint16)(avgVal / CapSense_AVG_SAMPLES_NUM));
2157:Generated_Source\PSoC4/CapSense.c ****     }
2158:Generated_Source\PSoC4/CapSense.c **** #endif /* ((0u != CapSense_AUTOCALIBRATION_ENABLE) && (CapSense_TUNING_METHOD == CapSense__TUNING_A
2159:Generated_Source\PSoC4/CapSense.c **** 
2160:Generated_Source\PSoC4/CapSense.c **** 
2161:Generated_Source\PSoC4/CapSense.c **** #if((0u != CapSense_AUTOCALIBRATION_ENABLE) && (CapSense_TUNING_METHOD != CapSense__TUNING_AUTO))
2162:Generated_Source\PSoC4/CapSense.c ****     /*******************************************************************************
2163:Generated_Source\PSoC4/CapSense.c ****     * Function Name: CapSense_CalibrateSensor
2164:Generated_Source\PSoC4/CapSense.c ****     ********************************************************************************
2165:Generated_Source\PSoC4/CapSense.c ****     *
2166:Generated_Source\PSoC4/CapSense.c ****     * Summary:
2167:Generated_Source\PSoC4/CapSense.c ****     *  Computes the one sensor IDAC value, which provides the raw signal on
2168:Generated_Source\PSoC4/CapSense.c ****     *  a specified level, with a specified prescaler, speed, and resolution.
2169:Generated_Source\PSoC4/CapSense.c ****     *
2170:Generated_Source\PSoC4/CapSense.c ****     * Parameters:
2171:Generated_Source\PSoC4/CapSense.c ****     *  sensor - Sensor Number.
2172:Generated_Source\PSoC4/CapSense.c ****     *
2173:Generated_Source\PSoC4/CapSense.c ****     *  rawLevel -  Raw data level which should be reached during the calibration
2174:Generated_Source\PSoC4/CapSense.c ****     *              procedure.
2175:Generated_Source\PSoC4/CapSense.c ****     *
2176:Generated_Source\PSoC4/CapSense.c ****     *  idacLevelsTbl - Pointer to the modulatorIdac data register configuration table.
2177:Generated_Source\PSoC4/CapSense.c ****     *
2178:Generated_Source\PSoC4/CapSense.c ****     * Return:
2179:Generated_Source\PSoC4/CapSense.c ****     *  None
2180:Generated_Source\PSoC4/CapSense.c ****     *
2181:Generated_Source\PSoC4/CapSense.c ****     *******************************************************************************/
2182:Generated_Source\PSoC4/CapSense.c ****     void CapSense_CalibrateSensor(uint32 sensor, uint32 rawLevel, uint8 idacLevelsTbl[])
2183:Generated_Source\PSoC4/CapSense.c ****     {
2184:Generated_Source\PSoC4/CapSense.c ****         uint8 mask;
2185:Generated_Source\PSoC4/CapSense.c ****         uint16 rawData;
2186:Generated_Source\PSoC4/CapSense.c **** 
2187:Generated_Source\PSoC4/CapSense.c ****         rawData = 0u;
2188:Generated_Source\PSoC4/CapSense.c **** 
2189:Generated_Source\PSoC4/CapSense.c ****         mask = 0x80u;
2190:Generated_Source\PSoC4/CapSense.c ****         /* Init IDAC for null Channel */
2191:Generated_Source\PSoC4/CapSense.c ****         idacLevelsTbl[sensor] = 0x00u;
2192:Generated_Source\PSoC4/CapSense.c **** 
2193:Generated_Source\PSoC4/CapSense.c ****         do
2194:Generated_Source\PSoC4/CapSense.c ****         {
2195:Generated_Source\PSoC4/CapSense.c ****             /* Set bit for null Channel */
2196:Generated_Source\PSoC4/CapSense.c ****             idacLevelsTbl[sensor] |= mask;
2197:Generated_Source\PSoC4/CapSense.c **** 
2198:Generated_Source\PSoC4/CapSense.c ****             /* Scan null Channel and get Rawdata */
2199:Generated_Source\PSoC4/CapSense.c ****             rawData = CapSense_GetSensorRaw(sensor);
2200:Generated_Source\PSoC4/CapSense.c **** 
2201:Generated_Source\PSoC4/CapSense.c ****             /* Decrease IDAC until Rawdata reaches rawLevel */
ARM GAS  C:\Users\young\AppData\Local\Temp\ccoFnsFE.s 			page 106


2202:Generated_Source\PSoC4/CapSense.c ****             if(rawData < rawLevel)
2203:Generated_Source\PSoC4/CapSense.c ****             {
2204:Generated_Source\PSoC4/CapSense.c ****                 /* Reset bit for null Channel  */
2205:Generated_Source\PSoC4/CapSense.c ****                 idacLevelsTbl[sensor] &= (uint8)~mask;
2206:Generated_Source\PSoC4/CapSense.c ****             }
2207:Generated_Source\PSoC4/CapSense.c **** 
2208:Generated_Source\PSoC4/CapSense.c ****             mask >>= 1u;
2209:Generated_Source\PSoC4/CapSense.c ****         }
2210:Generated_Source\PSoC4/CapSense.c ****         while(mask > 0u);
2211:Generated_Source\PSoC4/CapSense.c **** 
2212:Generated_Source\PSoC4/CapSense.c ****     }
2213:Generated_Source\PSoC4/CapSense.c **** #endif /* ((0u != CapSense_AUTOCALIBRATION_ENABLE) && (CapSense_TUNING_METHOD != CapSense__TUNING_A
2214:Generated_Source\PSoC4/CapSense.c **** 
2215:Generated_Source\PSoC4/CapSense.c **** 
2216:Generated_Source\PSoC4/CapSense.c **** /*******************************************************************************
2217:Generated_Source\PSoC4/CapSense.c **** * Function Name: CapSense_SetUnscannedSensorState
2218:Generated_Source\PSoC4/CapSense.c **** ********************************************************************************
2219:Generated_Source\PSoC4/CapSense.c **** *
2220:Generated_Source\PSoC4/CapSense.c **** * Summary:
2221:Generated_Source\PSoC4/CapSense.c **** *  This API sets a state for un-scanned sensors.
2222:Generated_Source\PSoC4/CapSense.c **** *  It is possible to set the state to Ground, High-Z, or the shield electrode.
2223:Generated_Source\PSoC4/CapSense.c **** *  The un-scanned sensor can be connected to a shield electrode only if the shield is
2224:Generated_Source\PSoC4/CapSense.c **** *  enabled. If the shield is disabled and this API is called with the parameter which
2225:Generated_Source\PSoC4/CapSense.c **** *  indicates the shield state, the un-scanned sensor will be connected to Ground.
2226:Generated_Source\PSoC4/CapSense.c **** *
2227:Generated_Source\PSoC4/CapSense.c **** * Parameters:
2228:Generated_Source\PSoC4/CapSense.c **** *  sensor - Sensor Number.
2229:Generated_Source\PSoC4/CapSense.c **** *  sensorState: This parameter indicates un-scanned sensor state:
2230:Generated_Source\PSoC4/CapSense.c **** *
2231:Generated_Source\PSoC4/CapSense.c **** *     CapSense__GROUND 0
2232:Generated_Source\PSoC4/CapSense.c **** *     CapSense__HIZ_ANALOG 1
2233:Generated_Source\PSoC4/CapSense.c **** *     CapSense__SHIELD 2
2234:Generated_Source\PSoC4/CapSense.c **** *
2235:Generated_Source\PSoC4/CapSense.c **** * Return:
2236:Generated_Source\PSoC4/CapSense.c **** *  None.
2237:Generated_Source\PSoC4/CapSense.c **** *
2238:Generated_Source\PSoC4/CapSense.c **** * Global Variables:
2239:Generated_Source\PSoC4/CapSense.c **** *  CapSense_unscannedSnsDriveMode[] - used to store the state for
2240:Generated_Source\PSoC4/CapSense.c **** *  un-scanned sensors.
2241:Generated_Source\PSoC4/CapSense.c **** *
2242:Generated_Source\PSoC4/CapSense.c **** * Side Effects:
2243:Generated_Source\PSoC4/CapSense.c **** *  None
2244:Generated_Source\PSoC4/CapSense.c **** *
2245:Generated_Source\PSoC4/CapSense.c **** *******************************************************************************/
2246:Generated_Source\PSoC4/CapSense.c **** void CapSense_SetUnscannedSensorState(uint32 sensor, uint32 sensorState)
2247:Generated_Source\PSoC4/CapSense.c **** {
 3224              		.loc 1 2247 0
 3225              		.cfi_startproc
 3226              		@ args = 0, pretend = 0, frame = 0
 3227              		@ frame_needed = 0, uses_anonymous_args = 0
 3228              		@ link register save eliminated.
 3229              	.LVL347:
2248:Generated_Source\PSoC4/CapSense.c ****     #if(CapSense_IS_COMPLEX_SCANSLOTS)
2249:Generated_Source\PSoC4/CapSense.c ****         uint8 snsType;
2250:Generated_Source\PSoC4/CapSense.c ****         uint8 curSensor;
2251:Generated_Source\PSoC4/CapSense.c ****         uint16 snsNumber;
2252:Generated_Source\PSoC4/CapSense.c **** 
ARM GAS  C:\Users\young\AppData\Local\Temp\ccoFnsFE.s 			page 107


2253:Generated_Source\PSoC4/CapSense.c ****         /* Read sensor type: single or complex */
2254:Generated_Source\PSoC4/CapSense.c ****         snsType = CapSense_portTable[sensor];
2255:Generated_Source\PSoC4/CapSense.c **** 
2256:Generated_Source\PSoC4/CapSense.c ****         /* Check if sensor is complex */
2257:Generated_Source\PSoC4/CapSense.c ****         if(0u != (snsType & CapSense_COMPLEX_SS_FLAG))
2258:Generated_Source\PSoC4/CapSense.c ****         {
2259:Generated_Source\PSoC4/CapSense.c ****             snsType &= (uint8)~CapSense_COMPLEX_SS_FLAG;
2260:Generated_Source\PSoC4/CapSense.c ****             snsNumber = (uint16)CapSense_maskTable[sensor];
2261:Generated_Source\PSoC4/CapSense.c **** 
2262:Generated_Source\PSoC4/CapSense.c ****             for (curSensor=0u; curSensor < snsNumber; curSensor++)
2263:Generated_Source\PSoC4/CapSense.c ****             {
2264:Generated_Source\PSoC4/CapSense.c ****                 sensor = CapSense_indexTable[snsType + curSensor];
2265:Generated_Source\PSoC4/CapSense.c ****                 CapSense_unscannedSnsDriveMode[sensor] = (uint8)sensorState;
2266:Generated_Source\PSoC4/CapSense.c ****             }
2267:Generated_Source\PSoC4/CapSense.c ****         }
2268:Generated_Source\PSoC4/CapSense.c ****         else
2269:Generated_Source\PSoC4/CapSense.c ****         {
2270:Generated_Source\PSoC4/CapSense.c ****             CapSense_unscannedSnsDriveMode[sensor] = (uint8)sensorState;
2271:Generated_Source\PSoC4/CapSense.c ****         }
2272:Generated_Source\PSoC4/CapSense.c ****     #else
2273:Generated_Source\PSoC4/CapSense.c ****         CapSense_unscannedSnsDriveMode[sensor] = (uint8)sensorState;
 3230              		.loc 1 2273 0
 3231 0000 014B     		ldr	r3, .L182
2274:Generated_Source\PSoC4/CapSense.c ****     #endif /* (CapSense_IS_COMPLEX_SCANSLOTS) */
2275:Generated_Source\PSoC4/CapSense.c **** }
 3232              		.loc 1 2275 0
 3233              		@ sp needed
2273:Generated_Source\PSoC4/CapSense.c ****     #endif /* (CapSense_IS_COMPLEX_SCANSLOTS) */
 3234              		.loc 1 2273 0
 3235 0002 1954     		strb	r1, [r3, r0]
 3236              		.loc 1 2275 0
 3237 0004 7047     		bx	lr
 3238              	.L183:
 3239 0006 C046     		.align	2
 3240              	.L182:
 3241 0008 00000000 		.word	CapSense_unscannedSnsDriveMode
 3242              		.cfi_endproc
 3243              	.LFE69:
 3244              		.size	CapSense_SetUnscannedSensorState, .-CapSense_SetUnscannedSensorState
 3245              		.global	CapSense_prtDRTbl
 3246              		.global	CapSense_prtCfgTbl
 3247              		.global	CapSense_prtSelTbl
 3248              		.global	CapSense_widgetNumber
 3249              		.global	CapSense_sampleClkDividerVal
 3250              		.global	CapSense_senseClkDividerVal
 3251              		.global	CapSense_widgetResolution
 3252              		.global	CapSense_compensationIDAC
 3253              		.global	CapSense_modulationIDAC
 3254              		.global	CapSense_pinShiftTbl
 3255              		.global	CapSense_maskTable
 3256              		.global	CapSense_portTable
 3257              		.global	CapSense_pcTable
 3258              		.global	CapSense_sensorEnableMask
 3259              		.comm	CapSense_sensorEnableMaskBackup,1,4
 3260              		.comm	CapSense_unscannedSnsDriveMode,6,4
 3261              		.comm	CapSense_csdTrim1,1,1
 3262              		.global	CapSense_sensorRaw
ARM GAS  C:\Users\young\AppData\Local\Temp\ccoFnsFE.s 			page 108


 3263              		.global	CapSense_sensorIndex
 3264              		.global	CapSense_csdStatusVar
 3265              		.global	CapSense_prescalersTuningDone
 3266              		.section	.rodata
 3267              		.align	2
 3268              		.set	.LANCHOR0,. + 0
 3269              		.type	CapSense_pinShiftTbl, %object
 3270              		.size	CapSense_pinShiftTbl, 6
 3271              	CapSense_pinShiftTbl:
 3272 0000 04       		.byte	4
 3273 0001 01       		.byte	1
 3274 0002 02       		.byte	2
 3275 0003 05       		.byte	5
 3276 0004 00       		.byte	0
 3277 0005 03       		.byte	3
 3278 0006 0000     		.space	2
 3279              		.type	CapSense_portTable, %object
 3280              		.size	CapSense_portTable, 6
 3281              	CapSense_portTable:
 3282 0008 01       		.byte	1
 3283 0009 01       		.byte	1
 3284 000a 01       		.byte	1
 3285 000b 01       		.byte	1
 3286 000c 01       		.byte	1
 3287 000d 01       		.byte	1
 3288 000e 0000     		.space	2
 3289              		.type	CapSense_prtSelTbl, %object
 3290              		.size	CapSense_prtSelTbl, 16
 3291              	CapSense_prtSelTbl:
 3292 0010 00000240 		.word	1073872896
 3293 0014 00010240 		.word	1073873152
 3294 0018 00020240 		.word	1073873408
 3295 001c 00030240 		.word	1073873664
 3296              		.type	CapSense_prtCfgTbl, %object
 3297              		.size	CapSense_prtCfgTbl, 16
 3298              	CapSense_prtCfgTbl:
 3299 0020 08000440 		.word	1074003976
 3300 0024 08010440 		.word	1074004232
 3301 0028 08020440 		.word	1074004488
 3302 002c 08030440 		.word	1074004744
 3303              		.type	CapSense_prtDRTbl, %object
 3304              		.size	CapSense_prtDRTbl, 16
 3305              	CapSense_prtDRTbl:
 3306 0030 00000440 		.word	1074003968
 3307 0034 00010440 		.word	1074004224
 3308 0038 00020440 		.word	1074004480
 3309 003c 00030440 		.word	1074004736
 3310              		.type	CapSense_widgetNumber, %object
 3311              		.size	CapSense_widgetNumber, 6
 3312              	CapSense_widgetNumber:
 3313 0040 00       		.byte	0
 3314 0041 01       		.byte	1
 3315 0042 02       		.byte	2
 3316 0043 03       		.byte	3
 3317 0044 04       		.byte	4
 3318 0045 05       		.byte	5
 3319 0046 0000     		.space	2
ARM GAS  C:\Users\young\AppData\Local\Temp\ccoFnsFE.s 			page 109


 3320              		.type	CapSense_maskTable, %object
 3321              		.size	CapSense_maskTable, 24
 3322              	CapSense_maskTable:
 3323 0048 10000000 		.word	16
 3324 004c 02000000 		.word	2
 3325 0050 04000000 		.word	4
 3326 0054 20000000 		.word	32
 3327 0058 01000000 		.word	1
 3328 005c 08000000 		.word	8
 3329              		.data
 3330              		.align	2
 3331              		.set	.LANCHOR2,. + 0
 3332              		.type	CapSense_sensorEnableMask, %object
 3333              		.size	CapSense_sensorEnableMask, 1
 3334              	CapSense_sensorEnableMask:
 3335 0000 3F       		.byte	63
 3336 0001 000000   		.space	3
 3337              		.type	CapSense_widgetResolution, %object
 3338              		.size	CapSense_widgetResolution, 24
 3339              	CapSense_widgetResolution:
 3340 0004 0000FF07 		.word	134152192
 3341 0008 0000FF0F 		.word	268369920
 3342 000c 0000FF0F 		.word	268369920
 3343 0010 0000FF07 		.word	134152192
 3344 0014 0000FF07 		.word	134152192
 3345 0018 0000FF07 		.word	134152192
 3346              		.type	CapSense_sampleClkDividerVal, %object
 3347              		.size	CapSense_sampleClkDividerVal, 6
 3348              	CapSense_sampleClkDividerVal:
 3349 001c 02       		.byte	2
 3350 001d 02       		.byte	2
 3351 001e 02       		.byte	2
 3352 001f 02       		.byte	2
 3353 0020 02       		.byte	2
 3354 0021 02       		.byte	2
 3355 0022 0000     		.space	2
 3356              		.type	CapSense_senseClkDividerVal, %object
 3357              		.size	CapSense_senseClkDividerVal, 6
 3358              	CapSense_senseClkDividerVal:
 3359 0024 02       		.byte	2
 3360 0025 02       		.byte	2
 3361 0026 02       		.byte	2
 3362 0027 02       		.byte	2
 3363 0028 02       		.byte	2
 3364 0029 02       		.byte	2
 3365 002a 0000     		.space	2
 3366              		.type	CapSense_modulationIDAC, %object
 3367              		.size	CapSense_modulationIDAC, 6
 3368              	CapSense_modulationIDAC:
 3369 002c 15       		.byte	21
 3370 002d 18       		.byte	24
 3371 002e 15       		.byte	21
 3372 002f 13       		.byte	19
 3373 0030 13       		.byte	19
 3374 0031 11       		.byte	17
 3375 0032 0000     		.space	2
 3376              		.type	CapSense_pcTable, %object
ARM GAS  C:\Users\young\AppData\Local\Temp\ccoFnsFE.s 			page 110


 3377              		.size	CapSense_pcTable, 24
 3378              	CapSense_pcTable:
 3379 0034 08010440 		.word	1074004232
 3380 0038 08010440 		.word	1074004232
 3381 003c 08010440 		.word	1074004232
 3382 0040 08010440 		.word	1074004232
 3383 0044 08010440 		.word	1074004232
 3384 0048 08010440 		.word	1074004232
 3385              		.bss
 3386              		.align	2
 3387              		.set	.LANCHOR1,. + 0
 3388              		.type	CapSense_initVar.5335, %object
 3389              		.size	CapSense_initVar.5335, 1
 3390              	CapSense_initVar.5335:
 3391 0000 00       		.space	1
 3392              		.type	CapSense_csdStatusVar, %object
 3393              		.size	CapSense_csdStatusVar, 1
 3394              	CapSense_csdStatusVar:
 3395 0001 00       		.space	1
 3396 0002 0000     		.space	2
 3397              		.type	CapSense_sensorRaw, %object
 3398              		.size	CapSense_sensorRaw, 12
 3399              	CapSense_sensorRaw:
 3400 0004 00000000 		.space	12
 3400      00000000 
 3400      00000000 
 3401              		.type	CapSense_compensationIDAC, %object
 3402              		.size	CapSense_compensationIDAC, 6
 3403              	CapSense_compensationIDAC:
 3404 0010 00000000 		.space	6
 3404      0000
 3405              		.type	CapSense_sensorIndex, %object
 3406              		.size	CapSense_sensorIndex, 1
 3407              	CapSense_sensorIndex:
 3408 0016 00       		.space	1
 3409              		.type	CapSense_prescalersTuningDone, %object
 3410              		.size	CapSense_prescalersTuningDone, 1
 3411              	CapSense_prescalersTuningDone:
 3412 0017 00       		.space	1
 3413              		.text
 3414              	.Letext0:
 3415              		.file 2 "Generated_Source\\PSoC4\\cytypes.h"
 3416              		.file 3 "Generated_Source\\PSoC4\\CapSense_CSHL.h"
 3417              		.file 4 "Generated_Source\\PSoC4\\CyLib.h"
 3418              		.file 5 "Generated_Source\\PSoC4\\CapSense_SenseClk.h"
 3419              		.file 6 "Generated_Source\\PSoC4\\CapSense_SampleClk.h"
 3420              		.section	.debug_info,"",%progbits
 3421              	.Ldebug_info0:
 3422 0000 82160000 		.4byte	0x1682
 3423 0004 0400     		.2byte	0x4
 3424 0006 00000000 		.4byte	.Ldebug_abbrev0
 3425 000a 04       		.byte	0x4
 3426 000b 01       		.uleb128 0x1
 3427 000c 14020000 		.4byte	.LASF127
 3428 0010 0C       		.byte	0xc
 3429 0011 9D030000 		.4byte	.LASF128
 3430 0015 CE020000 		.4byte	.LASF129
ARM GAS  C:\Users\young\AppData\Local\Temp\ccoFnsFE.s 			page 111


 3431 0019 D8010000 		.4byte	.Ldebug_ranges0+0x1d8
 3432 001d 00000000 		.4byte	0
 3433 0021 00000000 		.4byte	.Ldebug_line0
 3434 0025 02       		.uleb128 0x2
 3435 0026 01       		.byte	0x1
 3436 0027 06       		.byte	0x6
 3437 0028 F9090000 		.4byte	.LASF0
 3438 002c 02       		.uleb128 0x2
 3439 002d 01       		.byte	0x1
 3440 002e 08       		.byte	0x8
 3441 002f D8080000 		.4byte	.LASF1
 3442 0033 02       		.uleb128 0x2
 3443 0034 02       		.byte	0x2
 3444 0035 05       		.byte	0x5
 3445 0036 5D070000 		.4byte	.LASF2
 3446 003a 02       		.uleb128 0x2
 3447 003b 02       		.byte	0x2
 3448 003c 07       		.byte	0x7
 3449 003d 050A0000 		.4byte	.LASF3
 3450 0041 02       		.uleb128 0x2
 3451 0042 04       		.byte	0x4
 3452 0043 05       		.byte	0x5
 3453 0044 67070000 		.4byte	.LASF4
 3454 0048 02       		.uleb128 0x2
 3455 0049 04       		.byte	0x4
 3456 004a 07       		.byte	0x7
 3457 004b BA080000 		.4byte	.LASF5
 3458 004f 02       		.uleb128 0x2
 3459 0050 08       		.byte	0x8
 3460 0051 05       		.byte	0x5
 3461 0052 C6050000 		.4byte	.LASF6
 3462 0056 02       		.uleb128 0x2
 3463 0057 08       		.byte	0x8
 3464 0058 07       		.byte	0x7
 3465 0059 A2020000 		.4byte	.LASF7
 3466 005d 03       		.uleb128 0x3
 3467 005e 04       		.byte	0x4
 3468 005f 05       		.byte	0x5
 3469 0060 696E7400 		.ascii	"int\000"
 3470 0064 02       		.uleb128 0x2
 3471 0065 04       		.byte	0x4
 3472 0066 07       		.byte	0x7
 3473 0067 66000000 		.4byte	.LASF8
 3474 006b 04       		.uleb128 0x4
 3475 006c 240A0000 		.4byte	.LASF9
 3476 0070 02       		.byte	0x2
 3477 0071 D201     		.2byte	0x1d2
 3478 0073 2C000000 		.4byte	0x2c
 3479 0077 04       		.uleb128 0x4
 3480 0078 34050000 		.4byte	.LASF10
 3481 007c 02       		.byte	0x2
 3482 007d D301     		.2byte	0x1d3
 3483 007f 3A000000 		.4byte	0x3a
 3484 0083 04       		.uleb128 0x4
 3485 0084 7F060000 		.4byte	.LASF11
 3486 0088 02       		.byte	0x2
 3487 0089 D401     		.2byte	0x1d4
ARM GAS  C:\Users\young\AppData\Local\Temp\ccoFnsFE.s 			page 112


 3488 008b 48000000 		.4byte	0x48
 3489 008f 02       		.uleb128 0x2
 3490 0090 04       		.byte	0x4
 3491 0091 04       		.byte	0x4
 3492 0092 0E020000 		.4byte	.LASF12
 3493 0096 02       		.uleb128 0x2
 3494 0097 08       		.byte	0x8
 3495 0098 04       		.byte	0x4
 3496 0099 2A0A0000 		.4byte	.LASF13
 3497 009d 02       		.uleb128 0x2
 3498 009e 01       		.byte	0x1
 3499 009f 08       		.byte	0x8
 3500 00a0 DC040000 		.4byte	.LASF14
 3501 00a4 04       		.uleb128 0x4
 3502 00a5 9F000000 		.4byte	.LASF15
 3503 00a9 02       		.byte	0x2
 3504 00aa 7C02     		.2byte	0x27c
 3505 00ac B0000000 		.4byte	0xb0
 3506 00b0 05       		.uleb128 0x5
 3507 00b1 6B000000 		.4byte	0x6b
 3508 00b5 04       		.uleb128 0x4
 3509 00b6 B0060000 		.4byte	.LASF16
 3510 00ba 02       		.byte	0x2
 3511 00bb 7E02     		.2byte	0x27e
 3512 00bd C1000000 		.4byte	0xc1
 3513 00c1 05       		.uleb128 0x5
 3514 00c2 83000000 		.4byte	0x83
 3515 00c6 02       		.uleb128 0x2
 3516 00c7 04       		.byte	0x4
 3517 00c8 07       		.byte	0x7
 3518 00c9 B1080000 		.4byte	.LASF17
 3519 00cd 02       		.uleb128 0x2
 3520 00ce 08       		.byte	0x8
 3521 00cf 04       		.byte	0x4
 3522 00d0 99060000 		.4byte	.LASF18
 3523 00d4 06       		.uleb128 0x6
 3524 00d5 04       		.byte	0x4
 3525 00d6 6B000000 		.4byte	0x6b
 3526 00da 06       		.uleb128 0x6
 3527 00db 04       		.byte	0x4
 3528 00dc E0000000 		.4byte	0xe0
 3529 00e0 07       		.uleb128 0x7
 3530 00e1 6B000000 		.4byte	0x6b
 3531 00e5 08       		.uleb128 0x8
 3532 00e6 44070000 		.4byte	.LASF32
 3533 00ea 01       		.byte	0x1
 3534 00eb 2105     		.2byte	0x521
 3535 00ed 01       		.byte	0x1
 3536 00ee 2F010000 		.4byte	0x12f
 3537 00f2 09       		.uleb128 0x9
 3538 00f3 3B0A0000 		.4byte	.LASF19
 3539 00f7 01       		.byte	0x1
 3540 00f8 2105     		.2byte	0x521
 3541 00fa 83000000 		.4byte	0x83
 3542 00fe 09       		.uleb128 0x9
 3543 00ff 86060000 		.4byte	.LASF20
 3544 0103 01       		.byte	0x1
ARM GAS  C:\Users\young\AppData\Local\Temp\ccoFnsFE.s 			page 113


 3545 0104 2105     		.2byte	0x521
 3546 0106 83000000 		.4byte	0x83
 3547 010a 09       		.uleb128 0x9
 3548 010b 04070000 		.4byte	.LASF21
 3549 010f 01       		.byte	0x1
 3550 0110 2105     		.2byte	0x521
 3551 0112 83000000 		.4byte	0x83
 3552 0116 0A       		.uleb128 0xa
 3553 0117 15010000 		.4byte	.LASF22
 3554 011b 01       		.byte	0x1
 3555 011c 2305     		.2byte	0x523
 3556 011e 83000000 		.4byte	0x83
 3557 0122 0A       		.uleb128 0xa
 3558 0123 D2030000 		.4byte	.LASF23
 3559 0127 01       		.byte	0x1
 3560 0128 2405     		.2byte	0x524
 3561 012a 83000000 		.4byte	0x83
 3562 012e 00       		.byte	0
 3563 012f 0B       		.uleb128 0xb
 3564 0130 5A090000 		.4byte	.LASF28
 3565 0134 01       		.byte	0x1
 3566 0135 CA06     		.2byte	0x6ca
 3567 0137 83000000 		.4byte	0x83
 3568 013b 01       		.byte	0x1
 3569 013c 71010000 		.4byte	0x171
 3570 0140 09       		.uleb128 0x9
 3571 0141 05050000 		.4byte	.LASF24
 3572 0145 01       		.byte	0x1
 3573 0146 CA06     		.2byte	0x6ca
 3574 0148 DA000000 		.4byte	0xda
 3575 014c 09       		.uleb128 0x9
 3576 014d 450A0000 		.4byte	.LASF25
 3577 0151 01       		.byte	0x1
 3578 0152 CA06     		.2byte	0x6ca
 3579 0154 83000000 		.4byte	0x83
 3580 0158 0A       		.uleb128 0xa
 3581 0159 44040000 		.4byte	.LASF26
 3582 015d 01       		.byte	0x1
 3583 015e CC06     		.2byte	0x6cc
 3584 0160 83000000 		.4byte	0x83
 3585 0164 0A       		.uleb128 0xa
 3586 0165 D1080000 		.4byte	.LASF27
 3587 0169 01       		.byte	0x1
 3588 016a CD06     		.2byte	0x6cd
 3589 016c 6B000000 		.4byte	0x6b
 3590 0170 00       		.byte	0
 3591 0171 0B       		.uleb128 0xb
 3592 0172 0B050000 		.4byte	.LASF29
 3593 0176 01       		.byte	0x1
 3594 0177 0802     		.2byte	0x208
 3595 0179 6B000000 		.4byte	0x6b
 3596 017d 01       		.byte	0x1
 3597 017e 9B010000 		.4byte	0x19b
 3598 0182 09       		.uleb128 0x9
 3599 0183 90060000 		.4byte	.LASF30
 3600 0187 01       		.byte	0x1
 3601 0188 0802     		.2byte	0x208
ARM GAS  C:\Users\young\AppData\Local\Temp\ccoFnsFE.s 			page 114


 3602 018a 6B000000 		.4byte	0x6b
 3603 018e 0A       		.uleb128 0xa
 3604 018f EE050000 		.4byte	.LASF31
 3605 0193 01       		.byte	0x1
 3606 0194 0A02     		.2byte	0x20a
 3607 0196 83000000 		.4byte	0x83
 3608 019a 00       		.byte	0
 3609 019b 08       		.uleb128 0x8
 3610 019c 45090000 		.4byte	.LASF33
 3611 01a0 01       		.byte	0x1
 3612 01a1 F506     		.2byte	0x6f5
 3613 01a3 01       		.byte	0x1
 3614 01a4 E5010000 		.4byte	0x1e5
 3615 01a8 09       		.uleb128 0x9
 3616 01a9 05050000 		.4byte	.LASF24
 3617 01ad 01       		.byte	0x1
 3618 01ae F506     		.2byte	0x6f5
 3619 01b0 D4000000 		.4byte	0xd4
 3620 01b4 09       		.uleb128 0x9
 3621 01b5 450A0000 		.4byte	.LASF25
 3622 01b9 01       		.byte	0x1
 3623 01ba F506     		.2byte	0x6f5
 3624 01bc 83000000 		.4byte	0x83
 3625 01c0 09       		.uleb128 0x9
 3626 01c1 CC030000 		.4byte	.LASF34
 3627 01c5 01       		.byte	0x1
 3628 01c6 F506     		.2byte	0x6f5
 3629 01c8 83000000 		.4byte	0x83
 3630 01cc 0A       		.uleb128 0xa
 3631 01cd 44040000 		.4byte	.LASF26
 3632 01d1 01       		.byte	0x1
 3633 01d2 F706     		.2byte	0x6f7
 3634 01d4 83000000 		.4byte	0x83
 3635 01d8 0A       		.uleb128 0xa
 3636 01d9 D1080000 		.4byte	.LASF27
 3637 01dd 01       		.byte	0x1
 3638 01de F806     		.2byte	0x6f8
 3639 01e0 6B000000 		.4byte	0x6b
 3640 01e4 00       		.byte	0
 3641 01e5 08       		.uleb128 0x8
 3642 01e6 D6070000 		.4byte	.LASF35
 3643 01ea 01       		.byte	0x1
 3644 01eb C608     		.2byte	0x8c6
 3645 01ed 01       		.byte	0x1
 3646 01ee 0B020000 		.4byte	0x20b
 3647 01f2 09       		.uleb128 0x9
 3648 01f3 C2040000 		.4byte	.LASF36
 3649 01f7 01       		.byte	0x1
 3650 01f8 C608     		.2byte	0x8c6
 3651 01fa 83000000 		.4byte	0x83
 3652 01fe 09       		.uleb128 0x9
 3653 01ff 27040000 		.4byte	.LASF37
 3654 0203 01       		.byte	0x1
 3655 0204 C608     		.2byte	0x8c6
 3656 0206 83000000 		.4byte	0x83
 3657 020a 00       		.byte	0
 3658 020b 08       		.uleb128 0x8
ARM GAS  C:\Users\young\AppData\Local\Temp\ccoFnsFE.s 			page 115


 3659 020c C7010000 		.4byte	.LASF38
 3660 0210 01       		.byte	0x1
 3661 0211 8403     		.2byte	0x384
 3662 0213 01       		.byte	0x1
 3663 0214 25020000 		.4byte	0x225
 3664 0218 0A       		.uleb128 0xa
 3665 0219 90060000 		.4byte	.LASF30
 3666 021d 01       		.byte	0x1
 3667 021e 8603     		.2byte	0x386
 3668 0220 83000000 		.4byte	0x83
 3669 0224 00       		.byte	0
 3670 0225 08       		.uleb128 0x8
 3671 0226 41030000 		.4byte	.LASF39
 3672 022a 01       		.byte	0x1
 3673 022b 8A06     		.2byte	0x68a
 3674 022d 01       		.byte	0x1
 3675 022e 4B020000 		.4byte	0x24b
 3676 0232 09       		.uleb128 0x9
 3677 0233 70070000 		.4byte	.LASF40
 3678 0237 01       		.byte	0x1
 3679 0238 8A06     		.2byte	0x68a
 3680 023a 83000000 		.4byte	0x83
 3681 023e 0A       		.uleb128 0xa
 3682 023f 180A0000 		.4byte	.LASF41
 3683 0243 01       		.byte	0x1
 3684 0244 8C06     		.2byte	0x68c
 3685 0246 83000000 		.4byte	0x83
 3686 024a 00       		.byte	0
 3687 024b 0C       		.uleb128 0xc
 3688 024c 0F070000 		.4byte	.LASF42
 3689 0250 01       		.byte	0x1
 3690 0251 B5       		.byte	0xb5
 3691 0252 01       		.byte	0x1
 3692 0253 63020000 		.4byte	0x263
 3693 0257 0D       		.uleb128 0xd
 3694 0258 310A0000 		.4byte	.LASF43
 3695 025c 01       		.byte	0x1
 3696 025d B7       		.byte	0xb7
 3697 025e 83000000 		.4byte	0x83
 3698 0262 00       		.byte	0
 3699 0263 0C       		.uleb128 0xc
 3700 0264 6C010000 		.4byte	.LASF44
 3701 0268 01       		.byte	0x1
 3702 0269 F6       		.byte	0xf6
 3703 026a 01       		.byte	0x1
 3704 026b 7B020000 		.4byte	0x27b
 3705 026f 0D       		.uleb128 0xd
 3706 0270 180A0000 		.4byte	.LASF41
 3707 0274 01       		.byte	0x1
 3708 0275 F8       		.byte	0xf8
 3709 0276 83000000 		.4byte	0x83
 3710 027a 00       		.byte	0
 3711 027b 08       		.uleb128 0x8
 3712 027c 55010000 		.4byte	.LASF45
 3713 0280 01       		.byte	0x1
 3714 0281 5704     		.2byte	0x457
 3715 0283 01       		.byte	0x1
ARM GAS  C:\Users\young\AppData\Local\Temp\ccoFnsFE.s 			page 116


 3716 0284 E9020000 		.4byte	0x2e9
 3717 0288 09       		.uleb128 0x9
 3718 0289 C2040000 		.4byte	.LASF36
 3719 028d 01       		.byte	0x1
 3720 028e 5704     		.2byte	0x457
 3721 0290 83000000 		.4byte	0x83
 3722 0294 0A       		.uleb128 0xa
 3723 0295 90000000 		.4byte	.LASF46
 3724 0299 01       		.byte	0x1
 3725 029a 5904     		.2byte	0x459
 3726 029c 6B000000 		.4byte	0x6b
 3727 02a0 0A       		.uleb128 0xa
 3728 02a1 D2030000 		.4byte	.LASF23
 3729 02a5 01       		.byte	0x1
 3730 02a6 5A04     		.2byte	0x45a
 3731 02a8 83000000 		.4byte	0x83
 3732 02ac 0A       		.uleb128 0xa
 3733 02ad CC080000 		.4byte	.LASF47
 3734 02b1 01       		.byte	0x1
 3735 02b2 5C04     		.2byte	0x45c
 3736 02b4 83000000 		.4byte	0x83
 3737 02b8 0A       		.uleb128 0xa
 3738 02b9 CE000000 		.4byte	.LASF48
 3739 02bd 01       		.byte	0x1
 3740 02be 5D04     		.2byte	0x45d
 3741 02c0 6B000000 		.4byte	0x6b
 3742 02c4 0A       		.uleb128 0xa
 3743 02c5 15010000 		.4byte	.LASF22
 3744 02c9 01       		.byte	0x1
 3745 02ca 5E04     		.2byte	0x45e
 3746 02cc 6B000000 		.4byte	0x6b
 3747 02d0 0A       		.uleb128 0xa
 3748 02d1 84010000 		.4byte	.LASF49
 3749 02d5 01       		.byte	0x1
 3750 02d6 6004     		.2byte	0x460
 3751 02d8 83000000 		.4byte	0x83
 3752 02dc 0A       		.uleb128 0xa
 3753 02dd 27040000 		.4byte	.LASF37
 3754 02e1 01       		.byte	0x1
 3755 02e2 6104     		.2byte	0x461
 3756 02e4 83000000 		.4byte	0x83
 3757 02e8 00       		.byte	0
 3758 02e9 0E       		.uleb128 0xe
 3759 02ea 4B020000 		.4byte	0x24b
 3760 02ee 00000000 		.4byte	.LFB32
 3761 02f2 2C010000 		.4byte	.LFE32-.LFB32
 3762 02f6 01       		.uleb128 0x1
 3763 02f7 9C       		.byte	0x9c
 3764 02f8 3B040000 		.4byte	0x43b
 3765 02fc 0F       		.uleb128 0xf
 3766 02fd 57020000 		.4byte	0x257
 3767 0301 00       		.byte	0
 3768 0302 10       		.uleb128 0x10
 3769 0303 63020000 		.4byte	0x263
 3770 0307 1A000000 		.4byte	.LBB38
 3771 030b 00000000 		.4byte	.Ldebug_ranges0+0
 3772 030f 01       		.byte	0x1
ARM GAS  C:\Users\young\AppData\Local\Temp\ccoFnsFE.s 			page 117


 3773 0310 DA       		.byte	0xda
 3774 0311 5F030000 		.4byte	0x35f
 3775 0315 11       		.uleb128 0x11
 3776 0316 00000000 		.4byte	.Ldebug_ranges0+0
 3777 031a 12       		.uleb128 0x12
 3778 031b 6F020000 		.4byte	0x26f
 3779 031f 00000000 		.4byte	.LLST0
 3780 0323 13       		.uleb128 0x13
 3781 0324 58000000 		.4byte	.LVL12
 3782 0328 ED150000 		.4byte	0x15ed
 3783 032c 36030000 		.4byte	0x336
 3784 0330 14       		.uleb128 0x14
 3785 0331 01       		.uleb128 0x1
 3786 0332 50       		.byte	0x50
 3787 0333 01       		.uleb128 0x1
 3788 0334 37       		.byte	0x37
 3789 0335 00       		.byte	0
 3790 0336 13       		.uleb128 0x13
 3791 0337 60000000 		.4byte	.LVL13
 3792 033b F8150000 		.4byte	0x15f8
 3793 033f 49030000 		.4byte	0x349
 3794 0343 14       		.uleb128 0x14
 3795 0344 01       		.uleb128 0x1
 3796 0345 50       		.byte	0x50
 3797 0346 01       		.uleb128 0x1
 3798 0347 37       		.byte	0x37
 3799 0348 00       		.byte	0
 3800 0349 15       		.uleb128 0x15
 3801 034a 68000000 		.4byte	.LVL14
 3802 034e 03160000 		.4byte	0x1603
 3803 0352 14       		.uleb128 0x14
 3804 0353 01       		.uleb128 0x1
 3805 0354 50       		.byte	0x50
 3806 0355 01       		.uleb128 0x1
 3807 0356 37       		.byte	0x37
 3808 0357 14       		.uleb128 0x14
 3809 0358 01       		.uleb128 0x1
 3810 0359 51       		.byte	0x51
 3811 035a 01       		.uleb128 0x1
 3812 035b 33       		.byte	0x33
 3813 035c 00       		.byte	0
 3814 035d 00       		.byte	0
 3815 035e 00       		.byte	0
 3816 035f 10       		.uleb128 0x10
 3817 0360 0B020000 		.4byte	0x20b
 3818 0364 28000000 		.4byte	.LBB41
 3819 0368 18000000 		.4byte	.Ldebug_ranges0+0x18
 3820 036c 01       		.byte	0x1
 3821 036d DE       		.byte	0xde
 3822 036e F3030000 		.4byte	0x3f3
 3823 0372 11       		.uleb128 0x11
 3824 0373 18000000 		.4byte	.Ldebug_ranges0+0x18
 3825 0377 12       		.uleb128 0x12
 3826 0378 18020000 		.4byte	0x218
 3827 037c 66000000 		.4byte	.LLST1
 3828 0380 16       		.uleb128 0x16
 3829 0381 7B020000 		.4byte	0x27b
ARM GAS  C:\Users\young\AppData\Local\Temp\ccoFnsFE.s 			page 118


 3830 0385 7C000000 		.4byte	.LBB43
 3831 0389 30000000 		.4byte	.Ldebug_ranges0+0x30
 3832 038d 01       		.byte	0x1
 3833 038e 8A03     		.2byte	0x38a
 3834 0390 17       		.uleb128 0x17
 3835 0391 88020000 		.4byte	0x288
 3836 0395 9D000000 		.4byte	.LLST2
 3837 0399 11       		.uleb128 0x11
 3838 039a 30000000 		.4byte	.Ldebug_ranges0+0x30
 3839 039e 12       		.uleb128 0x12
 3840 039f 94020000 		.4byte	0x294
 3841 03a3 C8000000 		.4byte	.LLST3
 3842 03a7 12       		.uleb128 0x12
 3843 03a8 A0020000 		.4byte	0x2a0
 3844 03ac DB000000 		.4byte	.LLST4
 3845 03b0 12       		.uleb128 0x12
 3846 03b1 AC020000 		.4byte	0x2ac
 3847 03b5 F9000000 		.4byte	.LLST5
 3848 03b9 12       		.uleb128 0x12
 3849 03ba B8020000 		.4byte	0x2b8
 3850 03be 49010000 		.4byte	.LLST6
 3851 03c2 12       		.uleb128 0x12
 3852 03c3 C4020000 		.4byte	0x2c4
 3853 03c7 6F010000 		.4byte	.LLST7
 3854 03cb 12       		.uleb128 0x12
 3855 03cc D0020000 		.4byte	0x2d0
 3856 03d0 8D010000 		.4byte	.LLST8
 3857 03d4 12       		.uleb128 0x12
 3858 03d5 DC020000 		.4byte	0x2dc
 3859 03d9 A1010000 		.4byte	.LLST9
 3860 03dd 18       		.uleb128 0x18
 3861 03de 80000000 		.4byte	.LVL19
 3862 03e2 0E160000 		.4byte	0x160e
 3863 03e6 18       		.uleb128 0x18
 3864 03e7 96000000 		.4byte	.LVL24
 3865 03eb 19160000 		.4byte	0x1619
 3866 03ef 00       		.byte	0
 3867 03f0 00       		.byte	0
 3868 03f1 00       		.byte	0
 3869 03f2 00       		.byte	0
 3870 03f3 19       		.uleb128 0x19
 3871 03f4 25020000 		.4byte	0x225
 3872 03f8 68000000 		.4byte	.LBB51
 3873 03fc 14000000 		.4byte	.LBE51-.LBB51
 3874 0400 01       		.byte	0x1
 3875 0401 DB       		.byte	0xdb
 3876 0402 20040000 		.4byte	0x420
 3877 0406 1A       		.uleb128 0x1a
 3878 0407 32020000 		.4byte	0x232
 3879 040b 00       		.byte	0
 3880 040c 1B       		.uleb128 0x1b
 3881 040d 68000000 		.4byte	.LBB52
 3882 0411 14000000 		.4byte	.LBE52-.LBB52
 3883 0415 12       		.uleb128 0x12
 3884 0416 3E020000 		.4byte	0x23e
 3885 041a C9010000 		.4byte	.LLST10
 3886 041e 00       		.byte	0
ARM GAS  C:\Users\young\AppData\Local\Temp\ccoFnsFE.s 			page 119


 3887 041f 00       		.byte	0
 3888 0420 15       		.uleb128 0x15
 3889 0421 1A000000 		.4byte	.LVL1
 3890 0425 24160000 		.4byte	0x1624
 3891 0429 14       		.uleb128 0x14
 3892 042a 01       		.uleb128 0x1
 3893 042b 50       		.byte	0x50
 3894 042c 02       		.uleb128 0x2
 3895 042d 7B       		.byte	0x7b
 3896 042e 00       		.sleb128 0
 3897 042f 14       		.uleb128 0x14
 3898 0430 01       		.uleb128 0x1
 3899 0431 51       		.byte	0x51
 3900 0432 01       		.uleb128 0x1
 3901 0433 30       		.byte	0x30
 3902 0434 14       		.uleb128 0x14
 3903 0435 01       		.uleb128 0x1
 3904 0436 52       		.byte	0x52
 3905 0437 01       		.uleb128 0x1
 3906 0438 36       		.byte	0x36
 3907 0439 00       		.byte	0
 3908 043a 00       		.byte	0
 3909 043b 0E       		.uleb128 0xe
 3910 043c 63020000 		.4byte	0x263
 3911 0440 00000000 		.4byte	.LFB33
 3912 0444 78000000 		.4byte	.LFE33-.LFB33
 3913 0448 01       		.uleb128 0x1
 3914 0449 9C       		.byte	0x9c
 3915 044a 92040000 		.4byte	0x492
 3916 044e 12       		.uleb128 0x12
 3917 044f 6F020000 		.4byte	0x26f
 3918 0453 E8010000 		.4byte	.LLST11
 3919 0457 13       		.uleb128 0x13
 3920 0458 3E000000 		.4byte	.LVL41
 3921 045c ED150000 		.4byte	0x15ed
 3922 0460 6A040000 		.4byte	0x46a
 3923 0464 14       		.uleb128 0x14
 3924 0465 01       		.uleb128 0x1
 3925 0466 50       		.byte	0x50
 3926 0467 01       		.uleb128 0x1
 3927 0468 37       		.byte	0x37
 3928 0469 00       		.byte	0
 3929 046a 13       		.uleb128 0x13
 3930 046b 46000000 		.4byte	.LVL42
 3931 046f F8150000 		.4byte	0x15f8
 3932 0473 7D040000 		.4byte	0x47d
 3933 0477 14       		.uleb128 0x14
 3934 0478 01       		.uleb128 0x1
 3935 0479 50       		.byte	0x50
 3936 047a 01       		.uleb128 0x1
 3937 047b 37       		.byte	0x37
 3938 047c 00       		.byte	0
 3939 047d 15       		.uleb128 0x15
 3940 047e 4E000000 		.4byte	.LVL43
 3941 0482 03160000 		.4byte	0x1603
 3942 0486 14       		.uleb128 0x14
 3943 0487 01       		.uleb128 0x1
ARM GAS  C:\Users\young\AppData\Local\Temp\ccoFnsFE.s 			page 120


 3944 0488 50       		.byte	0x50
 3945 0489 01       		.uleb128 0x1
 3946 048a 37       		.byte	0x37
 3947 048b 14       		.uleb128 0x14
 3948 048c 01       		.uleb128 0x1
 3949 048d 51       		.byte	0x51
 3950 048e 01       		.uleb128 0x1
 3951 048f 33       		.byte	0x33
 3952 0490 00       		.byte	0
 3953 0491 00       		.byte	0
 3954 0492 08       		.uleb128 0x8
 3955 0493 17040000 		.4byte	.LASF50
 3956 0497 01       		.byte	0x1
 3957 0498 4B01     		.2byte	0x14b
 3958 049a 01       		.byte	0x1
 3959 049b AC040000 		.4byte	0x4ac
 3960 049f 0A       		.uleb128 0xa
 3961 04a0 180A0000 		.4byte	.LASF41
 3962 04a4 01       		.byte	0x1
 3963 04a5 4D01     		.2byte	0x14d
 3964 04a7 83000000 		.4byte	0x83
 3965 04ab 00       		.byte	0
 3966 04ac 0E       		.uleb128 0xe
 3967 04ad 92040000 		.4byte	0x492
 3968 04b1 00000000 		.4byte	.LFB34
 3969 04b5 40000000 		.4byte	.LFE34-.LFB34
 3970 04b9 01       		.uleb128 0x1
 3971 04ba 9C       		.byte	0x9c
 3972 04bb 42050000 		.4byte	0x542
 3973 04bf 12       		.uleb128 0x12
 3974 04c0 9F040000 		.4byte	0x49f
 3975 04c4 4E020000 		.4byte	.LLST12
 3976 04c8 18       		.uleb128 0x18
 3977 04c9 06000000 		.4byte	.LVL44
 3978 04cd 2D160000 		.4byte	0x162d
 3979 04d1 18       		.uleb128 0x18
 3980 04d2 0A000000 		.4byte	.LVL45
 3981 04d6 38160000 		.4byte	0x1638
 3982 04da 13       		.uleb128 0x13
 3983 04db 12000000 		.4byte	.LVL46
 3984 04df 43160000 		.4byte	0x1643
 3985 04e3 F2040000 		.4byte	0x4f2
 3986 04e7 14       		.uleb128 0x14
 3987 04e8 01       		.uleb128 0x1
 3988 04e9 50       		.byte	0x50
 3989 04ea 01       		.uleb128 0x1
 3990 04eb 30       		.byte	0x30
 3991 04ec 14       		.uleb128 0x14
 3992 04ed 01       		.uleb128 0x1
 3993 04ee 51       		.byte	0x51
 3994 04ef 01       		.uleb128 0x1
 3995 04f0 30       		.byte	0x30
 3996 04f1 00       		.byte	0
 3997 04f2 13       		.uleb128 0x13
 3998 04f3 1A000000 		.4byte	.LVL47
 3999 04f7 4E160000 		.4byte	0x164e
 4000 04fb 0A050000 		.4byte	0x50a
ARM GAS  C:\Users\young\AppData\Local\Temp\ccoFnsFE.s 			page 121


 4001 04ff 14       		.uleb128 0x14
 4002 0500 01       		.uleb128 0x1
 4003 0501 50       		.byte	0x50
 4004 0502 01       		.uleb128 0x1
 4005 0503 30       		.byte	0x30
 4006 0504 14       		.uleb128 0x14
 4007 0505 01       		.uleb128 0x1
 4008 0506 51       		.byte	0x51
 4009 0507 01       		.uleb128 0x1
 4010 0508 30       		.byte	0x30
 4011 0509 00       		.byte	0
 4012 050a 13       		.uleb128 0x13
 4013 050b 20000000 		.4byte	.LVL48
 4014 050f 59160000 		.4byte	0x1659
 4015 0513 1E050000 		.4byte	0x51e
 4016 0517 14       		.uleb128 0x14
 4017 0518 01       		.uleb128 0x1
 4018 0519 50       		.byte	0x50
 4019 051a 02       		.uleb128 0x2
 4020 051b 08       		.byte	0x8
 4021 051c FF       		.byte	0xff
 4022 051d 00       		.byte	0
 4023 051e 13       		.uleb128 0x13
 4024 051f 26000000 		.4byte	.LVL49
 4025 0523 64160000 		.4byte	0x1664
 4026 0527 32050000 		.4byte	0x532
 4027 052b 14       		.uleb128 0x14
 4028 052c 01       		.uleb128 0x1
 4029 052d 50       		.byte	0x50
 4030 052e 02       		.uleb128 0x2
 4031 052f 08       		.byte	0x8
 4032 0530 40       		.byte	0x40
 4033 0531 00       		.byte	0
 4034 0532 15       		.uleb128 0x15
 4035 0533 36000000 		.4byte	.LVL52
 4036 0537 6F160000 		.4byte	0x166f
 4037 053b 14       		.uleb128 0x14
 4038 053c 01       		.uleb128 0x1
 4039 053d 50       		.byte	0x50
 4040 053e 01       		.uleb128 0x1
 4041 053f 37       		.byte	0x37
 4042 0540 00       		.byte	0
 4043 0541 00       		.byte	0
 4044 0542 1C       		.uleb128 0x1c
 4045 0543 A4000000 		.4byte	.LASF51
 4046 0547 01       		.byte	0x1
 4047 0548 8601     		.2byte	0x186
 4048 054a 00000000 		.4byte	.LFB35
 4049 054e 84010000 		.4byte	.LFE35-.LFB35
 4050 0552 01       		.uleb128 0x1
 4051 0553 9C       		.byte	0x9c
 4052 0554 64070000 		.4byte	0x764
 4053 0558 1D       		.uleb128 0x1d
 4054 0559 98040000 		.4byte	.LASF64
 4055 055d 01       		.byte	0x1
 4056 055e 8901     		.2byte	0x189
 4057 0560 6B000000 		.4byte	0x6b
ARM GAS  C:\Users\young\AppData\Local\Temp\ccoFnsFE.s 			page 122


 4058 0564 05       		.uleb128 0x5
 4059 0565 03       		.byte	0x3
 4060 0566 00000000 		.4byte	CapSense_initVar.5335
 4061 056a 1E       		.uleb128 0x1e
 4062 056b 92040000 		.4byte	0x492
 4063 056f 14000000 		.4byte	.LBB68
 4064 0573 34000000 		.4byte	.LBE68-.LBB68
 4065 0577 01       		.byte	0x1
 4066 0578 9601     		.2byte	0x196
 4067 057a 0B060000 		.4byte	0x60b
 4068 057e 1B       		.uleb128 0x1b
 4069 057f 14000000 		.4byte	.LBB69
 4070 0583 34000000 		.4byte	.LBE69-.LBB69
 4071 0587 12       		.uleb128 0x12
 4072 0588 9F040000 		.4byte	0x49f
 4073 058c 61020000 		.4byte	.LLST13
 4074 0590 18       		.uleb128 0x18
 4075 0591 18000000 		.4byte	.LVL53
 4076 0595 2D160000 		.4byte	0x162d
 4077 0599 18       		.uleb128 0x18
 4078 059a 1C000000 		.4byte	.LVL54
 4079 059e 38160000 		.4byte	0x1638
 4080 05a2 13       		.uleb128 0x13
 4081 05a3 24000000 		.4byte	.LVL55
 4082 05a7 43160000 		.4byte	0x1643
 4083 05ab BA050000 		.4byte	0x5ba
 4084 05af 14       		.uleb128 0x14
 4085 05b0 01       		.uleb128 0x1
 4086 05b1 50       		.byte	0x50
 4087 05b2 01       		.uleb128 0x1
 4088 05b3 30       		.byte	0x30
 4089 05b4 14       		.uleb128 0x14
 4090 05b5 01       		.uleb128 0x1
 4091 05b6 51       		.byte	0x51
 4092 05b7 01       		.uleb128 0x1
 4093 05b8 30       		.byte	0x30
 4094 05b9 00       		.byte	0
 4095 05ba 13       		.uleb128 0x13
 4096 05bb 2C000000 		.4byte	.LVL56
 4097 05bf 4E160000 		.4byte	0x164e
 4098 05c3 D2050000 		.4byte	0x5d2
 4099 05c7 14       		.uleb128 0x14
 4100 05c8 01       		.uleb128 0x1
 4101 05c9 50       		.byte	0x50
 4102 05ca 01       		.uleb128 0x1
 4103 05cb 30       		.byte	0x30
 4104 05cc 14       		.uleb128 0x14
 4105 05cd 01       		.uleb128 0x1
 4106 05ce 51       		.byte	0x51
 4107 05cf 01       		.uleb128 0x1
 4108 05d0 30       		.byte	0x30
 4109 05d1 00       		.byte	0
 4110 05d2 13       		.uleb128 0x13
 4111 05d3 34000000 		.4byte	.LVL57
 4112 05d7 59160000 		.4byte	0x1659
 4113 05db E6050000 		.4byte	0x5e6
 4114 05df 14       		.uleb128 0x14
ARM GAS  C:\Users\young\AppData\Local\Temp\ccoFnsFE.s 			page 123


 4115 05e0 01       		.uleb128 0x1
 4116 05e1 50       		.byte	0x50
 4117 05e2 02       		.uleb128 0x2
 4118 05e3 08       		.byte	0x8
 4119 05e4 FF       		.byte	0xff
 4120 05e5 00       		.byte	0
 4121 05e6 13       		.uleb128 0x13
 4122 05e7 3A000000 		.4byte	.LVL58
 4123 05eb 64160000 		.4byte	0x1664
 4124 05ef FA050000 		.4byte	0x5fa
 4125 05f3 14       		.uleb128 0x14
 4126 05f4 01       		.uleb128 0x1
 4127 05f5 50       		.byte	0x50
 4128 05f6 02       		.uleb128 0x2
 4129 05f7 08       		.byte	0x8
 4130 05f8 40       		.byte	0x40
 4131 05f9 00       		.byte	0
 4132 05fa 15       		.uleb128 0x15
 4133 05fb 48000000 		.4byte	.LVL61
 4134 05ff 6F160000 		.4byte	0x166f
 4135 0603 14       		.uleb128 0x14
 4136 0604 01       		.uleb128 0x1
 4137 0605 50       		.byte	0x50
 4138 0606 01       		.uleb128 0x1
 4139 0607 37       		.byte	0x37
 4140 0608 00       		.byte	0
 4141 0609 00       		.byte	0
 4142 060a 00       		.byte	0
 4143 060b 1E       		.uleb128 0x1e
 4144 060c 4B020000 		.4byte	0x24b
 4145 0610 6C000000 		.4byte	.LBB70
 4146 0614 CC000000 		.4byte	.LBE70-.LBB70
 4147 0618 01       		.byte	0x1
 4148 0619 9301     		.2byte	0x193
 4149 061b 49070000 		.4byte	0x749
 4150 061f 1B       		.uleb128 0x1b
 4151 0620 6C000000 		.4byte	.LBB71
 4152 0624 CC000000 		.4byte	.LBE71-.LBB71
 4153 0628 1F       		.uleb128 0x1f
 4154 0629 57020000 		.4byte	0x257
 4155 062d 10       		.uleb128 0x10
 4156 062e 63020000 		.4byte	0x263
 4157 0632 6C000000 		.4byte	.LBB72
 4158 0636 50000000 		.4byte	.Ldebug_ranges0+0x50
 4159 063a 01       		.byte	0x1
 4160 063b DA       		.byte	0xda
 4161 063c 8A060000 		.4byte	0x68a
 4162 0640 11       		.uleb128 0x11
 4163 0641 50000000 		.4byte	.Ldebug_ranges0+0x50
 4164 0645 12       		.uleb128 0x12
 4165 0646 6F020000 		.4byte	0x26f
 4166 064a 74020000 		.4byte	.LLST14
 4167 064e 13       		.uleb128 0x13
 4168 064f AA000000 		.4byte	.LVL73
 4169 0653 ED150000 		.4byte	0x15ed
 4170 0657 61060000 		.4byte	0x661
 4171 065b 14       		.uleb128 0x14
ARM GAS  C:\Users\young\AppData\Local\Temp\ccoFnsFE.s 			page 124


 4172 065c 01       		.uleb128 0x1
 4173 065d 50       		.byte	0x50
 4174 065e 01       		.uleb128 0x1
 4175 065f 37       		.byte	0x37
 4176 0660 00       		.byte	0
 4177 0661 13       		.uleb128 0x13
 4178 0662 B2000000 		.4byte	.LVL74
 4179 0666 F8150000 		.4byte	0x15f8
 4180 066a 74060000 		.4byte	0x674
 4181 066e 14       		.uleb128 0x14
 4182 066f 01       		.uleb128 0x1
 4183 0670 50       		.byte	0x50
 4184 0671 01       		.uleb128 0x1
 4185 0672 37       		.byte	0x37
 4186 0673 00       		.byte	0
 4187 0674 15       		.uleb128 0x15
 4188 0675 BA000000 		.4byte	.LVL75
 4189 0679 03160000 		.4byte	0x1603
 4190 067d 14       		.uleb128 0x14
 4191 067e 01       		.uleb128 0x1
 4192 067f 50       		.byte	0x50
 4193 0680 01       		.uleb128 0x1
 4194 0681 37       		.byte	0x37
 4195 0682 14       		.uleb128 0x14
 4196 0683 01       		.uleb128 0x1
 4197 0684 51       		.byte	0x51
 4198 0685 01       		.uleb128 0x1
 4199 0686 33       		.byte	0x33
 4200 0687 00       		.byte	0
 4201 0688 00       		.byte	0
 4202 0689 00       		.byte	0
 4203 068a 10       		.uleb128 0x10
 4204 068b 0B020000 		.4byte	0x20b
 4205 068f 7A000000 		.4byte	.LBB75
 4206 0693 68000000 		.4byte	.Ldebug_ranges0+0x68
 4207 0697 01       		.byte	0x1
 4208 0698 DE       		.byte	0xde
 4209 0699 1E070000 		.4byte	0x71e
 4210 069d 11       		.uleb128 0x11
 4211 069e 68000000 		.4byte	.Ldebug_ranges0+0x68
 4212 06a2 12       		.uleb128 0x12
 4213 06a3 18020000 		.4byte	0x218
 4214 06a7 DA020000 		.4byte	.LLST15
 4215 06ab 16       		.uleb128 0x16
 4216 06ac 7B020000 		.4byte	0x27b
 4217 06b0 CE000000 		.4byte	.LBB77
 4218 06b4 80000000 		.4byte	.Ldebug_ranges0+0x80
 4219 06b8 01       		.byte	0x1
 4220 06b9 8A03     		.2byte	0x38a
 4221 06bb 17       		.uleb128 0x17
 4222 06bc 88020000 		.4byte	0x288
 4223 06c0 11030000 		.4byte	.LLST16
 4224 06c4 11       		.uleb128 0x11
 4225 06c5 80000000 		.4byte	.Ldebug_ranges0+0x80
 4226 06c9 12       		.uleb128 0x12
 4227 06ca 94020000 		.4byte	0x294
 4228 06ce 3C030000 		.4byte	.LLST17
ARM GAS  C:\Users\young\AppData\Local\Temp\ccoFnsFE.s 			page 125


 4229 06d2 12       		.uleb128 0x12
 4230 06d3 A0020000 		.4byte	0x2a0
 4231 06d7 4F030000 		.4byte	.LLST18
 4232 06db 12       		.uleb128 0x12
 4233 06dc AC020000 		.4byte	0x2ac
 4234 06e0 6D030000 		.4byte	.LLST19
 4235 06e4 12       		.uleb128 0x12
 4236 06e5 B8020000 		.4byte	0x2b8
 4237 06e9 BD030000 		.4byte	.LLST20
 4238 06ed 12       		.uleb128 0x12
 4239 06ee C4020000 		.4byte	0x2c4
 4240 06f2 E3030000 		.4byte	.LLST21
 4241 06f6 12       		.uleb128 0x12
 4242 06f7 D0020000 		.4byte	0x2d0
 4243 06fb 01040000 		.4byte	.LLST22
 4244 06ff 12       		.uleb128 0x12
 4245 0700 DC020000 		.4byte	0x2dc
 4246 0704 15040000 		.4byte	.LLST23
 4247 0708 18       		.uleb128 0x18
 4248 0709 D2000000 		.4byte	.LVL80
 4249 070d 0E160000 		.4byte	0x160e
 4250 0711 18       		.uleb128 0x18
 4251 0712 E8000000 		.4byte	.LVL85
 4252 0716 19160000 		.4byte	0x1619
 4253 071a 00       		.byte	0
 4254 071b 00       		.byte	0
 4255 071c 00       		.byte	0
 4256 071d 00       		.byte	0
 4257 071e 20       		.uleb128 0x20
 4258 071f 25020000 		.4byte	0x225
 4259 0723 BA000000 		.4byte	.LBB85
 4260 0727 14000000 		.4byte	.LBE85-.LBB85
 4261 072b 01       		.byte	0x1
 4262 072c DB       		.byte	0xdb
 4263 072d 1A       		.uleb128 0x1a
 4264 072e 32020000 		.4byte	0x232
 4265 0732 00       		.byte	0
 4266 0733 1B       		.uleb128 0x1b
 4267 0734 BA000000 		.4byte	.LBB86
 4268 0738 14000000 		.4byte	.LBE86-.LBB86
 4269 073c 12       		.uleb128 0x12
 4270 073d 3E020000 		.4byte	0x23e
 4271 0741 3D040000 		.4byte	.LLST24
 4272 0745 00       		.byte	0
 4273 0746 00       		.byte	0
 4274 0747 00       		.byte	0
 4275 0748 00       		.byte	0
 4276 0749 15       		.uleb128 0x15
 4277 074a 6C000000 		.4byte	.LVL62
 4278 074e 24160000 		.4byte	0x1624
 4279 0752 14       		.uleb128 0x14
 4280 0753 01       		.uleb128 0x1
 4281 0754 50       		.byte	0x50
 4282 0755 02       		.uleb128 0x2
 4283 0756 7B       		.byte	0x7b
 4284 0757 00       		.sleb128 0
 4285 0758 14       		.uleb128 0x14
ARM GAS  C:\Users\young\AppData\Local\Temp\ccoFnsFE.s 			page 126


 4286 0759 01       		.uleb128 0x1
 4287 075a 51       		.byte	0x51
 4288 075b 01       		.uleb128 0x1
 4289 075c 30       		.byte	0x30
 4290 075d 14       		.uleb128 0x14
 4291 075e 01       		.uleb128 0x1
 4292 075f 52       		.byte	0x52
 4293 0760 01       		.uleb128 0x1
 4294 0761 36       		.byte	0x36
 4295 0762 00       		.byte	0
 4296 0763 00       		.byte	0
 4297 0764 1C       		.uleb128 0x1c
 4298 0765 A6010000 		.4byte	.LASF52
 4299 0769 01       		.byte	0x1
 4300 076a E201     		.2byte	0x1e2
 4301 076c 00000000 		.4byte	.LFB36
 4302 0770 2C000000 		.4byte	.LFE36-.LFB36
 4303 0774 01       		.uleb128 0x1
 4304 0775 9C       		.byte	0x9c
 4305 0776 A0070000 		.4byte	0x7a0
 4306 077a 13       		.uleb128 0x13
 4307 077b 08000000 		.4byte	.LVL91
 4308 077f ED150000 		.4byte	0x15ed
 4309 0783 8D070000 		.4byte	0x78d
 4310 0787 14       		.uleb128 0x14
 4311 0788 01       		.uleb128 0x1
 4312 0789 50       		.byte	0x50
 4313 078a 01       		.uleb128 0x1
 4314 078b 37       		.byte	0x37
 4315 078c 00       		.byte	0
 4316 078d 18       		.uleb128 0x18
 4317 078e 1E000000 		.4byte	.LVL92
 4318 0792 2D160000 		.4byte	0x162d
 4319 0796 18       		.uleb128 0x18
 4320 0797 22000000 		.4byte	.LVL93
 4321 079b 38160000 		.4byte	0x1638
 4322 079f 00       		.byte	0
 4323 07a0 0E       		.uleb128 0xe
 4324 07a1 71010000 		.4byte	0x171
 4325 07a5 00000000 		.4byte	.LFB37
 4326 07a9 28000000 		.4byte	.LFE37-.LFB37
 4327 07ad 01       		.uleb128 0x1
 4328 07ae 9C       		.byte	0x9c
 4329 07af FD070000 		.4byte	0x7fd
 4330 07b3 17       		.uleb128 0x17
 4331 07b4 82010000 		.4byte	0x182
 4332 07b8 5C040000 		.4byte	.LLST25
 4333 07bc 1F       		.uleb128 0x1f
 4334 07bd 8E010000 		.4byte	0x18e
 4335 07c1 16       		.uleb128 0x16
 4336 07c2 2F010000 		.4byte	0x12f
 4337 07c6 02000000 		.4byte	.LBB88
 4338 07ca A0000000 		.4byte	.Ldebug_ranges0+0xa0
 4339 07ce 01       		.byte	0x1
 4340 07cf 1502     		.2byte	0x215
 4341 07d1 17       		.uleb128 0x17
 4342 07d2 4C010000 		.4byte	0x14c
ARM GAS  C:\Users\young\AppData\Local\Temp\ccoFnsFE.s 			page 127


 4343 07d6 7A040000 		.4byte	.LLST26
 4344 07da 17       		.uleb128 0x17
 4345 07db 40010000 		.4byte	0x140
 4346 07df 92040000 		.4byte	.LLST27
 4347 07e3 11       		.uleb128 0x11
 4348 07e4 A0000000 		.4byte	.Ldebug_ranges0+0xa0
 4349 07e8 12       		.uleb128 0x12
 4350 07e9 58010000 		.4byte	0x158
 4351 07ed AA040000 		.4byte	.LLST28
 4352 07f1 12       		.uleb128 0x12
 4353 07f2 64010000 		.4byte	0x164
 4354 07f6 C4040000 		.4byte	.LLST29
 4355 07fa 00       		.byte	0
 4356 07fb 00       		.byte	0
 4357 07fc 00       		.byte	0
 4358 07fd 21       		.uleb128 0x21
 4359 07fe 05010000 		.4byte	.LASF74
 4360 0802 01       		.byte	0x1
 4361 0803 DD02     		.2byte	0x2dd
 4362 0805 83000000 		.4byte	0x83
 4363 0809 00000000 		.4byte	.LFB41
 4364 080d 10000000 		.4byte	.LFE41-.LFB41
 4365 0811 01       		.uleb128 0x1
 4366 0812 9C       		.byte	0x9c
 4367 0813 22       		.uleb128 0x22
 4368 0814 F8080000 		.4byte	.LASF57
 4369 0818 01       		.byte	0x1
 4370 0819 FB02     		.2byte	0x2fb
 4371 081b 77000000 		.4byte	0x77
 4372 081f 00000000 		.4byte	.LFB42
 4373 0823 10000000 		.4byte	.LFE42-.LFB42
 4374 0827 01       		.uleb128 0x1
 4375 0828 9C       		.byte	0x9c
 4376 0829 3E080000 		.4byte	0x83e
 4377 082d 23       		.uleb128 0x23
 4378 082e C2040000 		.4byte	.LASF36
 4379 0832 01       		.byte	0x1
 4380 0833 FB02     		.2byte	0x2fb
 4381 0835 83000000 		.4byte	0x83
 4382 0839 DD040000 		.4byte	.LLST30
 4383 083d 00       		.byte	0
 4384 083e 1C       		.uleb128 0x1c
 4385 083f E3030000 		.4byte	.LASF53
 4386 0843 01       		.byte	0x1
 4387 0844 1603     		.2byte	0x316
 4388 0846 00000000 		.4byte	.LFB43
 4389 084a 10000000 		.4byte	.LFE43-.LFB43
 4390 084e 01       		.uleb128 0x1
 4391 084f 9C       		.byte	0x9c
 4392 0850 73080000 		.4byte	0x873
 4393 0854 23       		.uleb128 0x23
 4394 0855 C2040000 		.4byte	.LASF36
 4395 0859 01       		.byte	0x1
 4396 085a 1603     		.2byte	0x316
 4397 085c 83000000 		.4byte	0x83
 4398 0860 FE040000 		.4byte	.LLST31
 4399 0864 24       		.uleb128 0x24
ARM GAS  C:\Users\young\AppData\Local\Temp\ccoFnsFE.s 			page 128


 4400 0865 CC030000 		.4byte	.LASF34
 4401 0869 01       		.byte	0x1
 4402 086a 1603     		.2byte	0x316
 4403 086c 77000000 		.4byte	0x77
 4404 0870 01       		.uleb128 0x1
 4405 0871 51       		.byte	0x51
 4406 0872 00       		.byte	0
 4407 0873 1C       		.uleb128 0x1c
 4408 0874 4B040000 		.4byte	.LASF54
 4409 0878 01       		.byte	0x1
 4410 0879 4003     		.2byte	0x340
 4411 087b 00000000 		.4byte	.LFB44
 4412 087f 10000000 		.4byte	.LFE44-.LFB44
 4413 0883 01       		.uleb128 0x1
 4414 0884 9C       		.byte	0x9c
 4415 0885 A8080000 		.4byte	0x8a8
 4416 0889 23       		.uleb128 0x23
 4417 088a 3A030000 		.4byte	.LASF55
 4418 088e 01       		.byte	0x1
 4419 088f 4003     		.2byte	0x340
 4420 0891 83000000 		.4byte	0x83
 4421 0895 1F050000 		.4byte	.LLST32
 4422 0899 24       		.uleb128 0x24
 4423 089a 4A050000 		.4byte	.LASF56
 4424 089e 01       		.byte	0x1
 4425 089f 4003     		.2byte	0x340
 4426 08a1 83000000 		.4byte	0x83
 4427 08a5 01       		.uleb128 0x1
 4428 08a6 51       		.byte	0x51
 4429 08a7 00       		.byte	0
 4430 08a8 22       		.uleb128 0x22
 4431 08a9 82030000 		.4byte	.LASF58
 4432 08ad 01       		.byte	0x1
 4433 08ae 6903     		.2byte	0x369
 4434 08b0 83000000 		.4byte	0x83
 4435 08b4 00000000 		.4byte	.LFB45
 4436 08b8 10000000 		.4byte	.LFE45-.LFB45
 4437 08bc 01       		.uleb128 0x1
 4438 08bd 9C       		.byte	0x9c
 4439 08be D3080000 		.4byte	0x8d3
 4440 08c2 23       		.uleb128 0x23
 4441 08c3 3A030000 		.4byte	.LASF55
 4442 08c7 01       		.byte	0x1
 4443 08c8 6903     		.2byte	0x369
 4444 08ca 83000000 		.4byte	0x83
 4445 08ce 40050000 		.4byte	.LLST33
 4446 08d2 00       		.byte	0
 4447 08d3 0E       		.uleb128 0xe
 4448 08d4 0B020000 		.4byte	0x20b
 4449 08d8 00000000 		.4byte	.LFB46
 4450 08dc AC000000 		.4byte	.LFE46-.LFB46
 4451 08e0 01       		.uleb128 0x1
 4452 08e1 9C       		.byte	0x9c
 4453 08e2 61090000 		.4byte	0x961
 4454 08e6 12       		.uleb128 0x12
 4455 08e7 18020000 		.4byte	0x218
 4456 08eb 61050000 		.4byte	.LLST34
ARM GAS  C:\Users\young\AppData\Local\Temp\ccoFnsFE.s 			page 129


 4457 08ef 16       		.uleb128 0x16
 4458 08f0 7B020000 		.4byte	0x27b
 4459 08f4 22000000 		.4byte	.LBB94
 4460 08f8 B8000000 		.4byte	.Ldebug_ranges0+0xb8
 4461 08fc 01       		.byte	0x1
 4462 08fd 8A03     		.2byte	0x38a
 4463 08ff 17       		.uleb128 0x17
 4464 0900 88020000 		.4byte	0x288
 4465 0904 98050000 		.4byte	.LLST35
 4466 0908 11       		.uleb128 0x11
 4467 0909 B8000000 		.4byte	.Ldebug_ranges0+0xb8
 4468 090d 12       		.uleb128 0x12
 4469 090e 94020000 		.4byte	0x294
 4470 0912 C3050000 		.4byte	.LLST36
 4471 0916 12       		.uleb128 0x12
 4472 0917 A0020000 		.4byte	0x2a0
 4473 091b D6050000 		.4byte	.LLST37
 4474 091f 12       		.uleb128 0x12
 4475 0920 AC020000 		.4byte	0x2ac
 4476 0924 F4050000 		.4byte	.LLST38
 4477 0928 12       		.uleb128 0x12
 4478 0929 B8020000 		.4byte	0x2b8
 4479 092d 44060000 		.4byte	.LLST39
 4480 0931 12       		.uleb128 0x12
 4481 0932 C4020000 		.4byte	0x2c4
 4482 0936 6A060000 		.4byte	.LLST40
 4483 093a 12       		.uleb128 0x12
 4484 093b D0020000 		.4byte	0x2d0
 4485 093f 88060000 		.4byte	.LLST41
 4486 0943 12       		.uleb128 0x12
 4487 0944 DC020000 		.4byte	0x2dc
 4488 0948 9C060000 		.4byte	.LLST42
 4489 094c 18       		.uleb128 0x18
 4490 094d 26000000 		.4byte	.LVL109
 4491 0951 0E160000 		.4byte	0x160e
 4492 0955 18       		.uleb128 0x18
 4493 0956 3C000000 		.4byte	.LVL114
 4494 095a 19160000 		.4byte	0x1619
 4495 095e 00       		.byte	0
 4496 095f 00       		.byte	0
 4497 0960 00       		.byte	0
 4498 0961 08       		.uleb128 0x8
 4499 0962 0E060000 		.4byte	.LASF59
 4500 0966 01       		.byte	0x1
 4501 0967 2204     		.2byte	0x422
 4502 0969 01       		.byte	0x1
 4503 096a B7090000 		.4byte	0x9b7
 4504 096e 09       		.uleb128 0x9
 4505 096f C2040000 		.4byte	.LASF36
 4506 0973 01       		.byte	0x1
 4507 0974 2204     		.2byte	0x422
 4508 0976 83000000 		.4byte	0x83
 4509 097a 0A       		.uleb128 0xa
 4510 097b 15010000 		.4byte	.LASF22
 4511 097f 01       		.byte	0x1
 4512 0980 2404     		.2byte	0x424
 4513 0982 6B000000 		.4byte	0x6b
ARM GAS  C:\Users\young\AppData\Local\Temp\ccoFnsFE.s 			page 130


 4514 0986 0A       		.uleb128 0xa
 4515 0987 CE000000 		.4byte	.LASF48
 4516 098b 01       		.byte	0x1
 4517 098c 2504     		.2byte	0x425
 4518 098e 6B000000 		.4byte	0x6b
 4519 0992 0A       		.uleb128 0xa
 4520 0993 90000000 		.4byte	.LASF46
 4521 0997 01       		.byte	0x1
 4522 0998 2604     		.2byte	0x426
 4523 099a 6B000000 		.4byte	0x6b
 4524 099e 0A       		.uleb128 0xa
 4525 099f D2030000 		.4byte	.LASF23
 4526 09a3 01       		.byte	0x1
 4527 09a4 2704     		.2byte	0x427
 4528 09a6 83000000 		.4byte	0x83
 4529 09aa 0A       		.uleb128 0xa
 4530 09ab CC080000 		.4byte	.LASF47
 4531 09af 01       		.byte	0x1
 4532 09b0 2804     		.2byte	0x428
 4533 09b2 83000000 		.4byte	0x83
 4534 09b6 00       		.byte	0
 4535 09b7 0E       		.uleb128 0xe
 4536 09b8 61090000 		.4byte	0x961
 4537 09bc 00000000 		.4byte	.LFB47
 4538 09c0 48000000 		.4byte	.LFE47-.LFB47
 4539 09c4 01       		.uleb128 0x1
 4540 09c5 9C       		.byte	0x9c
 4541 09c6 130A0000 		.4byte	0xa13
 4542 09ca 17       		.uleb128 0x17
 4543 09cb 6E090000 		.4byte	0x96e
 4544 09cf C4060000 		.4byte	.LLST43
 4545 09d3 12       		.uleb128 0x12
 4546 09d4 7A090000 		.4byte	0x97a
 4547 09d8 E5060000 		.4byte	.LLST44
 4548 09dc 12       		.uleb128 0x12
 4549 09dd 86090000 		.4byte	0x986
 4550 09e1 14070000 		.4byte	.LLST45
 4551 09e5 12       		.uleb128 0x12
 4552 09e6 92090000 		.4byte	0x992
 4553 09ea 43070000 		.4byte	.LLST46
 4554 09ee 12       		.uleb128 0x12
 4555 09ef 9E090000 		.4byte	0x99e
 4556 09f3 56070000 		.4byte	.LLST47
 4557 09f7 12       		.uleb128 0x12
 4558 09f8 AA090000 		.4byte	0x9aa
 4559 09fc 7F070000 		.4byte	.LLST48
 4560 0a00 18       		.uleb128 0x18
 4561 0a01 0E000000 		.4byte	.LVL123
 4562 0a05 0E160000 		.4byte	0x160e
 4563 0a09 18       		.uleb128 0x18
 4564 0a0a 40000000 		.4byte	.LVL130
 4565 0a0e 19160000 		.4byte	0x1619
 4566 0a12 00       		.byte	0
 4567 0a13 0E       		.uleb128 0xe
 4568 0a14 7B020000 		.4byte	0x27b
 4569 0a18 00000000 		.4byte	.LFB48
 4570 0a1c 74000000 		.4byte	.LFE48-.LFB48
ARM GAS  C:\Users\young\AppData\Local\Temp\ccoFnsFE.s 			page 131


 4571 0a20 01       		.uleb128 0x1
 4572 0a21 9C       		.byte	0x9c
 4573 0a22 810A0000 		.4byte	0xa81
 4574 0a26 17       		.uleb128 0x17
 4575 0a27 88020000 		.4byte	0x288
 4576 0a2b C3070000 		.4byte	.LLST49
 4577 0a2f 12       		.uleb128 0x12
 4578 0a30 94020000 		.4byte	0x294
 4579 0a34 E4070000 		.4byte	.LLST50
 4580 0a38 12       		.uleb128 0x12
 4581 0a39 A0020000 		.4byte	0x2a0
 4582 0a3d F7070000 		.4byte	.LLST51
 4583 0a41 12       		.uleb128 0x12
 4584 0a42 AC020000 		.4byte	0x2ac
 4585 0a46 0A080000 		.4byte	.LLST52
 4586 0a4a 12       		.uleb128 0x12
 4587 0a4b B8020000 		.4byte	0x2b8
 4588 0a4f 7D080000 		.4byte	.LLST53
 4589 0a53 12       		.uleb128 0x12
 4590 0a54 C4020000 		.4byte	0x2c4
 4591 0a58 D0080000 		.4byte	.LLST54
 4592 0a5c 12       		.uleb128 0x12
 4593 0a5d D0020000 		.4byte	0x2d0
 4594 0a61 4E090000 		.4byte	.LLST55
 4595 0a65 12       		.uleb128 0x12
 4596 0a66 DC020000 		.4byte	0x2dc
 4597 0a6a 7A090000 		.4byte	.LLST56
 4598 0a6e 18       		.uleb128 0x18
 4599 0a6f 3E000000 		.4byte	.LVL139
 4600 0a73 0E160000 		.4byte	0x160e
 4601 0a77 18       		.uleb128 0x18
 4602 0a78 54000000 		.4byte	.LVL143
 4603 0a7c 19160000 		.4byte	0x1619
 4604 0a80 00       		.byte	0
 4605 0a81 08       		.uleb128 0x8
 4606 0a82 99070000 		.4byte	.LASF60
 4607 0a86 01       		.byte	0x1
 4608 0a87 A404     		.2byte	0x4a4
 4609 0a89 01       		.byte	0x1
 4610 0a8a BF0A0000 		.4byte	0xabf
 4611 0a8e 09       		.uleb128 0x9
 4612 0a8f 3B0A0000 		.4byte	.LASF19
 4613 0a93 01       		.byte	0x1
 4614 0a94 A404     		.2byte	0x4a4
 4615 0a96 83000000 		.4byte	0x83
 4616 0a9a 0A       		.uleb128 0xa
 4617 0a9b 310A0000 		.4byte	.LASF43
 4618 0a9f 01       		.byte	0x1
 4619 0aa0 A604     		.2byte	0x4a6
 4620 0aa2 6B000000 		.4byte	0x6b
 4621 0aa6 0A       		.uleb128 0xa
 4622 0aa7 7A040000 		.4byte	.LASF61
 4623 0aab 01       		.byte	0x1
 4624 0aac AB04     		.2byte	0x4ab
 4625 0aae 83000000 		.4byte	0x83
 4626 0ab2 0A       		.uleb128 0xa
 4627 0ab3 6F050000 		.4byte	.LASF62
ARM GAS  C:\Users\young\AppData\Local\Temp\ccoFnsFE.s 			page 132


 4628 0ab7 01       		.byte	0x1
 4629 0ab8 AC04     		.2byte	0x4ac
 4630 0aba 83000000 		.4byte	0x83
 4631 0abe 00       		.byte	0
 4632 0abf 0E       		.uleb128 0xe
 4633 0ac0 810A0000 		.4byte	0xa81
 4634 0ac4 00000000 		.4byte	.LFB49
 4635 0ac8 70000000 		.4byte	.LFE49-.LFB49
 4636 0acc 01       		.uleb128 0x1
 4637 0acd 9C       		.byte	0x9c
 4638 0ace 840B0000 		.4byte	0xb84
 4639 0ad2 17       		.uleb128 0x17
 4640 0ad3 8E0A0000 		.4byte	0xa8e
 4641 0ad7 A2090000 		.4byte	.LLST57
 4642 0adb 12       		.uleb128 0x12
 4643 0adc 9A0A0000 		.4byte	0xa9a
 4644 0ae0 C3090000 		.4byte	.LLST58
 4645 0ae4 0F       		.uleb128 0xf
 4646 0ae5 A60A0000 		.4byte	0xaa6
 4647 0ae9 01       		.byte	0x1
 4648 0aea 12       		.uleb128 0x12
 4649 0aeb B20A0000 		.4byte	0xab2
 4650 0aef 1F0A0000 		.4byte	.LLST59
 4651 0af3 25       		.uleb128 0x25
 4652 0af4 E5000000 		.4byte	0xe5
 4653 0af8 02000000 		.4byte	.LBB104
 4654 0afc D8000000 		.4byte	.Ldebug_ranges0+0xd8
 4655 0b00 01       		.byte	0x1
 4656 0b01 C804     		.2byte	0x4c8
 4657 0b03 3B0B0000 		.4byte	0xb3b
 4658 0b07 17       		.uleb128 0x17
 4659 0b08 0A010000 		.4byte	0x10a
 4660 0b0c 6F0A0000 		.4byte	.LLST60
 4661 0b10 17       		.uleb128 0x17
 4662 0b11 FE000000 		.4byte	0xfe
 4663 0b15 830A0000 		.4byte	.LLST61
 4664 0b19 17       		.uleb128 0x17
 4665 0b1a F2000000 		.4byte	0xf2
 4666 0b1e D30A0000 		.4byte	.LLST62
 4667 0b22 11       		.uleb128 0x11
 4668 0b23 D8000000 		.4byte	.Ldebug_ranges0+0xd8
 4669 0b27 12       		.uleb128 0x12
 4670 0b28 16010000 		.4byte	0x116
 4671 0b2c F40A0000 		.4byte	.LLST63
 4672 0b30 12       		.uleb128 0x12
 4673 0b31 22010000 		.4byte	0x122
 4674 0b35 440B0000 		.4byte	.LLST64
 4675 0b39 00       		.byte	0
 4676 0b3a 00       		.byte	0
 4677 0b3b 26       		.uleb128 0x26
 4678 0b3c E5000000 		.4byte	0xe5
 4679 0b40 4A000000 		.4byte	.LBB108
 4680 0b44 0A000000 		.4byte	.LBE108-.LBB108
 4681 0b48 01       		.byte	0x1
 4682 0b49 CB04     		.2byte	0x4cb
 4683 0b4b 17       		.uleb128 0x17
 4684 0b4c 0A010000 		.4byte	0x10a
ARM GAS  C:\Users\young\AppData\Local\Temp\ccoFnsFE.s 			page 133


 4685 0b50 BA0B0000 		.4byte	.LLST65
 4686 0b54 17       		.uleb128 0x17
 4687 0b55 FE000000 		.4byte	0xfe
 4688 0b59 CE0B0000 		.4byte	.LLST66
 4689 0b5d 17       		.uleb128 0x17
 4690 0b5e F2000000 		.4byte	0xf2
 4691 0b62 E20B0000 		.4byte	.LLST67
 4692 0b66 1B       		.uleb128 0x1b
 4693 0b67 4A000000 		.4byte	.LBB109
 4694 0b6b 0A000000 		.4byte	.LBE109-.LBB109
 4695 0b6f 12       		.uleb128 0x12
 4696 0b70 16010000 		.4byte	0x116
 4697 0b74 F80B0000 		.4byte	.LLST68
 4698 0b78 12       		.uleb128 0x12
 4699 0b79 22010000 		.4byte	0x122
 4700 0b7d 0C0C0000 		.4byte	.LLST69
 4701 0b81 00       		.byte	0
 4702 0b82 00       		.byte	0
 4703 0b83 00       		.byte	0
 4704 0b84 1C       		.uleb128 0x1c
 4705 0b85 B6060000 		.4byte	.LASF63
 4706 0b89 01       		.byte	0x1
 4707 0b8a ED04     		.2byte	0x4ed
 4708 0b8c 00000000 		.4byte	.LFB50
 4709 0b90 6C000000 		.4byte	.LFE50-.LFB50
 4710 0b94 01       		.uleb128 0x1
 4711 0b95 9C       		.byte	0x9c
 4712 0b96 760C0000 		.4byte	0xc76
 4713 0b9a 27       		.uleb128 0x27
 4714 0b9b D2030000 		.4byte	.LASF23
 4715 0b9f 01       		.byte	0x1
 4716 0ba0 EF04     		.2byte	0x4ef
 4717 0ba2 83000000 		.4byte	0x83
 4718 0ba6 350C0000 		.4byte	.LLST70
 4719 0baa 16       		.uleb128 0x16
 4720 0bab 810A0000 		.4byte	0xa81
 4721 0baf 00000000 		.4byte	.LBB116
 4722 0bb3 F0000000 		.4byte	.Ldebug_ranges0+0xf0
 4723 0bb7 01       		.byte	0x1
 4724 0bb8 F104     		.2byte	0x4f1
 4725 0bba 17       		.uleb128 0x17
 4726 0bbb 8E0A0000 		.4byte	0xa8e
 4727 0bbf 530C0000 		.4byte	.LLST71
 4728 0bc3 11       		.uleb128 0x11
 4729 0bc4 F0000000 		.4byte	.Ldebug_ranges0+0xf0
 4730 0bc8 12       		.uleb128 0x12
 4731 0bc9 9A0A0000 		.4byte	0xa9a
 4732 0bcd 670C0000 		.4byte	.LLST72
 4733 0bd1 12       		.uleb128 0x12
 4734 0bd2 A60A0000 		.4byte	0xaa6
 4735 0bd6 C30C0000 		.4byte	.LLST73
 4736 0bda 12       		.uleb128 0x12
 4737 0bdb B20A0000 		.4byte	0xab2
 4738 0bdf D70C0000 		.4byte	.LLST74
 4739 0be3 25       		.uleb128 0x25
 4740 0be4 E5000000 		.4byte	0xe5
 4741 0be8 00000000 		.4byte	.LBB118
ARM GAS  C:\Users\young\AppData\Local\Temp\ccoFnsFE.s 			page 134


 4742 0bec 08010000 		.4byte	.Ldebug_ranges0+0x108
 4743 0bf0 01       		.byte	0x1
 4744 0bf1 C804     		.2byte	0x4c8
 4745 0bf3 2B0C0000 		.4byte	0xc2b
 4746 0bf7 17       		.uleb128 0x17
 4747 0bf8 0A010000 		.4byte	0x10a
 4748 0bfc 270D0000 		.4byte	.LLST75
 4749 0c00 17       		.uleb128 0x17
 4750 0c01 FE000000 		.4byte	0xfe
 4751 0c05 3B0D0000 		.4byte	.LLST76
 4752 0c09 17       		.uleb128 0x17
 4753 0c0a F2000000 		.4byte	0xf2
 4754 0c0e 8B0D0000 		.4byte	.LLST77
 4755 0c12 11       		.uleb128 0x11
 4756 0c13 08010000 		.4byte	.Ldebug_ranges0+0x108
 4757 0c17 12       		.uleb128 0x12
 4758 0c18 16010000 		.4byte	0x116
 4759 0c1c 9F0D0000 		.4byte	.LLST78
 4760 0c20 12       		.uleb128 0x12
 4761 0c21 22010000 		.4byte	0x122
 4762 0c25 EF0D0000 		.4byte	.LLST79
 4763 0c29 00       		.byte	0
 4764 0c2a 00       		.byte	0
 4765 0c2b 26       		.uleb128 0x26
 4766 0c2c E5000000 		.4byte	0xe5
 4767 0c30 32000000 		.4byte	.LBB122
 4768 0c34 08000000 		.4byte	.LBE122-.LBB122
 4769 0c38 01       		.byte	0x1
 4770 0c39 CB04     		.2byte	0x4cb
 4771 0c3b 17       		.uleb128 0x17
 4772 0c3c 0A010000 		.4byte	0x10a
 4773 0c40 5A0E0000 		.4byte	.LLST80
 4774 0c44 17       		.uleb128 0x17
 4775 0c45 FE000000 		.4byte	0xfe
 4776 0c49 6E0E0000 		.4byte	.LLST81
 4777 0c4d 17       		.uleb128 0x17
 4778 0c4e F2000000 		.4byte	0xf2
 4779 0c52 5A0E0000 		.4byte	.LLST80
 4780 0c56 1B       		.uleb128 0x1b
 4781 0c57 32000000 		.4byte	.LBB123
 4782 0c5b 08000000 		.4byte	.LBE123-.LBB123
 4783 0c5f 12       		.uleb128 0x12
 4784 0c60 16010000 		.4byte	0x116
 4785 0c64 820E0000 		.4byte	.LLST83
 4786 0c68 12       		.uleb128 0x12
 4787 0c69 22010000 		.4byte	0x122
 4788 0c6d 960E0000 		.4byte	.LLST84
 4789 0c71 00       		.byte	0
 4790 0c72 00       		.byte	0
 4791 0c73 00       		.byte	0
 4792 0c74 00       		.byte	0
 4793 0c75 00       		.byte	0
 4794 0c76 0E       		.uleb128 0xe
 4795 0c77 E5000000 		.4byte	0xe5
 4796 0c7b 00000000 		.4byte	.LFB51
 4797 0c7f 24000000 		.4byte	.LFE51-.LFB51
 4798 0c83 01       		.uleb128 0x1
ARM GAS  C:\Users\young\AppData\Local\Temp\ccoFnsFE.s 			page 135


 4799 0c84 9C       		.byte	0x9c
 4800 0c85 B50C0000 		.4byte	0xcb5
 4801 0c89 17       		.uleb128 0x17
 4802 0c8a F2000000 		.4byte	0xf2
 4803 0c8e B40E0000 		.4byte	.LLST85
 4804 0c92 17       		.uleb128 0x17
 4805 0c93 FE000000 		.4byte	0xfe
 4806 0c97 D50E0000 		.4byte	.LLST86
 4807 0c9b 17       		.uleb128 0x17
 4808 0c9c 0A010000 		.4byte	0x10a
 4809 0ca0 F60E0000 		.4byte	.LLST87
 4810 0ca4 28       		.uleb128 0x28
 4811 0ca5 16010000 		.4byte	0x116
 4812 0ca9 01       		.uleb128 0x1
 4813 0caa 51       		.byte	0x51
 4814 0cab 12       		.uleb128 0x12
 4815 0cac 22010000 		.4byte	0x122
 4816 0cb0 170F0000 		.4byte	.LLST88
 4817 0cb4 00       		.byte	0
 4818 0cb5 1C       		.uleb128 0x1c
 4819 0cb6 33040000 		.4byte	.LASF65
 4820 0cba 01       		.byte	0x1
 4821 0cbb 4505     		.2byte	0x545
 4822 0cbd 00000000 		.4byte	.LFB52
 4823 0cc1 34010000 		.4byte	.LFE52-.LFB52
 4824 0cc5 01       		.uleb128 0x1
 4825 0cc6 9C       		.byte	0x9c
 4826 0cc7 620E0000 		.4byte	0xe62
 4827 0ccb 23       		.uleb128 0x23
 4828 0ccc C2040000 		.4byte	.LASF36
 4829 0cd0 01       		.byte	0x1
 4830 0cd1 4505     		.2byte	0x545
 4831 0cd3 83000000 		.4byte	0x83
 4832 0cd7 350F0000 		.4byte	.LLST89
 4833 0cdb 27       		.uleb128 0x27
 4834 0cdc 3A030000 		.4byte	.LASF55
 4835 0ce0 01       		.byte	0x1
 4836 0ce1 4705     		.2byte	0x547
 4837 0ce3 6B000000 		.4byte	0x6b
 4838 0ce7 610F0000 		.4byte	.LLST90
 4839 0ceb 27       		.uleb128 0x27
 4840 0cec 90000000 		.4byte	.LASF46
 4841 0cf0 01       		.byte	0x1
 4842 0cf1 4805     		.2byte	0x548
 4843 0cf3 6B000000 		.4byte	0x6b
 4844 0cf7 A00F0000 		.4byte	.LLST91
 4845 0cfb 27       		.uleb128 0x27
 4846 0cfc 180A0000 		.4byte	.LASF41
 4847 0d00 01       		.byte	0x1
 4848 0d01 4905     		.2byte	0x549
 4849 0d03 83000000 		.4byte	0x83
 4850 0d07 B30F0000 		.4byte	.LLST92
 4851 0d0b 27       		.uleb128 0x27
 4852 0d0c E6080000 		.4byte	.LASF66
 4853 0d10 01       		.byte	0x1
 4854 0d11 4A05     		.2byte	0x54a
 4855 0d13 83000000 		.4byte	0x83
ARM GAS  C:\Users\young\AppData\Local\Temp\ccoFnsFE.s 			page 136


 4856 0d17 FA0F0000 		.4byte	.LLST93
 4857 0d1b 1E       		.uleb128 0x1e
 4858 0d1c 61090000 		.4byte	0x961
 4859 0d20 9E000000 		.4byte	.LBB128
 4860 0d24 4E000000 		.4byte	.LBE128-.LBB128
 4861 0d28 01       		.byte	0x1
 4862 0d29 D805     		.2byte	0x5d8
 4863 0d2b 890D0000 		.4byte	0xd89
 4864 0d2f 17       		.uleb128 0x17
 4865 0d30 6E090000 		.4byte	0x96e
 4866 0d34 0D100000 		.4byte	.LLST94
 4867 0d38 1B       		.uleb128 0x1b
 4868 0d39 9E000000 		.4byte	.LBB129
 4869 0d3d 4E000000 		.4byte	.LBE129-.LBB129
 4870 0d41 12       		.uleb128 0x12
 4871 0d42 7A090000 		.4byte	0x97a
 4872 0d46 2E100000 		.4byte	.LLST95
 4873 0d4a 12       		.uleb128 0x12
 4874 0d4b 86090000 		.4byte	0x986
 4875 0d4f 5D100000 		.4byte	.LLST96
 4876 0d53 12       		.uleb128 0x12
 4877 0d54 92090000 		.4byte	0x992
 4878 0d58 8C100000 		.4byte	.LLST97
 4879 0d5c 12       		.uleb128 0x12
 4880 0d5d 9E090000 		.4byte	0x99e
 4881 0d61 9F100000 		.4byte	.LLST98
 4882 0d65 12       		.uleb128 0x12
 4883 0d66 AA090000 		.4byte	0x9aa
 4884 0d6a B2100000 		.4byte	.LLST99
 4885 0d6e 18       		.uleb128 0x18
 4886 0d6f AC000000 		.4byte	.LVL234
 4887 0d73 0E160000 		.4byte	0x160e
 4888 0d77 15       		.uleb128 0x15
 4889 0d78 EC000000 		.4byte	.LVL240
 4890 0d7c 19160000 		.4byte	0x1619
 4891 0d80 14       		.uleb128 0x14
 4892 0d81 01       		.uleb128 0x1
 4893 0d82 50       		.byte	0x50
 4894 0d83 02       		.uleb128 0x2
 4895 0d84 7A       		.byte	0x7a
 4896 0d85 00       		.sleb128 0
 4897 0d86 00       		.byte	0
 4898 0d87 00       		.byte	0
 4899 0d88 00       		.byte	0
 4900 0d89 18       		.uleb128 0x18
 4901 0d8a 2C000000 		.4byte	.LVL212
 4902 0d8e 2D160000 		.4byte	0x162d
 4903 0d92 18       		.uleb128 0x18
 4904 0d93 30000000 		.4byte	.LVL213
 4905 0d97 38160000 		.4byte	0x1638
 4906 0d9b 13       		.uleb128 0x13
 4907 0d9c 3C000000 		.4byte	.LVL214
 4908 0da0 43160000 		.4byte	0x1643
 4909 0da4 AE0D0000 		.4byte	0xdae
 4910 0da8 14       		.uleb128 0x14
 4911 0da9 01       		.uleb128 0x1
 4912 0daa 51       		.byte	0x51
ARM GAS  C:\Users\young\AppData\Local\Temp\ccoFnsFE.s 			page 137


 4913 0dab 01       		.uleb128 0x1
 4914 0dac 30       		.byte	0x30
 4915 0dad 00       		.byte	0
 4916 0dae 13       		.uleb128 0x13
 4917 0daf 4A000000 		.4byte	.LVL215
 4918 0db3 4E160000 		.4byte	0x164e
 4919 0db7 C10D0000 		.4byte	0xdc1
 4920 0dbb 14       		.uleb128 0x14
 4921 0dbc 01       		.uleb128 0x1
 4922 0dbd 51       		.byte	0x51
 4923 0dbe 01       		.uleb128 0x1
 4924 0dbf 30       		.byte	0x30
 4925 0dc0 00       		.byte	0
 4926 0dc1 13       		.uleb128 0x13
 4927 0dc2 50000000 		.4byte	.LVL216
 4928 0dc6 59160000 		.4byte	0x1659
 4929 0dca D50D0000 		.4byte	0xdd5
 4930 0dce 14       		.uleb128 0x14
 4931 0dcf 01       		.uleb128 0x1
 4932 0dd0 50       		.byte	0x50
 4933 0dd1 02       		.uleb128 0x2
 4934 0dd2 08       		.byte	0x8
 4935 0dd3 FF       		.byte	0xff
 4936 0dd4 00       		.byte	0
 4937 0dd5 13       		.uleb128 0x13
 4938 0dd6 56000000 		.4byte	.LVL217
 4939 0dda 64160000 		.4byte	0x1664
 4940 0dde E90D0000 		.4byte	0xde9
 4941 0de2 14       		.uleb128 0x14
 4942 0de3 01       		.uleb128 0x1
 4943 0de4 50       		.byte	0x50
 4944 0de5 02       		.uleb128 0x2
 4945 0de6 7A       		.byte	0x7a
 4946 0de7 00       		.sleb128 0
 4947 0de8 00       		.byte	0
 4948 0de9 13       		.uleb128 0x13
 4949 0dea 5C000000 		.4byte	.LVL218
 4950 0dee ED150000 		.4byte	0x15ed
 4951 0df2 FC0D0000 		.4byte	0xdfc
 4952 0df6 14       		.uleb128 0x14
 4953 0df7 01       		.uleb128 0x1
 4954 0df8 50       		.byte	0x50
 4955 0df9 01       		.uleb128 0x1
 4956 0dfa 37       		.byte	0x37
 4957 0dfb 00       		.byte	0
 4958 0dfc 13       		.uleb128 0x13
 4959 0dfd 6C000000 		.4byte	.LVL221
 4960 0e01 6F160000 		.4byte	0x166f
 4961 0e05 0F0E0000 		.4byte	0xe0f
 4962 0e09 14       		.uleb128 0x14
 4963 0e0a 01       		.uleb128 0x1
 4964 0e0b 50       		.byte	0x50
 4965 0e0c 01       		.uleb128 0x1
 4966 0e0d 37       		.byte	0x37
 4967 0e0e 00       		.byte	0
 4968 0e0f 13       		.uleb128 0x13
 4969 0e10 72000000 		.4byte	.LVL222
ARM GAS  C:\Users\young\AppData\Local\Temp\ccoFnsFE.s 			page 138


 4970 0e14 ED150000 		.4byte	0x15ed
 4971 0e18 220E0000 		.4byte	0xe22
 4972 0e1c 14       		.uleb128 0x14
 4973 0e1d 01       		.uleb128 0x1
 4974 0e1e 50       		.byte	0x50
 4975 0e1f 01       		.uleb128 0x1
 4976 0e20 37       		.byte	0x37
 4977 0e21 00       		.byte	0
 4978 0e22 13       		.uleb128 0x13
 4979 0e23 9E000000 		.4byte	.LVL230
 4980 0e27 6F160000 		.4byte	0x166f
 4981 0e2b 350E0000 		.4byte	0xe35
 4982 0e2f 14       		.uleb128 0x14
 4983 0e30 01       		.uleb128 0x1
 4984 0e31 50       		.byte	0x50
 4985 0e32 01       		.uleb128 0x1
 4986 0e33 37       		.byte	0x37
 4987 0e34 00       		.byte	0
 4988 0e35 18       		.uleb128 0x18
 4989 0e36 F0000000 		.4byte	.LVL241
 4990 0e3a 0E160000 		.4byte	0x160e
 4991 0e3e 13       		.uleb128 0x13
 4992 0e3f FA000000 		.4byte	.LVL243
 4993 0e43 7A160000 		.4byte	0x167a
 4994 0e47 510E0000 		.4byte	0xe51
 4995 0e4b 14       		.uleb128 0x14
 4996 0e4c 01       		.uleb128 0x1
 4997 0e4d 50       		.byte	0x50
 4998 0e4e 01       		.uleb128 0x1
 4999 0e4f 30       		.byte	0x30
 5000 0e50 00       		.byte	0
 5001 0e51 15       		.uleb128 0x15
 5002 0e52 04010000 		.4byte	.LVL244
 5003 0e56 19160000 		.4byte	0x1619
 5004 0e5a 14       		.uleb128 0x14
 5005 0e5b 01       		.uleb128 0x1
 5006 0e5c 50       		.byte	0x50
 5007 0e5d 02       		.uleb128 0x2
 5008 0e5e 77       		.byte	0x77
 5009 0e5f 00       		.sleb128 0
 5010 0e60 00       		.byte	0
 5011 0e61 00       		.byte	0
 5012 0e62 1C       		.uleb128 0x1c
 5013 0e63 66040000 		.4byte	.LASF67
 5014 0e67 01       		.byte	0x1
 5015 0e68 3802     		.2byte	0x238
 5016 0e6a 00000000 		.4byte	.LFB38
 5017 0e6e 1C000000 		.4byte	.LFE38-.LFB38
 5018 0e72 01       		.uleb128 0x1
 5019 0e73 9C       		.byte	0x9c
 5020 0e74 9A0E0000 		.4byte	0xe9a
 5021 0e78 23       		.uleb128 0x23
 5022 0e79 C2040000 		.4byte	.LASF36
 5023 0e7d 01       		.byte	0x1
 5024 0e7e 3802     		.2byte	0x238
 5025 0e80 83000000 		.4byte	0x83
 5026 0e84 D0100000 		.4byte	.LLST100
ARM GAS  C:\Users\young\AppData\Local\Temp\ccoFnsFE.s 			page 139


 5027 0e88 15       		.uleb128 0x15
 5028 0e89 14000000 		.4byte	.LVL249
 5029 0e8d B50C0000 		.4byte	0xcb5
 5030 0e91 14       		.uleb128 0x14
 5031 0e92 01       		.uleb128 0x1
 5032 0e93 50       		.byte	0x50
 5033 0e94 03       		.uleb128 0x3
 5034 0e95 F3       		.byte	0xf3
 5035 0e96 01       		.uleb128 0x1
 5036 0e97 50       		.byte	0x50
 5037 0e98 00       		.byte	0
 5038 0e99 00       		.byte	0
 5039 0e9a 1C       		.uleb128 0x1c
 5040 0e9b 92050000 		.4byte	.LASF68
 5041 0e9f 01       		.byte	0x1
 5042 0ea0 B402     		.2byte	0x2b4
 5043 0ea2 00000000 		.4byte	.LFB40
 5044 0ea6 50000000 		.4byte	.LFE40-.LFB40
 5045 0eaa 01       		.uleb128 0x1
 5046 0eab 9C       		.byte	0x9c
 5047 0eac 1E0F0000 		.4byte	0xf1e
 5048 0eb0 25       		.uleb128 0x25
 5049 0eb1 71010000 		.4byte	0x171
 5050 0eb5 04000000 		.4byte	.LBB130
 5051 0eb9 20010000 		.4byte	.Ldebug_ranges0+0x120
 5052 0ebd 01       		.byte	0x1
 5053 0ebe BB02     		.2byte	0x2bb
 5054 0ec0 140F0000 		.4byte	0xf14
 5055 0ec4 17       		.uleb128 0x17
 5056 0ec5 82010000 		.4byte	0x182
 5057 0ec9 F1100000 		.4byte	.LLST101
 5058 0ecd 11       		.uleb128 0x11
 5059 0ece 20010000 		.4byte	.Ldebug_ranges0+0x120
 5060 0ed2 1F       		.uleb128 0x1f
 5061 0ed3 8E010000 		.4byte	0x18e
 5062 0ed7 16       		.uleb128 0x16
 5063 0ed8 2F010000 		.4byte	0x12f
 5064 0edc 04000000 		.4byte	.LBB132
 5065 0ee0 40010000 		.4byte	.Ldebug_ranges0+0x140
 5066 0ee4 01       		.byte	0x1
 5067 0ee5 1502     		.2byte	0x215
 5068 0ee7 17       		.uleb128 0x17
 5069 0ee8 4C010000 		.4byte	0x14c
 5070 0eec 0F110000 		.4byte	.LLST102
 5071 0ef0 17       		.uleb128 0x17
 5072 0ef1 40010000 		.4byte	0x140
 5073 0ef5 27110000 		.4byte	.LLST103
 5074 0ef9 11       		.uleb128 0x11
 5075 0efa 40010000 		.4byte	.Ldebug_ranges0+0x140
 5076 0efe 12       		.uleb128 0x12
 5077 0eff 58010000 		.4byte	0x158
 5078 0f03 3F110000 		.4byte	.LLST104
 5079 0f07 12       		.uleb128 0x12
 5080 0f08 64010000 		.4byte	0x164
 5081 0f0c 59110000 		.4byte	.LLST105
 5082 0f10 00       		.byte	0
 5083 0f11 00       		.byte	0
ARM GAS  C:\Users\young\AppData\Local\Temp\ccoFnsFE.s 			page 140


 5084 0f12 00       		.byte	0
 5085 0f13 00       		.byte	0
 5086 0f14 18       		.uleb128 0x18
 5087 0f15 46000000 		.4byte	.LVL255
 5088 0f19 B50C0000 		.4byte	0xcb5
 5089 0f1d 00       		.byte	0
 5090 0f1e 1C       		.uleb128 0x1c
 5091 0f1f B3000000 		.4byte	.LASF69
 5092 0f23 01       		.byte	0x1
 5093 0f24 5F02     		.2byte	0x25f
 5094 0f26 00000000 		.4byte	.LFB39
 5095 0f2a C0000000 		.4byte	.LFE39-.LFB39
 5096 0f2e 01       		.uleb128 0x1
 5097 0f2f 9C       		.byte	0x9c
 5098 0f30 0E100000 		.4byte	0x100e
 5099 0f34 23       		.uleb128 0x23
 5100 0f35 3A030000 		.4byte	.LASF55
 5101 0f39 01       		.byte	0x1
 5102 0f3a 5F02     		.2byte	0x25f
 5103 0f3c 83000000 		.4byte	0x83
 5104 0f40 72110000 		.4byte	.LLST106
 5105 0f44 27       		.uleb128 0x27
 5106 0f45 87040000 		.4byte	.LASF70
 5107 0f49 01       		.byte	0x1
 5108 0f4a 6102     		.2byte	0x261
 5109 0f4c 83000000 		.4byte	0x83
 5110 0f50 93110000 		.4byte	.LLST107
 5111 0f54 27       		.uleb128 0x27
 5112 0f55 A5060000 		.4byte	.LASF71
 5113 0f59 01       		.byte	0x1
 5114 0f5a 6202     		.2byte	0x262
 5115 0f5c 83000000 		.4byte	0x83
 5116 0f60 A6110000 		.4byte	.LLST108
 5117 0f64 27       		.uleb128 0x27
 5118 0f65 90060000 		.4byte	.LASF30
 5119 0f69 01       		.byte	0x1
 5120 0f6a 6302     		.2byte	0x263
 5121 0f6c 83000000 		.4byte	0x83
 5122 0f70 CF110000 		.4byte	.LLST109
 5123 0f74 25       		.uleb128 0x25
 5124 0f75 9B010000 		.4byte	0x19b
 5125 0f79 26000000 		.4byte	.LBB142
 5126 0f7d 60010000 		.4byte	.Ldebug_ranges0+0x160
 5127 0f81 01       		.byte	0x1
 5128 0f82 8202     		.2byte	0x282
 5129 0f84 BC0F0000 		.4byte	0xfbc
 5130 0f88 17       		.uleb128 0x17
 5131 0f89 C0010000 		.4byte	0x1c0
 5132 0f8d 73120000 		.4byte	.LLST110
 5133 0f91 17       		.uleb128 0x17
 5134 0f92 B4010000 		.4byte	0x1b4
 5135 0f96 93120000 		.4byte	.LLST111
 5136 0f9a 17       		.uleb128 0x17
 5137 0f9b A8010000 		.4byte	0x1a8
 5138 0f9f E3120000 		.4byte	.LLST112
 5139 0fa3 11       		.uleb128 0x11
 5140 0fa4 60010000 		.4byte	.Ldebug_ranges0+0x160
ARM GAS  C:\Users\young\AppData\Local\Temp\ccoFnsFE.s 			page 141


 5141 0fa8 12       		.uleb128 0x12
 5142 0fa9 CC010000 		.4byte	0x1cc
 5143 0fad 0B130000 		.4byte	.LLST113
 5144 0fb1 12       		.uleb128 0x12
 5145 0fb2 D8010000 		.4byte	0x1d8
 5146 0fb6 2B130000 		.4byte	.LLST114
 5147 0fba 00       		.byte	0
 5148 0fbb 00       		.byte	0
 5149 0fbc 25       		.uleb128 0x25
 5150 0fbd 9B010000 		.4byte	0x19b
 5151 0fc1 34000000 		.4byte	.LBB145
 5152 0fc5 78010000 		.4byte	.Ldebug_ranges0+0x178
 5153 0fc9 01       		.byte	0x1
 5154 0fca 8702     		.2byte	0x287
 5155 0fcc 04100000 		.4byte	0x1004
 5156 0fd0 17       		.uleb128 0x17
 5157 0fd1 C0010000 		.4byte	0x1c0
 5158 0fd5 7C130000 		.4byte	.LLST115
 5159 0fd9 17       		.uleb128 0x17
 5160 0fda B4010000 		.4byte	0x1b4
 5161 0fde CC130000 		.4byte	.LLST116
 5162 0fe2 17       		.uleb128 0x17
 5163 0fe3 A8010000 		.4byte	0x1a8
 5164 0fe7 1C140000 		.4byte	.LLST117
 5165 0feb 11       		.uleb128 0x11
 5166 0fec 78010000 		.4byte	.Ldebug_ranges0+0x178
 5167 0ff0 12       		.uleb128 0x12
 5168 0ff1 CC010000 		.4byte	0x1cc
 5169 0ff5 7C130000 		.4byte	.LLST115
 5170 0ff9 12       		.uleb128 0x12
 5171 0ffa D8010000 		.4byte	0x1d8
 5172 0ffe 84140000 		.4byte	.LLST119
 5173 1002 00       		.byte	0
 5174 1003 00       		.byte	0
 5175 1004 18       		.uleb128 0x18
 5176 1005 84000000 		.4byte	.LVL274
 5177 1009 B50C0000 		.4byte	0xcb5
 5178 100d 00       		.byte	0
 5179 100e 1C       		.uleb128 0x1c
 5180 100f 11000000 		.4byte	.LASF72
 5181 1013 01       		.byte	0x1
 5182 1014 0A06     		.2byte	0x60a
 5183 1016 00000000 		.4byte	.LFB53
 5184 101a C0000000 		.4byte	.LFE53-.LFB53
 5185 101e 01       		.uleb128 0x1
 5186 101f 9C       		.byte	0x9c
 5187 1020 DC100000 		.4byte	0x10dc
 5188 1024 23       		.uleb128 0x23
 5189 1025 C2040000 		.4byte	.LASF36
 5190 1029 01       		.byte	0x1
 5191 102a 0A06     		.2byte	0x60a
 5192 102c 83000000 		.4byte	0x83
 5193 1030 D5140000 		.4byte	.LLST120
 5194 1034 27       		.uleb128 0x27
 5195 1035 180A0000 		.4byte	.LASF41
 5196 1039 01       		.byte	0x1
 5197 103a 0C06     		.2byte	0x60c
ARM GAS  C:\Users\young\AppData\Local\Temp\ccoFnsFE.s 			page 142


 5198 103c 83000000 		.4byte	0x83
 5199 1040 F6140000 		.4byte	.LLST121
 5200 1044 25       		.uleb128 0x25
 5201 1045 7B020000 		.4byte	0x27b
 5202 1049 12000000 		.4byte	.LBB160
 5203 104d B0010000 		.4byte	.Ldebug_ranges0+0x1b0
 5204 1051 01       		.byte	0x1
 5205 1052 2B06     		.2byte	0x62b
 5206 1054 B9100000 		.4byte	0x10b9
 5207 1058 17       		.uleb128 0x17
 5208 1059 88020000 		.4byte	0x288
 5209 105d 23150000 		.4byte	.LLST122
 5210 1061 11       		.uleb128 0x11
 5211 1062 B0010000 		.4byte	.Ldebug_ranges0+0x1b0
 5212 1066 12       		.uleb128 0x12
 5213 1067 94020000 		.4byte	0x294
 5214 106b 52150000 		.4byte	.LLST123
 5215 106f 12       		.uleb128 0x12
 5216 1070 A0020000 		.4byte	0x2a0
 5217 1074 65150000 		.4byte	.LLST124
 5218 1078 12       		.uleb128 0x12
 5219 1079 AC020000 		.4byte	0x2ac
 5220 107d 78150000 		.4byte	.LLST125
 5221 1081 12       		.uleb128 0x12
 5222 1082 B8020000 		.4byte	0x2b8
 5223 1086 D2150000 		.4byte	.LLST126
 5224 108a 12       		.uleb128 0x12
 5225 108b C4020000 		.4byte	0x2c4
 5226 108f F8150000 		.4byte	.LLST127
 5227 1093 12       		.uleb128 0x12
 5228 1094 D0020000 		.4byte	0x2d0
 5229 1098 16160000 		.4byte	.LLST128
 5230 109c 12       		.uleb128 0x12
 5231 109d DC020000 		.4byte	0x2dc
 5232 10a1 42160000 		.4byte	.LLST129
 5233 10a5 18       		.uleb128 0x18
 5234 10a6 4A000000 		.4byte	.LVL290
 5235 10aa 0E160000 		.4byte	0x160e
 5236 10ae 18       		.uleb128 0x18
 5237 10af 60000000 		.4byte	.LVL294
 5238 10b3 19160000 		.4byte	0x1619
 5239 10b7 00       		.byte	0
 5240 10b8 00       		.byte	0
 5241 10b9 13       		.uleb128 0x13
 5242 10ba 72000000 		.4byte	.LVL296
 5243 10be ED150000 		.4byte	0x15ed
 5244 10c2 CC100000 		.4byte	0x10cc
 5245 10c6 14       		.uleb128 0x14
 5246 10c7 01       		.uleb128 0x1
 5247 10c8 50       		.byte	0x50
 5248 10c9 01       		.uleb128 0x1
 5249 10ca 37       		.byte	0x37
 5250 10cb 00       		.byte	0
 5251 10cc 15       		.uleb128 0x15
 5252 10cd 92000000 		.4byte	.LVL302
 5253 10d1 6F160000 		.4byte	0x166f
 5254 10d5 14       		.uleb128 0x14
ARM GAS  C:\Users\young\AppData\Local\Temp\ccoFnsFE.s 			page 143


 5255 10d6 01       		.uleb128 0x1
 5256 10d7 50       		.byte	0x50
 5257 10d8 01       		.uleb128 0x1
 5258 10d9 37       		.byte	0x37
 5259 10da 00       		.byte	0
 5260 10db 00       		.byte	0
 5261 10dc 1C       		.uleb128 0x1c
 5262 10dd EF010000 		.4byte	.LASF73
 5263 10e1 01       		.byte	0x1
 5264 10e2 6706     		.2byte	0x667
 5265 10e4 00000000 		.4byte	.LFB54
 5266 10e8 34000000 		.4byte	.LFE54-.LFB54
 5267 10ec 01       		.uleb128 0x1
 5268 10ed 9C       		.byte	0x9c
 5269 10ee 23110000 		.4byte	0x1123
 5270 10f2 23       		.uleb128 0x23
 5271 10f3 86060000 		.4byte	.LASF20
 5272 10f7 01       		.byte	0x1
 5273 10f8 6706     		.2byte	0x667
 5274 10fa 83000000 		.4byte	0x83
 5275 10fe 6A160000 		.4byte	.LLST130
 5276 1102 23       		.uleb128 0x23
 5277 1103 04070000 		.4byte	.LASF21
 5278 1107 01       		.byte	0x1
 5279 1108 6706     		.2byte	0x667
 5280 110a 83000000 		.4byte	0x83
 5281 110e 8B160000 		.4byte	.LLST131
 5282 1112 27       		.uleb128 0x27
 5283 1113 180A0000 		.4byte	.LASF41
 5284 1117 01       		.byte	0x1
 5285 1118 6906     		.2byte	0x669
 5286 111a 83000000 		.4byte	0x83
 5287 111e AC160000 		.4byte	.LLST132
 5288 1122 00       		.byte	0
 5289 1123 0E       		.uleb128 0xe
 5290 1124 25020000 		.4byte	0x225
 5291 1128 00000000 		.4byte	.LFB55
 5292 112c 18000000 		.4byte	.LFE55-.LFB55
 5293 1130 01       		.uleb128 0x1
 5294 1131 9C       		.byte	0x9c
 5295 1132 49110000 		.4byte	0x1149
 5296 1136 17       		.uleb128 0x17
 5297 1137 32020000 		.4byte	0x232
 5298 113b D5160000 		.4byte	.LLST133
 5299 113f 12       		.uleb128 0x12
 5300 1140 3E020000 		.4byte	0x23e
 5301 1144 07170000 		.4byte	.LLST134
 5302 1148 00       		.byte	0
 5303 1149 21       		.uleb128 0x21
 5304 114a 76070000 		.4byte	.LASF75
 5305 114e 01       		.byte	0x1
 5306 114f AE06     		.2byte	0x6ae
 5307 1151 83000000 		.4byte	0x83
 5308 1155 00000000 		.4byte	.LFB56
 5309 1159 18000000 		.4byte	.LFE56-.LFB56
 5310 115d 01       		.uleb128 0x1
 5311 115e 9C       		.byte	0x9c
ARM GAS  C:\Users\young\AppData\Local\Temp\ccoFnsFE.s 			page 144


 5312 115f 0E       		.uleb128 0xe
 5313 1160 2F010000 		.4byte	0x12f
 5314 1164 00000000 		.4byte	.LFB57
 5315 1168 16000000 		.4byte	.LFE57-.LFB57
 5316 116c 01       		.uleb128 0x1
 5317 116d 9C       		.byte	0x9c
 5318 116e 97110000 		.4byte	0x1197
 5319 1172 17       		.uleb128 0x17
 5320 1173 40010000 		.4byte	0x140
 5321 1177 25170000 		.4byte	.LLST135
 5322 117b 17       		.uleb128 0x17
 5323 117c 4C010000 		.4byte	0x14c
 5324 1180 43170000 		.4byte	.LLST136
 5325 1184 12       		.uleb128 0x12
 5326 1185 58010000 		.4byte	0x158
 5327 1189 64170000 		.4byte	.LLST137
 5328 118d 12       		.uleb128 0x12
 5329 118e 64010000 		.4byte	0x164
 5330 1192 96170000 		.4byte	.LLST138
 5331 1196 00       		.byte	0
 5332 1197 0E       		.uleb128 0xe
 5333 1198 9B010000 		.4byte	0x19b
 5334 119c 00000000 		.4byte	.LFB58
 5335 11a0 24000000 		.4byte	.LFE58-.LFB58
 5336 11a4 01       		.uleb128 0x1
 5337 11a5 9C       		.byte	0x9c
 5338 11a6 D6110000 		.4byte	0x11d6
 5339 11aa 29       		.uleb128 0x29
 5340 11ab A8010000 		.4byte	0x1a8
 5341 11af 01       		.uleb128 0x1
 5342 11b0 50       		.byte	0x50
 5343 11b1 17       		.uleb128 0x17
 5344 11b2 B4010000 		.4byte	0x1b4
 5345 11b6 C1170000 		.4byte	.LLST139
 5346 11ba 17       		.uleb128 0x17
 5347 11bb C0010000 		.4byte	0x1c0
 5348 11bf E2170000 		.4byte	.LLST140
 5349 11c3 12       		.uleb128 0x12
 5350 11c4 CC010000 		.4byte	0x1cc
 5351 11c8 1C180000 		.4byte	.LLST141
 5352 11cc 12       		.uleb128 0x12
 5353 11cd D8010000 		.4byte	0x1d8
 5354 11d1 3F180000 		.4byte	.LLST142
 5355 11d5 00       		.byte	0
 5356 11d6 22       		.uleb128 0x22
 5357 11d7 63060000 		.4byte	.LASF76
 5358 11db 01       		.byte	0x1
 5359 11dc 2707     		.2byte	0x727
 5360 11de 83000000 		.4byte	0x83
 5361 11e2 00000000 		.4byte	.LFB59
 5362 11e6 10000000 		.4byte	.LFE59-.LFB59
 5363 11ea 01       		.uleb128 0x1
 5364 11eb 9C       		.byte	0x9c
 5365 11ec 01120000 		.4byte	0x1201
 5366 11f0 23       		.uleb128 0x23
 5367 11f1 C2040000 		.4byte	.LASF36
 5368 11f5 01       		.byte	0x1
ARM GAS  C:\Users\young\AppData\Local\Temp\ccoFnsFE.s 			page 145


 5369 11f6 2707     		.2byte	0x727
 5370 11f8 83000000 		.4byte	0x83
 5371 11fc 7B180000 		.4byte	.LLST143
 5372 1200 00       		.byte	0
 5373 1201 1C       		.uleb128 0x1c
 5374 1202 DC000000 		.4byte	.LASF77
 5375 1206 01       		.byte	0x1
 5376 1207 4607     		.2byte	0x746
 5377 1209 00000000 		.4byte	.LFB60
 5378 120d 10000000 		.4byte	.LFE60-.LFB60
 5379 1211 01       		.uleb128 0x1
 5380 1212 9C       		.byte	0x9c
 5381 1213 36120000 		.4byte	0x1236
 5382 1217 23       		.uleb128 0x23
 5383 1218 C2040000 		.4byte	.LASF36
 5384 121c 01       		.byte	0x1
 5385 121d 4607     		.2byte	0x746
 5386 121f 83000000 		.4byte	0x83
 5387 1223 9C180000 		.4byte	.LLST144
 5388 1227 24       		.uleb128 0x24
 5389 1228 3B070000 		.4byte	.LASF78
 5390 122c 01       		.byte	0x1
 5391 122d 4607     		.2byte	0x746
 5392 122f 83000000 		.4byte	0x83
 5393 1233 01       		.uleb128 0x1
 5394 1234 51       		.byte	0x51
 5395 1235 00       		.byte	0
 5396 1236 22       		.uleb128 0x22
 5397 1237 27080000 		.4byte	.LASF79
 5398 123b 01       		.byte	0x1
 5399 123c 6607     		.2byte	0x766
 5400 123e 83000000 		.4byte	0x83
 5401 1242 00000000 		.4byte	.LFB61
 5402 1246 0C000000 		.4byte	.LFE61-.LFB61
 5403 124a 01       		.uleb128 0x1
 5404 124b 9C       		.byte	0x9c
 5405 124c 61120000 		.4byte	0x1261
 5406 1250 23       		.uleb128 0x23
 5407 1251 C2040000 		.4byte	.LASF36
 5408 1255 01       		.byte	0x1
 5409 1256 6607     		.2byte	0x766
 5410 1258 83000000 		.4byte	0x83
 5411 125c BD180000 		.4byte	.LLST145
 5412 1260 00       		.byte	0
 5413 1261 1C       		.uleb128 0x1c
 5414 1262 24060000 		.4byte	.LASF80
 5415 1266 01       		.byte	0x1
 5416 1267 8507     		.2byte	0x785
 5417 1269 00000000 		.4byte	.LFB62
 5418 126d 0C000000 		.4byte	.LFE62-.LFB62
 5419 1271 01       		.uleb128 0x1
 5420 1272 9C       		.byte	0x9c
 5421 1273 96120000 		.4byte	0x1296
 5422 1277 23       		.uleb128 0x23
 5423 1278 C2040000 		.4byte	.LASF36
 5424 127c 01       		.byte	0x1
 5425 127d 8507     		.2byte	0x785
ARM GAS  C:\Users\young\AppData\Local\Temp\ccoFnsFE.s 			page 146


 5426 127f 83000000 		.4byte	0x83
 5427 1283 DE180000 		.4byte	.LLST146
 5428 1287 24       		.uleb128 0x24
 5429 1288 BF030000 		.4byte	.LASF81
 5430 128c 01       		.byte	0x1
 5431 128d 8507     		.2byte	0x785
 5432 128f 83000000 		.4byte	0x83
 5433 1293 01       		.uleb128 0x1
 5434 1294 51       		.byte	0x51
 5435 1295 00       		.byte	0
 5436 1296 22       		.uleb128 0x22
 5437 1297 C7090000 		.4byte	.LASF82
 5438 129b 01       		.byte	0x1
 5439 129c A407     		.2byte	0x7a4
 5440 129e 83000000 		.4byte	0x83
 5441 12a2 00000000 		.4byte	.LFB63
 5442 12a6 10000000 		.4byte	.LFE63-.LFB63
 5443 12aa 01       		.uleb128 0x1
 5444 12ab 9C       		.byte	0x9c
 5445 12ac C1120000 		.4byte	0x12c1
 5446 12b0 23       		.uleb128 0x23
 5447 12b1 C2040000 		.4byte	.LASF36
 5448 12b5 01       		.byte	0x1
 5449 12b6 A407     		.2byte	0x7a4
 5450 12b8 83000000 		.4byte	0x83
 5451 12bc FF180000 		.4byte	.LLST147
 5452 12c0 00       		.byte	0
 5453 12c1 1C       		.uleb128 0x1c
 5454 12c2 0F090000 		.4byte	.LASF83
 5455 12c6 01       		.byte	0x1
 5456 12c7 BF07     		.2byte	0x7bf
 5457 12c9 00000000 		.4byte	.LFB64
 5458 12cd 10000000 		.4byte	.LFE64-.LFB64
 5459 12d1 01       		.uleb128 0x1
 5460 12d2 9C       		.byte	0x9c
 5461 12d3 F6120000 		.4byte	0x12f6
 5462 12d7 23       		.uleb128 0x23
 5463 12d8 C2040000 		.4byte	.LASF36
 5464 12dc 01       		.byte	0x1
 5465 12dd BF07     		.2byte	0x7bf
 5466 12df 83000000 		.4byte	0x83
 5467 12e3 20190000 		.4byte	.LLST148
 5468 12e7 24       		.uleb128 0x24
 5469 12e8 A4080000 		.4byte	.LASF84
 5470 12ec 01       		.byte	0x1
 5471 12ed BF07     		.2byte	0x7bf
 5472 12ef 83000000 		.4byte	0x83
 5473 12f3 01       		.uleb128 0x1
 5474 12f4 51       		.byte	0x51
 5475 12f5 00       		.byte	0
 5476 12f6 22       		.uleb128 0x22
 5477 12f7 6F090000 		.4byte	.LASF85
 5478 12fb 01       		.byte	0x1
 5479 12fc DC07     		.2byte	0x7dc
 5480 12fe 83000000 		.4byte	0x83
 5481 1302 00000000 		.4byte	.LFB65
 5482 1306 0C000000 		.4byte	.LFE65-.LFB65
ARM GAS  C:\Users\young\AppData\Local\Temp\ccoFnsFE.s 			page 147


 5483 130a 01       		.uleb128 0x1
 5484 130b 9C       		.byte	0x9c
 5485 130c 21130000 		.4byte	0x1321
 5486 1310 23       		.uleb128 0x23
 5487 1311 C2040000 		.4byte	.LASF36
 5488 1315 01       		.byte	0x1
 5489 1316 DC07     		.2byte	0x7dc
 5490 1318 83000000 		.4byte	0x83
 5491 131c 41190000 		.4byte	.LLST149
 5492 1320 00       		.byte	0
 5493 1321 1C       		.uleb128 0x1c
 5494 1322 22010000 		.4byte	.LASF86
 5495 1326 01       		.byte	0x1
 5496 1327 F907     		.2byte	0x7f9
 5497 1329 00000000 		.4byte	.LFB66
 5498 132d 0C000000 		.4byte	.LFE66-.LFB66
 5499 1331 01       		.uleb128 0x1
 5500 1332 9C       		.byte	0x9c
 5501 1333 56130000 		.4byte	0x1356
 5502 1337 23       		.uleb128 0x23
 5503 1338 C2040000 		.4byte	.LASF36
 5504 133c 01       		.byte	0x1
 5505 133d F907     		.2byte	0x7f9
 5506 133f 83000000 		.4byte	0x83
 5507 1343 62190000 		.4byte	.LLST150
 5508 1347 24       		.uleb128 0x24
 5509 1348 7E080000 		.4byte	.LASF87
 5510 134c 01       		.byte	0x1
 5511 134d F907     		.2byte	0x7f9
 5512 134f 83000000 		.4byte	0x83
 5513 1353 01       		.uleb128 0x1
 5514 1354 51       		.byte	0x51
 5515 1355 00       		.byte	0
 5516 1356 21       		.uleb128 0x21
 5517 1357 7C050000 		.4byte	.LASF88
 5518 135b 01       		.byte	0x1
 5519 135c 1608     		.2byte	0x816
 5520 135e 83000000 		.4byte	0x83
 5521 1362 00000000 		.4byte	.LFB67
 5522 1366 10000000 		.4byte	.LFE67-.LFB67
 5523 136a 01       		.uleb128 0x1
 5524 136b 9C       		.byte	0x9c
 5525 136c 1C       		.uleb128 0x1c
 5526 136d EE060000 		.4byte	.LASF89
 5527 1371 01       		.byte	0x1
 5528 1372 3408     		.2byte	0x834
 5529 1374 00000000 		.4byte	.LFB68
 5530 1378 28000000 		.4byte	.LFE68-.LFB68
 5531 137c 01       		.uleb128 0x1
 5532 137d 9C       		.byte	0x9c
 5533 137e 91130000 		.4byte	0x1391
 5534 1382 24       		.uleb128 0x24
 5535 1383 61080000 		.4byte	.LASF90
 5536 1387 01       		.byte	0x1
 5537 1388 3408     		.2byte	0x834
 5538 138a 83000000 		.4byte	0x83
 5539 138e 01       		.uleb128 0x1
ARM GAS  C:\Users\young\AppData\Local\Temp\ccoFnsFE.s 			page 148


 5540 138f 50       		.byte	0x50
 5541 1390 00       		.byte	0
 5542 1391 0E       		.uleb128 0xe
 5543 1392 E5010000 		.4byte	0x1e5
 5544 1396 00000000 		.4byte	.LFB69
 5545 139a 0C000000 		.4byte	.LFE69-.LFB69
 5546 139e 01       		.uleb128 0x1
 5547 139f 9C       		.byte	0x9c
 5548 13a0 B3130000 		.4byte	0x13b3
 5549 13a4 29       		.uleb128 0x29
 5550 13a5 F2010000 		.4byte	0x1f2
 5551 13a9 01       		.uleb128 0x1
 5552 13aa 50       		.byte	0x50
 5553 13ab 29       		.uleb128 0x29
 5554 13ac FE010000 		.4byte	0x1fe
 5555 13b0 01       		.uleb128 0x1
 5556 13b1 51       		.byte	0x51
 5557 13b2 00       		.byte	0
 5558 13b3 2A       		.uleb128 0x2a
 5559 13b4 1D070000 		.4byte	.LASF91
 5560 13b8 01       		.byte	0x1
 5561 13b9 29       		.byte	0x29
 5562 13ba 6B000000 		.4byte	0x6b
 5563 13be 05       		.uleb128 0x5
 5564 13bf 03       		.byte	0x3
 5565 13c0 00000000 		.4byte	CapSense_prescalersTuningDone
 5566 13c4 2A       		.uleb128 0x2a
 5567 13c5 23000000 		.4byte	.LASF92
 5568 13c9 01       		.byte	0x1
 5569 13ca 2D       		.byte	0x2d
 5570 13cb B0000000 		.4byte	0xb0
 5571 13cf 05       		.uleb128 0x5
 5572 13d0 03       		.byte	0x3
 5573 13d1 00000000 		.4byte	CapSense_csdStatusVar
 5574 13d5 2A       		.uleb128 0x2a
 5575 13d6 B9020000 		.4byte	.LASF93
 5576 13da 01       		.byte	0x1
 5577 13db 2E       		.byte	0x2e
 5578 13dc B0000000 		.4byte	0xb0
 5579 13e0 05       		.uleb128 0x5
 5580 13e1 03       		.byte	0x3
 5581 13e2 00000000 		.4byte	CapSense_sensorIndex
 5582 13e6 2B       		.uleb128 0x2b
 5583 13e7 77000000 		.4byte	0x77
 5584 13eb F6130000 		.4byte	0x13f6
 5585 13ef 2C       		.uleb128 0x2c
 5586 13f0 C6000000 		.4byte	0xc6
 5587 13f4 05       		.byte	0x5
 5588 13f5 00       		.byte	0
 5589 13f6 2A       		.uleb128 0x2a
 5590 13f7 C9040000 		.4byte	.LASF94
 5591 13fb 01       		.byte	0x1
 5592 13fc 31       		.byte	0x31
 5593 13fd E6130000 		.4byte	0x13e6
 5594 1401 05       		.uleb128 0x5
 5595 1402 03       		.byte	0x3
 5596 1403 00000000 		.4byte	CapSense_sensorRaw
ARM GAS  C:\Users\young\AppData\Local\Temp\ccoFnsFE.s 			page 149


 5597 1407 2B       		.uleb128 0x2b
 5598 1408 6B000000 		.4byte	0x6b
 5599 140c 17140000 		.4byte	0x1417
 5600 1410 2C       		.uleb128 0x2c
 5601 1411 C6000000 		.4byte	0xc6
 5602 1415 05       		.byte	0x5
 5603 1416 00       		.byte	0
 5604 1417 2A       		.uleb128 0x2a
 5605 1418 44060000 		.4byte	.LASF95
 5606 141c 01       		.byte	0x1
 5607 141d 3B       		.byte	0x3b
 5608 141e 07140000 		.4byte	0x1407
 5609 1422 05       		.uleb128 0x5
 5610 1423 03       		.byte	0x3
 5611 1424 00000000 		.4byte	CapSense_unscannedSnsDriveMode
 5612 1428 2B       		.uleb128 0x2b
 5613 1429 6B000000 		.4byte	0x6b
 5614 142d 38140000 		.4byte	0x1438
 5615 1431 2C       		.uleb128 0x2c
 5616 1432 C6000000 		.4byte	0xc6
 5617 1436 00       		.byte	0
 5618 1437 00       		.byte	0
 5619 1438 2A       		.uleb128 0x2a
 5620 1439 B6070000 		.4byte	.LASF96
 5621 143d 01       		.byte	0x1
 5622 143e 3E       		.byte	0x3e
 5623 143f 28140000 		.4byte	0x1428
 5624 1443 05       		.uleb128 0x5
 5625 1444 03       		.byte	0x3
 5626 1445 00000000 		.4byte	CapSense_sensorEnableMaskBackup
 5627 1449 2A       		.uleb128 0x2a
 5628 144a 47080000 		.4byte	.LASF97
 5629 144e 01       		.byte	0x1
 5630 144f 41       		.byte	0x41
 5631 1450 28140000 		.4byte	0x1428
 5632 1454 05       		.uleb128 0x5
 5633 1455 03       		.byte	0x3
 5634 1456 00000000 		.4byte	CapSense_sensorEnableMask
 5635 145a 2A       		.uleb128 0x2a
 5636 145b AE050000 		.4byte	.LASF98
 5637 145f 01       		.byte	0x1
 5638 1460 68       		.byte	0x68
 5639 1461 07140000 		.4byte	0x1407
 5640 1465 05       		.uleb128 0x5
 5641 1466 03       		.byte	0x3
 5642 1467 00000000 		.4byte	CapSense_modulationIDAC
 5643 146b 2A       		.uleb128 0x2a
 5644 146c 39000000 		.4byte	.LASF99
 5645 1470 01       		.byte	0x1
 5646 1471 6B       		.byte	0x6b
 5647 1472 07140000 		.4byte	0x1407
 5648 1476 05       		.uleb128 0x5
 5649 1477 03       		.byte	0x3
 5650 1478 00000000 		.4byte	CapSense_compensationIDAC
 5651 147c 2B       		.uleb128 0x2b
 5652 147d 83000000 		.4byte	0x83
 5653 1481 8C140000 		.4byte	0x148c
ARM GAS  C:\Users\young\AppData\Local\Temp\ccoFnsFE.s 			page 150


 5654 1485 2C       		.uleb128 0x2c
 5655 1486 C6000000 		.4byte	0xc6
 5656 148a 05       		.byte	0x5
 5657 148b 00       		.byte	0
 5658 148c 2A       		.uleb128 0x2a
 5659 148d 55050000 		.4byte	.LASF100
 5660 1491 01       		.byte	0x1
 5661 1492 6F       		.byte	0x6f
 5662 1493 7C140000 		.4byte	0x147c
 5663 1497 05       		.uleb128 0x5
 5664 1498 03       		.byte	0x3
 5665 1499 00000000 		.4byte	CapSense_widgetResolution
 5666 149d 2A       		.uleb128 0x2a
 5667 149e FB030000 		.4byte	.LASF101
 5668 14a2 01       		.byte	0x1
 5669 14a3 78       		.byte	0x78
 5670 14a4 07140000 		.4byte	0x1407
 5671 14a8 05       		.uleb128 0x5
 5672 14a9 03       		.byte	0x3
 5673 14aa 00000000 		.4byte	CapSense_senseClkDividerVal
 5674 14ae 2A       		.uleb128 0x2a
 5675 14af 73000000 		.4byte	.LASF102
 5676 14b3 01       		.byte	0x1
 5677 14b4 7B       		.byte	0x7b
 5678 14b5 07140000 		.4byte	0x1407
 5679 14b9 05       		.uleb128 0x5
 5680 14ba 03       		.byte	0x3
 5681 14bb 00000000 		.4byte	CapSense_sampleClkDividerVal
 5682 14bf 2B       		.uleb128 0x2b
 5683 14c0 E0000000 		.4byte	0xe0
 5684 14c4 CF140000 		.4byte	0x14cf
 5685 14c8 2C       		.uleb128 0x2c
 5686 14c9 C6000000 		.4byte	0xc6
 5687 14cd 05       		.byte	0x5
 5688 14ce 00       		.byte	0
 5689 14cf 2A       		.uleb128 0x2a
 5690 14d0 59030000 		.4byte	.LASF103
 5691 14d4 01       		.byte	0x1
 5692 14d5 80       		.byte	0x80
 5693 14d6 E0140000 		.4byte	0x14e0
 5694 14da 05       		.uleb128 0x5
 5695 14db 03       		.byte	0x3
 5696 14dc 00000000 		.4byte	CapSense_widgetNumber
 5697 14e0 07       		.uleb128 0x7
 5698 14e1 BF140000 		.4byte	0x14bf
 5699 14e5 2B       		.uleb128 0x2b
 5700 14e6 FB140000 		.4byte	0x14fb
 5701 14ea F5140000 		.4byte	0x14f5
 5702 14ee 2C       		.uleb128 0x2c
 5703 14ef C6000000 		.4byte	0xc6
 5704 14f3 03       		.byte	0x3
 5705 14f4 00       		.byte	0
 5706 14f5 06       		.uleb128 0x6
 5707 14f6 04       		.byte	0x4
 5708 14f7 B5000000 		.4byte	0xb5
 5709 14fb 07       		.uleb128 0x7
 5710 14fc F5140000 		.4byte	0x14f5
ARM GAS  C:\Users\young\AppData\Local\Temp\ccoFnsFE.s 			page 151


 5711 1500 2A       		.uleb128 0x2a
 5712 1501 B4010000 		.4byte	.LASF104
 5713 1505 01       		.byte	0x1
 5714 1506 89       		.byte	0x89
 5715 1507 11150000 		.4byte	0x1511
 5716 150b 05       		.uleb128 0x5
 5717 150c 03       		.byte	0x3
 5718 150d 00000000 		.4byte	CapSense_prtSelTbl
 5719 1511 07       		.uleb128 0x7
 5720 1512 E5140000 		.4byte	0x14e5
 5721 1516 2A       		.uleb128 0x2a
 5722 1517 6F030000 		.4byte	.LASF105
 5723 151b 01       		.byte	0x1
 5724 151c 90       		.byte	0x90
 5725 151d 27150000 		.4byte	0x1527
 5726 1521 05       		.uleb128 0x5
 5727 1522 03       		.byte	0x3
 5728 1523 00000000 		.4byte	CapSense_prtCfgTbl
 5729 1527 07       		.uleb128 0x7
 5730 1528 E5140000 		.4byte	0x14e5
 5731 152c 2A       		.uleb128 0x2a
 5732 152d DD010000 		.4byte	.LASF106
 5733 1531 01       		.byte	0x1
 5734 1532 97       		.byte	0x97
 5735 1533 3D150000 		.4byte	0x153d
 5736 1537 05       		.uleb128 0x5
 5737 1538 03       		.byte	0x3
 5738 1539 00000000 		.4byte	CapSense_prtDRTbl
 5739 153d 07       		.uleb128 0x7
 5740 153e E5140000 		.4byte	0x14e5
 5741 1542 2B       		.uleb128 0x2b
 5742 1543 F5140000 		.4byte	0x14f5
 5743 1547 52150000 		.4byte	0x1552
 5744 154b 2C       		.uleb128 0x2c
 5745 154c C6000000 		.4byte	0xc6
 5746 1550 05       		.byte	0x5
 5747 1551 00       		.byte	0
 5748 1552 2A       		.uleb128 0x2a
 5749 1553 23050000 		.4byte	.LASF107
 5750 1557 01       		.byte	0x1
 5751 1558 44       		.byte	0x44
 5752 1559 42150000 		.4byte	0x1542
 5753 155d 05       		.uleb128 0x5
 5754 155e 03       		.byte	0x3
 5755 155f 00000000 		.4byte	CapSense_pcTable
 5756 1563 2A       		.uleb128 0x2a
 5757 1564 6B080000 		.4byte	.LASF108
 5758 1568 01       		.byte	0x1
 5759 1569 4D       		.byte	0x4d
 5760 156a 74150000 		.4byte	0x1574
 5761 156e 05       		.uleb128 0x5
 5762 156f 03       		.byte	0x3
 5763 1570 00000000 		.4byte	CapSense_portTable
 5764 1574 07       		.uleb128 0x7
 5765 1575 BF140000 		.4byte	0x14bf
 5766 1579 2B       		.uleb128 0x2b
 5767 157a 89150000 		.4byte	0x1589
ARM GAS  C:\Users\young\AppData\Local\Temp\ccoFnsFE.s 			page 152


 5768 157e 89150000 		.4byte	0x1589
 5769 1582 2C       		.uleb128 0x2c
 5770 1583 C6000000 		.4byte	0xc6
 5771 1587 05       		.byte	0x5
 5772 1588 00       		.byte	0
 5773 1589 07       		.uleb128 0x7
 5774 158a 83000000 		.4byte	0x83
 5775 158e 2A       		.uleb128 0x2a
 5776 158f 53000000 		.4byte	.LASF109
 5777 1593 01       		.byte	0x1
 5778 1594 56       		.byte	0x56
 5779 1595 9F150000 		.4byte	0x159f
 5780 1599 05       		.uleb128 0x5
 5781 159a 03       		.byte	0x3
 5782 159b 00000000 		.4byte	CapSense_maskTable
 5783 159f 07       		.uleb128 0x7
 5784 15a0 79150000 		.4byte	0x1579
 5785 15a4 2A       		.uleb128 0x2a
 5786 15a5 F9050000 		.4byte	.LASF110
 5787 15a9 01       		.byte	0x1
 5788 15aa 5F       		.byte	0x5f
 5789 15ab B5150000 		.4byte	0x15b5
 5790 15af 05       		.uleb128 0x5
 5791 15b0 03       		.byte	0x3
 5792 15b1 00000000 		.4byte	CapSense_pinShiftTbl
 5793 15b5 07       		.uleb128 0x7
 5794 15b6 BF140000 		.4byte	0x14bf
 5795 15ba 2D       		.uleb128 0x2d
 5796 15bb 3F010000 		.4byte	.LASF111
 5797 15bf 03       		.byte	0x3
 5798 15c0 3F01     		.2byte	0x13f
 5799 15c2 C6150000 		.4byte	0x15c6
 5800 15c6 07       		.uleb128 0x7
 5801 15c7 BF140000 		.4byte	0x14bf
 5802 15cb 2D       		.uleb128 0x2d
 5803 15cc A9040000 		.4byte	.LASF112
 5804 15d0 03       		.byte	0x3
 5805 15d1 4001     		.2byte	0x140
 5806 15d3 D7150000 		.4byte	0x15d7
 5807 15d7 07       		.uleb128 0x7
 5808 15d8 BF140000 		.4byte	0x14bf
 5809 15dc 2A       		.uleb128 0x2a
 5810 15dd 94010000 		.4byte	.LASF113
 5811 15e1 01       		.byte	0x1
 5812 15e2 37       		.byte	0x37
 5813 15e3 6B000000 		.4byte	0x6b
 5814 15e7 05       		.uleb128 0x5
 5815 15e8 03       		.byte	0x3
 5816 15e9 00000000 		.4byte	CapSense_csdTrim1
 5817 15ed 2E       		.uleb128 0x2e
 5818 15ee F8000000 		.4byte	.LASF114
 5819 15f2 F8000000 		.4byte	.LASF114
 5820 15f6 04       		.byte	0x4
 5821 15f7 C5       		.byte	0xc5
 5822 15f8 2E       		.uleb128 0x2e
 5823 15f9 3B050000 		.4byte	.LASF115
 5824 15fd 3B050000 		.4byte	.LASF115
ARM GAS  C:\Users\young\AppData\Local\Temp\ccoFnsFE.s 			page 153


 5825 1601 04       		.byte	0x4
 5826 1602 BD       		.byte	0xbd
 5827 1603 2E       		.uleb128 0x2e
 5828 1604 00000000 		.4byte	.LASF116
 5829 1608 00000000 		.4byte	.LASF116
 5830 160c 04       		.byte	0x4
 5831 160d C0       		.byte	0xc0
 5832 160e 2E       		.uleb128 0x2e
 5833 160f E2090000 		.4byte	.LASF117
 5834 1613 E2090000 		.4byte	.LASF117
 5835 1617 04       		.byte	0x4
 5836 1618 E5       		.byte	0xe5
 5837 1619 2E       		.uleb128 0x2e
 5838 161a E1040000 		.4byte	.LASF118
 5839 161e E1040000 		.4byte	.LASF118
 5840 1622 04       		.byte	0x4
 5841 1623 E6       		.byte	0xe6
 5842 1624 2F       		.uleb128 0x2f
 5843 1625 C7000000 		.4byte	.LASF130
 5844 1629 C7000000 		.4byte	.LASF130
 5845 162d 2E       		.uleb128 0x2e
 5846 162e D7060000 		.4byte	.LASF119
 5847 1632 D7060000 		.4byte	.LASF119
 5848 1636 05       		.byte	0x5
 5849 1637 27       		.byte	0x27
 5850 1638 2E       		.uleb128 0x2e
 5851 1639 8C080000 		.4byte	.LASF120
 5852 163d 8C080000 		.4byte	.LASF120
 5853 1641 06       		.byte	0x6
 5854 1642 27       		.byte	0x27
 5855 1643 2E       		.uleb128 0x2e
 5856 1644 F7070000 		.4byte	.LASF121
 5857 1648 F7070000 		.4byte	.LASF121
 5858 164c 06       		.byte	0x6
 5859 164d 29       		.byte	0x29
 5860 164e 2E       		.uleb128 0x2e
 5861 164f 8C090000 		.4byte	.LASF122
 5862 1653 8C090000 		.4byte	.LASF122
 5863 1657 05       		.byte	0x5
 5864 1658 29       		.byte	0x29
 5865 1659 2E       		.uleb128 0x2e
 5866 165a 2A090000 		.4byte	.LASF123
 5867 165e 2A090000 		.4byte	.LASF123
 5868 1662 06       		.byte	0x6
 5869 1663 1D       		.byte	0x1d
 5870 1664 2E       		.uleb128 0x2e
 5871 1665 D4050000 		.4byte	.LASF124
 5872 1669 D4050000 		.4byte	.LASF124
 5873 166d 05       		.byte	0x5
 5874 166e 1D       		.byte	0x1d
 5875 166f 2E       		.uleb128 0x2e
 5876 1670 BB090000 		.4byte	.LASF125
 5877 1674 BB090000 		.4byte	.LASF125
 5878 1678 04       		.byte	0x4
 5879 1679 C3       		.byte	0xc3
 5880 167a 2E       		.uleb128 0x2e
 5881 167b F7040000 		.4byte	.LASF126
ARM GAS  C:\Users\young\AppData\Local\Temp\ccoFnsFE.s 			page 154


 5882 167f F7040000 		.4byte	.LASF126
 5883 1683 04       		.byte	0x4
 5884 1684 DC       		.byte	0xdc
 5885 1685 00       		.byte	0
 5886              		.section	.debug_abbrev,"",%progbits
 5887              	.Ldebug_abbrev0:
 5888 0000 01       		.uleb128 0x1
 5889 0001 11       		.uleb128 0x11
 5890 0002 01       		.byte	0x1
 5891 0003 25       		.uleb128 0x25
 5892 0004 0E       		.uleb128 0xe
 5893 0005 13       		.uleb128 0x13
 5894 0006 0B       		.uleb128 0xb
 5895 0007 03       		.uleb128 0x3
 5896 0008 0E       		.uleb128 0xe
 5897 0009 1B       		.uleb128 0x1b
 5898 000a 0E       		.uleb128 0xe
 5899 000b 55       		.uleb128 0x55
 5900 000c 17       		.uleb128 0x17
 5901 000d 11       		.uleb128 0x11
 5902 000e 01       		.uleb128 0x1
 5903 000f 10       		.uleb128 0x10
 5904 0010 17       		.uleb128 0x17
 5905 0011 00       		.byte	0
 5906 0012 00       		.byte	0
 5907 0013 02       		.uleb128 0x2
 5908 0014 24       		.uleb128 0x24
 5909 0015 00       		.byte	0
 5910 0016 0B       		.uleb128 0xb
 5911 0017 0B       		.uleb128 0xb
 5912 0018 3E       		.uleb128 0x3e
 5913 0019 0B       		.uleb128 0xb
 5914 001a 03       		.uleb128 0x3
 5915 001b 0E       		.uleb128 0xe
 5916 001c 00       		.byte	0
 5917 001d 00       		.byte	0
 5918 001e 03       		.uleb128 0x3
 5919 001f 24       		.uleb128 0x24
 5920 0020 00       		.byte	0
 5921 0021 0B       		.uleb128 0xb
 5922 0022 0B       		.uleb128 0xb
 5923 0023 3E       		.uleb128 0x3e
 5924 0024 0B       		.uleb128 0xb
 5925 0025 03       		.uleb128 0x3
 5926 0026 08       		.uleb128 0x8
 5927 0027 00       		.byte	0
 5928 0028 00       		.byte	0
 5929 0029 04       		.uleb128 0x4
 5930 002a 16       		.uleb128 0x16
 5931 002b 00       		.byte	0
 5932 002c 03       		.uleb128 0x3
 5933 002d 0E       		.uleb128 0xe
 5934 002e 3A       		.uleb128 0x3a
 5935 002f 0B       		.uleb128 0xb
 5936 0030 3B       		.uleb128 0x3b
 5937 0031 05       		.uleb128 0x5
 5938 0032 49       		.uleb128 0x49
ARM GAS  C:\Users\young\AppData\Local\Temp\ccoFnsFE.s 			page 155


 5939 0033 13       		.uleb128 0x13
 5940 0034 00       		.byte	0
 5941 0035 00       		.byte	0
 5942 0036 05       		.uleb128 0x5
 5943 0037 35       		.uleb128 0x35
 5944 0038 00       		.byte	0
 5945 0039 49       		.uleb128 0x49
 5946 003a 13       		.uleb128 0x13
 5947 003b 00       		.byte	0
 5948 003c 00       		.byte	0
 5949 003d 06       		.uleb128 0x6
 5950 003e 0F       		.uleb128 0xf
 5951 003f 00       		.byte	0
 5952 0040 0B       		.uleb128 0xb
 5953 0041 0B       		.uleb128 0xb
 5954 0042 49       		.uleb128 0x49
 5955 0043 13       		.uleb128 0x13
 5956 0044 00       		.byte	0
 5957 0045 00       		.byte	0
 5958 0046 07       		.uleb128 0x7
 5959 0047 26       		.uleb128 0x26
 5960 0048 00       		.byte	0
 5961 0049 49       		.uleb128 0x49
 5962 004a 13       		.uleb128 0x13
 5963 004b 00       		.byte	0
 5964 004c 00       		.byte	0
 5965 004d 08       		.uleb128 0x8
 5966 004e 2E       		.uleb128 0x2e
 5967 004f 01       		.byte	0x1
 5968 0050 3F       		.uleb128 0x3f
 5969 0051 19       		.uleb128 0x19
 5970 0052 03       		.uleb128 0x3
 5971 0053 0E       		.uleb128 0xe
 5972 0054 3A       		.uleb128 0x3a
 5973 0055 0B       		.uleb128 0xb
 5974 0056 3B       		.uleb128 0x3b
 5975 0057 05       		.uleb128 0x5
 5976 0058 27       		.uleb128 0x27
 5977 0059 19       		.uleb128 0x19
 5978 005a 20       		.uleb128 0x20
 5979 005b 0B       		.uleb128 0xb
 5980 005c 01       		.uleb128 0x1
 5981 005d 13       		.uleb128 0x13
 5982 005e 00       		.byte	0
 5983 005f 00       		.byte	0
 5984 0060 09       		.uleb128 0x9
 5985 0061 05       		.uleb128 0x5
 5986 0062 00       		.byte	0
 5987 0063 03       		.uleb128 0x3
 5988 0064 0E       		.uleb128 0xe
 5989 0065 3A       		.uleb128 0x3a
 5990 0066 0B       		.uleb128 0xb
 5991 0067 3B       		.uleb128 0x3b
 5992 0068 05       		.uleb128 0x5
 5993 0069 49       		.uleb128 0x49
 5994 006a 13       		.uleb128 0x13
 5995 006b 00       		.byte	0
ARM GAS  C:\Users\young\AppData\Local\Temp\ccoFnsFE.s 			page 156


 5996 006c 00       		.byte	0
 5997 006d 0A       		.uleb128 0xa
 5998 006e 34       		.uleb128 0x34
 5999 006f 00       		.byte	0
 6000 0070 03       		.uleb128 0x3
 6001 0071 0E       		.uleb128 0xe
 6002 0072 3A       		.uleb128 0x3a
 6003 0073 0B       		.uleb128 0xb
 6004 0074 3B       		.uleb128 0x3b
 6005 0075 05       		.uleb128 0x5
 6006 0076 49       		.uleb128 0x49
 6007 0077 13       		.uleb128 0x13
 6008 0078 00       		.byte	0
 6009 0079 00       		.byte	0
 6010 007a 0B       		.uleb128 0xb
 6011 007b 2E       		.uleb128 0x2e
 6012 007c 01       		.byte	0x1
 6013 007d 3F       		.uleb128 0x3f
 6014 007e 19       		.uleb128 0x19
 6015 007f 03       		.uleb128 0x3
 6016 0080 0E       		.uleb128 0xe
 6017 0081 3A       		.uleb128 0x3a
 6018 0082 0B       		.uleb128 0xb
 6019 0083 3B       		.uleb128 0x3b
 6020 0084 05       		.uleb128 0x5
 6021 0085 27       		.uleb128 0x27
 6022 0086 19       		.uleb128 0x19
 6023 0087 49       		.uleb128 0x49
 6024 0088 13       		.uleb128 0x13
 6025 0089 20       		.uleb128 0x20
 6026 008a 0B       		.uleb128 0xb
 6027 008b 01       		.uleb128 0x1
 6028 008c 13       		.uleb128 0x13
 6029 008d 00       		.byte	0
 6030 008e 00       		.byte	0
 6031 008f 0C       		.uleb128 0xc
 6032 0090 2E       		.uleb128 0x2e
 6033 0091 01       		.byte	0x1
 6034 0092 3F       		.uleb128 0x3f
 6035 0093 19       		.uleb128 0x19
 6036 0094 03       		.uleb128 0x3
 6037 0095 0E       		.uleb128 0xe
 6038 0096 3A       		.uleb128 0x3a
 6039 0097 0B       		.uleb128 0xb
 6040 0098 3B       		.uleb128 0x3b
 6041 0099 0B       		.uleb128 0xb
 6042 009a 27       		.uleb128 0x27
 6043 009b 19       		.uleb128 0x19
 6044 009c 20       		.uleb128 0x20
 6045 009d 0B       		.uleb128 0xb
 6046 009e 01       		.uleb128 0x1
 6047 009f 13       		.uleb128 0x13
 6048 00a0 00       		.byte	0
 6049 00a1 00       		.byte	0
 6050 00a2 0D       		.uleb128 0xd
 6051 00a3 34       		.uleb128 0x34
 6052 00a4 00       		.byte	0
ARM GAS  C:\Users\young\AppData\Local\Temp\ccoFnsFE.s 			page 157


 6053 00a5 03       		.uleb128 0x3
 6054 00a6 0E       		.uleb128 0xe
 6055 00a7 3A       		.uleb128 0x3a
 6056 00a8 0B       		.uleb128 0xb
 6057 00a9 3B       		.uleb128 0x3b
 6058 00aa 0B       		.uleb128 0xb
 6059 00ab 49       		.uleb128 0x49
 6060 00ac 13       		.uleb128 0x13
 6061 00ad 00       		.byte	0
 6062 00ae 00       		.byte	0
 6063 00af 0E       		.uleb128 0xe
 6064 00b0 2E       		.uleb128 0x2e
 6065 00b1 01       		.byte	0x1
 6066 00b2 31       		.uleb128 0x31
 6067 00b3 13       		.uleb128 0x13
 6068 00b4 11       		.uleb128 0x11
 6069 00b5 01       		.uleb128 0x1
 6070 00b6 12       		.uleb128 0x12
 6071 00b7 06       		.uleb128 0x6
 6072 00b8 40       		.uleb128 0x40
 6073 00b9 18       		.uleb128 0x18
 6074 00ba 9742     		.uleb128 0x2117
 6075 00bc 19       		.uleb128 0x19
 6076 00bd 01       		.uleb128 0x1
 6077 00be 13       		.uleb128 0x13
 6078 00bf 00       		.byte	0
 6079 00c0 00       		.byte	0
 6080 00c1 0F       		.uleb128 0xf
 6081 00c2 34       		.uleb128 0x34
 6082 00c3 00       		.byte	0
 6083 00c4 31       		.uleb128 0x31
 6084 00c5 13       		.uleb128 0x13
 6085 00c6 1C       		.uleb128 0x1c
 6086 00c7 0B       		.uleb128 0xb
 6087 00c8 00       		.byte	0
 6088 00c9 00       		.byte	0
 6089 00ca 10       		.uleb128 0x10
 6090 00cb 1D       		.uleb128 0x1d
 6091 00cc 01       		.byte	0x1
 6092 00cd 31       		.uleb128 0x31
 6093 00ce 13       		.uleb128 0x13
 6094 00cf 52       		.uleb128 0x52
 6095 00d0 01       		.uleb128 0x1
 6096 00d1 55       		.uleb128 0x55
 6097 00d2 17       		.uleb128 0x17
 6098 00d3 58       		.uleb128 0x58
 6099 00d4 0B       		.uleb128 0xb
 6100 00d5 59       		.uleb128 0x59
 6101 00d6 0B       		.uleb128 0xb
 6102 00d7 01       		.uleb128 0x1
 6103 00d8 13       		.uleb128 0x13
 6104 00d9 00       		.byte	0
 6105 00da 00       		.byte	0
 6106 00db 11       		.uleb128 0x11
 6107 00dc 0B       		.uleb128 0xb
 6108 00dd 01       		.byte	0x1
 6109 00de 55       		.uleb128 0x55
ARM GAS  C:\Users\young\AppData\Local\Temp\ccoFnsFE.s 			page 158


 6110 00df 17       		.uleb128 0x17
 6111 00e0 00       		.byte	0
 6112 00e1 00       		.byte	0
 6113 00e2 12       		.uleb128 0x12
 6114 00e3 34       		.uleb128 0x34
 6115 00e4 00       		.byte	0
 6116 00e5 31       		.uleb128 0x31
 6117 00e6 13       		.uleb128 0x13
 6118 00e7 02       		.uleb128 0x2
 6119 00e8 17       		.uleb128 0x17
 6120 00e9 00       		.byte	0
 6121 00ea 00       		.byte	0
 6122 00eb 13       		.uleb128 0x13
 6123 00ec 898201   		.uleb128 0x4109
 6124 00ef 01       		.byte	0x1
 6125 00f0 11       		.uleb128 0x11
 6126 00f1 01       		.uleb128 0x1
 6127 00f2 31       		.uleb128 0x31
 6128 00f3 13       		.uleb128 0x13
 6129 00f4 01       		.uleb128 0x1
 6130 00f5 13       		.uleb128 0x13
 6131 00f6 00       		.byte	0
 6132 00f7 00       		.byte	0
 6133 00f8 14       		.uleb128 0x14
 6134 00f9 8A8201   		.uleb128 0x410a
 6135 00fc 00       		.byte	0
 6136 00fd 02       		.uleb128 0x2
 6137 00fe 18       		.uleb128 0x18
 6138 00ff 9142     		.uleb128 0x2111
 6139 0101 18       		.uleb128 0x18
 6140 0102 00       		.byte	0
 6141 0103 00       		.byte	0
 6142 0104 15       		.uleb128 0x15
 6143 0105 898201   		.uleb128 0x4109
 6144 0108 01       		.byte	0x1
 6145 0109 11       		.uleb128 0x11
 6146 010a 01       		.uleb128 0x1
 6147 010b 31       		.uleb128 0x31
 6148 010c 13       		.uleb128 0x13
 6149 010d 00       		.byte	0
 6150 010e 00       		.byte	0
 6151 010f 16       		.uleb128 0x16
 6152 0110 1D       		.uleb128 0x1d
 6153 0111 01       		.byte	0x1
 6154 0112 31       		.uleb128 0x31
 6155 0113 13       		.uleb128 0x13
 6156 0114 52       		.uleb128 0x52
 6157 0115 01       		.uleb128 0x1
 6158 0116 55       		.uleb128 0x55
 6159 0117 17       		.uleb128 0x17
 6160 0118 58       		.uleb128 0x58
 6161 0119 0B       		.uleb128 0xb
 6162 011a 59       		.uleb128 0x59
 6163 011b 05       		.uleb128 0x5
 6164 011c 00       		.byte	0
 6165 011d 00       		.byte	0
 6166 011e 17       		.uleb128 0x17
ARM GAS  C:\Users\young\AppData\Local\Temp\ccoFnsFE.s 			page 159


 6167 011f 05       		.uleb128 0x5
 6168 0120 00       		.byte	0
 6169 0121 31       		.uleb128 0x31
 6170 0122 13       		.uleb128 0x13
 6171 0123 02       		.uleb128 0x2
 6172 0124 17       		.uleb128 0x17
 6173 0125 00       		.byte	0
 6174 0126 00       		.byte	0
 6175 0127 18       		.uleb128 0x18
 6176 0128 898201   		.uleb128 0x4109
 6177 012b 00       		.byte	0
 6178 012c 11       		.uleb128 0x11
 6179 012d 01       		.uleb128 0x1
 6180 012e 31       		.uleb128 0x31
 6181 012f 13       		.uleb128 0x13
 6182 0130 00       		.byte	0
 6183 0131 00       		.byte	0
 6184 0132 19       		.uleb128 0x19
 6185 0133 1D       		.uleb128 0x1d
 6186 0134 01       		.byte	0x1
 6187 0135 31       		.uleb128 0x31
 6188 0136 13       		.uleb128 0x13
 6189 0137 11       		.uleb128 0x11
 6190 0138 01       		.uleb128 0x1
 6191 0139 12       		.uleb128 0x12
 6192 013a 06       		.uleb128 0x6
 6193 013b 58       		.uleb128 0x58
 6194 013c 0B       		.uleb128 0xb
 6195 013d 59       		.uleb128 0x59
 6196 013e 0B       		.uleb128 0xb
 6197 013f 01       		.uleb128 0x1
 6198 0140 13       		.uleb128 0x13
 6199 0141 00       		.byte	0
 6200 0142 00       		.byte	0
 6201 0143 1A       		.uleb128 0x1a
 6202 0144 05       		.uleb128 0x5
 6203 0145 00       		.byte	0
 6204 0146 31       		.uleb128 0x31
 6205 0147 13       		.uleb128 0x13
 6206 0148 1C       		.uleb128 0x1c
 6207 0149 0B       		.uleb128 0xb
 6208 014a 00       		.byte	0
 6209 014b 00       		.byte	0
 6210 014c 1B       		.uleb128 0x1b
 6211 014d 0B       		.uleb128 0xb
 6212 014e 01       		.byte	0x1
 6213 014f 11       		.uleb128 0x11
 6214 0150 01       		.uleb128 0x1
 6215 0151 12       		.uleb128 0x12
 6216 0152 06       		.uleb128 0x6
 6217 0153 00       		.byte	0
 6218 0154 00       		.byte	0
 6219 0155 1C       		.uleb128 0x1c
 6220 0156 2E       		.uleb128 0x2e
 6221 0157 01       		.byte	0x1
 6222 0158 3F       		.uleb128 0x3f
 6223 0159 19       		.uleb128 0x19
ARM GAS  C:\Users\young\AppData\Local\Temp\ccoFnsFE.s 			page 160


 6224 015a 03       		.uleb128 0x3
 6225 015b 0E       		.uleb128 0xe
 6226 015c 3A       		.uleb128 0x3a
 6227 015d 0B       		.uleb128 0xb
 6228 015e 3B       		.uleb128 0x3b
 6229 015f 05       		.uleb128 0x5
 6230 0160 27       		.uleb128 0x27
 6231 0161 19       		.uleb128 0x19
 6232 0162 11       		.uleb128 0x11
 6233 0163 01       		.uleb128 0x1
 6234 0164 12       		.uleb128 0x12
 6235 0165 06       		.uleb128 0x6
 6236 0166 40       		.uleb128 0x40
 6237 0167 18       		.uleb128 0x18
 6238 0168 9742     		.uleb128 0x2117
 6239 016a 19       		.uleb128 0x19
 6240 016b 01       		.uleb128 0x1
 6241 016c 13       		.uleb128 0x13
 6242 016d 00       		.byte	0
 6243 016e 00       		.byte	0
 6244 016f 1D       		.uleb128 0x1d
 6245 0170 34       		.uleb128 0x34
 6246 0171 00       		.byte	0
 6247 0172 03       		.uleb128 0x3
 6248 0173 0E       		.uleb128 0xe
 6249 0174 3A       		.uleb128 0x3a
 6250 0175 0B       		.uleb128 0xb
 6251 0176 3B       		.uleb128 0x3b
 6252 0177 05       		.uleb128 0x5
 6253 0178 49       		.uleb128 0x49
 6254 0179 13       		.uleb128 0x13
 6255 017a 02       		.uleb128 0x2
 6256 017b 18       		.uleb128 0x18
 6257 017c 00       		.byte	0
 6258 017d 00       		.byte	0
 6259 017e 1E       		.uleb128 0x1e
 6260 017f 1D       		.uleb128 0x1d
 6261 0180 01       		.byte	0x1
 6262 0181 31       		.uleb128 0x31
 6263 0182 13       		.uleb128 0x13
 6264 0183 11       		.uleb128 0x11
 6265 0184 01       		.uleb128 0x1
 6266 0185 12       		.uleb128 0x12
 6267 0186 06       		.uleb128 0x6
 6268 0187 58       		.uleb128 0x58
 6269 0188 0B       		.uleb128 0xb
 6270 0189 59       		.uleb128 0x59
 6271 018a 05       		.uleb128 0x5
 6272 018b 01       		.uleb128 0x1
 6273 018c 13       		.uleb128 0x13
 6274 018d 00       		.byte	0
 6275 018e 00       		.byte	0
 6276 018f 1F       		.uleb128 0x1f
 6277 0190 34       		.uleb128 0x34
 6278 0191 00       		.byte	0
 6279 0192 31       		.uleb128 0x31
 6280 0193 13       		.uleb128 0x13
ARM GAS  C:\Users\young\AppData\Local\Temp\ccoFnsFE.s 			page 161


 6281 0194 00       		.byte	0
 6282 0195 00       		.byte	0
 6283 0196 20       		.uleb128 0x20
 6284 0197 1D       		.uleb128 0x1d
 6285 0198 01       		.byte	0x1
 6286 0199 31       		.uleb128 0x31
 6287 019a 13       		.uleb128 0x13
 6288 019b 11       		.uleb128 0x11
 6289 019c 01       		.uleb128 0x1
 6290 019d 12       		.uleb128 0x12
 6291 019e 06       		.uleb128 0x6
 6292 019f 58       		.uleb128 0x58
 6293 01a0 0B       		.uleb128 0xb
 6294 01a1 59       		.uleb128 0x59
 6295 01a2 0B       		.uleb128 0xb
 6296 01a3 00       		.byte	0
 6297 01a4 00       		.byte	0
 6298 01a5 21       		.uleb128 0x21
 6299 01a6 2E       		.uleb128 0x2e
 6300 01a7 00       		.byte	0
 6301 01a8 3F       		.uleb128 0x3f
 6302 01a9 19       		.uleb128 0x19
 6303 01aa 03       		.uleb128 0x3
 6304 01ab 0E       		.uleb128 0xe
 6305 01ac 3A       		.uleb128 0x3a
 6306 01ad 0B       		.uleb128 0xb
 6307 01ae 3B       		.uleb128 0x3b
 6308 01af 05       		.uleb128 0x5
 6309 01b0 27       		.uleb128 0x27
 6310 01b1 19       		.uleb128 0x19
 6311 01b2 49       		.uleb128 0x49
 6312 01b3 13       		.uleb128 0x13
 6313 01b4 11       		.uleb128 0x11
 6314 01b5 01       		.uleb128 0x1
 6315 01b6 12       		.uleb128 0x12
 6316 01b7 06       		.uleb128 0x6
 6317 01b8 40       		.uleb128 0x40
 6318 01b9 18       		.uleb128 0x18
 6319 01ba 9742     		.uleb128 0x2117
 6320 01bc 19       		.uleb128 0x19
 6321 01bd 00       		.byte	0
 6322 01be 00       		.byte	0
 6323 01bf 22       		.uleb128 0x22
 6324 01c0 2E       		.uleb128 0x2e
 6325 01c1 01       		.byte	0x1
 6326 01c2 3F       		.uleb128 0x3f
 6327 01c3 19       		.uleb128 0x19
 6328 01c4 03       		.uleb128 0x3
 6329 01c5 0E       		.uleb128 0xe
 6330 01c6 3A       		.uleb128 0x3a
 6331 01c7 0B       		.uleb128 0xb
 6332 01c8 3B       		.uleb128 0x3b
 6333 01c9 05       		.uleb128 0x5
 6334 01ca 27       		.uleb128 0x27
 6335 01cb 19       		.uleb128 0x19
 6336 01cc 49       		.uleb128 0x49
 6337 01cd 13       		.uleb128 0x13
ARM GAS  C:\Users\young\AppData\Local\Temp\ccoFnsFE.s 			page 162


 6338 01ce 11       		.uleb128 0x11
 6339 01cf 01       		.uleb128 0x1
 6340 01d0 12       		.uleb128 0x12
 6341 01d1 06       		.uleb128 0x6
 6342 01d2 40       		.uleb128 0x40
 6343 01d3 18       		.uleb128 0x18
 6344 01d4 9742     		.uleb128 0x2117
 6345 01d6 19       		.uleb128 0x19
 6346 01d7 01       		.uleb128 0x1
 6347 01d8 13       		.uleb128 0x13
 6348 01d9 00       		.byte	0
 6349 01da 00       		.byte	0
 6350 01db 23       		.uleb128 0x23
 6351 01dc 05       		.uleb128 0x5
 6352 01dd 00       		.byte	0
 6353 01de 03       		.uleb128 0x3
 6354 01df 0E       		.uleb128 0xe
 6355 01e0 3A       		.uleb128 0x3a
 6356 01e1 0B       		.uleb128 0xb
 6357 01e2 3B       		.uleb128 0x3b
 6358 01e3 05       		.uleb128 0x5
 6359 01e4 49       		.uleb128 0x49
 6360 01e5 13       		.uleb128 0x13
 6361 01e6 02       		.uleb128 0x2
 6362 01e7 17       		.uleb128 0x17
 6363 01e8 00       		.byte	0
 6364 01e9 00       		.byte	0
 6365 01ea 24       		.uleb128 0x24
 6366 01eb 05       		.uleb128 0x5
 6367 01ec 00       		.byte	0
 6368 01ed 03       		.uleb128 0x3
 6369 01ee 0E       		.uleb128 0xe
 6370 01ef 3A       		.uleb128 0x3a
 6371 01f0 0B       		.uleb128 0xb
 6372 01f1 3B       		.uleb128 0x3b
 6373 01f2 05       		.uleb128 0x5
 6374 01f3 49       		.uleb128 0x49
 6375 01f4 13       		.uleb128 0x13
 6376 01f5 02       		.uleb128 0x2
 6377 01f6 18       		.uleb128 0x18
 6378 01f7 00       		.byte	0
 6379 01f8 00       		.byte	0
 6380 01f9 25       		.uleb128 0x25
 6381 01fa 1D       		.uleb128 0x1d
 6382 01fb 01       		.byte	0x1
 6383 01fc 31       		.uleb128 0x31
 6384 01fd 13       		.uleb128 0x13
 6385 01fe 52       		.uleb128 0x52
 6386 01ff 01       		.uleb128 0x1
 6387 0200 55       		.uleb128 0x55
 6388 0201 17       		.uleb128 0x17
 6389 0202 58       		.uleb128 0x58
 6390 0203 0B       		.uleb128 0xb
 6391 0204 59       		.uleb128 0x59
 6392 0205 05       		.uleb128 0x5
 6393 0206 01       		.uleb128 0x1
 6394 0207 13       		.uleb128 0x13
ARM GAS  C:\Users\young\AppData\Local\Temp\ccoFnsFE.s 			page 163


 6395 0208 00       		.byte	0
 6396 0209 00       		.byte	0
 6397 020a 26       		.uleb128 0x26
 6398 020b 1D       		.uleb128 0x1d
 6399 020c 01       		.byte	0x1
 6400 020d 31       		.uleb128 0x31
 6401 020e 13       		.uleb128 0x13
 6402 020f 11       		.uleb128 0x11
 6403 0210 01       		.uleb128 0x1
 6404 0211 12       		.uleb128 0x12
 6405 0212 06       		.uleb128 0x6
 6406 0213 58       		.uleb128 0x58
 6407 0214 0B       		.uleb128 0xb
 6408 0215 59       		.uleb128 0x59
 6409 0216 05       		.uleb128 0x5
 6410 0217 00       		.byte	0
 6411 0218 00       		.byte	0
 6412 0219 27       		.uleb128 0x27
 6413 021a 34       		.uleb128 0x34
 6414 021b 00       		.byte	0
 6415 021c 03       		.uleb128 0x3
 6416 021d 0E       		.uleb128 0xe
 6417 021e 3A       		.uleb128 0x3a
 6418 021f 0B       		.uleb128 0xb
 6419 0220 3B       		.uleb128 0x3b
 6420 0221 05       		.uleb128 0x5
 6421 0222 49       		.uleb128 0x49
 6422 0223 13       		.uleb128 0x13
 6423 0224 02       		.uleb128 0x2
 6424 0225 17       		.uleb128 0x17
 6425 0226 00       		.byte	0
 6426 0227 00       		.byte	0
 6427 0228 28       		.uleb128 0x28
 6428 0229 34       		.uleb128 0x34
 6429 022a 00       		.byte	0
 6430 022b 31       		.uleb128 0x31
 6431 022c 13       		.uleb128 0x13
 6432 022d 02       		.uleb128 0x2
 6433 022e 18       		.uleb128 0x18
 6434 022f 00       		.byte	0
 6435 0230 00       		.byte	0
 6436 0231 29       		.uleb128 0x29
 6437 0232 05       		.uleb128 0x5
 6438 0233 00       		.byte	0
 6439 0234 31       		.uleb128 0x31
 6440 0235 13       		.uleb128 0x13
 6441 0236 02       		.uleb128 0x2
 6442 0237 18       		.uleb128 0x18
 6443 0238 00       		.byte	0
 6444 0239 00       		.byte	0
 6445 023a 2A       		.uleb128 0x2a
 6446 023b 34       		.uleb128 0x34
 6447 023c 00       		.byte	0
 6448 023d 03       		.uleb128 0x3
 6449 023e 0E       		.uleb128 0xe
 6450 023f 3A       		.uleb128 0x3a
 6451 0240 0B       		.uleb128 0xb
ARM GAS  C:\Users\young\AppData\Local\Temp\ccoFnsFE.s 			page 164


 6452 0241 3B       		.uleb128 0x3b
 6453 0242 0B       		.uleb128 0xb
 6454 0243 49       		.uleb128 0x49
 6455 0244 13       		.uleb128 0x13
 6456 0245 3F       		.uleb128 0x3f
 6457 0246 19       		.uleb128 0x19
 6458 0247 02       		.uleb128 0x2
 6459 0248 18       		.uleb128 0x18
 6460 0249 00       		.byte	0
 6461 024a 00       		.byte	0
 6462 024b 2B       		.uleb128 0x2b
 6463 024c 01       		.uleb128 0x1
 6464 024d 01       		.byte	0x1
 6465 024e 49       		.uleb128 0x49
 6466 024f 13       		.uleb128 0x13
 6467 0250 01       		.uleb128 0x1
 6468 0251 13       		.uleb128 0x13
 6469 0252 00       		.byte	0
 6470 0253 00       		.byte	0
 6471 0254 2C       		.uleb128 0x2c
 6472 0255 21       		.uleb128 0x21
 6473 0256 00       		.byte	0
 6474 0257 49       		.uleb128 0x49
 6475 0258 13       		.uleb128 0x13
 6476 0259 2F       		.uleb128 0x2f
 6477 025a 0B       		.uleb128 0xb
 6478 025b 00       		.byte	0
 6479 025c 00       		.byte	0
 6480 025d 2D       		.uleb128 0x2d
 6481 025e 34       		.uleb128 0x34
 6482 025f 00       		.byte	0
 6483 0260 03       		.uleb128 0x3
 6484 0261 0E       		.uleb128 0xe
 6485 0262 3A       		.uleb128 0x3a
 6486 0263 0B       		.uleb128 0xb
 6487 0264 3B       		.uleb128 0x3b
 6488 0265 05       		.uleb128 0x5
 6489 0266 49       		.uleb128 0x49
 6490 0267 13       		.uleb128 0x13
 6491 0268 3F       		.uleb128 0x3f
 6492 0269 19       		.uleb128 0x19
 6493 026a 3C       		.uleb128 0x3c
 6494 026b 19       		.uleb128 0x19
 6495 026c 00       		.byte	0
 6496 026d 00       		.byte	0
 6497 026e 2E       		.uleb128 0x2e
 6498 026f 2E       		.uleb128 0x2e
 6499 0270 00       		.byte	0
 6500 0271 3F       		.uleb128 0x3f
 6501 0272 19       		.uleb128 0x19
 6502 0273 3C       		.uleb128 0x3c
 6503 0274 19       		.uleb128 0x19
 6504 0275 6E       		.uleb128 0x6e
 6505 0276 0E       		.uleb128 0xe
 6506 0277 03       		.uleb128 0x3
 6507 0278 0E       		.uleb128 0xe
 6508 0279 3A       		.uleb128 0x3a
ARM GAS  C:\Users\young\AppData\Local\Temp\ccoFnsFE.s 			page 165


 6509 027a 0B       		.uleb128 0xb
 6510 027b 3B       		.uleb128 0x3b
 6511 027c 0B       		.uleb128 0xb
 6512 027d 00       		.byte	0
 6513 027e 00       		.byte	0
 6514 027f 2F       		.uleb128 0x2f
 6515 0280 2E       		.uleb128 0x2e
 6516 0281 00       		.byte	0
 6517 0282 3F       		.uleb128 0x3f
 6518 0283 19       		.uleb128 0x19
 6519 0284 3C       		.uleb128 0x3c
 6520 0285 19       		.uleb128 0x19
 6521 0286 6E       		.uleb128 0x6e
 6522 0287 0E       		.uleb128 0xe
 6523 0288 03       		.uleb128 0x3
 6524 0289 0E       		.uleb128 0xe
 6525 028a 00       		.byte	0
 6526 028b 00       		.byte	0
 6527 028c 00       		.byte	0
 6528              		.section	.debug_loc,"",%progbits
 6529              	.Ldebug_loc0:
 6530              	.LLST0:
 6531 0000 22000000 		.4byte	.LVL2
 6532 0004 28000000 		.4byte	.LVL3
 6533 0008 0600     		.2byte	0x6
 6534 000a 72       		.byte	0x72
 6535 000b 00       		.sleb128 0
 6536 000c 08       		.byte	0x8
 6537 000d F0       		.byte	0xf0
 6538 000e 1A       		.byte	0x1a
 6539 000f 9F       		.byte	0x9f
 6540 0010 28000000 		.4byte	.LVL3
 6541 0014 2C000000 		.4byte	.LVL4
 6542 0018 0C00     		.2byte	0xc
 6543 001a 72       		.byte	0x72
 6544 001b 00       		.sleb128 0
 6545 001c 08       		.byte	0x8
 6546 001d F0       		.byte	0xf0
 6547 001e 1A       		.byte	0x1a
 6548 001f 70       		.byte	0x70
 6549 0020 00       		.sleb128 0
 6550 0021 73       		.byte	0x73
 6551 0022 00       		.sleb128 0
 6552 0023 1A       		.byte	0x1a
 6553 0024 21       		.byte	0x21
 6554 0025 9F       		.byte	0x9f
 6555 0026 2E000000 		.4byte	.LVL5
 6556 002a 36000000 		.4byte	.LVL6
 6557 002e 0100     		.2byte	0x1
 6558 0030 52       		.byte	0x52
 6559 0031 36000000 		.4byte	.LVL6
 6560 0035 3C000000 		.4byte	.LVL7
 6561 0039 0100     		.2byte	0x1
 6562 003b 53       		.byte	0x53
 6563 003c 3C000000 		.4byte	.LVL7
 6564 0040 40000000 		.4byte	.LVL8
 6565 0044 0200     		.2byte	0x2
ARM GAS  C:\Users\young\AppData\Local\Temp\ccoFnsFE.s 			page 166


 6566 0046 71       		.byte	0x71
 6567 0047 00       		.sleb128 0
 6568 0048 48000000 		.4byte	.LVL9
 6569 004c 4C000000 		.4byte	.LVL10
 6570 0050 0100     		.2byte	0x1
 6571 0052 51       		.byte	0x51
 6572 0053 4C000000 		.4byte	.LVL10
 6573 0057 57000000 		.4byte	.LVL12-1
 6574 005b 0100     		.2byte	0x1
 6575 005d 53       		.byte	0x53
 6576 005e 00000000 		.4byte	0
 6577 0062 00000000 		.4byte	0
 6578              	.LLST1:
 6579 0066 6E000000 		.4byte	.LVL16
 6580 006a 7C000000 		.4byte	.LVL18
 6581 006e 0200     		.2byte	0x2
 6582 0070 30       		.byte	0x30
 6583 0071 9F       		.byte	0x9f
 6584 0072 7C000000 		.4byte	.LVL18
 6585 0076 8A000000 		.4byte	.LVL21
 6586 007a 0100     		.2byte	0x1
 6587 007c 55       		.byte	0x55
 6588 007d 8A000000 		.4byte	.LVL21
 6589 0081 A4000000 		.4byte	.LVL25
 6590 0085 0300     		.2byte	0x3
 6591 0087 75       		.byte	0x75
 6592 0088 7F       		.sleb128 -1
 6593 0089 9F       		.byte	0x9f
 6594 008a A4000000 		.4byte	.LVL25
 6595 008e E4000000 		.4byte	.LVL30
 6596 0092 0100     		.2byte	0x1
 6597 0094 55       		.byte	0x55
 6598 0095 00000000 		.4byte	0
 6599 0099 00000000 		.4byte	0
 6600              	.LLST2:
 6601 009d 7C000000 		.4byte	.LVL18
 6602 00a1 8A000000 		.4byte	.LVL21
 6603 00a5 0100     		.2byte	0x1
 6604 00a7 55       		.byte	0x55
 6605 00a8 8A000000 		.4byte	.LVL21
 6606 00ac A4000000 		.4byte	.LVL25
 6607 00b0 0300     		.2byte	0x3
 6608 00b2 75       		.byte	0x75
 6609 00b3 7F       		.sleb128 -1
 6610 00b4 9F       		.byte	0x9f
 6611 00b5 BC000000 		.4byte	.LVL26
 6612 00b9 E4000000 		.4byte	.LVL29
 6613 00bd 0100     		.2byte	0x1
 6614 00bf 55       		.byte	0x55
 6615 00c0 00000000 		.4byte	0
 6616 00c4 00000000 		.4byte	0
 6617              	.LLST3:
 6618 00c8 80000000 		.4byte	.LVL19
 6619 00cc 95000000 		.4byte	.LVL24-1
 6620 00d0 0100     		.2byte	0x1
 6621 00d2 50       		.byte	0x50
 6622 00d3 00000000 		.4byte	0
ARM GAS  C:\Users\young\AppData\Local\Temp\ccoFnsFE.s 			page 167


 6623 00d7 00000000 		.4byte	0
 6624              	.LLST4:
 6625 00db 88000000 		.4byte	.LVL20
 6626 00df 8E000000 		.4byte	.LVL23
 6627 00e3 0100     		.2byte	0x1
 6628 00e5 53       		.byte	0x53
 6629 00e6 8E000000 		.4byte	.LVL23
 6630 00ea A4000000 		.4byte	.LVL25
 6631 00ee 0100     		.2byte	0x1
 6632 00f0 57       		.byte	0x57
 6633 00f1 00000000 		.4byte	0
 6634 00f5 00000000 		.4byte	0
 6635              	.LLST5:
 6636 00f9 7C000000 		.4byte	.LVL18
 6637 00fd 8A000000 		.4byte	.LVL21
 6638 0101 0E00     		.2byte	0xe
 6639 0103 75       		.byte	0x75
 6640 0104 00       		.sleb128 0
 6641 0105 03       		.byte	0x3
 6642 0106 00000000 		.4byte	CapSense_portTable
 6643 010a 22       		.byte	0x22
 6644 010b 94       		.byte	0x94
 6645 010c 01       		.byte	0x1
 6646 010d 08       		.byte	0x8
 6647 010e FF       		.byte	0xff
 6648 010f 1A       		.byte	0x1a
 6649 0110 9F       		.byte	0x9f
 6650 0111 8A000000 		.4byte	.LVL21
 6651 0115 A4000000 		.4byte	.LVL25
 6652 0119 0E00     		.2byte	0xe
 6653 011b 75       		.byte	0x75
 6654 011c 00       		.sleb128 0
 6655 011d 03       		.byte	0x3
 6656 011e FFFFFFFF 		.4byte	CapSense_portTable-1
 6657 0122 22       		.byte	0x22
 6658 0123 94       		.byte	0x94
 6659 0124 01       		.byte	0x1
 6660 0125 08       		.byte	0x8
 6661 0126 FF       		.byte	0xff
 6662 0127 1A       		.byte	0x1a
 6663 0128 9F       		.byte	0x9f
 6664 0129 BC000000 		.4byte	.LVL26
 6665 012d E4000000 		.4byte	.LVL29
 6666 0131 0E00     		.2byte	0xe
 6667 0133 75       		.byte	0x75
 6668 0134 00       		.sleb128 0
 6669 0135 03       		.byte	0x3
 6670 0136 00000000 		.4byte	CapSense_portTable
 6671 013a 22       		.byte	0x22
 6672 013b 94       		.byte	0x94
 6673 013c 01       		.byte	0x1
 6674 013d 08       		.byte	0x8
 6675 013e FF       		.byte	0xff
 6676 013f 1A       		.byte	0x1a
 6677 0140 9F       		.byte	0x9f
 6678 0141 00000000 		.4byte	0
 6679 0145 00000000 		.4byte	0
ARM GAS  C:\Users\young\AppData\Local\Temp\ccoFnsFE.s 			page 168


 6680              	.LLST6:
 6681 0149 7C000000 		.4byte	.LVL18
 6682 014d A4000000 		.4byte	.LVL25
 6683 0151 0500     		.2byte	0x5
 6684 0153 76       		.byte	0x76
 6685 0154 00       		.sleb128 0
 6686 0155 32       		.byte	0x32
 6687 0156 24       		.byte	0x24
 6688 0157 9F       		.byte	0x9f
 6689 0158 C2000000 		.4byte	.LVL27
 6690 015c E4000000 		.4byte	.LVL29
 6691 0160 0500     		.2byte	0x5
 6692 0162 76       		.byte	0x76
 6693 0163 00       		.sleb128 0
 6694 0164 32       		.byte	0x32
 6695 0165 24       		.byte	0x24
 6696 0166 9F       		.byte	0x9f
 6697 0167 00000000 		.4byte	0
 6698 016b 00000000 		.4byte	0
 6699              	.LLST7:
 6700 016f 7C000000 		.4byte	.LVL18
 6701 0173 A4000000 		.4byte	.LVL25
 6702 0177 0100     		.2byte	0x1
 6703 0179 54       		.byte	0x54
 6704 017a D8000000 		.4byte	.LVL28
 6705 017e E4000000 		.4byte	.LVL29
 6706 0182 0100     		.2byte	0x1
 6707 0184 54       		.byte	0x54
 6708 0185 00000000 		.4byte	0
 6709 0189 00000000 		.4byte	0
 6710              	.LLST8:
 6711 018d D8000000 		.4byte	.LVL28
 6712 0191 E4000000 		.4byte	.LVL29
 6713 0195 0200     		.2byte	0x2
 6714 0197 30       		.byte	0x30
 6715 0198 9F       		.byte	0x9f
 6716 0199 00000000 		.4byte	0
 6717 019d 00000000 		.4byte	0
 6718              	.LLST9:
 6719 01a1 7C000000 		.4byte	.LVL18
 6720 01a5 7F000000 		.4byte	.LVL19-1
 6721 01a9 0600     		.2byte	0x6
 6722 01ab 70       		.byte	0x70
 6723 01ac 00       		.sleb128 0
 6724 01ad 08       		.byte	0x8
 6725 01ae FF       		.byte	0xff
 6726 01af 1A       		.byte	0x1a
 6727 01b0 9F       		.byte	0x9f
 6728 01b1 D8000000 		.4byte	.LVL28
 6729 01b5 E4000000 		.4byte	.LVL29
 6730 01b9 0600     		.2byte	0x6
 6731 01bb 70       		.byte	0x70
 6732 01bc 00       		.sleb128 0
 6733 01bd 08       		.byte	0x8
 6734 01be FF       		.byte	0xff
 6735 01bf 1A       		.byte	0x1a
 6736 01c0 9F       		.byte	0x9f
ARM GAS  C:\Users\young\AppData\Local\Temp\ccoFnsFE.s 			page 169


 6737 01c1 00000000 		.4byte	0
 6738 01c5 00000000 		.4byte	0
 6739              	.LLST10:
 6740 01c9 6A000000 		.4byte	.LVL15
 6741 01cd 70000000 		.4byte	.LVL17
 6742 01d1 0100     		.2byte	0x1
 6743 01d3 53       		.byte	0x53
 6744 01d4 70000000 		.4byte	.LVL17
 6745 01d8 7C000000 		.4byte	.LVL18
 6746 01dc 0200     		.2byte	0x2
 6747 01de 74       		.byte	0x74
 6748 01df 00       		.sleb128 0
 6749 01e0 00000000 		.4byte	0
 6750 01e4 00000000 		.4byte	0
 6751              	.LLST11:
 6752 01e8 0A000000 		.4byte	.LVL31
 6753 01ec 10000000 		.4byte	.LVL32
 6754 01f0 0600     		.2byte	0x6
 6755 01f2 72       		.byte	0x72
 6756 01f3 00       		.sleb128 0
 6757 01f4 08       		.byte	0x8
 6758 01f5 F0       		.byte	0xf0
 6759 01f6 1A       		.byte	0x1a
 6760 01f7 9F       		.byte	0x9f
 6761 01f8 10000000 		.4byte	.LVL32
 6762 01fc 12000000 		.4byte	.LVL33
 6763 0200 0C00     		.2byte	0xc
 6764 0202 72       		.byte	0x72
 6765 0203 00       		.sleb128 0
 6766 0204 08       		.byte	0x8
 6767 0205 F0       		.byte	0xf0
 6768 0206 1A       		.byte	0x1a
 6769 0207 70       		.byte	0x70
 6770 0208 00       		.sleb128 0
 6771 0209 73       		.byte	0x73
 6772 020a 00       		.sleb128 0
 6773 020b 1A       		.byte	0x1a
 6774 020c 21       		.byte	0x21
 6775 020d 9F       		.byte	0x9f
 6776 020e 14000000 		.4byte	.LVL34
 6777 0212 1A000000 		.4byte	.LVL35
 6778 0216 0100     		.2byte	0x1
 6779 0218 52       		.byte	0x52
 6780 0219 1A000000 		.4byte	.LVL35
 6781 021d 20000000 		.4byte	.LVL36
 6782 0221 0100     		.2byte	0x1
 6783 0223 53       		.byte	0x53
 6784 0224 20000000 		.4byte	.LVL36
 6785 0228 24000000 		.4byte	.LVL37
 6786 022c 0200     		.2byte	0x2
 6787 022e 71       		.byte	0x71
 6788 022f 00       		.sleb128 0
 6789 0230 30000000 		.4byte	.LVL38
 6790 0234 32000000 		.4byte	.LVL39
 6791 0238 0100     		.2byte	0x1
 6792 023a 51       		.byte	0x51
 6793 023b 32000000 		.4byte	.LVL39
ARM GAS  C:\Users\young\AppData\Local\Temp\ccoFnsFE.s 			page 170


 6794 023f 3D000000 		.4byte	.LVL41-1
 6795 0243 0100     		.2byte	0x1
 6796 0245 53       		.byte	0x53
 6797 0246 00000000 		.4byte	0
 6798 024a 00000000 		.4byte	0
 6799              	.LLST12:
 6800 024e 2C000000 		.4byte	.LVL50
 6801 0252 35000000 		.4byte	.LVL52-1
 6802 0256 0100     		.2byte	0x1
 6803 0258 53       		.byte	0x53
 6804 0259 00000000 		.4byte	0
 6805 025d 00000000 		.4byte	0
 6806              	.LLST13:
 6807 0261 3C000000 		.4byte	.LVL59
 6808 0265 47000000 		.4byte	.LVL61-1
 6809 0269 0100     		.2byte	0x1
 6810 026b 53       		.byte	0x53
 6811 026c 00000000 		.4byte	0
 6812 0270 00000000 		.4byte	0
 6813              	.LLST14:
 6814 0274 74000000 		.4byte	.LVL63
 6815 0278 7A000000 		.4byte	.LVL64
 6816 027c 0600     		.2byte	0x6
 6817 027e 72       		.byte	0x72
 6818 027f 00       		.sleb128 0
 6819 0280 08       		.byte	0x8
 6820 0281 F0       		.byte	0xf0
 6821 0282 1A       		.byte	0x1a
 6822 0283 9F       		.byte	0x9f
 6823 0284 7A000000 		.4byte	.LVL64
 6824 0288 7E000000 		.4byte	.LVL65
 6825 028c 0C00     		.2byte	0xc
 6826 028e 72       		.byte	0x72
 6827 028f 00       		.sleb128 0
 6828 0290 08       		.byte	0x8
 6829 0291 F0       		.byte	0xf0
 6830 0292 1A       		.byte	0x1a
 6831 0293 70       		.byte	0x70
 6832 0294 00       		.sleb128 0
 6833 0295 73       		.byte	0x73
 6834 0296 00       		.sleb128 0
 6835 0297 1A       		.byte	0x1a
 6836 0298 21       		.byte	0x21
 6837 0299 9F       		.byte	0x9f
 6838 029a 80000000 		.4byte	.LVL66
 6839 029e 88000000 		.4byte	.LVL67
 6840 02a2 0100     		.2byte	0x1
 6841 02a4 52       		.byte	0x52
 6842 02a5 88000000 		.4byte	.LVL67
 6843 02a9 8E000000 		.4byte	.LVL68
 6844 02ad 0100     		.2byte	0x1
 6845 02af 53       		.byte	0x53
 6846 02b0 8E000000 		.4byte	.LVL68
 6847 02b4 92000000 		.4byte	.LVL69
 6848 02b8 0200     		.2byte	0x2
 6849 02ba 71       		.byte	0x71
 6850 02bb 00       		.sleb128 0
ARM GAS  C:\Users\young\AppData\Local\Temp\ccoFnsFE.s 			page 171


 6851 02bc 9A000000 		.4byte	.LVL70
 6852 02c0 9E000000 		.4byte	.LVL71
 6853 02c4 0100     		.2byte	0x1
 6854 02c6 51       		.byte	0x51
 6855 02c7 9E000000 		.4byte	.LVL71
 6856 02cb A9000000 		.4byte	.LVL73-1
 6857 02cf 0100     		.2byte	0x1
 6858 02d1 53       		.byte	0x53
 6859 02d2 00000000 		.4byte	0
 6860 02d6 00000000 		.4byte	0
 6861              	.LLST15:
 6862 02da C0000000 		.4byte	.LVL77
 6863 02de CE000000 		.4byte	.LVL79
 6864 02e2 0200     		.2byte	0x2
 6865 02e4 30       		.byte	0x30
 6866 02e5 9F       		.byte	0x9f
 6867 02e6 CE000000 		.4byte	.LVL79
 6868 02ea DC000000 		.4byte	.LVL82
 6869 02ee 0100     		.2byte	0x1
 6870 02f0 56       		.byte	0x56
 6871 02f1 DC000000 		.4byte	.LVL82
 6872 02f5 F8000000 		.4byte	.LVL86
 6873 02f9 0300     		.2byte	0x3
 6874 02fb 76       		.byte	0x76
 6875 02fc 7F       		.sleb128 -1
 6876 02fd 9F       		.byte	0x9f
 6877 02fe F8000000 		.4byte	.LVL86
 6878 0302 38010000 		.4byte	.LVL90
 6879 0306 0100     		.2byte	0x1
 6880 0308 56       		.byte	0x56
 6881 0309 00000000 		.4byte	0
 6882 030d 00000000 		.4byte	0
 6883              	.LLST16:
 6884 0311 CE000000 		.4byte	.LVL79
 6885 0315 DC000000 		.4byte	.LVL82
 6886 0319 0100     		.2byte	0x1
 6887 031b 56       		.byte	0x56
 6888 031c DC000000 		.4byte	.LVL82
 6889 0320 F8000000 		.4byte	.LVL86
 6890 0324 0300     		.2byte	0x3
 6891 0326 76       		.byte	0x76
 6892 0327 7F       		.sleb128 -1
 6893 0328 9F       		.byte	0x9f
 6894 0329 10010000 		.4byte	.LVL87
 6895 032d 38010000 		.4byte	.LVL90
 6896 0331 0100     		.2byte	0x1
 6897 0333 56       		.byte	0x56
 6898 0334 00000000 		.4byte	0
 6899 0338 00000000 		.4byte	0
 6900              	.LLST17:
 6901 033c D2000000 		.4byte	.LVL80
 6902 0340 E7000000 		.4byte	.LVL85-1
 6903 0344 0100     		.2byte	0x1
 6904 0346 50       		.byte	0x50
 6905 0347 00000000 		.4byte	0
 6906 034b 00000000 		.4byte	0
 6907              	.LLST18:
ARM GAS  C:\Users\young\AppData\Local\Temp\ccoFnsFE.s 			page 172


 6908 034f DA000000 		.4byte	.LVL81
 6909 0353 E0000000 		.4byte	.LVL84
 6910 0357 0100     		.2byte	0x1
 6911 0359 53       		.byte	0x53
 6912 035a E0000000 		.4byte	.LVL84
 6913 035e F8000000 		.4byte	.LVL86
 6914 0362 0100     		.2byte	0x1
 6915 0364 57       		.byte	0x57
 6916 0365 00000000 		.4byte	0
 6917 0369 00000000 		.4byte	0
 6918              	.LLST19:
 6919 036d CE000000 		.4byte	.LVL79
 6920 0371 DC000000 		.4byte	.LVL82
 6921 0375 0E00     		.2byte	0xe
 6922 0377 76       		.byte	0x76
 6923 0378 00       		.sleb128 0
 6924 0379 03       		.byte	0x3
 6925 037a 00000000 		.4byte	CapSense_portTable
 6926 037e 22       		.byte	0x22
 6927 037f 94       		.byte	0x94
 6928 0380 01       		.byte	0x1
 6929 0381 08       		.byte	0x8
 6930 0382 FF       		.byte	0xff
 6931 0383 1A       		.byte	0x1a
 6932 0384 9F       		.byte	0x9f
 6933 0385 DC000000 		.4byte	.LVL82
 6934 0389 F8000000 		.4byte	.LVL86
 6935 038d 0E00     		.2byte	0xe
 6936 038f 76       		.byte	0x76
 6937 0390 00       		.sleb128 0
 6938 0391 03       		.byte	0x3
 6939 0392 FFFFFFFF 		.4byte	CapSense_portTable-1
 6940 0396 22       		.byte	0x22
 6941 0397 94       		.byte	0x94
 6942 0398 01       		.byte	0x1
 6943 0399 08       		.byte	0x8
 6944 039a FF       		.byte	0xff
 6945 039b 1A       		.byte	0x1a
 6946 039c 9F       		.byte	0x9f
 6947 039d 10010000 		.4byte	.LVL87
 6948 03a1 38010000 		.4byte	.LVL90
 6949 03a5 0E00     		.2byte	0xe
 6950 03a7 76       		.byte	0x76
 6951 03a8 00       		.sleb128 0
 6952 03a9 03       		.byte	0x3
 6953 03aa 00000000 		.4byte	CapSense_portTable
 6954 03ae 22       		.byte	0x22
 6955 03af 94       		.byte	0x94
 6956 03b0 01       		.byte	0x1
 6957 03b1 08       		.byte	0x8
 6958 03b2 FF       		.byte	0xff
 6959 03b3 1A       		.byte	0x1a
 6960 03b4 9F       		.byte	0x9f
 6961 03b5 00000000 		.4byte	0
 6962 03b9 00000000 		.4byte	0
 6963              	.LLST20:
 6964 03bd CE000000 		.4byte	.LVL79
ARM GAS  C:\Users\young\AppData\Local\Temp\ccoFnsFE.s 			page 173


 6965 03c1 F8000000 		.4byte	.LVL86
 6966 03c5 0500     		.2byte	0x5
 6967 03c7 75       		.byte	0x75
 6968 03c8 00       		.sleb128 0
 6969 03c9 32       		.byte	0x32
 6970 03ca 24       		.byte	0x24
 6971 03cb 9F       		.byte	0x9f
 6972 03cc 16010000 		.4byte	.LVL88
 6973 03d0 38010000 		.4byte	.LVL90
 6974 03d4 0500     		.2byte	0x5
 6975 03d6 75       		.byte	0x75
 6976 03d7 00       		.sleb128 0
 6977 03d8 32       		.byte	0x32
 6978 03d9 24       		.byte	0x24
 6979 03da 9F       		.byte	0x9f
 6980 03db 00000000 		.4byte	0
 6981 03df 00000000 		.4byte	0
 6982              	.LLST21:
 6983 03e3 CE000000 		.4byte	.LVL79
 6984 03e7 F8000000 		.4byte	.LVL86
 6985 03eb 0100     		.2byte	0x1
 6986 03ed 54       		.byte	0x54
 6987 03ee 2C010000 		.4byte	.LVL89
 6988 03f2 38010000 		.4byte	.LVL90
 6989 03f6 0100     		.2byte	0x1
 6990 03f8 54       		.byte	0x54
 6991 03f9 00000000 		.4byte	0
 6992 03fd 00000000 		.4byte	0
 6993              	.LLST22:
 6994 0401 2C010000 		.4byte	.LVL89
 6995 0405 38010000 		.4byte	.LVL90
 6996 0409 0200     		.2byte	0x2
 6997 040b 30       		.byte	0x30
 6998 040c 9F       		.byte	0x9f
 6999 040d 00000000 		.4byte	0
 7000 0411 00000000 		.4byte	0
 7001              	.LLST23:
 7002 0415 CE000000 		.4byte	.LVL79
 7003 0419 D1000000 		.4byte	.LVL80-1
 7004 041d 0600     		.2byte	0x6
 7005 041f 70       		.byte	0x70
 7006 0420 00       		.sleb128 0
 7007 0421 08       		.byte	0x8
 7008 0422 FF       		.byte	0xff
 7009 0423 1A       		.byte	0x1a
 7010 0424 9F       		.byte	0x9f
 7011 0425 2C010000 		.4byte	.LVL89
 7012 0429 38010000 		.4byte	.LVL90
 7013 042d 0600     		.2byte	0x6
 7014 042f 70       		.byte	0x70
 7015 0430 00       		.sleb128 0
 7016 0431 08       		.byte	0x8
 7017 0432 FF       		.byte	0xff
 7018 0433 1A       		.byte	0x1a
 7019 0434 9F       		.byte	0x9f
 7020 0435 00000000 		.4byte	0
 7021 0439 00000000 		.4byte	0
ARM GAS  C:\Users\young\AppData\Local\Temp\ccoFnsFE.s 			page 174


 7022              	.LLST24:
 7023 043d BC000000 		.4byte	.LVL76
 7024 0441 C2000000 		.4byte	.LVL78
 7025 0445 0100     		.2byte	0x1
 7026 0447 53       		.byte	0x53
 7027 0448 C2000000 		.4byte	.LVL78
 7028 044c CE000000 		.4byte	.LVL79
 7029 0450 0200     		.2byte	0x2
 7030 0452 74       		.byte	0x74
 7031 0453 00       		.sleb128 0
 7032 0454 00000000 		.4byte	0
 7033 0458 00000000 		.4byte	0
 7034              	.LLST25:
 7035 045c 00000000 		.4byte	.LVL94
 7036 0460 0A000000 		.4byte	.LVL95
 7037 0464 0100     		.2byte	0x1
 7038 0466 50       		.byte	0x50
 7039 0467 0C000000 		.4byte	.LVL96
 7040 046b 28000000 		.4byte	.LFE37
 7041 046f 0100     		.2byte	0x1
 7042 0471 50       		.byte	0x50
 7043 0472 00000000 		.4byte	0
 7044 0476 00000000 		.4byte	0
 7045              	.LLST26:
 7046 047a 10000000 		.4byte	.LVL97
 7047 047e 20000000 		.4byte	.LVL98
 7048 0482 0600     		.2byte	0x6
 7049 0484 70       		.byte	0x70
 7050 0485 00       		.sleb128 0
 7051 0486 08       		.byte	0x8
 7052 0487 FF       		.byte	0xff
 7053 0488 1A       		.byte	0x1a
 7054 0489 9F       		.byte	0x9f
 7055 048a 00000000 		.4byte	0
 7056 048e 00000000 		.4byte	0
 7057              	.LLST27:
 7058 0492 10000000 		.4byte	.LVL97
 7059 0496 20000000 		.4byte	.LVL98
 7060 049a 0600     		.2byte	0x6
 7061 049c 03       		.byte	0x3
 7062 049d 00000000 		.4byte	CapSense_sensorEnableMask
 7063 04a1 9F       		.byte	0x9f
 7064 04a2 00000000 		.4byte	0
 7065 04a6 00000000 		.4byte	0
 7066              	.LLST28:
 7067 04aa 10000000 		.4byte	.LVL97
 7068 04ae 20000000 		.4byte	.LVL98
 7069 04b2 0800     		.2byte	0x8
 7070 04b4 70       		.byte	0x70
 7071 04b5 00       		.sleb128 0
 7072 04b6 08       		.byte	0x8
 7073 04b7 FF       		.byte	0xff
 7074 04b8 1A       		.byte	0x1a
 7075 04b9 33       		.byte	0x33
 7076 04ba 25       		.byte	0x25
 7077 04bb 9F       		.byte	0x9f
 7078 04bc 00000000 		.4byte	0
ARM GAS  C:\Users\young\AppData\Local\Temp\ccoFnsFE.s 			page 175


 7079 04c0 00000000 		.4byte	0
 7080              	.LLST29:
 7081 04c4 10000000 		.4byte	.LVL97
 7082 04c8 20000000 		.4byte	.LVL98
 7083 04cc 0700     		.2byte	0x7
 7084 04ce 31       		.byte	0x31
 7085 04cf 70       		.byte	0x70
 7086 04d0 00       		.sleb128 0
 7087 04d1 37       		.byte	0x37
 7088 04d2 1A       		.byte	0x1a
 7089 04d3 24       		.byte	0x24
 7090 04d4 9F       		.byte	0x9f
 7091 04d5 00000000 		.4byte	0
 7092 04d9 00000000 		.4byte	0
 7093              	.LLST30:
 7094 04dd 00000000 		.4byte	.LVL99
 7095 04e1 04000000 		.4byte	.LVL100
 7096 04e5 0100     		.2byte	0x1
 7097 04e7 50       		.byte	0x50
 7098 04e8 04000000 		.4byte	.LVL100
 7099 04ec 10000000 		.4byte	.LFE42
 7100 04f0 0400     		.2byte	0x4
 7101 04f2 F3       		.byte	0xf3
 7102 04f3 01       		.uleb128 0x1
 7103 04f4 50       		.byte	0x50
 7104 04f5 9F       		.byte	0x9f
 7105 04f6 00000000 		.4byte	0
 7106 04fa 00000000 		.4byte	0
 7107              	.LLST31:
 7108 04fe 00000000 		.4byte	.LVL101
 7109 0502 04000000 		.4byte	.LVL102
 7110 0506 0100     		.2byte	0x1
 7111 0508 50       		.byte	0x50
 7112 0509 04000000 		.4byte	.LVL102
 7113 050d 10000000 		.4byte	.LFE43
 7114 0511 0400     		.2byte	0x4
 7115 0513 F3       		.byte	0xf3
 7116 0514 01       		.uleb128 0x1
 7117 0515 50       		.byte	0x50
 7118 0516 9F       		.byte	0x9f
 7119 0517 00000000 		.4byte	0
 7120 051b 00000000 		.4byte	0
 7121              	.LLST32:
 7122 051f 00000000 		.4byte	.LVL103
 7123 0523 04000000 		.4byte	.LVL104
 7124 0527 0100     		.2byte	0x1
 7125 0529 50       		.byte	0x50
 7126 052a 04000000 		.4byte	.LVL104
 7127 052e 10000000 		.4byte	.LFE44
 7128 0532 0400     		.2byte	0x4
 7129 0534 F3       		.byte	0xf3
 7130 0535 01       		.uleb128 0x1
 7131 0536 50       		.byte	0x50
 7132 0537 9F       		.byte	0x9f
 7133 0538 00000000 		.4byte	0
 7134 053c 00000000 		.4byte	0
 7135              	.LLST33:
ARM GAS  C:\Users\young\AppData\Local\Temp\ccoFnsFE.s 			page 176


 7136 0540 00000000 		.4byte	.LVL105
 7137 0544 04000000 		.4byte	.LVL106
 7138 0548 0100     		.2byte	0x1
 7139 054a 50       		.byte	0x50
 7140 054b 04000000 		.4byte	.LVL106
 7141 054f 10000000 		.4byte	.LFE45
 7142 0553 0400     		.2byte	0x4
 7143 0555 F3       		.byte	0xf3
 7144 0556 01       		.uleb128 0x1
 7145 0557 50       		.byte	0x50
 7146 0558 9F       		.byte	0x9f
 7147 0559 00000000 		.4byte	0
 7148 055d 00000000 		.4byte	0
 7149              	.LLST34:
 7150 0561 00000000 		.4byte	.LVL107
 7151 0565 22000000 		.4byte	.LVL108
 7152 0569 0200     		.2byte	0x2
 7153 056b 30       		.byte	0x30
 7154 056c 9F       		.byte	0x9f
 7155 056d 22000000 		.4byte	.LVL108
 7156 0571 30000000 		.4byte	.LVL111
 7157 0575 0100     		.2byte	0x1
 7158 0577 55       		.byte	0x55
 7159 0578 30000000 		.4byte	.LVL111
 7160 057c 4A000000 		.4byte	.LVL115
 7161 0580 0300     		.2byte	0x3
 7162 0582 75       		.byte	0x75
 7163 0583 7F       		.sleb128 -1
 7164 0584 9F       		.byte	0x9f
 7165 0585 4A000000 		.4byte	.LVL115
 7166 0589 8A000000 		.4byte	.LVL120
 7167 058d 0100     		.2byte	0x1
 7168 058f 55       		.byte	0x55
 7169 0590 00000000 		.4byte	0
 7170 0594 00000000 		.4byte	0
 7171              	.LLST35:
 7172 0598 22000000 		.4byte	.LVL108
 7173 059c 30000000 		.4byte	.LVL111
 7174 05a0 0100     		.2byte	0x1
 7175 05a2 55       		.byte	0x55
 7176 05a3 30000000 		.4byte	.LVL111
 7177 05a7 4A000000 		.4byte	.LVL115
 7178 05ab 0300     		.2byte	0x3
 7179 05ad 75       		.byte	0x75
 7180 05ae 7F       		.sleb128 -1
 7181 05af 9F       		.byte	0x9f
 7182 05b0 62000000 		.4byte	.LVL116
 7183 05b4 8A000000 		.4byte	.LVL119
 7184 05b8 0100     		.2byte	0x1
 7185 05ba 55       		.byte	0x55
 7186 05bb 00000000 		.4byte	0
 7187 05bf 00000000 		.4byte	0
 7188              	.LLST36:
 7189 05c3 26000000 		.4byte	.LVL109
 7190 05c7 3B000000 		.4byte	.LVL114-1
 7191 05cb 0100     		.2byte	0x1
 7192 05cd 50       		.byte	0x50
ARM GAS  C:\Users\young\AppData\Local\Temp\ccoFnsFE.s 			page 177


 7193 05ce 00000000 		.4byte	0
 7194 05d2 00000000 		.4byte	0
 7195              	.LLST37:
 7196 05d6 2E000000 		.4byte	.LVL110
 7197 05da 34000000 		.4byte	.LVL113
 7198 05de 0100     		.2byte	0x1
 7199 05e0 53       		.byte	0x53
 7200 05e1 34000000 		.4byte	.LVL113
 7201 05e5 4A000000 		.4byte	.LVL115
 7202 05e9 0100     		.2byte	0x1
 7203 05eb 57       		.byte	0x57
 7204 05ec 00000000 		.4byte	0
 7205 05f0 00000000 		.4byte	0
 7206              	.LLST38:
 7207 05f4 22000000 		.4byte	.LVL108
 7208 05f8 30000000 		.4byte	.LVL111
 7209 05fc 0E00     		.2byte	0xe
 7210 05fe 75       		.byte	0x75
 7211 05ff 00       		.sleb128 0
 7212 0600 03       		.byte	0x3
 7213 0601 00000000 		.4byte	CapSense_portTable
 7214 0605 22       		.byte	0x22
 7215 0606 94       		.byte	0x94
 7216 0607 01       		.byte	0x1
 7217 0608 08       		.byte	0x8
 7218 0609 FF       		.byte	0xff
 7219 060a 1A       		.byte	0x1a
 7220 060b 9F       		.byte	0x9f
 7221 060c 30000000 		.4byte	.LVL111
 7222 0610 4A000000 		.4byte	.LVL115
 7223 0614 0E00     		.2byte	0xe
 7224 0616 75       		.byte	0x75
 7225 0617 00       		.sleb128 0
 7226 0618 03       		.byte	0x3
 7227 0619 FFFFFFFF 		.4byte	CapSense_portTable-1
 7228 061d 22       		.byte	0x22
 7229 061e 94       		.byte	0x94
 7230 061f 01       		.byte	0x1
 7231 0620 08       		.byte	0x8
 7232 0621 FF       		.byte	0xff
 7233 0622 1A       		.byte	0x1a
 7234 0623 9F       		.byte	0x9f
 7235 0624 62000000 		.4byte	.LVL116
 7236 0628 8A000000 		.4byte	.LVL119
 7237 062c 0E00     		.2byte	0xe
 7238 062e 75       		.byte	0x75
 7239 062f 00       		.sleb128 0
 7240 0630 03       		.byte	0x3
 7241 0631 00000000 		.4byte	CapSense_portTable
 7242 0635 22       		.byte	0x22
 7243 0636 94       		.byte	0x94
 7244 0637 01       		.byte	0x1
 7245 0638 08       		.byte	0x8
 7246 0639 FF       		.byte	0xff
 7247 063a 1A       		.byte	0x1a
 7248 063b 9F       		.byte	0x9f
 7249 063c 00000000 		.4byte	0
ARM GAS  C:\Users\young\AppData\Local\Temp\ccoFnsFE.s 			page 178


 7250 0640 00000000 		.4byte	0
 7251              	.LLST39:
 7252 0644 22000000 		.4byte	.LVL108
 7253 0648 4A000000 		.4byte	.LVL115
 7254 064c 0500     		.2byte	0x5
 7255 064e 76       		.byte	0x76
 7256 064f 00       		.sleb128 0
 7257 0650 32       		.byte	0x32
 7258 0651 24       		.byte	0x24
 7259 0652 9F       		.byte	0x9f
 7260 0653 68000000 		.4byte	.LVL117
 7261 0657 8A000000 		.4byte	.LVL119
 7262 065b 0500     		.2byte	0x5
 7263 065d 76       		.byte	0x76
 7264 065e 00       		.sleb128 0
 7265 065f 32       		.byte	0x32
 7266 0660 24       		.byte	0x24
 7267 0661 9F       		.byte	0x9f
 7268 0662 00000000 		.4byte	0
 7269 0666 00000000 		.4byte	0
 7270              	.LLST40:
 7271 066a 22000000 		.4byte	.LVL108
 7272 066e 4A000000 		.4byte	.LVL115
 7273 0672 0100     		.2byte	0x1
 7274 0674 54       		.byte	0x54
 7275 0675 7E000000 		.4byte	.LVL118
 7276 0679 8A000000 		.4byte	.LVL119
 7277 067d 0100     		.2byte	0x1
 7278 067f 54       		.byte	0x54
 7279 0680 00000000 		.4byte	0
 7280 0684 00000000 		.4byte	0
 7281              	.LLST41:
 7282 0688 7E000000 		.4byte	.LVL118
 7283 068c 8A000000 		.4byte	.LVL119
 7284 0690 0200     		.2byte	0x2
 7285 0692 30       		.byte	0x30
 7286 0693 9F       		.byte	0x9f
 7287 0694 00000000 		.4byte	0
 7288 0698 00000000 		.4byte	0
 7289              	.LLST42:
 7290 069c 22000000 		.4byte	.LVL108
 7291 06a0 25000000 		.4byte	.LVL109-1
 7292 06a4 0600     		.2byte	0x6
 7293 06a6 70       		.byte	0x70
 7294 06a7 00       		.sleb128 0
 7295 06a8 08       		.byte	0x8
 7296 06a9 FF       		.byte	0xff
 7297 06aa 1A       		.byte	0x1a
 7298 06ab 9F       		.byte	0x9f
 7299 06ac 7E000000 		.4byte	.LVL118
 7300 06b0 8A000000 		.4byte	.LVL119
 7301 06b4 0600     		.2byte	0x6
 7302 06b6 70       		.byte	0x70
 7303 06b7 00       		.sleb128 0
 7304 06b8 08       		.byte	0x8
 7305 06b9 FF       		.byte	0xff
 7306 06ba 1A       		.byte	0x1a
ARM GAS  C:\Users\young\AppData\Local\Temp\ccoFnsFE.s 			page 179


 7307 06bb 9F       		.byte	0x9f
 7308 06bc 00000000 		.4byte	0
 7309 06c0 00000000 		.4byte	0
 7310              	.LLST43:
 7311 06c4 00000000 		.4byte	.LVL121
 7312 06c8 0D000000 		.4byte	.LVL123-1
 7313 06cc 0100     		.2byte	0x1
 7314 06ce 50       		.byte	0x50
 7315 06cf 0D000000 		.4byte	.LVL123-1
 7316 06d3 48000000 		.4byte	.LFE47
 7317 06d7 0400     		.2byte	0x4
 7318 06d9 F3       		.byte	0xf3
 7319 06da 01       		.uleb128 0x1
 7320 06db 50       		.byte	0x50
 7321 06dc 9F       		.byte	0x9f
 7322 06dd 00000000 		.4byte	0
 7323 06e1 00000000 		.4byte	0
 7324              	.LLST44:
 7325 06e5 0A000000 		.4byte	.LVL122
 7326 06e9 40000000 		.4byte	.LVL131
 7327 06ed 0500     		.2byte	0x5
 7328 06ef 75       		.byte	0x75
 7329 06f0 00       		.sleb128 0
 7330 06f1 33       		.byte	0x33
 7331 06f2 1E       		.byte	0x1e
 7332 06f3 9F       		.byte	0x9f
 7333 06f4 40000000 		.4byte	.LVL131
 7334 06f8 48000000 		.4byte	.LFE47
 7335 06fc 0E00     		.2byte	0xe
 7336 06fe F3       		.byte	0xf3
 7337 06ff 01       		.uleb128 0x1
 7338 0700 50       		.byte	0x50
 7339 0701 03       		.byte	0x3
 7340 0702 00000000 		.4byte	.LANCHOR0
 7341 0706 22       		.byte	0x22
 7342 0707 94       		.byte	0x94
 7343 0708 01       		.byte	0x1
 7344 0709 33       		.byte	0x33
 7345 070a 1E       		.byte	0x1e
 7346 070b 9F       		.byte	0x9f
 7347 070c 00000000 		.4byte	0
 7348 0710 00000000 		.4byte	0
 7349              	.LLST45:
 7350 0714 0A000000 		.4byte	.LVL122
 7351 0718 40000000 		.4byte	.LVL131
 7352 071c 0500     		.2byte	0x5
 7353 071e 75       		.byte	0x75
 7354 071f 00       		.sleb128 0
 7355 0720 32       		.byte	0x32
 7356 0721 24       		.byte	0x24
 7357 0722 9F       		.byte	0x9f
 7358 0723 40000000 		.4byte	.LVL131
 7359 0727 48000000 		.4byte	.LFE47
 7360 072b 0E00     		.2byte	0xe
 7361 072d F3       		.byte	0xf3
 7362 072e 01       		.uleb128 0x1
 7363 072f 50       		.byte	0x50
ARM GAS  C:\Users\young\AppData\Local\Temp\ccoFnsFE.s 			page 180


 7364 0730 03       		.byte	0x3
 7365 0731 00000000 		.4byte	.LANCHOR0
 7366 0735 22       		.byte	0x22
 7367 0736 94       		.byte	0x94
 7368 0737 01       		.byte	0x1
 7369 0738 32       		.byte	0x32
 7370 0739 24       		.byte	0x24
 7371 073a 9F       		.byte	0x9f
 7372 073b 00000000 		.4byte	0
 7373 073f 00000000 		.4byte	0
 7374              	.LLST46:
 7375 0743 0E000000 		.4byte	.LVL123
 7376 0747 3F000000 		.4byte	.LVL130-1
 7377 074b 0100     		.2byte	0x1
 7378 074d 50       		.byte	0x50
 7379 074e 00000000 		.4byte	0
 7380 0752 00000000 		.4byte	0
 7381              	.LLST47:
 7382 0756 20000000 		.4byte	.LVL126
 7383 075a 24000000 		.4byte	.LVL127
 7384 075e 0100     		.2byte	0x1
 7385 0760 52       		.byte	0x52
 7386 0761 26000000 		.4byte	.LVL128
 7387 0765 34000000 		.4byte	.LVL129
 7388 0769 0100     		.2byte	0x1
 7389 076b 51       		.byte	0x51
 7390 076c 34000000 		.4byte	.LVL129
 7391 0770 3F000000 		.4byte	.LVL130-1
 7392 0774 0100     		.2byte	0x1
 7393 0776 52       		.byte	0x52
 7394 0777 00000000 		.4byte	0
 7395 077b 00000000 		.4byte	0
 7396              	.LLST48:
 7397 077f 0A000000 		.4byte	.LVL122
 7398 0783 14000000 		.4byte	.LVL124
 7399 0787 0100     		.2byte	0x1
 7400 0789 54       		.byte	0x54
 7401 078a 14000000 		.4byte	.LVL124
 7402 078e 1C000000 		.4byte	.LVL125
 7403 0792 0E00     		.2byte	0xe
 7404 0794 76       		.byte	0x76
 7405 0795 00       		.sleb128 0
 7406 0796 F3       		.byte	0xf3
 7407 0797 01       		.uleb128 0x1
 7408 0798 50       		.byte	0x50
 7409 0799 22       		.byte	0x22
 7410 079a 23       		.byte	0x23
 7411 079b 08       		.uleb128 0x8
 7412 079c 94       		.byte	0x94
 7413 079d 01       		.byte	0x1
 7414 079e 08       		.byte	0x8
 7415 079f FF       		.byte	0xff
 7416 07a0 1A       		.byte	0x1a
 7417 07a1 9F       		.byte	0x9f
 7418 07a2 1C000000 		.4byte	.LVL125
 7419 07a6 48000000 		.4byte	.LFE47
 7420 07aa 0F00     		.2byte	0xf
ARM GAS  C:\Users\young\AppData\Local\Temp\ccoFnsFE.s 			page 181


 7421 07ac F3       		.byte	0xf3
 7422 07ad 01       		.uleb128 0x1
 7423 07ae 50       		.byte	0x50
 7424 07af 03       		.byte	0x3
 7425 07b0 08000000 		.4byte	.LANCHOR0+8
 7426 07b4 22       		.byte	0x22
 7427 07b5 94       		.byte	0x94
 7428 07b6 01       		.byte	0x1
 7429 07b7 08       		.byte	0x8
 7430 07b8 FF       		.byte	0xff
 7431 07b9 1A       		.byte	0x1a
 7432 07ba 9F       		.byte	0x9f
 7433 07bb 00000000 		.4byte	0
 7434 07bf 00000000 		.4byte	0
 7435              	.LLST49:
 7436 07c3 00000000 		.4byte	.LVL132
 7437 07c7 22000000 		.4byte	.LVL135
 7438 07cb 0100     		.2byte	0x1
 7439 07cd 50       		.byte	0x50
 7440 07ce 22000000 		.4byte	.LVL135
 7441 07d2 74000000 		.4byte	.LFE48
 7442 07d6 0400     		.2byte	0x4
 7443 07d8 F3       		.byte	0xf3
 7444 07d9 01       		.uleb128 0x1
 7445 07da 50       		.byte	0x50
 7446 07db 9F       		.byte	0x9f
 7447 07dc 00000000 		.4byte	0
 7448 07e0 00000000 		.4byte	0
 7449              	.LLST50:
 7450 07e4 3E000000 		.4byte	.LVL139
 7451 07e8 53000000 		.4byte	.LVL143-1
 7452 07ec 0100     		.2byte	0x1
 7453 07ee 50       		.byte	0x50
 7454 07ef 00000000 		.4byte	0
 7455 07f3 00000000 		.4byte	0
 7456              	.LLST51:
 7457 07f7 48000000 		.4byte	.LVL140
 7458 07fb 53000000 		.4byte	.LVL143-1
 7459 07ff 0100     		.2byte	0x1
 7460 0801 53       		.byte	0x53
 7461 0802 00000000 		.4byte	0
 7462 0806 00000000 		.4byte	0
 7463              	.LLST52:
 7464 080a 10000000 		.4byte	.LVL133
 7465 080e 1E000000 		.4byte	.LVL134
 7466 0812 0100     		.2byte	0x1
 7467 0814 54       		.byte	0x54
 7468 0815 1E000000 		.4byte	.LVL134
 7469 0819 22000000 		.4byte	.LVL135
 7470 081d 0D00     		.2byte	0xd
 7471 081f 77       		.byte	0x77
 7472 0820 00       		.sleb128 0
 7473 0821 70       		.byte	0x70
 7474 0822 00       		.sleb128 0
 7475 0823 22       		.byte	0x22
 7476 0824 23       		.byte	0x23
 7477 0825 08       		.uleb128 0x8
ARM GAS  C:\Users\young\AppData\Local\Temp\ccoFnsFE.s 			page 182


 7478 0826 94       		.byte	0x94
 7479 0827 01       		.byte	0x1
 7480 0828 08       		.byte	0x8
 7481 0829 FF       		.byte	0xff
 7482 082a 1A       		.byte	0x1a
 7483 082b 9F       		.byte	0x9f
 7484 082c 22000000 		.4byte	.LVL135
 7485 0830 60000000 		.4byte	.LVL146
 7486 0834 0E00     		.2byte	0xe
 7487 0836 77       		.byte	0x77
 7488 0837 00       		.sleb128 0
 7489 0838 F3       		.byte	0xf3
 7490 0839 01       		.uleb128 0x1
 7491 083a 50       		.byte	0x50
 7492 083b 22       		.byte	0x22
 7493 083c 23       		.byte	0x23
 7494 083d 08       		.uleb128 0x8
 7495 083e 94       		.byte	0x94
 7496 083f 01       		.byte	0x1
 7497 0840 08       		.byte	0x8
 7498 0841 FF       		.byte	0xff
 7499 0842 1A       		.byte	0x1a
 7500 0843 9F       		.byte	0x9f
 7501 0844 60000000 		.4byte	.LVL146
 7502 0848 66000000 		.4byte	.LVL147
 7503 084c 0F00     		.2byte	0xf
 7504 084e F3       		.byte	0xf3
 7505 084f 01       		.uleb128 0x1
 7506 0850 50       		.byte	0x50
 7507 0851 03       		.byte	0x3
 7508 0852 08000000 		.4byte	.LANCHOR0+8
 7509 0856 22       		.byte	0x22
 7510 0857 94       		.byte	0x94
 7511 0858 01       		.byte	0x1
 7512 0859 08       		.byte	0x8
 7513 085a FF       		.byte	0xff
 7514 085b 1A       		.byte	0x1a
 7515 085c 9F       		.byte	0x9f
 7516 085d 66000000 		.4byte	.LVL147
 7517 0861 74000000 		.4byte	.LFE48
 7518 0865 0E00     		.2byte	0xe
 7519 0867 77       		.byte	0x77
 7520 0868 00       		.sleb128 0
 7521 0869 F3       		.byte	0xf3
 7522 086a 01       		.uleb128 0x1
 7523 086b 50       		.byte	0x50
 7524 086c 22       		.byte	0x22
 7525 086d 23       		.byte	0x23
 7526 086e 08       		.uleb128 0x8
 7527 086f 94       		.byte	0x94
 7528 0870 01       		.byte	0x1
 7529 0871 08       		.byte	0x8
 7530 0872 FF       		.byte	0xff
 7531 0873 1A       		.byte	0x1a
 7532 0874 9F       		.byte	0x9f
 7533 0875 00000000 		.4byte	0
 7534 0879 00000000 		.4byte	0
ARM GAS  C:\Users\young\AppData\Local\Temp\ccoFnsFE.s 			page 183


 7535              	.LLST53:
 7536 087d 10000000 		.4byte	.LVL133
 7537 0881 60000000 		.4byte	.LVL145
 7538 0885 0500     		.2byte	0x5
 7539 0887 76       		.byte	0x76
 7540 0888 00       		.sleb128 0
 7541 0889 32       		.byte	0x32
 7542 088a 24       		.byte	0x24
 7543 088b 9F       		.byte	0x9f
 7544 088c 60000000 		.4byte	.LVL145
 7545 0890 60000000 		.4byte	.LVL146
 7546 0894 0B00     		.2byte	0xb
 7547 0896 77       		.byte	0x77
 7548 0897 00       		.sleb128 0
 7549 0898 F3       		.byte	0xf3
 7550 0899 01       		.uleb128 0x1
 7551 089a 50       		.byte	0x50
 7552 089b 22       		.byte	0x22
 7553 089c 94       		.byte	0x94
 7554 089d 01       		.byte	0x1
 7555 089e 32       		.byte	0x32
 7556 089f 24       		.byte	0x24
 7557 08a0 9F       		.byte	0x9f
 7558 08a1 60000000 		.4byte	.LVL146
 7559 08a5 66000000 		.4byte	.LVL147
 7560 08a9 0E00     		.2byte	0xe
 7561 08ab F3       		.byte	0xf3
 7562 08ac 01       		.uleb128 0x1
 7563 08ad 50       		.byte	0x50
 7564 08ae 03       		.byte	0x3
 7565 08af 00000000 		.4byte	.LANCHOR0
 7566 08b3 22       		.byte	0x22
 7567 08b4 94       		.byte	0x94
 7568 08b5 01       		.byte	0x1
 7569 08b6 32       		.byte	0x32
 7570 08b7 24       		.byte	0x24
 7571 08b8 9F       		.byte	0x9f
 7572 08b9 66000000 		.4byte	.LVL147
 7573 08bd 74000000 		.4byte	.LFE48
 7574 08c1 0500     		.2byte	0x5
 7575 08c3 76       		.byte	0x76
 7576 08c4 00       		.sleb128 0
 7577 08c5 32       		.byte	0x32
 7578 08c6 24       		.byte	0x24
 7579 08c7 9F       		.byte	0x9f
 7580 08c8 00000000 		.4byte	0
 7581 08cc 00000000 		.4byte	0
 7582              	.LLST54:
 7583 08d0 30000000 		.4byte	.LVL136
 7584 08d4 60000000 		.4byte	.LVL144
 7585 08d8 0100     		.2byte	0x1
 7586 08da 55       		.byte	0x55
 7587 08db 60000000 		.4byte	.LVL144
 7588 08df 60000000 		.4byte	.LVL145
 7589 08e3 0800     		.2byte	0x8
 7590 08e5 76       		.byte	0x76
 7591 08e6 00       		.sleb128 0
ARM GAS  C:\Users\young\AppData\Local\Temp\ccoFnsFE.s 			page 184


 7592 08e7 31       		.byte	0x31
 7593 08e8 24       		.byte	0x24
 7594 08e9 76       		.byte	0x76
 7595 08ea 00       		.sleb128 0
 7596 08eb 22       		.byte	0x22
 7597 08ec 9F       		.byte	0x9f
 7598 08ed 60000000 		.4byte	.LVL145
 7599 08f1 60000000 		.4byte	.LVL146
 7600 08f5 1A00     		.2byte	0x1a
 7601 08f7 77       		.byte	0x77
 7602 08f8 00       		.sleb128 0
 7603 08f9 F3       		.byte	0xf3
 7604 08fa 01       		.uleb128 0x1
 7605 08fb 50       		.byte	0x50
 7606 08fc 22       		.byte	0x22
 7607 08fd 94       		.byte	0x94
 7608 08fe 01       		.byte	0x1
 7609 08ff 08       		.byte	0x8
 7610 0900 FF       		.byte	0xff
 7611 0901 1A       		.byte	0x1a
 7612 0902 31       		.byte	0x31
 7613 0903 24       		.byte	0x24
 7614 0904 77       		.byte	0x77
 7615 0905 00       		.sleb128 0
 7616 0906 F3       		.byte	0xf3
 7617 0907 01       		.uleb128 0x1
 7618 0908 50       		.byte	0x50
 7619 0909 22       		.byte	0x22
 7620 090a 94       		.byte	0x94
 7621 090b 01       		.byte	0x1
 7622 090c 08       		.byte	0x8
 7623 090d FF       		.byte	0xff
 7624 090e 1A       		.byte	0x1a
 7625 090f 22       		.byte	0x22
 7626 0910 9F       		.byte	0x9f
 7627 0911 60000000 		.4byte	.LVL146
 7628 0915 66000000 		.4byte	.LVL147
 7629 0919 2000     		.2byte	0x20
 7630 091b F3       		.byte	0xf3
 7631 091c 01       		.uleb128 0x1
 7632 091d 50       		.byte	0x50
 7633 091e 03       		.byte	0x3
 7634 091f 00000000 		.4byte	.LANCHOR0
 7635 0923 22       		.byte	0x22
 7636 0924 94       		.byte	0x94
 7637 0925 01       		.byte	0x1
 7638 0926 08       		.byte	0x8
 7639 0927 FF       		.byte	0xff
 7640 0928 1A       		.byte	0x1a
 7641 0929 31       		.byte	0x31
 7642 092a 24       		.byte	0x24
 7643 092b F3       		.byte	0xf3
 7644 092c 01       		.uleb128 0x1
 7645 092d 50       		.byte	0x50
 7646 092e 03       		.byte	0x3
 7647 092f 00000000 		.4byte	.LANCHOR0
 7648 0933 22       		.byte	0x22
ARM GAS  C:\Users\young\AppData\Local\Temp\ccoFnsFE.s 			page 185


 7649 0934 94       		.byte	0x94
 7650 0935 01       		.byte	0x1
 7651 0936 08       		.byte	0x8
 7652 0937 FF       		.byte	0xff
 7653 0938 1A       		.byte	0x1a
 7654 0939 22       		.byte	0x22
 7655 093a 9F       		.byte	0x9f
 7656 093b 66000000 		.4byte	.LVL147
 7657 093f 74000000 		.4byte	.LFE48
 7658 0943 0100     		.2byte	0x1
 7659 0945 55       		.byte	0x55
 7660 0946 00000000 		.4byte	0
 7661 094a 00000000 		.4byte	0
 7662              	.LLST55:
 7663 094e 30000000 		.4byte	.LVL136
 7664 0952 34000000 		.4byte	.LVL137
 7665 0956 0200     		.2byte	0x2
 7666 0958 30       		.byte	0x30
 7667 0959 9F       		.byte	0x9f
 7668 095a 34000000 		.4byte	.LVL137
 7669 095e 3A000000 		.4byte	.LVL138
 7670 0962 0200     		.2byte	0x2
 7671 0964 36       		.byte	0x36
 7672 0965 9F       		.byte	0x9f
 7673 0966 66000000 		.4byte	.LVL147
 7674 096a 74000000 		.4byte	.LFE48
 7675 096e 0200     		.2byte	0x2
 7676 0970 30       		.byte	0x30
 7677 0971 9F       		.byte	0x9f
 7678 0972 00000000 		.4byte	0
 7679 0976 00000000 		.4byte	0
 7680              	.LLST56:
 7681 097a 30000000 		.4byte	.LVL136
 7682 097e 3D000000 		.4byte	.LVL139-1
 7683 0982 0600     		.2byte	0x6
 7684 0984 7C       		.byte	0x7c
 7685 0985 00       		.sleb128 0
 7686 0986 08       		.byte	0x8
 7687 0987 FF       		.byte	0xff
 7688 0988 1A       		.byte	0x1a
 7689 0989 9F       		.byte	0x9f
 7690 098a 66000000 		.4byte	.LVL147
 7691 098e 74000000 		.4byte	.LFE48
 7692 0992 0600     		.2byte	0x6
 7693 0994 7C       		.byte	0x7c
 7694 0995 00       		.sleb128 0
 7695 0996 08       		.byte	0x8
 7696 0997 FF       		.byte	0xff
 7697 0998 1A       		.byte	0x1a
 7698 0999 9F       		.byte	0x9f
 7699 099a 00000000 		.4byte	0
 7700 099e 00000000 		.4byte	0
 7701              	.LLST57:
 7702 09a2 00000000 		.4byte	.LVL148
 7703 09a6 44000000 		.4byte	.LVL170
 7704 09aa 0100     		.2byte	0x1
 7705 09ac 50       		.byte	0x50
ARM GAS  C:\Users\young\AppData\Local\Temp\ccoFnsFE.s 			page 186


 7706 09ad 44000000 		.4byte	.LVL170
 7707 09b1 70000000 		.4byte	.LFE49
 7708 09b5 0400     		.2byte	0x4
 7709 09b7 F3       		.byte	0xf3
 7710 09b8 01       		.uleb128 0x1
 7711 09b9 50       		.byte	0x50
 7712 09ba 9F       		.byte	0x9f
 7713 09bb 00000000 		.4byte	0
 7714 09bf 00000000 		.4byte	0
 7715              	.LLST58:
 7716 09c3 00000000 		.4byte	.LVL148
 7717 09c7 12000000 		.4byte	.LVL152
 7718 09cb 0200     		.2byte	0x2
 7719 09cd 30       		.byte	0x30
 7720 09ce 9F       		.byte	0x9f
 7721 09cf 12000000 		.4byte	.LVL152
 7722 09d3 1C000000 		.4byte	.LVL156
 7723 09d7 0200     		.2byte	0x2
 7724 09d9 31       		.byte	0x31
 7725 09da 9F       		.byte	0x9f
 7726 09db 1C000000 		.4byte	.LVL156
 7727 09df 28000000 		.4byte	.LVL160
 7728 09e3 0200     		.2byte	0x2
 7729 09e5 32       		.byte	0x32
 7730 09e6 9F       		.byte	0x9f
 7731 09e7 28000000 		.4byte	.LVL160
 7732 09eb 36000000 		.4byte	.LVL164
 7733 09ef 0200     		.2byte	0x2
 7734 09f1 33       		.byte	0x33
 7735 09f2 9F       		.byte	0x9f
 7736 09f3 36000000 		.4byte	.LVL164
 7737 09f7 3E000000 		.4byte	.LVL168
 7738 09fb 0200     		.2byte	0x2
 7739 09fd 34       		.byte	0x34
 7740 09fe 9F       		.byte	0x9f
 7741 09ff 3E000000 		.4byte	.LVL168
 7742 0a03 4A000000 		.4byte	.LVL173
 7743 0a07 0200     		.2byte	0x2
 7744 0a09 35       		.byte	0x35
 7745 0a0a 9F       		.byte	0x9f
 7746 0a0b 4A000000 		.4byte	.LVL173
 7747 0a0f 70000000 		.4byte	.LFE49
 7748 0a13 0200     		.2byte	0x2
 7749 0a15 36       		.byte	0x36
 7750 0a16 9F       		.byte	0x9f
 7751 0a17 00000000 		.4byte	0
 7752 0a1b 00000000 		.4byte	0
 7753              	.LLST59:
 7754 0a1f 00000000 		.4byte	.LVL148
 7755 0a23 12000000 		.4byte	.LVL152
 7756 0a27 0200     		.2byte	0x2
 7757 0a29 34       		.byte	0x34
 7758 0a2a 9F       		.byte	0x9f
 7759 0a2b 12000000 		.4byte	.LVL152
 7760 0a2f 1C000000 		.4byte	.LVL156
 7761 0a33 0200     		.2byte	0x2
 7762 0a35 31       		.byte	0x31
ARM GAS  C:\Users\young\AppData\Local\Temp\ccoFnsFE.s 			page 187


 7763 0a36 9F       		.byte	0x9f
 7764 0a37 1C000000 		.4byte	.LVL156
 7765 0a3b 28000000 		.4byte	.LVL160
 7766 0a3f 0200     		.2byte	0x2
 7767 0a41 32       		.byte	0x32
 7768 0a42 9F       		.byte	0x9f
 7769 0a43 28000000 		.4byte	.LVL160
 7770 0a47 36000000 		.4byte	.LVL164
 7771 0a4b 0200     		.2byte	0x2
 7772 0a4d 35       		.byte	0x35
 7773 0a4e 9F       		.byte	0x9f
 7774 0a4f 36000000 		.4byte	.LVL164
 7775 0a53 3E000000 		.4byte	.LVL168
 7776 0a57 0200     		.2byte	0x2
 7777 0a59 30       		.byte	0x30
 7778 0a5a 9F       		.byte	0x9f
 7779 0a5b 3E000000 		.4byte	.LVL168
 7780 0a5f 70000000 		.4byte	.LFE49
 7781 0a63 0200     		.2byte	0x2
 7782 0a65 33       		.byte	0x33
 7783 0a66 9F       		.byte	0x9f
 7784 0a67 00000000 		.4byte	0
 7785 0a6b 00000000 		.4byte	0
 7786              	.LLST60:
 7787 0a6f 00000000 		.4byte	.LVL148
 7788 0a73 4A000000 		.4byte	.LVL173
 7789 0a77 0200     		.2byte	0x2
 7790 0a79 31       		.byte	0x31
 7791 0a7a 9F       		.byte	0x9f
 7792 0a7b 00000000 		.4byte	0
 7793 0a7f 00000000 		.4byte	0
 7794              	.LLST61:
 7795 0a83 00000000 		.4byte	.LVL148
 7796 0a87 12000000 		.4byte	.LVL152
 7797 0a8b 0200     		.2byte	0x2
 7798 0a8d 34       		.byte	0x34
 7799 0a8e 9F       		.byte	0x9f
 7800 0a8f 12000000 		.4byte	.LVL152
 7801 0a93 1C000000 		.4byte	.LVL156
 7802 0a97 0200     		.2byte	0x2
 7803 0a99 31       		.byte	0x31
 7804 0a9a 9F       		.byte	0x9f
 7805 0a9b 1C000000 		.4byte	.LVL156
 7806 0a9f 28000000 		.4byte	.LVL160
 7807 0aa3 0200     		.2byte	0x2
 7808 0aa5 32       		.byte	0x32
 7809 0aa6 9F       		.byte	0x9f
 7810 0aa7 28000000 		.4byte	.LVL160
 7811 0aab 36000000 		.4byte	.LVL164
 7812 0aaf 0200     		.2byte	0x2
 7813 0ab1 35       		.byte	0x35
 7814 0ab2 9F       		.byte	0x9f
 7815 0ab3 36000000 		.4byte	.LVL164
 7816 0ab7 3E000000 		.4byte	.LVL168
 7817 0abb 0200     		.2byte	0x2
 7818 0abd 30       		.byte	0x30
 7819 0abe 9F       		.byte	0x9f
ARM GAS  C:\Users\young\AppData\Local\Temp\ccoFnsFE.s 			page 188


 7820 0abf 3E000000 		.4byte	.LVL168
 7821 0ac3 4A000000 		.4byte	.LVL173
 7822 0ac7 0200     		.2byte	0x2
 7823 0ac9 33       		.byte	0x33
 7824 0aca 9F       		.byte	0x9f
 7825 0acb 00000000 		.4byte	0
 7826 0acf 00000000 		.4byte	0
 7827              	.LLST62:
 7828 0ad3 00000000 		.4byte	.LVL148
 7829 0ad7 44000000 		.4byte	.LVL170
 7830 0adb 0100     		.2byte	0x1
 7831 0add 50       		.byte	0x50
 7832 0ade 44000000 		.4byte	.LVL170
 7833 0ae2 4A000000 		.4byte	.LVL173
 7834 0ae6 0400     		.2byte	0x4
 7835 0ae8 F3       		.byte	0xf3
 7836 0ae9 01       		.uleb128 0x1
 7837 0aea 50       		.byte	0x50
 7838 0aeb 9F       		.byte	0x9f
 7839 0aec 00000000 		.4byte	0
 7840 0af0 00000000 		.4byte	0
 7841              	.LLST63:
 7842 0af4 00000000 		.4byte	.LVL148
 7843 0af8 12000000 		.4byte	.LVL152
 7844 0afc 0200     		.2byte	0x2
 7845 0afe 3C       		.byte	0x3c
 7846 0aff 9F       		.byte	0x9f
 7847 0b00 12000000 		.4byte	.LVL152
 7848 0b04 1C000000 		.4byte	.LVL156
 7849 0b08 0200     		.2byte	0x2
 7850 0b0a 33       		.byte	0x33
 7851 0b0b 9F       		.byte	0x9f
 7852 0b0c 1C000000 		.4byte	.LVL156
 7853 0b10 28000000 		.4byte	.LVL160
 7854 0b14 0200     		.2byte	0x2
 7855 0b16 36       		.byte	0x36
 7856 0b17 9F       		.byte	0x9f
 7857 0b18 28000000 		.4byte	.LVL160
 7858 0b1c 36000000 		.4byte	.LVL164
 7859 0b20 0200     		.2byte	0x2
 7860 0b22 3F       		.byte	0x3f
 7861 0b23 9F       		.byte	0x9f
 7862 0b24 36000000 		.4byte	.LVL164
 7863 0b28 3E000000 		.4byte	.LVL168
 7864 0b2c 0200     		.2byte	0x2
 7865 0b2e 30       		.byte	0x30
 7866 0b2f 9F       		.byte	0x9f
 7867 0b30 3E000000 		.4byte	.LVL168
 7868 0b34 4A000000 		.4byte	.LVL173
 7869 0b38 0200     		.2byte	0x2
 7870 0b3a 39       		.byte	0x39
 7871 0b3b 9F       		.byte	0x9f
 7872 0b3c 00000000 		.4byte	0
 7873 0b40 00000000 		.4byte	0
 7874              	.LLST64:
 7875 0b44 0A000000 		.4byte	.LVL149
 7876 0b48 12000000 		.4byte	.LVL152
ARM GAS  C:\Users\young\AppData\Local\Temp\ccoFnsFE.s 			page 189


 7877 0b4c 0100     		.2byte	0x1
 7878 0b4e 52       		.byte	0x52
 7879 0b4f 14000000 		.4byte	.LVL153
 7880 0b53 1C000000 		.4byte	.LVL156
 7881 0b57 0100     		.2byte	0x1
 7882 0b59 52       		.byte	0x52
 7883 0b5a 1E000000 		.4byte	.LVL157
 7884 0b5e 22000000 		.4byte	.LVL158
 7885 0b62 0100     		.2byte	0x1
 7886 0b64 55       		.byte	0x55
 7887 0b65 22000000 		.4byte	.LVL158
 7888 0b69 28000000 		.4byte	.LVL160
 7889 0b6d 0100     		.2byte	0x1
 7890 0b6f 52       		.byte	0x52
 7891 0b70 2A000000 		.4byte	.LVL161
 7892 0b74 2E000000 		.4byte	.LVL162
 7893 0b78 0100     		.2byte	0x1
 7894 0b7a 55       		.byte	0x55
 7895 0b7b 2E000000 		.4byte	.LVL162
 7896 0b7f 36000000 		.4byte	.LVL164
 7897 0b83 0100     		.2byte	0x1
 7898 0b85 52       		.byte	0x52
 7899 0b86 38000000 		.4byte	.LVL165
 7900 0b8a 3E000000 		.4byte	.LVL168
 7901 0b8e 0100     		.2byte	0x1
 7902 0b90 52       		.byte	0x52
 7903 0b91 40000000 		.4byte	.LVL169
 7904 0b95 46000000 		.4byte	.LVL171
 7905 0b99 0100     		.2byte	0x1
 7906 0b9b 55       		.byte	0x55
 7907 0b9c 46000000 		.4byte	.LVL171
 7908 0ba0 48000000 		.4byte	.LVL172
 7909 0ba4 0100     		.2byte	0x1
 7910 0ba6 52       		.byte	0x52
 7911 0ba7 48000000 		.4byte	.LVL172
 7912 0bab 4A000000 		.4byte	.LVL173
 7913 0baf 0100     		.2byte	0x1
 7914 0bb1 50       		.byte	0x50
 7915 0bb2 00000000 		.4byte	0
 7916 0bb6 00000000 		.4byte	0
 7917              	.LLST65:
 7918 0bba 4A000000 		.4byte	.LVL173
 7919 0bbe 54000000 		.4byte	.LVL177
 7920 0bc2 0200     		.2byte	0x2
 7921 0bc4 30       		.byte	0x30
 7922 0bc5 9F       		.byte	0x9f
 7923 0bc6 00000000 		.4byte	0
 7924 0bca 00000000 		.4byte	0
 7925              	.LLST66:
 7926 0bce 4A000000 		.4byte	.LVL173
 7927 0bd2 54000000 		.4byte	.LVL177
 7928 0bd6 0200     		.2byte	0x2
 7929 0bd8 34       		.byte	0x34
 7930 0bd9 9F       		.byte	0x9f
 7931 0bda 00000000 		.4byte	0
 7932 0bde 00000000 		.4byte	0
 7933              	.LLST67:
ARM GAS  C:\Users\young\AppData\Local\Temp\ccoFnsFE.s 			page 190


 7934 0be2 4A000000 		.4byte	.LVL173
 7935 0be6 54000000 		.4byte	.LVL177
 7936 0bea 0400     		.2byte	0x4
 7937 0bec F3       		.byte	0xf3
 7938 0bed 01       		.uleb128 0x1
 7939 0bee 50       		.byte	0x50
 7940 0bef 9F       		.byte	0x9f
 7941 0bf0 00000000 		.4byte	0
 7942 0bf4 00000000 		.4byte	0
 7943              	.LLST68:
 7944 0bf8 4A000000 		.4byte	.LVL173
 7945 0bfc 54000000 		.4byte	.LVL177
 7946 0c00 0200     		.2byte	0x2
 7947 0c02 3C       		.byte	0x3c
 7948 0c03 9F       		.byte	0x9f
 7949 0c04 00000000 		.4byte	0
 7950 0c08 00000000 		.4byte	0
 7951              	.LLST69:
 7952 0c0c 4E000000 		.4byte	.LVL174
 7953 0c10 50000000 		.4byte	.LVL175
 7954 0c14 0100     		.2byte	0x1
 7955 0c16 52       		.byte	0x52
 7956 0c17 50000000 		.4byte	.LVL175
 7957 0c1b 52000000 		.4byte	.LVL176
 7958 0c1f 0100     		.2byte	0x1
 7959 0c21 54       		.byte	0x54
 7960 0c22 52000000 		.4byte	.LVL176
 7961 0c26 54000000 		.4byte	.LVL177
 7962 0c2a 0100     		.2byte	0x1
 7963 0c2c 51       		.byte	0x51
 7964 0c2d 00000000 		.4byte	0
 7965 0c31 00000000 		.4byte	0
 7966              	.LLST70:
 7967 0c35 40000000 		.4byte	.LVL200
 7968 0c39 42000000 		.4byte	.LVL201
 7969 0c3d 0100     		.2byte	0x1
 7970 0c3f 51       		.byte	0x51
 7971 0c40 42000000 		.4byte	.LVL201
 7972 0c44 6C000000 		.4byte	.LFE50
 7973 0c48 0100     		.2byte	0x1
 7974 0c4a 53       		.byte	0x53
 7975 0c4b 00000000 		.4byte	0
 7976 0c4f 00000000 		.4byte	0
 7977              	.LLST71:
 7978 0c53 00000000 		.4byte	.LVL178
 7979 0c57 3A000000 		.4byte	.LVL199
 7980 0c5b 0200     		.2byte	0x2
 7981 0c5d 30       		.byte	0x30
 7982 0c5e 9F       		.byte	0x9f
 7983 0c5f 00000000 		.4byte	0
 7984 0c63 00000000 		.4byte	0
 7985              	.LLST72:
 7986 0c67 00000000 		.4byte	.LVL178
 7987 0c6b 0C000000 		.4byte	.LVL181
 7988 0c6f 0200     		.2byte	0x2
 7989 0c71 30       		.byte	0x30
 7990 0c72 9F       		.byte	0x9f
ARM GAS  C:\Users\young\AppData\Local\Temp\ccoFnsFE.s 			page 191


 7991 0c73 0C000000 		.4byte	.LVL181
 7992 0c77 12000000 		.4byte	.LVL184
 7993 0c7b 0200     		.2byte	0x2
 7994 0c7d 31       		.byte	0x31
 7995 0c7e 9F       		.byte	0x9f
 7996 0c7f 12000000 		.4byte	.LVL184
 7997 0c83 1A000000 		.4byte	.LVL187
 7998 0c87 0200     		.2byte	0x2
 7999 0c89 32       		.byte	0x32
 8000 0c8a 9F       		.byte	0x9f
 8001 0c8b 1A000000 		.4byte	.LVL187
 8002 0c8f 24000000 		.4byte	.LVL190
 8003 0c93 0200     		.2byte	0x2
 8004 0c95 33       		.byte	0x33
 8005 0c96 9F       		.byte	0x9f
 8006 0c97 24000000 		.4byte	.LVL190
 8007 0c9b 2A000000 		.4byte	.LVL193
 8008 0c9f 0200     		.2byte	0x2
 8009 0ca1 34       		.byte	0x34
 8010 0ca2 9F       		.byte	0x9f
 8011 0ca3 2A000000 		.4byte	.LVL193
 8012 0ca7 32000000 		.4byte	.LVL196
 8013 0cab 0200     		.2byte	0x2
 8014 0cad 35       		.byte	0x35
 8015 0cae 9F       		.byte	0x9f
 8016 0caf 32000000 		.4byte	.LVL196
 8017 0cb3 3A000000 		.4byte	.LVL199
 8018 0cb7 0200     		.2byte	0x2
 8019 0cb9 36       		.byte	0x36
 8020 0cba 9F       		.byte	0x9f
 8021 0cbb 00000000 		.4byte	0
 8022 0cbf 00000000 		.4byte	0
 8023              	.LLST73:
 8024 0cc3 00000000 		.4byte	.LVL178
 8025 0cc7 3A000000 		.4byte	.LVL199
 8026 0ccb 0200     		.2byte	0x2
 8027 0ccd 31       		.byte	0x31
 8028 0cce 9F       		.byte	0x9f
 8029 0ccf 00000000 		.4byte	0
 8030 0cd3 00000000 		.4byte	0
 8031              	.LLST74:
 8032 0cd7 00000000 		.4byte	.LVL178
 8033 0cdb 0C000000 		.4byte	.LVL181
 8034 0cdf 0200     		.2byte	0x2
 8035 0ce1 34       		.byte	0x34
 8036 0ce2 9F       		.byte	0x9f
 8037 0ce3 0C000000 		.4byte	.LVL181
 8038 0ce7 12000000 		.4byte	.LVL184
 8039 0ceb 0200     		.2byte	0x2
 8040 0ced 31       		.byte	0x31
 8041 0cee 9F       		.byte	0x9f
 8042 0cef 12000000 		.4byte	.LVL184
 8043 0cf3 1A000000 		.4byte	.LVL187
 8044 0cf7 0200     		.2byte	0x2
 8045 0cf9 32       		.byte	0x32
 8046 0cfa 9F       		.byte	0x9f
 8047 0cfb 1A000000 		.4byte	.LVL187
ARM GAS  C:\Users\young\AppData\Local\Temp\ccoFnsFE.s 			page 192


 8048 0cff 24000000 		.4byte	.LVL190
 8049 0d03 0200     		.2byte	0x2
 8050 0d05 35       		.byte	0x35
 8051 0d06 9F       		.byte	0x9f
 8052 0d07 24000000 		.4byte	.LVL190
 8053 0d0b 2A000000 		.4byte	.LVL193
 8054 0d0f 0200     		.2byte	0x2
 8055 0d11 30       		.byte	0x30
 8056 0d12 9F       		.byte	0x9f
 8057 0d13 2A000000 		.4byte	.LVL193
 8058 0d17 3A000000 		.4byte	.LVL199
 8059 0d1b 0200     		.2byte	0x2
 8060 0d1d 33       		.byte	0x33
 8061 0d1e 9F       		.byte	0x9f
 8062 0d1f 00000000 		.4byte	0
 8063 0d23 00000000 		.4byte	0
 8064              	.LLST75:
 8065 0d27 00000000 		.4byte	.LVL178
 8066 0d2b 32000000 		.4byte	.LVL196
 8067 0d2f 0200     		.2byte	0x2
 8068 0d31 31       		.byte	0x31
 8069 0d32 9F       		.byte	0x9f
 8070 0d33 00000000 		.4byte	0
 8071 0d37 00000000 		.4byte	0
 8072              	.LLST76:
 8073 0d3b 00000000 		.4byte	.LVL178
 8074 0d3f 0C000000 		.4byte	.LVL181
 8075 0d43 0200     		.2byte	0x2
 8076 0d45 34       		.byte	0x34
 8077 0d46 9F       		.byte	0x9f
 8078 0d47 0C000000 		.4byte	.LVL181
 8079 0d4b 12000000 		.4byte	.LVL184
 8080 0d4f 0200     		.2byte	0x2
 8081 0d51 31       		.byte	0x31
 8082 0d52 9F       		.byte	0x9f
 8083 0d53 12000000 		.4byte	.LVL184
 8084 0d57 1A000000 		.4byte	.LVL187
 8085 0d5b 0200     		.2byte	0x2
 8086 0d5d 32       		.byte	0x32
 8087 0d5e 9F       		.byte	0x9f
 8088 0d5f 1A000000 		.4byte	.LVL187
 8089 0d63 24000000 		.4byte	.LVL190
 8090 0d67 0200     		.2byte	0x2
 8091 0d69 35       		.byte	0x35
 8092 0d6a 9F       		.byte	0x9f
 8093 0d6b 24000000 		.4byte	.LVL190
 8094 0d6f 2A000000 		.4byte	.LVL193
 8095 0d73 0200     		.2byte	0x2
 8096 0d75 30       		.byte	0x30
 8097 0d76 9F       		.byte	0x9f
 8098 0d77 2A000000 		.4byte	.LVL193
 8099 0d7b 32000000 		.4byte	.LVL196
 8100 0d7f 0200     		.2byte	0x2
 8101 0d81 33       		.byte	0x33
 8102 0d82 9F       		.byte	0x9f
 8103 0d83 00000000 		.4byte	0
 8104 0d87 00000000 		.4byte	0
ARM GAS  C:\Users\young\AppData\Local\Temp\ccoFnsFE.s 			page 193


 8105              	.LLST77:
 8106 0d8b 00000000 		.4byte	.LVL178
 8107 0d8f 32000000 		.4byte	.LVL196
 8108 0d93 0200     		.2byte	0x2
 8109 0d95 30       		.byte	0x30
 8110 0d96 9F       		.byte	0x9f
 8111 0d97 00000000 		.4byte	0
 8112 0d9b 00000000 		.4byte	0
 8113              	.LLST78:
 8114 0d9f 00000000 		.4byte	.LVL178
 8115 0da3 0C000000 		.4byte	.LVL181
 8116 0da7 0200     		.2byte	0x2
 8117 0da9 3C       		.byte	0x3c
 8118 0daa 9F       		.byte	0x9f
 8119 0dab 0C000000 		.4byte	.LVL181
 8120 0daf 12000000 		.4byte	.LVL184
 8121 0db3 0200     		.2byte	0x2
 8122 0db5 33       		.byte	0x33
 8123 0db6 9F       		.byte	0x9f
 8124 0db7 12000000 		.4byte	.LVL184
 8125 0dbb 1A000000 		.4byte	.LVL187
 8126 0dbf 0200     		.2byte	0x2
 8127 0dc1 36       		.byte	0x36
 8128 0dc2 9F       		.byte	0x9f
 8129 0dc3 1A000000 		.4byte	.LVL187
 8130 0dc7 24000000 		.4byte	.LVL190
 8131 0dcb 0200     		.2byte	0x2
 8132 0dcd 3F       		.byte	0x3f
 8133 0dce 9F       		.byte	0x9f
 8134 0dcf 24000000 		.4byte	.LVL190
 8135 0dd3 2A000000 		.4byte	.LVL193
 8136 0dd7 0200     		.2byte	0x2
 8137 0dd9 30       		.byte	0x30
 8138 0dda 9F       		.byte	0x9f
 8139 0ddb 2A000000 		.4byte	.LVL193
 8140 0ddf 32000000 		.4byte	.LVL196
 8141 0de3 0200     		.2byte	0x2
 8142 0de5 39       		.byte	0x39
 8143 0de6 9F       		.byte	0x9f
 8144 0de7 00000000 		.4byte	0
 8145 0deb 00000000 		.4byte	0
 8146              	.LLST79:
 8147 0def 08000000 		.4byte	.LVL179
 8148 0df3 0C000000 		.4byte	.LVL181
 8149 0df7 0100     		.2byte	0x1
 8150 0df9 51       		.byte	0x51
 8151 0dfa 0E000000 		.4byte	.LVL182
 8152 0dfe 12000000 		.4byte	.LVL184
 8153 0e02 0100     		.2byte	0x1
 8154 0e04 51       		.byte	0x51
 8155 0e05 14000000 		.4byte	.LVL185
 8156 0e09 18000000 		.4byte	.LVL186
 8157 0e0d 0100     		.2byte	0x1
 8158 0e0f 50       		.byte	0x50
 8159 0e10 18000000 		.4byte	.LVL186
 8160 0e14 1A000000 		.4byte	.LVL187
 8161 0e18 0100     		.2byte	0x1
ARM GAS  C:\Users\young\AppData\Local\Temp\ccoFnsFE.s 			page 194


 8162 0e1a 51       		.byte	0x51
 8163 0e1b 1C000000 		.4byte	.LVL188
 8164 0e1f 20000000 		.4byte	.LVL189
 8165 0e23 0100     		.2byte	0x1
 8166 0e25 50       		.byte	0x50
 8167 0e26 20000000 		.4byte	.LVL189
 8168 0e2a 24000000 		.4byte	.LVL190
 8169 0e2e 0100     		.2byte	0x1
 8170 0e30 51       		.byte	0x51
 8171 0e31 26000000 		.4byte	.LVL191
 8172 0e35 2A000000 		.4byte	.LVL193
 8173 0e39 0100     		.2byte	0x1
 8174 0e3b 51       		.byte	0x51
 8175 0e3c 2C000000 		.4byte	.LVL194
 8176 0e40 30000000 		.4byte	.LVL195
 8177 0e44 0100     		.2byte	0x1
 8178 0e46 50       		.byte	0x50
 8179 0e47 30000000 		.4byte	.LVL195
 8180 0e4b 32000000 		.4byte	.LVL196
 8181 0e4f 0100     		.2byte	0x1
 8182 0e51 51       		.byte	0x51
 8183 0e52 00000000 		.4byte	0
 8184 0e56 00000000 		.4byte	0
 8185              	.LLST80:
 8186 0e5a 32000000 		.4byte	.LVL196
 8187 0e5e 3A000000 		.4byte	.LVL199
 8188 0e62 0200     		.2byte	0x2
 8189 0e64 30       		.byte	0x30
 8190 0e65 9F       		.byte	0x9f
 8191 0e66 00000000 		.4byte	0
 8192 0e6a 00000000 		.4byte	0
 8193              	.LLST81:
 8194 0e6e 32000000 		.4byte	.LVL196
 8195 0e72 3A000000 		.4byte	.LVL199
 8196 0e76 0200     		.2byte	0x2
 8197 0e78 34       		.byte	0x34
 8198 0e79 9F       		.byte	0x9f
 8199 0e7a 00000000 		.4byte	0
 8200 0e7e 00000000 		.4byte	0
 8201              	.LLST83:
 8202 0e82 32000000 		.4byte	.LVL196
 8203 0e86 3A000000 		.4byte	.LVL199
 8204 0e8a 0200     		.2byte	0x2
 8205 0e8c 3C       		.byte	0x3c
 8206 0e8d 9F       		.byte	0x9f
 8207 0e8e 00000000 		.4byte	0
 8208 0e92 00000000 		.4byte	0
 8209              	.LLST84:
 8210 0e96 36000000 		.4byte	.LVL197
 8211 0e9a 38000000 		.4byte	.LVL198
 8212 0e9e 0100     		.2byte	0x1
 8213 0ea0 51       		.byte	0x51
 8214 0ea1 38000000 		.4byte	.LVL198
 8215 0ea5 3A000000 		.4byte	.LVL199
 8216 0ea9 0100     		.2byte	0x1
 8217 0eab 52       		.byte	0x52
 8218 0eac 00000000 		.4byte	0
ARM GAS  C:\Users\young\AppData\Local\Temp\ccoFnsFE.s 			page 195


 8219 0eb0 00000000 		.4byte	0
 8220              	.LLST85:
 8221 0eb4 00000000 		.4byte	.LVL203
 8222 0eb8 14000000 		.4byte	.LVL206
 8223 0ebc 0100     		.2byte	0x1
 8224 0ebe 50       		.byte	0x50
 8225 0ebf 14000000 		.4byte	.LVL206
 8226 0ec3 24000000 		.4byte	.LFE51
 8227 0ec7 0400     		.2byte	0x4
 8228 0ec9 F3       		.byte	0xf3
 8229 0eca 01       		.uleb128 0x1
 8230 0ecb 50       		.byte	0x50
 8231 0ecc 9F       		.byte	0x9f
 8232 0ecd 00000000 		.4byte	0
 8233 0ed1 00000000 		.4byte	0
 8234              	.LLST86:
 8235 0ed5 00000000 		.4byte	.LVL203
 8236 0ed9 04000000 		.4byte	.LVL204
 8237 0edd 0100     		.2byte	0x1
 8238 0edf 51       		.byte	0x51
 8239 0ee0 04000000 		.4byte	.LVL204
 8240 0ee4 24000000 		.4byte	.LFE51
 8241 0ee8 0400     		.2byte	0x4
 8242 0eea F3       		.byte	0xf3
 8243 0eeb 01       		.uleb128 0x1
 8244 0eec 51       		.byte	0x51
 8245 0eed 9F       		.byte	0x9f
 8246 0eee 00000000 		.4byte	0
 8247 0ef2 00000000 		.4byte	0
 8248              	.LLST87:
 8249 0ef6 00000000 		.4byte	.LVL203
 8250 0efa 08000000 		.4byte	.LVL205
 8251 0efe 0100     		.2byte	0x1
 8252 0f00 52       		.byte	0x52
 8253 0f01 08000000 		.4byte	.LVL205
 8254 0f05 24000000 		.4byte	.LFE51
 8255 0f09 0400     		.2byte	0x4
 8256 0f0b F3       		.byte	0xf3
 8257 0f0c 01       		.uleb128 0x1
 8258 0f0d 52       		.byte	0x52
 8259 0f0e 9F       		.byte	0x9f
 8260 0f0f 00000000 		.4byte	0
 8261 0f13 00000000 		.4byte	0
 8262              	.LLST88:
 8263 0f17 16000000 		.4byte	.LVL207
 8264 0f1b 1A000000 		.4byte	.LVL209
 8265 0f1f 0100     		.2byte	0x1
 8266 0f21 53       		.byte	0x53
 8267 0f22 1A000000 		.4byte	.LVL209
 8268 0f26 24000000 		.4byte	.LFE51
 8269 0f2a 0100     		.2byte	0x1
 8270 0f2c 50       		.byte	0x50
 8271 0f2d 00000000 		.4byte	0
 8272 0f31 00000000 		.4byte	0
 8273              	.LLST89:
 8274 0f35 00000000 		.4byte	.LVL210
 8275 0f39 2B000000 		.4byte	.LVL212-1
ARM GAS  C:\Users\young\AppData\Local\Temp\ccoFnsFE.s 			page 196


 8276 0f3d 0100     		.2byte	0x1
 8277 0f3f 50       		.byte	0x50
 8278 0f40 2B000000 		.4byte	.LVL212-1
 8279 0f44 A8000000 		.4byte	.LVL233
 8280 0f48 0100     		.2byte	0x1
 8281 0f4a 57       		.byte	0x57
 8282 0f4b A8000000 		.4byte	.LVL233
 8283 0f4f 34010000 		.4byte	.LFE52
 8284 0f53 0400     		.2byte	0x4
 8285 0f55 F3       		.byte	0xf3
 8286 0f56 01       		.uleb128 0x1
 8287 0f57 50       		.byte	0x50
 8288 0f58 9F       		.byte	0x9f
 8289 0f59 00000000 		.4byte	0
 8290 0f5d 00000000 		.4byte	0
 8291              	.LLST90:
 8292 0f61 00000000 		.4byte	.LVL210
 8293 0f65 2B000000 		.4byte	.LVL212-1
 8294 0f69 0800     		.2byte	0x8
 8295 0f6b 70       		.byte	0x70
 8296 0f6c 00       		.sleb128 0
 8297 0f6d 03       		.byte	0x3
 8298 0f6e 00000000 		.4byte	CapSense_widgetNumber
 8299 0f72 22       		.byte	0x22
 8300 0f73 2B000000 		.4byte	.LVL212-1
 8301 0f77 A8000000 		.4byte	.LVL233
 8302 0f7b 0800     		.2byte	0x8
 8303 0f7d 77       		.byte	0x77
 8304 0f7e 00       		.sleb128 0
 8305 0f7f 03       		.byte	0x3
 8306 0f80 00000000 		.4byte	CapSense_widgetNumber
 8307 0f84 22       		.byte	0x22
 8308 0f85 A8000000 		.4byte	.LVL233
 8309 0f89 34010000 		.4byte	.LFE52
 8310 0f8d 0900     		.2byte	0x9
 8311 0f8f F3       		.byte	0xf3
 8312 0f90 01       		.uleb128 0x1
 8313 0f91 50       		.byte	0x50
 8314 0f92 03       		.byte	0x3
 8315 0f93 00000000 		.4byte	CapSense_widgetNumber
 8316 0f97 22       		.byte	0x22
 8317 0f98 00000000 		.4byte	0
 8318 0f9c 00000000 		.4byte	0
 8319              	.LLST91:
 8320 0fa0 F2000000 		.4byte	.LVL242
 8321 0fa4 04010000 		.4byte	.LVL247
 8322 0fa8 0100     		.2byte	0x1
 8323 0faa 57       		.byte	0x57
 8324 0fab 00000000 		.4byte	0
 8325 0faf 00000000 		.4byte	0
 8326              	.LLST92:
 8327 0fb3 64000000 		.4byte	.LVL219
 8328 0fb7 6B000000 		.4byte	.LVL221-1
 8329 0fbb 0100     		.2byte	0x1
 8330 0fbd 53       		.byte	0x53
 8331 0fbe 78000000 		.4byte	.LVL223
 8332 0fc2 7A000000 		.4byte	.LVL224
ARM GAS  C:\Users\young\AppData\Local\Temp\ccoFnsFE.s 			page 197


 8333 0fc6 0900     		.2byte	0x9
 8334 0fc8 72       		.byte	0x72
 8335 0fc9 00       		.sleb128 0
 8336 0fca 11       		.byte	0x11
 8337 0fcb 80FE837C 		.sleb128 -8323328
 8338 0fcf 1A       		.byte	0x1a
 8339 0fd0 9F       		.byte	0x9f
 8340 0fd1 7A000000 		.4byte	.LVL224
 8341 0fd5 80000000 		.4byte	.LVL225
 8342 0fd9 0100     		.2byte	0x1
 8343 0fdb 53       		.byte	0x53
 8344 0fdc 8C000000 		.4byte	.LVL226
 8345 0fe0 90000000 		.4byte	.LVL227
 8346 0fe4 0100     		.2byte	0x1
 8347 0fe6 53       		.byte	0x53
 8348 0fe7 90000000 		.4byte	.LVL227
 8349 0feb 04010000 		.4byte	.LVL245
 8350 0fef 0100     		.2byte	0x1
 8351 0ff1 54       		.byte	0x54
 8352 0ff2 00000000 		.4byte	0
 8353 0ff6 00000000 		.4byte	0
 8354              	.LLST93:
 8355 0ffa 28000000 		.4byte	.LVL211
 8356 0ffe 04010000 		.4byte	.LVL246
 8357 1002 0100     		.2byte	0x1
 8358 1004 56       		.byte	0x56
 8359 1005 00000000 		.4byte	0
 8360 1009 00000000 		.4byte	0
 8361              	.LLST94:
 8362 100d 9E000000 		.4byte	.LVL230
 8363 1011 A8000000 		.4byte	.LVL233
 8364 1015 0100     		.2byte	0x1
 8365 1017 57       		.byte	0x57
 8366 1018 A8000000 		.4byte	.LVL233
 8367 101c EC000000 		.4byte	.LVL240
 8368 1020 0400     		.2byte	0x4
 8369 1022 F3       		.byte	0xf3
 8370 1023 01       		.uleb128 0x1
 8371 1024 50       		.byte	0x50
 8372 1025 9F       		.byte	0x9f
 8373 1026 00000000 		.4byte	0
 8374 102a 00000000 		.4byte	0
 8375              	.LLST95:
 8376 102e A8000000 		.4byte	.LVL233
 8377 1032 D4000000 		.4byte	.LVL238
 8378 1036 0500     		.2byte	0x5
 8379 1038 77       		.byte	0x77
 8380 1039 00       		.sleb128 0
 8381 103a 33       		.byte	0x33
 8382 103b 1E       		.byte	0x1e
 8383 103c 9F       		.byte	0x9f
 8384 103d D4000000 		.4byte	.LVL238
 8385 1041 EC000000 		.4byte	.LVL240
 8386 1045 0E00     		.2byte	0xe
 8387 1047 F3       		.byte	0xf3
 8388 1048 01       		.uleb128 0x1
 8389 1049 50       		.byte	0x50
ARM GAS  C:\Users\young\AppData\Local\Temp\ccoFnsFE.s 			page 198


 8390 104a 03       		.byte	0x3
 8391 104b 00000000 		.4byte	.LANCHOR0
 8392 104f 22       		.byte	0x22
 8393 1050 94       		.byte	0x94
 8394 1051 01       		.byte	0x1
 8395 1052 33       		.byte	0x33
 8396 1053 1E       		.byte	0x1e
 8397 1054 9F       		.byte	0x9f
 8398 1055 00000000 		.4byte	0
 8399 1059 00000000 		.4byte	0
 8400              	.LLST96:
 8401 105d A8000000 		.4byte	.LVL233
 8402 1061 D4000000 		.4byte	.LVL238
 8403 1065 0500     		.2byte	0x5
 8404 1067 77       		.byte	0x77
 8405 1068 00       		.sleb128 0
 8406 1069 32       		.byte	0x32
 8407 106a 24       		.byte	0x24
 8408 106b 9F       		.byte	0x9f
 8409 106c D4000000 		.4byte	.LVL238
 8410 1070 EC000000 		.4byte	.LVL240
 8411 1074 0E00     		.2byte	0xe
 8412 1076 F3       		.byte	0xf3
 8413 1077 01       		.uleb128 0x1
 8414 1078 50       		.byte	0x50
 8415 1079 03       		.byte	0x3
 8416 107a 00000000 		.4byte	.LANCHOR0
 8417 107e 22       		.byte	0x22
 8418 107f 94       		.byte	0x94
 8419 1080 01       		.byte	0x1
 8420 1081 32       		.byte	0x32
 8421 1082 24       		.byte	0x24
 8422 1083 9F       		.byte	0x9f
 8423 1084 00000000 		.4byte	0
 8424 1088 00000000 		.4byte	0
 8425              	.LLST97:
 8426 108c AE000000 		.4byte	.LVL235
 8427 1090 EC000000 		.4byte	.LVL240
 8428 1094 0100     		.2byte	0x1
 8429 1096 5A       		.byte	0x5a
 8430 1097 00000000 		.4byte	0
 8431 109b 00000000 		.4byte	0
 8432              	.LLST98:
 8433 109f C4000000 		.4byte	.LVL236
 8434 10a3 EB000000 		.4byte	.LVL240-1
 8435 10a7 0100     		.2byte	0x1
 8436 10a9 52       		.byte	0x52
 8437 10aa 00000000 		.4byte	0
 8438 10ae 00000000 		.4byte	0
 8439              	.LLST99:
 8440 10b2 A4000000 		.4byte	.LVL231
 8441 10b6 A6000000 		.4byte	.LVL232
 8442 10ba 0100     		.2byte	0x1
 8443 10bc 53       		.byte	0x53
 8444 10bd A6000000 		.4byte	.LVL232
 8445 10c1 EC000000 		.4byte	.LVL240
 8446 10c5 0100     		.2byte	0x1
ARM GAS  C:\Users\young\AppData\Local\Temp\ccoFnsFE.s 			page 199


 8447 10c7 59       		.byte	0x59
 8448 10c8 00000000 		.4byte	0
 8449 10cc 00000000 		.4byte	0
 8450              	.LLST100:
 8451 10d0 00000000 		.4byte	.LVL248
 8452 10d4 13000000 		.4byte	.LVL249-1
 8453 10d8 0100     		.2byte	0x1
 8454 10da 50       		.byte	0x50
 8455 10db 13000000 		.4byte	.LVL249-1
 8456 10df 1C000000 		.4byte	.LFE38
 8457 10e3 0400     		.2byte	0x4
 8458 10e5 F3       		.byte	0xf3
 8459 10e6 01       		.uleb128 0x1
 8460 10e7 50       		.byte	0x50
 8461 10e8 9F       		.byte	0x9f
 8462 10e9 00000000 		.4byte	0
 8463 10ed 00000000 		.4byte	0
 8464              	.LLST101:
 8465 10f1 16000000 		.4byte	.LVL250
 8466 10f5 18000000 		.4byte	.LVL251
 8467 10f9 0100     		.2byte	0x1
 8468 10fb 53       		.byte	0x53
 8469 10fc 1A000000 		.4byte	.LVL252
 8470 1100 2E000000 		.4byte	.LVL254
 8471 1104 0100     		.2byte	0x1
 8472 1106 53       		.byte	0x53
 8473 1107 00000000 		.4byte	0
 8474 110b 00000000 		.4byte	0
 8475              	.LLST102:
 8476 110f 1E000000 		.4byte	.LVL253
 8477 1113 2E000000 		.4byte	.LVL254
 8478 1117 0600     		.2byte	0x6
 8479 1119 73       		.byte	0x73
 8480 111a 00       		.sleb128 0
 8481 111b 08       		.byte	0x8
 8482 111c FF       		.byte	0xff
 8483 111d 1A       		.byte	0x1a
 8484 111e 9F       		.byte	0x9f
 8485 111f 00000000 		.4byte	0
 8486 1123 00000000 		.4byte	0
 8487              	.LLST103:
 8488 1127 1E000000 		.4byte	.LVL253
 8489 112b 2E000000 		.4byte	.LVL254
 8490 112f 0600     		.2byte	0x6
 8491 1131 03       		.byte	0x3
 8492 1132 00000000 		.4byte	CapSense_sensorEnableMask
 8493 1136 9F       		.byte	0x9f
 8494 1137 00000000 		.4byte	0
 8495 113b 00000000 		.4byte	0
 8496              	.LLST104:
 8497 113f 1E000000 		.4byte	.LVL253
 8498 1143 2E000000 		.4byte	.LVL254
 8499 1147 0800     		.2byte	0x8
 8500 1149 73       		.byte	0x73
 8501 114a 00       		.sleb128 0
 8502 114b 08       		.byte	0x8
 8503 114c FF       		.byte	0xff
ARM GAS  C:\Users\young\AppData\Local\Temp\ccoFnsFE.s 			page 200


 8504 114d 1A       		.byte	0x1a
 8505 114e 33       		.byte	0x33
 8506 114f 25       		.byte	0x25
 8507 1150 9F       		.byte	0x9f
 8508 1151 00000000 		.4byte	0
 8509 1155 00000000 		.4byte	0
 8510              	.LLST105:
 8511 1159 1E000000 		.4byte	.LVL253
 8512 115d 2E000000 		.4byte	.LVL254
 8513 1161 0700     		.2byte	0x7
 8514 1163 31       		.byte	0x31
 8515 1164 73       		.byte	0x73
 8516 1165 00       		.sleb128 0
 8517 1166 37       		.byte	0x37
 8518 1167 1A       		.byte	0x1a
 8519 1168 24       		.byte	0x24
 8520 1169 9F       		.byte	0x9f
 8521 116a 00000000 		.4byte	0
 8522 116e 00000000 		.4byte	0
 8523              	.LLST106:
 8524 1172 00000000 		.4byte	.LVL256
 8525 1176 16000000 		.4byte	.LVL259
 8526 117a 0100     		.2byte	0x1
 8527 117c 50       		.byte	0x50
 8528 117d 16000000 		.4byte	.LVL259
 8529 1181 C0000000 		.4byte	.LFE39
 8530 1185 0400     		.2byte	0x4
 8531 1187 F3       		.byte	0xf3
 8532 1188 01       		.uleb128 0x1
 8533 1189 50       		.byte	0x50
 8534 118a 9F       		.byte	0x9f
 8535 118b 00000000 		.4byte	0
 8536 118f 00000000 		.4byte	0
 8537              	.LLST107:
 8538 1193 0A000000 		.4byte	.LVL257
 8539 1197 1C000000 		.4byte	.LVL260
 8540 119b 0100     		.2byte	0x1
 8541 119d 51       		.byte	0x51
 8542 119e 00000000 		.4byte	0
 8543 11a2 00000000 		.4byte	0
 8544              	.LLST108:
 8545 11a6 1C000000 		.4byte	.LVL260
 8546 11aa 6E000000 		.4byte	.LVL272
 8547 11ae 0100     		.2byte	0x1
 8548 11b0 51       		.byte	0x51
 8549 11b1 86000000 		.4byte	.LVL275
 8550 11b5 8E000000 		.4byte	.LVL277
 8551 11b9 0100     		.2byte	0x1
 8552 11bb 51       		.byte	0x51
 8553 11bc 92000000 		.4byte	.LVL278
 8554 11c0 C0000000 		.4byte	.LFE39
 8555 11c4 0100     		.2byte	0x1
 8556 11c6 51       		.byte	0x51
 8557 11c7 00000000 		.4byte	0
 8558 11cb 00000000 		.4byte	0
 8559              	.LLST109:
 8560 11cf 1C000000 		.4byte	.LVL260
ARM GAS  C:\Users\young\AppData\Local\Temp\ccoFnsFE.s 			page 201


 8561 11d3 2A000000 		.4byte	.LVL262
 8562 11d7 0200     		.2byte	0x2
 8563 11d9 30       		.byte	0x30
 8564 11da 9F       		.byte	0x9f
 8565 11db 2A000000 		.4byte	.LVL262
 8566 11df 38000000 		.4byte	.LVL264
 8567 11e3 0200     		.2byte	0x2
 8568 11e5 31       		.byte	0x31
 8569 11e6 9F       		.byte	0x9f
 8570 11e7 38000000 		.4byte	.LVL264
 8571 11eb 46000000 		.4byte	.LVL266
 8572 11ef 0200     		.2byte	0x2
 8573 11f1 32       		.byte	0x32
 8574 11f2 9F       		.byte	0x9f
 8575 11f3 46000000 		.4byte	.LVL266
 8576 11f7 54000000 		.4byte	.LVL268
 8577 11fb 0200     		.2byte	0x2
 8578 11fd 33       		.byte	0x33
 8579 11fe 9F       		.byte	0x9f
 8580 11ff 54000000 		.4byte	.LVL268
 8581 1203 62000000 		.4byte	.LVL270
 8582 1207 0200     		.2byte	0x2
 8583 1209 34       		.byte	0x34
 8584 120a 9F       		.byte	0x9f
 8585 120b 62000000 		.4byte	.LVL270
 8586 120f 70000000 		.4byte	.LVL273
 8587 1213 0200     		.2byte	0x2
 8588 1215 35       		.byte	0x35
 8589 1216 9F       		.byte	0x9f
 8590 1217 70000000 		.4byte	.LVL273
 8591 121b 86000000 		.4byte	.LVL275
 8592 121f 0200     		.2byte	0x2
 8593 1221 36       		.byte	0x36
 8594 1222 9F       		.byte	0x9f
 8595 1223 86000000 		.4byte	.LVL275
 8596 1227 8C000000 		.4byte	.LVL276
 8597 122b 0200     		.2byte	0x2
 8598 122d 30       		.byte	0x30
 8599 122e 9F       		.byte	0x9f
 8600 122f 8C000000 		.4byte	.LVL276
 8601 1233 92000000 		.4byte	.LVL278
 8602 1237 0200     		.2byte	0x2
 8603 1239 35       		.byte	0x35
 8604 123a 9F       		.byte	0x9f
 8605 123b 92000000 		.4byte	.LVL278
 8606 123f 98000000 		.4byte	.LVL279
 8607 1243 0200     		.2byte	0x2
 8608 1245 34       		.byte	0x34
 8609 1246 9F       		.byte	0x9f
 8610 1247 98000000 		.4byte	.LVL279
 8611 124b 9E000000 		.4byte	.LVL280
 8612 124f 0200     		.2byte	0x2
 8613 1251 33       		.byte	0x33
 8614 1252 9F       		.byte	0x9f
 8615 1253 9E000000 		.4byte	.LVL280
 8616 1257 A4000000 		.4byte	.LVL281
 8617 125b 0200     		.2byte	0x2
ARM GAS  C:\Users\young\AppData\Local\Temp\ccoFnsFE.s 			page 202


 8618 125d 32       		.byte	0x32
 8619 125e 9F       		.byte	0x9f
 8620 125f A4000000 		.4byte	.LVL281
 8621 1263 C0000000 		.4byte	.LFE39
 8622 1267 0200     		.2byte	0x2
 8623 1269 31       		.byte	0x31
 8624 126a 9F       		.byte	0x9f
 8625 126b 00000000 		.4byte	0
 8626 126f 00000000 		.4byte	0
 8627              	.LLST110:
 8628 1273 26000000 		.4byte	.LVL261
 8629 1277 2A000000 		.4byte	.LVL262
 8630 127b 0200     		.2byte	0x2
 8631 127d 31       		.byte	0x31
 8632 127e 9F       		.byte	0x9f
 8633 127f 8C000000 		.4byte	.LVL276
 8634 1283 C0000000 		.4byte	.LFE39
 8635 1287 0200     		.2byte	0x2
 8636 1289 31       		.byte	0x31
 8637 128a 9F       		.byte	0x9f
 8638 128b 00000000 		.4byte	0
 8639 128f 00000000 		.4byte	0
 8640              	.LLST111:
 8641 1293 26000000 		.4byte	.LVL261
 8642 1297 2A000000 		.4byte	.LVL262
 8643 129b 0200     		.2byte	0x2
 8644 129d 30       		.byte	0x30
 8645 129e 9F       		.byte	0x9f
 8646 129f 8C000000 		.4byte	.LVL276
 8647 12a3 92000000 		.4byte	.LVL278
 8648 12a7 0200     		.2byte	0x2
 8649 12a9 35       		.byte	0x35
 8650 12aa 9F       		.byte	0x9f
 8651 12ab 92000000 		.4byte	.LVL278
 8652 12af 98000000 		.4byte	.LVL279
 8653 12b3 0200     		.2byte	0x2
 8654 12b5 34       		.byte	0x34
 8655 12b6 9F       		.byte	0x9f
 8656 12b7 98000000 		.4byte	.LVL279
 8657 12bb 9E000000 		.4byte	.LVL280
 8658 12bf 0200     		.2byte	0x2
 8659 12c1 33       		.byte	0x33
 8660 12c2 9F       		.byte	0x9f
 8661 12c3 9E000000 		.4byte	.LVL280
 8662 12c7 A4000000 		.4byte	.LVL281
 8663 12cb 0200     		.2byte	0x2
 8664 12cd 32       		.byte	0x32
 8665 12ce 9F       		.byte	0x9f
 8666 12cf A4000000 		.4byte	.LVL281
 8667 12d3 C0000000 		.4byte	.LFE39
 8668 12d7 0200     		.2byte	0x2
 8669 12d9 31       		.byte	0x31
 8670 12da 9F       		.byte	0x9f
 8671 12db 00000000 		.4byte	0
 8672 12df 00000000 		.4byte	0
 8673              	.LLST112:
 8674 12e3 26000000 		.4byte	.LVL261
ARM GAS  C:\Users\young\AppData\Local\Temp\ccoFnsFE.s 			page 203


 8675 12e7 2A000000 		.4byte	.LVL262
 8676 12eb 0600     		.2byte	0x6
 8677 12ed 03       		.byte	0x3
 8678 12ee 00000000 		.4byte	CapSense_sensorEnableMask
 8679 12f2 9F       		.byte	0x9f
 8680 12f3 8C000000 		.4byte	.LVL276
 8681 12f7 C0000000 		.4byte	.LFE39
 8682 12fb 0600     		.2byte	0x6
 8683 12fd 03       		.byte	0x3
 8684 12fe 00000000 		.4byte	CapSense_sensorEnableMask
 8685 1302 9F       		.byte	0x9f
 8686 1303 00000000 		.4byte	0
 8687 1307 00000000 		.4byte	0
 8688              	.LLST113:
 8689 130b 26000000 		.4byte	.LVL261
 8690 130f 2A000000 		.4byte	.LVL262
 8691 1313 0200     		.2byte	0x2
 8692 1315 30       		.byte	0x30
 8693 1316 9F       		.byte	0x9f
 8694 1317 8C000000 		.4byte	.LVL276
 8695 131b C0000000 		.4byte	.LFE39
 8696 131f 0200     		.2byte	0x2
 8697 1321 30       		.byte	0x30
 8698 1322 9F       		.byte	0x9f
 8699 1323 00000000 		.4byte	0
 8700 1327 00000000 		.4byte	0
 8701              	.LLST114:
 8702 132b 26000000 		.4byte	.LVL261
 8703 132f 2A000000 		.4byte	.LVL262
 8704 1333 0200     		.2byte	0x2
 8705 1335 31       		.byte	0x31
 8706 1336 9F       		.byte	0x9f
 8707 1337 8C000000 		.4byte	.LVL276
 8708 133b 92000000 		.4byte	.LVL278
 8709 133f 0300     		.2byte	0x3
 8710 1341 08       		.byte	0x8
 8711 1342 20       		.byte	0x20
 8712 1343 9F       		.byte	0x9f
 8713 1344 92000000 		.4byte	.LVL278
 8714 1348 98000000 		.4byte	.LVL279
 8715 134c 0200     		.2byte	0x2
 8716 134e 40       		.byte	0x40
 8717 134f 9F       		.byte	0x9f
 8718 1350 98000000 		.4byte	.LVL279
 8719 1354 9E000000 		.4byte	.LVL280
 8720 1358 0200     		.2byte	0x2
 8721 135a 38       		.byte	0x38
 8722 135b 9F       		.byte	0x9f
 8723 135c 9E000000 		.4byte	.LVL280
 8724 1360 A4000000 		.4byte	.LVL281
 8725 1364 0200     		.2byte	0x2
 8726 1366 34       		.byte	0x34
 8727 1367 9F       		.byte	0x9f
 8728 1368 A4000000 		.4byte	.LVL281
 8729 136c C0000000 		.4byte	.LFE39
 8730 1370 0200     		.2byte	0x2
 8731 1372 32       		.byte	0x32
ARM GAS  C:\Users\young\AppData\Local\Temp\ccoFnsFE.s 			page 204


 8732 1373 9F       		.byte	0x9f
 8733 1374 00000000 		.4byte	0
 8734 1378 00000000 		.4byte	0
 8735              	.LLST115:
 8736 137c 34000000 		.4byte	.LVL263
 8737 1380 38000000 		.4byte	.LVL264
 8738 1384 0200     		.2byte	0x2
 8739 1386 30       		.byte	0x30
 8740 1387 9F       		.byte	0x9f
 8741 1388 42000000 		.4byte	.LVL265
 8742 138c 46000000 		.4byte	.LVL266
 8743 1390 0200     		.2byte	0x2
 8744 1392 30       		.byte	0x30
 8745 1393 9F       		.byte	0x9f
 8746 1394 50000000 		.4byte	.LVL267
 8747 1398 54000000 		.4byte	.LVL268
 8748 139c 0200     		.2byte	0x2
 8749 139e 30       		.byte	0x30
 8750 139f 9F       		.byte	0x9f
 8751 13a0 5E000000 		.4byte	.LVL269
 8752 13a4 62000000 		.4byte	.LVL270
 8753 13a8 0200     		.2byte	0x2
 8754 13aa 30       		.byte	0x30
 8755 13ab 9F       		.byte	0x9f
 8756 13ac 6C000000 		.4byte	.LVL271
 8757 13b0 70000000 		.4byte	.LVL273
 8758 13b4 0200     		.2byte	0x2
 8759 13b6 30       		.byte	0x30
 8760 13b7 9F       		.byte	0x9f
 8761 13b8 86000000 		.4byte	.LVL275
 8762 13bc 8C000000 		.4byte	.LVL276
 8763 13c0 0200     		.2byte	0x2
 8764 13c2 30       		.byte	0x30
 8765 13c3 9F       		.byte	0x9f
 8766 13c4 00000000 		.4byte	0
 8767 13c8 00000000 		.4byte	0
 8768              	.LLST116:
 8769 13cc 34000000 		.4byte	.LVL263
 8770 13d0 38000000 		.4byte	.LVL264
 8771 13d4 0200     		.2byte	0x2
 8772 13d6 31       		.byte	0x31
 8773 13d7 9F       		.byte	0x9f
 8774 13d8 42000000 		.4byte	.LVL265
 8775 13dc 46000000 		.4byte	.LVL266
 8776 13e0 0200     		.2byte	0x2
 8777 13e2 32       		.byte	0x32
 8778 13e3 9F       		.byte	0x9f
 8779 13e4 50000000 		.4byte	.LVL267
 8780 13e8 54000000 		.4byte	.LVL268
 8781 13ec 0200     		.2byte	0x2
 8782 13ee 33       		.byte	0x33
 8783 13ef 9F       		.byte	0x9f
 8784 13f0 5E000000 		.4byte	.LVL269
 8785 13f4 62000000 		.4byte	.LVL270
 8786 13f8 0200     		.2byte	0x2
 8787 13fa 34       		.byte	0x34
 8788 13fb 9F       		.byte	0x9f
ARM GAS  C:\Users\young\AppData\Local\Temp\ccoFnsFE.s 			page 205


 8789 13fc 6C000000 		.4byte	.LVL271
 8790 1400 70000000 		.4byte	.LVL273
 8791 1404 0200     		.2byte	0x2
 8792 1406 35       		.byte	0x35
 8793 1407 9F       		.byte	0x9f
 8794 1408 86000000 		.4byte	.LVL275
 8795 140c 8C000000 		.4byte	.LVL276
 8796 1410 0200     		.2byte	0x2
 8797 1412 30       		.byte	0x30
 8798 1413 9F       		.byte	0x9f
 8799 1414 00000000 		.4byte	0
 8800 1418 00000000 		.4byte	0
 8801              	.LLST117:
 8802 141c 34000000 		.4byte	.LVL263
 8803 1420 38000000 		.4byte	.LVL264
 8804 1424 0600     		.2byte	0x6
 8805 1426 03       		.byte	0x3
 8806 1427 00000000 		.4byte	CapSense_sensorEnableMask
 8807 142b 9F       		.byte	0x9f
 8808 142c 42000000 		.4byte	.LVL265
 8809 1430 46000000 		.4byte	.LVL266
 8810 1434 0600     		.2byte	0x6
 8811 1436 03       		.byte	0x3
 8812 1437 00000000 		.4byte	CapSense_sensorEnableMask
 8813 143b 9F       		.byte	0x9f
 8814 143c 50000000 		.4byte	.LVL267
 8815 1440 54000000 		.4byte	.LVL268
 8816 1444 0600     		.2byte	0x6
 8817 1446 03       		.byte	0x3
 8818 1447 00000000 		.4byte	CapSense_sensorEnableMask
 8819 144b 9F       		.byte	0x9f
 8820 144c 5E000000 		.4byte	.LVL269
 8821 1450 62000000 		.4byte	.LVL270
 8822 1454 0600     		.2byte	0x6
 8823 1456 03       		.byte	0x3
 8824 1457 00000000 		.4byte	CapSense_sensorEnableMask
 8825 145b 9F       		.byte	0x9f
 8826 145c 6C000000 		.4byte	.LVL271
 8827 1460 70000000 		.4byte	.LVL273
 8828 1464 0600     		.2byte	0x6
 8829 1466 03       		.byte	0x3
 8830 1467 00000000 		.4byte	CapSense_sensorEnableMask
 8831 146b 9F       		.byte	0x9f
 8832 146c 86000000 		.4byte	.LVL275
 8833 1470 8C000000 		.4byte	.LVL276
 8834 1474 0600     		.2byte	0x6
 8835 1476 03       		.byte	0x3
 8836 1477 00000000 		.4byte	CapSense_sensorEnableMask
 8837 147b 9F       		.byte	0x9f
 8838 147c 00000000 		.4byte	0
 8839 1480 00000000 		.4byte	0
 8840              	.LLST119:
 8841 1484 34000000 		.4byte	.LVL263
 8842 1488 38000000 		.4byte	.LVL264
 8843 148c 0200     		.2byte	0x2
 8844 148e 32       		.byte	0x32
 8845 148f 9F       		.byte	0x9f
ARM GAS  C:\Users\young\AppData\Local\Temp\ccoFnsFE.s 			page 206


 8846 1490 42000000 		.4byte	.LVL265
 8847 1494 46000000 		.4byte	.LVL266
 8848 1498 0200     		.2byte	0x2
 8849 149a 34       		.byte	0x34
 8850 149b 9F       		.byte	0x9f
 8851 149c 50000000 		.4byte	.LVL267
 8852 14a0 54000000 		.4byte	.LVL268
 8853 14a4 0200     		.2byte	0x2
 8854 14a6 38       		.byte	0x38
 8855 14a7 9F       		.byte	0x9f
 8856 14a8 5E000000 		.4byte	.LVL269
 8857 14ac 62000000 		.4byte	.LVL270
 8858 14b0 0200     		.2byte	0x2
 8859 14b2 40       		.byte	0x40
 8860 14b3 9F       		.byte	0x9f
 8861 14b4 6C000000 		.4byte	.LVL271
 8862 14b8 70000000 		.4byte	.LVL273
 8863 14bc 0300     		.2byte	0x3
 8864 14be 08       		.byte	0x8
 8865 14bf 20       		.byte	0x20
 8866 14c0 9F       		.byte	0x9f
 8867 14c1 86000000 		.4byte	.LVL275
 8868 14c5 8C000000 		.4byte	.LVL276
 8869 14c9 0200     		.2byte	0x2
 8870 14cb 31       		.byte	0x31
 8871 14cc 9F       		.byte	0x9f
 8872 14cd 00000000 		.4byte	0
 8873 14d1 00000000 		.4byte	0
 8874              	.LLST120:
 8875 14d5 00000000 		.4byte	.LVL282
 8876 14d9 2E000000 		.4byte	.LVL286
 8877 14dd 0100     		.2byte	0x1
 8878 14df 50       		.byte	0x50
 8879 14e0 2E000000 		.4byte	.LVL286
 8880 14e4 C0000000 		.4byte	.LFE53
 8881 14e8 0400     		.2byte	0x4
 8882 14ea F3       		.byte	0xf3
 8883 14eb 01       		.uleb128 0x1
 8884 14ec 50       		.byte	0x50
 8885 14ed 9F       		.byte	0x9f
 8886 14ee 00000000 		.4byte	0
 8887 14f2 00000000 		.4byte	0
 8888              	.LLST121:
 8889 14f6 78000000 		.4byte	.LVL297
 8890 14fa 7C000000 		.4byte	.LVL298
 8891 14fe 0100     		.2byte	0x1
 8892 1500 51       		.byte	0x51
 8893 1501 7C000000 		.4byte	.LVL298
 8894 1505 88000000 		.4byte	.LVL300
 8895 1509 0100     		.2byte	0x1
 8896 150b 53       		.byte	0x53
 8897 150c 88000000 		.4byte	.LVL300
 8898 1510 8E000000 		.4byte	.LVL301
 8899 1514 0500     		.2byte	0x5
 8900 1516 0C       		.byte	0xc
 8901 1517 04000840 		.4byte	0x40080004
 8902 151b 00000000 		.4byte	0
ARM GAS  C:\Users\young\AppData\Local\Temp\ccoFnsFE.s 			page 207


 8903 151f 00000000 		.4byte	0
 8904              	.LLST122:
 8905 1523 12000000 		.4byte	.LVL283
 8906 1527 2E000000 		.4byte	.LVL286
 8907 152b 0100     		.2byte	0x1
 8908 152d 50       		.byte	0x50
 8909 152e 2E000000 		.4byte	.LVL286
 8910 1532 6E000000 		.4byte	.LVL295
 8911 1536 0400     		.2byte	0x4
 8912 1538 F3       		.byte	0xf3
 8913 1539 01       		.uleb128 0x1
 8914 153a 50       		.byte	0x50
 8915 153b 9F       		.byte	0x9f
 8916 153c 98000000 		.4byte	.LVL303
 8917 1540 C0000000 		.4byte	.LFE53
 8918 1544 0400     		.2byte	0x4
 8919 1546 F3       		.byte	0xf3
 8920 1547 01       		.uleb128 0x1
 8921 1548 50       		.byte	0x50
 8922 1549 9F       		.byte	0x9f
 8923 154a 00000000 		.4byte	0
 8924 154e 00000000 		.4byte	0
 8925              	.LLST123:
 8926 1552 4A000000 		.4byte	.LVL290
 8927 1556 5F000000 		.4byte	.LVL294-1
 8928 155a 0100     		.2byte	0x1
 8929 155c 50       		.byte	0x50
 8930 155d 00000000 		.4byte	0
 8931 1561 00000000 		.4byte	0
 8932              	.LLST124:
 8933 1565 54000000 		.4byte	.LVL291
 8934 1569 5F000000 		.4byte	.LVL294-1
 8935 156d 0100     		.2byte	0x1
 8936 156f 53       		.byte	0x53
 8937 1570 00000000 		.4byte	0
 8938 1574 00000000 		.4byte	0
 8939              	.LLST125:
 8940 1578 1C000000 		.4byte	.LVL284
 8941 157c 2A000000 		.4byte	.LVL285
 8942 1580 0100     		.2byte	0x1
 8943 1582 54       		.byte	0x54
 8944 1583 2A000000 		.4byte	.LVL285
 8945 1587 2E000000 		.4byte	.LVL286
 8946 158b 0D00     		.2byte	0xd
 8947 158d 77       		.byte	0x77
 8948 158e 00       		.sleb128 0
 8949 158f 70       		.byte	0x70
 8950 1590 00       		.sleb128 0
 8951 1591 22       		.byte	0x22
 8952 1592 23       		.byte	0x23
 8953 1593 08       		.uleb128 0x8
 8954 1594 94       		.byte	0x94
 8955 1595 01       		.byte	0x1
 8956 1596 08       		.byte	0x8
 8957 1597 FF       		.byte	0xff
 8958 1598 1A       		.byte	0x1a
 8959 1599 9F       		.byte	0x9f
ARM GAS  C:\Users\young\AppData\Local\Temp\ccoFnsFE.s 			page 208


 8960 159a 2E000000 		.4byte	.LVL286
 8961 159e 6E000000 		.4byte	.LVL295
 8962 15a2 0E00     		.2byte	0xe
 8963 15a4 77       		.byte	0x77
 8964 15a5 00       		.sleb128 0
 8965 15a6 F3       		.byte	0xf3
 8966 15a7 01       		.uleb128 0x1
 8967 15a8 50       		.byte	0x50
 8968 15a9 22       		.byte	0x22
 8969 15aa 23       		.byte	0x23
 8970 15ab 08       		.uleb128 0x8
 8971 15ac 94       		.byte	0x94
 8972 15ad 01       		.byte	0x1
 8973 15ae 08       		.byte	0x8
 8974 15af FF       		.byte	0xff
 8975 15b0 1A       		.byte	0x1a
 8976 15b1 9F       		.byte	0x9f
 8977 15b2 98000000 		.4byte	.LVL303
 8978 15b6 C0000000 		.4byte	.LFE53
 8979 15ba 0E00     		.2byte	0xe
 8980 15bc 77       		.byte	0x77
 8981 15bd 00       		.sleb128 0
 8982 15be F3       		.byte	0xf3
 8983 15bf 01       		.uleb128 0x1
 8984 15c0 50       		.byte	0x50
 8985 15c1 22       		.byte	0x22
 8986 15c2 23       		.byte	0x23
 8987 15c3 08       		.uleb128 0x8
 8988 15c4 94       		.byte	0x94
 8989 15c5 01       		.byte	0x1
 8990 15c6 08       		.byte	0x8
 8991 15c7 FF       		.byte	0xff
 8992 15c8 1A       		.byte	0x1a
 8993 15c9 9F       		.byte	0x9f
 8994 15ca 00000000 		.4byte	0
 8995 15ce 00000000 		.4byte	0
 8996              	.LLST126:
 8997 15d2 1C000000 		.4byte	.LVL284
 8998 15d6 6E000000 		.4byte	.LVL295
 8999 15da 0500     		.2byte	0x5
 9000 15dc 76       		.byte	0x76
 9001 15dd 00       		.sleb128 0
 9002 15de 32       		.byte	0x32
 9003 15df 24       		.byte	0x24
 9004 15e0 9F       		.byte	0x9f
 9005 15e1 98000000 		.4byte	.LVL303
 9006 15e5 C0000000 		.4byte	.LFE53
 9007 15e9 0500     		.2byte	0x5
 9008 15eb 76       		.byte	0x76
 9009 15ec 00       		.sleb128 0
 9010 15ed 32       		.byte	0x32
 9011 15ee 24       		.byte	0x24
 9012 15ef 9F       		.byte	0x9f
 9013 15f0 00000000 		.4byte	0
 9014 15f4 00000000 		.4byte	0
 9015              	.LLST127:
 9016 15f8 3C000000 		.4byte	.LVL287
ARM GAS  C:\Users\young\AppData\Local\Temp\ccoFnsFE.s 			page 209


 9017 15fc 6E000000 		.4byte	.LVL295
 9018 1600 0100     		.2byte	0x1
 9019 1602 55       		.byte	0x55
 9020 1603 98000000 		.4byte	.LVL303
 9021 1607 C0000000 		.4byte	.LFE53
 9022 160b 0100     		.2byte	0x1
 9023 160d 55       		.byte	0x55
 9024 160e 00000000 		.4byte	0
 9025 1612 00000000 		.4byte	0
 9026              	.LLST128:
 9027 1616 3C000000 		.4byte	.LVL287
 9028 161a 40000000 		.4byte	.LVL288
 9029 161e 0200     		.2byte	0x2
 9030 1620 30       		.byte	0x30
 9031 1621 9F       		.byte	0x9f
 9032 1622 40000000 		.4byte	.LVL288
 9033 1626 46000000 		.4byte	.LVL289
 9034 162a 0200     		.2byte	0x2
 9035 162c 36       		.byte	0x36
 9036 162d 9F       		.byte	0x9f
 9037 162e 98000000 		.4byte	.LVL303
 9038 1632 C0000000 		.4byte	.LFE53
 9039 1636 0200     		.2byte	0x2
 9040 1638 30       		.byte	0x30
 9041 1639 9F       		.byte	0x9f
 9042 163a 00000000 		.4byte	0
 9043 163e 00000000 		.4byte	0
 9044              	.LLST129:
 9045 1642 3C000000 		.4byte	.LVL287
 9046 1646 49000000 		.4byte	.LVL290-1
 9047 164a 0600     		.2byte	0x6
 9048 164c 7C       		.byte	0x7c
 9049 164d 00       		.sleb128 0
 9050 164e 08       		.byte	0x8
 9051 164f FF       		.byte	0xff
 9052 1650 1A       		.byte	0x1a
 9053 1651 9F       		.byte	0x9f
 9054 1652 98000000 		.4byte	.LVL303
 9055 1656 C0000000 		.4byte	.LFE53
 9056 165a 0600     		.2byte	0x6
 9057 165c 7C       		.byte	0x7c
 9058 165d 00       		.sleb128 0
 9059 165e 08       		.byte	0x8
 9060 165f FF       		.byte	0xff
 9061 1660 1A       		.byte	0x1a
 9062 1661 9F       		.byte	0x9f
 9063 1662 00000000 		.4byte	0
 9064 1666 00000000 		.4byte	0
 9065              	.LLST130:
 9066 166a 00000000 		.4byte	.LVL304
 9067 166e 14000000 		.4byte	.LVL306
 9068 1672 0100     		.2byte	0x1
 9069 1674 50       		.byte	0x50
 9070 1675 14000000 		.4byte	.LVL306
 9071 1679 34000000 		.4byte	.LFE54
 9072 167d 0400     		.2byte	0x4
 9073 167f F3       		.byte	0xf3
ARM GAS  C:\Users\young\AppData\Local\Temp\ccoFnsFE.s 			page 210


 9074 1680 01       		.uleb128 0x1
 9075 1681 50       		.byte	0x50
 9076 1682 9F       		.byte	0x9f
 9077 1683 00000000 		.4byte	0
 9078 1687 00000000 		.4byte	0
 9079              	.LLST131:
 9080 168b 00000000 		.4byte	.LVL304
 9081 168f 0E000000 		.4byte	.LVL305
 9082 1693 0100     		.2byte	0x1
 9083 1695 51       		.byte	0x51
 9084 1696 0E000000 		.4byte	.LVL305
 9085 169a 34000000 		.4byte	.LFE54
 9086 169e 0400     		.2byte	0x4
 9087 16a0 F3       		.byte	0xf3
 9088 16a1 01       		.uleb128 0x1
 9089 16a2 51       		.byte	0x51
 9090 16a3 9F       		.byte	0x9f
 9091 16a4 00000000 		.4byte	0
 9092 16a8 00000000 		.4byte	0
 9093              	.LLST132:
 9094 16ac 22000000 		.4byte	.LVL307
 9095 16b0 24000000 		.4byte	.LVL308
 9096 16b4 0100     		.2byte	0x1
 9097 16b6 53       		.byte	0x53
 9098 16b7 26000000 		.4byte	.LVL309
 9099 16bb 2C000000 		.4byte	.LVL310
 9100 16bf 0100     		.2byte	0x1
 9101 16c1 52       		.byte	0x52
 9102 16c2 2C000000 		.4byte	.LVL310
 9103 16c6 34000000 		.4byte	.LFE54
 9104 16ca 0100     		.2byte	0x1
 9105 16cc 53       		.byte	0x53
 9106 16cd 00000000 		.4byte	0
 9107 16d1 00000000 		.4byte	0
 9108              	.LLST133:
 9109 16d5 00000000 		.4byte	.LVL311
 9110 16d9 00000000 		.4byte	.LVL311
 9111 16dd 0100     		.2byte	0x1
 9112 16df 50       		.byte	0x50
 9113 16e0 00000000 		.4byte	.LVL311
 9114 16e4 0A000000 		.4byte	.LVL313
 9115 16e8 0500     		.2byte	0x5
 9116 16ea 70       		.byte	0x70
 9117 16eb 00       		.sleb128 0
 9118 16ec 33       		.byte	0x33
 9119 16ed 1A       		.byte	0x1a
 9120 16ee 9F       		.byte	0x9f
 9121 16ef 0A000000 		.4byte	.LVL313
 9122 16f3 18000000 		.4byte	.LFE55
 9123 16f7 0600     		.2byte	0x6
 9124 16f9 F3       		.byte	0xf3
 9125 16fa 01       		.uleb128 0x1
 9126 16fb 50       		.byte	0x50
 9127 16fc 33       		.byte	0x33
 9128 16fd 1A       		.byte	0x1a
 9129 16fe 9F       		.byte	0x9f
 9130 16ff 00000000 		.4byte	0
ARM GAS  C:\Users\young\AppData\Local\Temp\ccoFnsFE.s 			page 211


 9131 1703 00000000 		.4byte	0
 9132              	.LLST134:
 9133 1707 08000000 		.4byte	.LVL312
 9134 170b 0E000000 		.4byte	.LVL314
 9135 170f 0100     		.2byte	0x1
 9136 1711 53       		.byte	0x53
 9137 1712 0E000000 		.4byte	.LVL314
 9138 1716 18000000 		.4byte	.LFE55
 9139 171a 0100     		.2byte	0x1
 9140 171c 50       		.byte	0x50
 9141 171d 00000000 		.4byte	0
 9142 1721 00000000 		.4byte	0
 9143              	.LLST135:
 9144 1725 00000000 		.4byte	.LVL315
 9145 1729 04000000 		.4byte	.LVL316
 9146 172d 0100     		.2byte	0x1
 9147 172f 50       		.byte	0x50
 9148 1730 04000000 		.4byte	.LVL316
 9149 1734 16000000 		.4byte	.LFE57
 9150 1738 0100     		.2byte	0x1
 9151 173a 52       		.byte	0x52
 9152 173b 00000000 		.4byte	0
 9153 173f 00000000 		.4byte	0
 9154              	.LLST136:
 9155 1743 00000000 		.4byte	.LVL315
 9156 1747 08000000 		.4byte	.LVL318
 9157 174b 0100     		.2byte	0x1
 9158 174d 51       		.byte	0x51
 9159 174e 08000000 		.4byte	.LVL318
 9160 1752 16000000 		.4byte	.LFE57
 9161 1756 0400     		.2byte	0x4
 9162 1758 F3       		.byte	0xf3
 9163 1759 01       		.uleb128 0x1
 9164 175a 51       		.byte	0x51
 9165 175b 9F       		.byte	0x9f
 9166 175c 00000000 		.4byte	0
 9167 1760 00000000 		.4byte	0
 9168              	.LLST137:
 9169 1764 00000000 		.4byte	.LVL315
 9170 1768 06000000 		.4byte	.LVL317
 9171 176c 0500     		.2byte	0x5
 9172 176e 71       		.byte	0x71
 9173 176f 00       		.sleb128 0
 9174 1770 33       		.byte	0x33
 9175 1771 25       		.byte	0x25
 9176 1772 9F       		.byte	0x9f
 9177 1773 06000000 		.4byte	.LVL317
 9178 1777 0E000000 		.4byte	.LVL319
 9179 177b 0100     		.2byte	0x1
 9180 177d 53       		.byte	0x53
 9181 177e 0E000000 		.4byte	.LVL319
 9182 1782 16000000 		.4byte	.LFE57
 9183 1786 0600     		.2byte	0x6
 9184 1788 F3       		.byte	0xf3
 9185 1789 01       		.uleb128 0x1
 9186 178a 51       		.byte	0x51
 9187 178b 33       		.byte	0x33
ARM GAS  C:\Users\young\AppData\Local\Temp\ccoFnsFE.s 			page 212


 9188 178c 25       		.byte	0x25
 9189 178d 9F       		.byte	0x9f
 9190 178e 00000000 		.4byte	0
 9191 1792 00000000 		.4byte	0
 9192              	.LLST138:
 9193 1796 00000000 		.4byte	.LVL315
 9194 179a 08000000 		.4byte	.LVL318
 9195 179e 0700     		.2byte	0x7
 9196 17a0 31       		.byte	0x31
 9197 17a1 71       		.byte	0x71
 9198 17a2 00       		.sleb128 0
 9199 17a3 37       		.byte	0x37
 9200 17a4 1A       		.byte	0x1a
 9201 17a5 24       		.byte	0x24
 9202 17a6 9F       		.byte	0x9f
 9203 17a7 08000000 		.4byte	.LVL318
 9204 17ab 16000000 		.4byte	.LFE57
 9205 17af 0800     		.2byte	0x8
 9206 17b1 31       		.byte	0x31
 9207 17b2 F3       		.byte	0xf3
 9208 17b3 01       		.uleb128 0x1
 9209 17b4 51       		.byte	0x51
 9210 17b5 37       		.byte	0x37
 9211 17b6 1A       		.byte	0x1a
 9212 17b7 24       		.byte	0x24
 9213 17b8 9F       		.byte	0x9f
 9214 17b9 00000000 		.4byte	0
 9215 17bd 00000000 		.4byte	0
 9216              	.LLST139:
 9217 17c1 00000000 		.4byte	.LVL320
 9218 17c5 08000000 		.4byte	.LVL322
 9219 17c9 0100     		.2byte	0x1
 9220 17cb 51       		.byte	0x51
 9221 17cc 08000000 		.4byte	.LVL322
 9222 17d0 24000000 		.4byte	.LFE58
 9223 17d4 0400     		.2byte	0x4
 9224 17d6 F3       		.byte	0xf3
 9225 17d7 01       		.uleb128 0x1
 9226 17d8 51       		.byte	0x51
 9227 17d9 9F       		.byte	0x9f
 9228 17da 00000000 		.4byte	0
 9229 17de 00000000 		.4byte	0
 9230              	.LLST140:
 9231 17e2 00000000 		.4byte	.LVL320
 9232 17e6 16000000 		.4byte	.LVL325
 9233 17ea 0100     		.2byte	0x1
 9234 17ec 52       		.byte	0x52
 9235 17ed 16000000 		.4byte	.LVL325
 9236 17f1 1C000000 		.4byte	.LVL327
 9237 17f5 0400     		.2byte	0x4
 9238 17f7 F3       		.byte	0xf3
 9239 17f8 01       		.uleb128 0x1
 9240 17f9 52       		.byte	0x52
 9241 17fa 9F       		.byte	0x9f
 9242 17fb 1C000000 		.4byte	.LVL327
 9243 17ff 1E000000 		.4byte	.LVL328
 9244 1803 0100     		.2byte	0x1
ARM GAS  C:\Users\young\AppData\Local\Temp\ccoFnsFE.s 			page 213


 9245 1805 52       		.byte	0x52
 9246 1806 1E000000 		.4byte	.LVL328
 9247 180a 24000000 		.4byte	.LFE58
 9248 180e 0400     		.2byte	0x4
 9249 1810 F3       		.byte	0xf3
 9250 1811 01       		.uleb128 0x1
 9251 1812 52       		.byte	0x52
 9252 1813 9F       		.byte	0x9f
 9253 1814 00000000 		.4byte	0
 9254 1818 00000000 		.4byte	0
 9255              	.LLST141:
 9256 181c 06000000 		.4byte	.LVL321
 9257 1820 0E000000 		.4byte	.LVL323
 9258 1824 0100     		.2byte	0x1
 9259 1826 54       		.byte	0x54
 9260 1827 0E000000 		.4byte	.LVL323
 9261 182b 24000000 		.4byte	.LFE58
 9262 182f 0600     		.2byte	0x6
 9263 1831 F3       		.byte	0xf3
 9264 1832 01       		.uleb128 0x1
 9265 1833 51       		.byte	0x51
 9266 1834 33       		.byte	0x33
 9267 1835 25       		.byte	0x25
 9268 1836 9F       		.byte	0x9f
 9269 1837 00000000 		.4byte	0
 9270 183b 00000000 		.4byte	0
 9271              	.LLST142:
 9272 183f 10000000 		.4byte	.LVL324
 9273 1843 1A000000 		.4byte	.LVL326
 9274 1847 0100     		.2byte	0x1
 9275 1849 53       		.byte	0x53
 9276 184a 1A000000 		.4byte	.LVL326
 9277 184e 1C000000 		.4byte	.LVL327
 9278 1852 0500     		.2byte	0x5
 9279 1854 31       		.byte	0x31
 9280 1855 71       		.byte	0x71
 9281 1856 00       		.sleb128 0
 9282 1857 24       		.byte	0x24
 9283 1858 9F       		.byte	0x9f
 9284 1859 1C000000 		.4byte	.LVL327
 9285 185d 20000000 		.4byte	.LVL329
 9286 1861 0100     		.2byte	0x1
 9287 1863 53       		.byte	0x53
 9288 1864 20000000 		.4byte	.LVL329
 9289 1868 24000000 		.4byte	.LFE58
 9290 186c 0500     		.2byte	0x5
 9291 186e 31       		.byte	0x31
 9292 186f 71       		.byte	0x71
 9293 1870 00       		.sleb128 0
 9294 1871 24       		.byte	0x24
 9295 1872 9F       		.byte	0x9f
 9296 1873 00000000 		.4byte	0
 9297 1877 00000000 		.4byte	0
 9298              	.LLST143:
 9299 187b 00000000 		.4byte	.LVL330
 9300 187f 04000000 		.4byte	.LVL331
 9301 1883 0100     		.2byte	0x1
ARM GAS  C:\Users\young\AppData\Local\Temp\ccoFnsFE.s 			page 214


 9302 1885 50       		.byte	0x50
 9303 1886 04000000 		.4byte	.LVL331
 9304 188a 10000000 		.4byte	.LFE59
 9305 188e 0400     		.2byte	0x4
 9306 1890 F3       		.byte	0xf3
 9307 1891 01       		.uleb128 0x1
 9308 1892 50       		.byte	0x50
 9309 1893 9F       		.byte	0x9f
 9310 1894 00000000 		.4byte	0
 9311 1898 00000000 		.4byte	0
 9312              	.LLST144:
 9313 189c 00000000 		.4byte	.LVL332
 9314 18a0 04000000 		.4byte	.LVL333
 9315 18a4 0100     		.2byte	0x1
 9316 18a6 50       		.byte	0x50
 9317 18a7 04000000 		.4byte	.LVL333
 9318 18ab 10000000 		.4byte	.LFE60
 9319 18af 0400     		.2byte	0x4
 9320 18b1 F3       		.byte	0xf3
 9321 18b2 01       		.uleb128 0x1
 9322 18b3 50       		.byte	0x50
 9323 18b4 9F       		.byte	0x9f
 9324 18b5 00000000 		.4byte	0
 9325 18b9 00000000 		.4byte	0
 9326              	.LLST145:
 9327 18bd 00000000 		.4byte	.LVL334
 9328 18c1 04000000 		.4byte	.LVL335
 9329 18c5 0100     		.2byte	0x1
 9330 18c7 50       		.byte	0x50
 9331 18c8 04000000 		.4byte	.LVL335
 9332 18cc 0C000000 		.4byte	.LFE61
 9333 18d0 0400     		.2byte	0x4
 9334 18d2 F3       		.byte	0xf3
 9335 18d3 01       		.uleb128 0x1
 9336 18d4 50       		.byte	0x50
 9337 18d5 9F       		.byte	0x9f
 9338 18d6 00000000 		.4byte	0
 9339 18da 00000000 		.4byte	0
 9340              	.LLST146:
 9341 18de 00000000 		.4byte	.LVL336
 9342 18e2 04000000 		.4byte	.LVL337
 9343 18e6 0100     		.2byte	0x1
 9344 18e8 50       		.byte	0x50
 9345 18e9 04000000 		.4byte	.LVL337
 9346 18ed 0C000000 		.4byte	.LFE62
 9347 18f1 0400     		.2byte	0x4
 9348 18f3 F3       		.byte	0xf3
 9349 18f4 01       		.uleb128 0x1
 9350 18f5 50       		.byte	0x50
 9351 18f6 9F       		.byte	0x9f
 9352 18f7 00000000 		.4byte	0
 9353 18fb 00000000 		.4byte	0
 9354              	.LLST147:
 9355 18ff 00000000 		.4byte	.LVL338
 9356 1903 04000000 		.4byte	.LVL339
 9357 1907 0100     		.2byte	0x1
 9358 1909 50       		.byte	0x50
ARM GAS  C:\Users\young\AppData\Local\Temp\ccoFnsFE.s 			page 215


 9359 190a 04000000 		.4byte	.LVL339
 9360 190e 10000000 		.4byte	.LFE63
 9361 1912 0400     		.2byte	0x4
 9362 1914 F3       		.byte	0xf3
 9363 1915 01       		.uleb128 0x1
 9364 1916 50       		.byte	0x50
 9365 1917 9F       		.byte	0x9f
 9366 1918 00000000 		.4byte	0
 9367 191c 00000000 		.4byte	0
 9368              	.LLST148:
 9369 1920 00000000 		.4byte	.LVL340
 9370 1924 04000000 		.4byte	.LVL341
 9371 1928 0100     		.2byte	0x1
 9372 192a 50       		.byte	0x50
 9373 192b 04000000 		.4byte	.LVL341
 9374 192f 10000000 		.4byte	.LFE64
 9375 1933 0400     		.2byte	0x4
 9376 1935 F3       		.byte	0xf3
 9377 1936 01       		.uleb128 0x1
 9378 1937 50       		.byte	0x50
 9379 1938 9F       		.byte	0x9f
 9380 1939 00000000 		.4byte	0
 9381 193d 00000000 		.4byte	0
 9382              	.LLST149:
 9383 1941 00000000 		.4byte	.LVL342
 9384 1945 04000000 		.4byte	.LVL343
 9385 1949 0100     		.2byte	0x1
 9386 194b 50       		.byte	0x50
 9387 194c 04000000 		.4byte	.LVL343
 9388 1950 0C000000 		.4byte	.LFE65
 9389 1954 0400     		.2byte	0x4
 9390 1956 F3       		.byte	0xf3
 9391 1957 01       		.uleb128 0x1
 9392 1958 50       		.byte	0x50
 9393 1959 9F       		.byte	0x9f
 9394 195a 00000000 		.4byte	0
 9395 195e 00000000 		.4byte	0
 9396              	.LLST150:
 9397 1962 00000000 		.4byte	.LVL344
 9398 1966 04000000 		.4byte	.LVL345
 9399 196a 0100     		.2byte	0x1
 9400 196c 50       		.byte	0x50
 9401 196d 04000000 		.4byte	.LVL345
 9402 1971 0C000000 		.4byte	.LFE66
 9403 1975 0400     		.2byte	0x4
 9404 1977 F3       		.byte	0xf3
 9405 1978 01       		.uleb128 0x1
 9406 1979 50       		.byte	0x50
 9407 197a 9F       		.byte	0x9f
 9408 197b 00000000 		.4byte	0
 9409 197f 00000000 		.4byte	0
 9410              		.section	.debug_aranges,"",%progbits
 9411 0000 44010000 		.4byte	0x144
 9412 0004 0200     		.2byte	0x2
 9413 0006 00000000 		.4byte	.Ldebug_info0
 9414 000a 04       		.byte	0x4
 9415 000b 00       		.byte	0
ARM GAS  C:\Users\young\AppData\Local\Temp\ccoFnsFE.s 			page 216


 9416 000c 0000     		.2byte	0
 9417 000e 0000     		.2byte	0
 9418 0010 00000000 		.4byte	.LFB32
 9419 0014 2C010000 		.4byte	.LFE32-.LFB32
 9420 0018 00000000 		.4byte	.LFB33
 9421 001c 78000000 		.4byte	.LFE33-.LFB33
 9422 0020 00000000 		.4byte	.LFB34
 9423 0024 40000000 		.4byte	.LFE34-.LFB34
 9424 0028 00000000 		.4byte	.LFB35
 9425 002c 84010000 		.4byte	.LFE35-.LFB35
 9426 0030 00000000 		.4byte	.LFB36
 9427 0034 2C000000 		.4byte	.LFE36-.LFB36
 9428 0038 00000000 		.4byte	.LFB37
 9429 003c 28000000 		.4byte	.LFE37-.LFB37
 9430 0040 00000000 		.4byte	.LFB41
 9431 0044 10000000 		.4byte	.LFE41-.LFB41
 9432 0048 00000000 		.4byte	.LFB42
 9433 004c 10000000 		.4byte	.LFE42-.LFB42
 9434 0050 00000000 		.4byte	.LFB43
 9435 0054 10000000 		.4byte	.LFE43-.LFB43
 9436 0058 00000000 		.4byte	.LFB44
 9437 005c 10000000 		.4byte	.LFE44-.LFB44
 9438 0060 00000000 		.4byte	.LFB45
 9439 0064 10000000 		.4byte	.LFE45-.LFB45
 9440 0068 00000000 		.4byte	.LFB46
 9441 006c AC000000 		.4byte	.LFE46-.LFB46
 9442 0070 00000000 		.4byte	.LFB47
 9443 0074 48000000 		.4byte	.LFE47-.LFB47
 9444 0078 00000000 		.4byte	.LFB48
 9445 007c 74000000 		.4byte	.LFE48-.LFB48
 9446 0080 00000000 		.4byte	.LFB49
 9447 0084 70000000 		.4byte	.LFE49-.LFB49
 9448 0088 00000000 		.4byte	.LFB50
 9449 008c 6C000000 		.4byte	.LFE50-.LFB50
 9450 0090 00000000 		.4byte	.LFB51
 9451 0094 24000000 		.4byte	.LFE51-.LFB51
 9452 0098 00000000 		.4byte	.LFB52
 9453 009c 34010000 		.4byte	.LFE52-.LFB52
 9454 00a0 00000000 		.4byte	.LFB38
 9455 00a4 1C000000 		.4byte	.LFE38-.LFB38
 9456 00a8 00000000 		.4byte	.LFB40
 9457 00ac 50000000 		.4byte	.LFE40-.LFB40
 9458 00b0 00000000 		.4byte	.LFB39
 9459 00b4 C0000000 		.4byte	.LFE39-.LFB39
 9460 00b8 00000000 		.4byte	.LFB53
 9461 00bc C0000000 		.4byte	.LFE53-.LFB53
 9462 00c0 00000000 		.4byte	.LFB54
 9463 00c4 34000000 		.4byte	.LFE54-.LFB54
 9464 00c8 00000000 		.4byte	.LFB55
 9465 00cc 18000000 		.4byte	.LFE55-.LFB55
 9466 00d0 00000000 		.4byte	.LFB56
 9467 00d4 18000000 		.4byte	.LFE56-.LFB56
 9468 00d8 00000000 		.4byte	.LFB57
 9469 00dc 16000000 		.4byte	.LFE57-.LFB57
 9470 00e0 00000000 		.4byte	.LFB58
 9471 00e4 24000000 		.4byte	.LFE58-.LFB58
 9472 00e8 00000000 		.4byte	.LFB59
ARM GAS  C:\Users\young\AppData\Local\Temp\ccoFnsFE.s 			page 217


 9473 00ec 10000000 		.4byte	.LFE59-.LFB59
 9474 00f0 00000000 		.4byte	.LFB60
 9475 00f4 10000000 		.4byte	.LFE60-.LFB60
 9476 00f8 00000000 		.4byte	.LFB61
 9477 00fc 0C000000 		.4byte	.LFE61-.LFB61
 9478 0100 00000000 		.4byte	.LFB62
 9479 0104 0C000000 		.4byte	.LFE62-.LFB62
 9480 0108 00000000 		.4byte	.LFB63
 9481 010c 10000000 		.4byte	.LFE63-.LFB63
 9482 0110 00000000 		.4byte	.LFB64
 9483 0114 10000000 		.4byte	.LFE64-.LFB64
 9484 0118 00000000 		.4byte	.LFB65
 9485 011c 0C000000 		.4byte	.LFE65-.LFB65
 9486 0120 00000000 		.4byte	.LFB66
 9487 0124 0C000000 		.4byte	.LFE66-.LFB66
 9488 0128 00000000 		.4byte	.LFB67
 9489 012c 10000000 		.4byte	.LFE67-.LFB67
 9490 0130 00000000 		.4byte	.LFB68
 9491 0134 28000000 		.4byte	.LFE68-.LFB68
 9492 0138 00000000 		.4byte	.LFB69
 9493 013c 0C000000 		.4byte	.LFE69-.LFB69
 9494 0140 00000000 		.4byte	0
 9495 0144 00000000 		.4byte	0
 9496              		.section	.debug_ranges,"",%progbits
 9497              	.Ldebug_ranges0:
 9498 0000 1A000000 		.4byte	.LBB38
 9499 0004 28000000 		.4byte	.LBE38
 9500 0008 2A000000 		.4byte	.LBB50
 9501 000c 68000000 		.4byte	.LBE50
 9502 0010 00000000 		.4byte	0
 9503 0014 00000000 		.4byte	0
 9504 0018 28000000 		.4byte	.LBB41
 9505 001c 2A000000 		.4byte	.LBE41
 9506 0020 7C000000 		.4byte	.LBB53
 9507 0024 E4000000 		.4byte	.LBE53
 9508 0028 00000000 		.4byte	0
 9509 002c 00000000 		.4byte	0
 9510 0030 7C000000 		.4byte	.LBB43
 9511 0034 88000000 		.4byte	.LBE43
 9512 0038 8A000000 		.4byte	.LBB47
 9513 003c A4000000 		.4byte	.LBE47
 9514 0040 BC000000 		.4byte	.LBB48
 9515 0044 E4000000 		.4byte	.LBE48
 9516 0048 00000000 		.4byte	0
 9517 004c 00000000 		.4byte	0
 9518 0050 6C000000 		.4byte	.LBB72
 9519 0054 7A000000 		.4byte	.LBE72
 9520 0058 7C000000 		.4byte	.LBB84
 9521 005c BA000000 		.4byte	.LBE84
 9522 0060 00000000 		.4byte	0
 9523 0064 00000000 		.4byte	0
 9524 0068 7A000000 		.4byte	.LBB75
 9525 006c 7C000000 		.4byte	.LBE75
 9526 0070 CE000000 		.4byte	.LBB87
 9527 0074 38010000 		.4byte	.LBE87
 9528 0078 00000000 		.4byte	0
 9529 007c 00000000 		.4byte	0
ARM GAS  C:\Users\young\AppData\Local\Temp\ccoFnsFE.s 			page 218


 9530 0080 CE000000 		.4byte	.LBB77
 9531 0084 DA000000 		.4byte	.LBE77
 9532 0088 DC000000 		.4byte	.LBB81
 9533 008c F8000000 		.4byte	.LBE81
 9534 0090 10010000 		.4byte	.LBB82
 9535 0094 38010000 		.4byte	.LBE82
 9536 0098 00000000 		.4byte	0
 9537 009c 00000000 		.4byte	0
 9538 00a0 02000000 		.4byte	.LBB88
 9539 00a4 08000000 		.4byte	.LBE88
 9540 00a8 10000000 		.4byte	.LBB91
 9541 00ac 20000000 		.4byte	.LBE91
 9542 00b0 00000000 		.4byte	0
 9543 00b4 00000000 		.4byte	0
 9544 00b8 22000000 		.4byte	.LBB94
 9545 00bc 2E000000 		.4byte	.LBE94
 9546 00c0 30000000 		.4byte	.LBB98
 9547 00c4 4A000000 		.4byte	.LBE98
 9548 00c8 62000000 		.4byte	.LBB99
 9549 00cc 8A000000 		.4byte	.LBE99
 9550 00d0 00000000 		.4byte	0
 9551 00d4 00000000 		.4byte	0
 9552 00d8 02000000 		.4byte	.LBB104
 9553 00dc 14000000 		.4byte	.LBE104
 9554 00e0 14000000 		.4byte	.LBB107
 9555 00e4 4A000000 		.4byte	.LBE107
 9556 00e8 00000000 		.4byte	0
 9557 00ec 00000000 		.4byte	0
 9558 00f0 00000000 		.4byte	.LBB116
 9559 00f4 08000000 		.4byte	.LBE116
 9560 00f8 08000000 		.4byte	.LBB125
 9561 00fc 3A000000 		.4byte	.LBE125
 9562 0100 00000000 		.4byte	0
 9563 0104 00000000 		.4byte	0
 9564 0108 00000000 		.4byte	.LBB118
 9565 010c 08000000 		.4byte	.LBE118
 9566 0110 08000000 		.4byte	.LBB121
 9567 0114 32000000 		.4byte	.LBE121
 9568 0118 00000000 		.4byte	0
 9569 011c 00000000 		.4byte	0
 9570 0120 04000000 		.4byte	.LBB130
 9571 0124 08000000 		.4byte	.LBE130
 9572 0128 0A000000 		.4byte	.LBB140
 9573 012c 0C000000 		.4byte	.LBE140
 9574 0130 16000000 		.4byte	.LBB141
 9575 0134 2E000000 		.4byte	.LBE141
 9576 0138 00000000 		.4byte	0
 9577 013c 00000000 		.4byte	0
 9578 0140 04000000 		.4byte	.LBB132
 9579 0144 08000000 		.4byte	.LBE132
 9580 0148 0A000000 		.4byte	.LBB136
 9581 014c 0C000000 		.4byte	.LBE136
 9582 0150 1E000000 		.4byte	.LBB137
 9583 0154 2E000000 		.4byte	.LBE137
 9584 0158 00000000 		.4byte	0
 9585 015c 00000000 		.4byte	0
 9586 0160 26000000 		.4byte	.LBB142
ARM GAS  C:\Users\young\AppData\Local\Temp\ccoFnsFE.s 			page 219


 9587 0164 2A000000 		.4byte	.LBE142
 9588 0168 8C000000 		.4byte	.LBB157
 9589 016c C0000000 		.4byte	.LBE157
 9590 0170 00000000 		.4byte	0
 9591 0174 00000000 		.4byte	0
 9592 0178 34000000 		.4byte	.LBB145
 9593 017c 38000000 		.4byte	.LBE145
 9594 0180 42000000 		.4byte	.LBB152
 9595 0184 46000000 		.4byte	.LBE152
 9596 0188 50000000 		.4byte	.LBB153
 9597 018c 54000000 		.4byte	.LBE153
 9598 0190 5E000000 		.4byte	.LBB154
 9599 0194 62000000 		.4byte	.LBE154
 9600 0198 6C000000 		.4byte	.LBB155
 9601 019c 72000000 		.4byte	.LBE155
 9602 01a0 86000000 		.4byte	.LBB156
 9603 01a4 8C000000 		.4byte	.LBE156
 9604 01a8 00000000 		.4byte	0
 9605 01ac 00000000 		.4byte	0
 9606 01b0 12000000 		.4byte	.LBB160
 9607 01b4 52000000 		.4byte	.LBE160
 9608 01b8 52000000 		.4byte	.LBB165
 9609 01bc 66000000 		.4byte	.LBE165
 9610 01c0 68000000 		.4byte	.LBB166
 9611 01c4 6E000000 		.4byte	.LBE166
 9612 01c8 98000000 		.4byte	.LBB167
 9613 01cc C0000000 		.4byte	.LBE167
 9614 01d0 00000000 		.4byte	0
 9615 01d4 00000000 		.4byte	0
 9616 01d8 00000000 		.4byte	.LFB32
 9617 01dc 2C010000 		.4byte	.LFE32
 9618 01e0 00000000 		.4byte	.LFB33
 9619 01e4 78000000 		.4byte	.LFE33
 9620 01e8 00000000 		.4byte	.LFB34
 9621 01ec 40000000 		.4byte	.LFE34
 9622 01f0 00000000 		.4byte	.LFB35
 9623 01f4 84010000 		.4byte	.LFE35
 9624 01f8 00000000 		.4byte	.LFB36
 9625 01fc 2C000000 		.4byte	.LFE36
 9626 0200 00000000 		.4byte	.LFB37
 9627 0204 28000000 		.4byte	.LFE37
 9628 0208 00000000 		.4byte	.LFB41
 9629 020c 10000000 		.4byte	.LFE41
 9630 0210 00000000 		.4byte	.LFB42
 9631 0214 10000000 		.4byte	.LFE42
 9632 0218 00000000 		.4byte	.LFB43
 9633 021c 10000000 		.4byte	.LFE43
 9634 0220 00000000 		.4byte	.LFB44
 9635 0224 10000000 		.4byte	.LFE44
 9636 0228 00000000 		.4byte	.LFB45
 9637 022c 10000000 		.4byte	.LFE45
 9638 0230 00000000 		.4byte	.LFB46
 9639 0234 AC000000 		.4byte	.LFE46
 9640 0238 00000000 		.4byte	.LFB47
 9641 023c 48000000 		.4byte	.LFE47
 9642 0240 00000000 		.4byte	.LFB48
 9643 0244 74000000 		.4byte	.LFE48
ARM GAS  C:\Users\young\AppData\Local\Temp\ccoFnsFE.s 			page 220


 9644 0248 00000000 		.4byte	.LFB49
 9645 024c 70000000 		.4byte	.LFE49
 9646 0250 00000000 		.4byte	.LFB50
 9647 0254 6C000000 		.4byte	.LFE50
 9648 0258 00000000 		.4byte	.LFB51
 9649 025c 24000000 		.4byte	.LFE51
 9650 0260 00000000 		.4byte	.LFB52
 9651 0264 34010000 		.4byte	.LFE52
 9652 0268 00000000 		.4byte	.LFB38
 9653 026c 1C000000 		.4byte	.LFE38
 9654 0270 00000000 		.4byte	.LFB40
 9655 0274 50000000 		.4byte	.LFE40
 9656 0278 00000000 		.4byte	.LFB39
 9657 027c C0000000 		.4byte	.LFE39
 9658 0280 00000000 		.4byte	.LFB53
 9659 0284 C0000000 		.4byte	.LFE53
 9660 0288 00000000 		.4byte	.LFB54
 9661 028c 34000000 		.4byte	.LFE54
 9662 0290 00000000 		.4byte	.LFB55
 9663 0294 18000000 		.4byte	.LFE55
 9664 0298 00000000 		.4byte	.LFB56
 9665 029c 18000000 		.4byte	.LFE56
 9666 02a0 00000000 		.4byte	.LFB57
 9667 02a4 16000000 		.4byte	.LFE57
 9668 02a8 00000000 		.4byte	.LFB58
 9669 02ac 24000000 		.4byte	.LFE58
 9670 02b0 00000000 		.4byte	.LFB59
 9671 02b4 10000000 		.4byte	.LFE59
 9672 02b8 00000000 		.4byte	.LFB60
 9673 02bc 10000000 		.4byte	.LFE60
 9674 02c0 00000000 		.4byte	.LFB61
 9675 02c4 0C000000 		.4byte	.LFE61
 9676 02c8 00000000 		.4byte	.LFB62
 9677 02cc 0C000000 		.4byte	.LFE62
 9678 02d0 00000000 		.4byte	.LFB63
 9679 02d4 10000000 		.4byte	.LFE63
 9680 02d8 00000000 		.4byte	.LFB64
 9681 02dc 10000000 		.4byte	.LFE64
 9682 02e0 00000000 		.4byte	.LFB65
 9683 02e4 0C000000 		.4byte	.LFE65
 9684 02e8 00000000 		.4byte	.LFB66
 9685 02ec 0C000000 		.4byte	.LFE66
 9686 02f0 00000000 		.4byte	.LFB67
 9687 02f4 10000000 		.4byte	.LFE67
 9688 02f8 00000000 		.4byte	.LFB68
 9689 02fc 28000000 		.4byte	.LFE68
 9690 0300 00000000 		.4byte	.LFB69
 9691 0304 0C000000 		.4byte	.LFE69
 9692 0308 00000000 		.4byte	0
 9693 030c 00000000 		.4byte	0
 9694              		.section	.debug_line,"",%progbits
 9695              	.Ldebug_line0:
 9696 0000 CF060000 		.section	.debug_str,"MS",%progbits,1
 9696      02009200 
 9696      00000201 
 9696      FB0E0D00 
 9696      01010101 
ARM GAS  C:\Users\young\AppData\Local\Temp\ccoFnsFE.s 			page 221


 9697              	.LASF116:
 9698 0000 4379496E 		.ascii	"CyIntSetPriority\000"
 9698      74536574 
 9698      5072696F 
 9698      72697479 
 9698      00
 9699              	.LASF72:
 9700 0011 43617053 		.ascii	"CapSense_PostScan\000"
 9700      656E7365 
 9700      5F506F73 
 9700      74536361 
 9700      6E00
 9701              	.LASF92:
 9702 0023 43617053 		.ascii	"CapSense_csdStatusVar\000"
 9702      656E7365 
 9702      5F637364 
 9702      53746174 
 9702      75735661 
 9703              	.LASF99:
 9704 0039 43617053 		.ascii	"CapSense_compensationIDAC\000"
 9704      656E7365 
 9704      5F636F6D 
 9704      70656E73 
 9704      6174696F 
 9705              	.LASF109:
 9706 0053 43617053 		.ascii	"CapSense_maskTable\000"
 9706      656E7365 
 9706      5F6D6173 
 9706      6B546162 
 9706      6C6500
 9707              	.LASF8:
 9708 0066 756E7369 		.ascii	"unsigned int\000"
 9708      676E6564 
 9708      20696E74 
 9708      00
 9709              	.LASF102:
 9710 0073 43617053 		.ascii	"CapSense_sampleClkDividerVal\000"
 9710      656E7365 
 9710      5F73616D 
 9710      706C6543 
 9710      6C6B4469 
 9711              	.LASF46:
 9712 0090 696E7465 		.ascii	"interruptState\000"
 9712      72727570 
 9712      74537461 
 9712      746500
 9713              	.LASF15:
 9714 009f 72656738 		.ascii	"reg8\000"
 9714      00
 9715              	.LASF51:
 9716 00a4 43617053 		.ascii	"CapSense_Start\000"
 9716      656E7365 
 9716      5F537461 
 9716      727400
 9717              	.LASF69:
 9718 00b3 43617053 		.ascii	"CapSense_ScanWidget\000"
 9718      656E7365 
ARM GAS  C:\Users\young\AppData\Local\Temp\ccoFnsFE.s 			page 222


 9718      5F536361 
 9718      6E576964 
 9718      67657400 
 9719              	.LASF130:
 9720 00c7 6D656D73 		.ascii	"memset\000"
 9720      657400
 9721              	.LASF48:
 9722 00ce 70696E48 		.ascii	"pinHSIOMShift\000"
 9722      53494F4D 
 9722      53686966 
 9722      7400
 9723              	.LASF77:
 9724 00dc 43617053 		.ascii	"CapSense_SetSenseClkDivider\000"
 9724      656E7365 
 9724      5F536574 
 9724      53656E73 
 9724      65436C6B 
 9725              	.LASF114:
 9726 00f8 4379496E 		.ascii	"CyIntDisable\000"
 9726      74446973 
 9726      61626C65 
 9726      00
 9727              	.LASF74:
 9728 0105 43617053 		.ascii	"CapSense_IsBusy\000"
 9728      656E7365 
 9728      5F497342 
 9728      75737900 
 9729              	.LASF22:
 9730 0115 70696E4D 		.ascii	"pinModeShift\000"
 9730      6F646553 
 9730      68696674 
 9730      00
 9731              	.LASF86:
 9732 0122 43617053 		.ascii	"CapSense_SetCompensationIDAC\000"
 9732      656E7365 
 9732      5F536574 
 9732      436F6D70 
 9732      656E7361 
 9733              	.LASF111:
 9734 013f 43617053 		.ascii	"CapSense_rawDataIndex\000"
 9734      656E7365 
 9734      5F726177 
 9734      44617461 
 9734      496E6465 
 9735              	.LASF45:
 9736 0155 43617053 		.ascii	"CapSense_DisableSensor\000"
 9736      656E7365 
 9736      5F446973 
 9736      61626C65 
 9736      53656E73 
 9737              	.LASF44:
 9738 016c 43617053 		.ascii	"CapSense_CsdHwBlockInit\000"
 9738      656E7365 
 9738      5F437364 
 9738      4877426C 
 9738      6F636B49 
 9739              	.LASF49:
ARM GAS  C:\Users\young\AppData\Local\Temp\ccoFnsFE.s 			page 223


 9740 0184 696E6163 		.ascii	"inactiveConnect\000"
 9740      74697665 
 9740      436F6E6E 
 9740      65637400 
 9741              	.LASF113:
 9742 0194 43617053 		.ascii	"CapSense_csdTrim1\000"
 9742      656E7365 
 9742      5F637364 
 9742      5472696D 
 9742      3100
 9743              	.LASF52:
 9744 01a6 43617053 		.ascii	"CapSense_Stop\000"
 9744      656E7365 
 9744      5F53746F 
 9744      7000
 9745              	.LASF104:
 9746 01b4 43617053 		.ascii	"CapSense_prtSelTbl\000"
 9746      656E7365 
 9746      5F707274 
 9746      53656C54 
 9746      626C00
 9747              	.LASF38:
 9748 01c7 43617053 		.ascii	"CapSense_ClearSensors\000"
 9748      656E7365 
 9748      5F436C65 
 9748      61725365 
 9748      6E736F72 
 9749              	.LASF106:
 9750 01dd 43617053 		.ascii	"CapSense_prtDRTbl\000"
 9750      656E7365 
 9750      5F707274 
 9750      44525462 
 9750      6C00
 9751              	.LASF73:
 9752 01ef 43617053 		.ascii	"CapSense_EnableShieldElectrode\000"
 9752      656E7365 
 9752      5F456E61 
 9752      626C6553 
 9752      6869656C 
 9753              	.LASF12:
 9754 020e 666C6F61 		.ascii	"float\000"
 9754      7400
 9755              	.LASF127:
 9756 0214 474E5520 		.ascii	"GNU C11 5.4.1 20160609 (release) [ARM/embedded-5-br"
 9756      43313120 
 9756      352E342E 
 9756      31203230 
 9756      31363036 
 9757 0247 616E6368 		.ascii	"anch revision 237715] -mcpu=cortex-m0 -mthumb -g -O"
 9757      20726576 
 9757      6973696F 
 9757      6E203233 
 9757      37373135 
 9758 027a 33202D66 		.ascii	"3 -ffunction-sections -ffat-lto-objects\000"
 9758      66756E63 
 9758      74696F6E 
 9758      2D736563 
ARM GAS  C:\Users\young\AppData\Local\Temp\ccoFnsFE.s 			page 224


 9758      74696F6E 
 9759              	.LASF7:
 9760 02a2 6C6F6E67 		.ascii	"long long unsigned int\000"
 9760      206C6F6E 
 9760      6720756E 
 9760      7369676E 
 9760      65642069 
 9761              	.LASF93:
 9762 02b9 43617053 		.ascii	"CapSense_sensorIndex\000"
 9762      656E7365 
 9762      5F73656E 
 9762      736F7249 
 9762      6E646578 
 9763              	.LASF129:
 9764 02ce 433A5C55 		.ascii	"C:\\Users\\Public\\touch\\(NowC302)A1_Global_Multi_"
 9764      73657273 
 9764      5C507562 
 9764      6C69635C 
 9764      746F7563 
 9765 02fd 43726561 		.ascii	"Creator4.1_hawkeye\\CapSense_CSD_P4_Example_WithTun"
 9765      746F7234 
 9765      2E315F68 
 9765      61776B65 
 9765      79655C43 
 9766 032f 65723031 		.ascii	"er01.cydsn\000"
 9766      2E637964 
 9766      736E00
 9767              	.LASF55:
 9768 033a 77696467 		.ascii	"widget\000"
 9768      657400
 9769              	.LASF39:
 9770 0341 43617053 		.ascii	"CapSense_SetShieldDelay\000"
 9770      656E7365 
 9770      5F536574 
 9770      53686965 
 9770      6C644465 
 9771              	.LASF103:
 9772 0359 43617053 		.ascii	"CapSense_widgetNumber\000"
 9772      656E7365 
 9772      5F776964 
 9772      6765744E 
 9772      756D6265 
 9773              	.LASF105:
 9774 036f 43617053 		.ascii	"CapSense_prtCfgTbl\000"
 9774      656E7365 
 9774      5F707274 
 9774      43666754 
 9774      626C00
 9775              	.LASF58:
 9776 0382 43617053 		.ascii	"CapSense_GetScanResolution\000"
 9776      656E7365 
 9776      5F476574 
 9776      5363616E 
 9776      5265736F 
 9777              	.LASF128:
 9778 039d 47656E65 		.ascii	"Generated_Source\\PSoC4\\CapSense.c\000"
 9778      72617465 
ARM GAS  C:\Users\young\AppData\Local\Temp\ccoFnsFE.s 			page 225


 9778      645F536F 
 9778      75726365 
 9778      5C50536F 
 9779              	.LASF81:
 9780 03bf 6D6F6475 		.ascii	"modulatorClk\000"
 9780      6C61746F 
 9780      72436C6B 
 9780      00
 9781              	.LASF34:
 9782 03cc 76616C75 		.ascii	"value\000"
 9782      6500
 9783              	.LASF23:
 9784 03d2 6E657752 		.ascii	"newRegisterValue\000"
 9784      65676973 
 9784      74657256 
 9784      616C7565 
 9784      00
 9785              	.LASF53:
 9786 03e3 43617053 		.ascii	"CapSense_WriteSensorRaw\000"
 9786      656E7365 
 9786      5F577269 
 9786      74655365 
 9786      6E736F72 
 9787              	.LASF101:
 9788 03fb 43617053 		.ascii	"CapSense_senseClkDividerVal\000"
 9788      656E7365 
 9788      5F73656E 
 9788      7365436C 
 9788      6B446976 
 9789              	.LASF50:
 9790 0417 43617053 		.ascii	"CapSense_Enable\000"
 9790      656E7365 
 9790      5F456E61 
 9790      626C6500 
 9791              	.LASF37:
 9792 0427 73656E73 		.ascii	"sensorState\000"
 9792      6F725374 
 9792      61746500 
 9793              	.LASF65:
 9794 0433 43617053 		.ascii	"CapSense_PreScan\000"
 9794      656E7365 
 9794      5F507265 
 9794      5363616E 
 9794      00
 9795              	.LASF26:
 9796 0444 6F666673 		.ascii	"offset\000"
 9796      657400
 9797              	.LASF54:
 9798 044b 43617053 		.ascii	"CapSense_SetScanResolution\000"
 9798      656E7365 
 9798      5F536574 
 9798      5363616E 
 9798      5265736F 
 9799              	.LASF67:
 9800 0466 43617053 		.ascii	"CapSense_ScanSensor\000"
 9800      656E7365 
 9800      5F536361 
ARM GAS  C:\Users\young\AppData\Local\Temp\ccoFnsFE.s 			page 226


 9800      6E53656E 
 9800      736F7200 
 9801              	.LASF61:
 9802 047a 7072744E 		.ascii	"prtNumberTmp\000"
 9802      756D6265 
 9802      72546D70 
 9802      00
 9803              	.LASF70:
 9804 0487 73656E73 		.ascii	"sensorsPerWidget\000"
 9804      6F727350 
 9804      65725769 
 9804      64676574 
 9804      00
 9805              	.LASF64:
 9806 0498 43617053 		.ascii	"CapSense_initVar\000"
 9806      656E7365 
 9806      5F696E69 
 9806      74566172 
 9806      00
 9807              	.LASF112:
 9808 04a9 43617053 		.ascii	"CapSense_numberOfSensors\000"
 9808      656E7365 
 9808      5F6E756D 
 9808      6265724F 
 9808      6653656E 
 9809              	.LASF36:
 9810 04c2 73656E73 		.ascii	"sensor\000"
 9810      6F7200
 9811              	.LASF94:
 9812 04c9 43617053 		.ascii	"CapSense_sensorRaw\000"
 9812      656E7365 
 9812      5F73656E 
 9812      736F7252 
 9812      617700
 9813              	.LASF14:
 9814 04dc 63686172 		.ascii	"char\000"
 9814      00
 9815              	.LASF118:
 9816 04e1 43794578 		.ascii	"CyExitCriticalSection\000"
 9816      69744372 
 9816      69746963 
 9816      616C5365 
 9816      6374696F 
 9817              	.LASF126:
 9818 04f7 43794465 		.ascii	"CyDelayCycles\000"
 9818      6C617943 
 9818      79636C65 
 9818      7300
 9819              	.LASF24:
 9820 0505 7461626C 		.ascii	"table\000"
 9820      6500
 9821              	.LASF29:
 9822 050b 43617053 		.ascii	"CapSense_FindNextSensor\000"
 9822      656E7365 
 9822      5F46696E 
 9822      644E6578 
 9822      7453656E 
ARM GAS  C:\Users\young\AppData\Local\Temp\ccoFnsFE.s 			page 227


 9823              	.LASF107:
 9824 0523 43617053 		.ascii	"CapSense_pcTable\000"
 9824      656E7365 
 9824      5F706354 
 9824      61626C65 
 9824      00
 9825              	.LASF10:
 9826 0534 75696E74 		.ascii	"uint16\000"
 9826      313600
 9827              	.LASF115:
 9828 053b 4379496E 		.ascii	"CyIntSetVector\000"
 9828      74536574 
 9828      56656374 
 9828      6F7200
 9829              	.LASF56:
 9830 054a 7265736F 		.ascii	"resolution\000"
 9830      6C757469 
 9830      6F6E00
 9831              	.LASF100:
 9832 0555 43617053 		.ascii	"CapSense_widgetResolution\000"
 9832      656E7365 
 9832      5F776964 
 9832      67657452 
 9832      65736F6C 
 9833              	.LASF62:
 9834 056f 70696E4E 		.ascii	"pinNumberTmp\000"
 9834      756D6265 
 9834      72546D70 
 9834      00
 9835              	.LASF88:
 9836 057c 43617053 		.ascii	"CapSense_GetIDACRange\000"
 9836      656E7365 
 9836      5F476574 
 9836      49444143 
 9836      52616E67 
 9837              	.LASF68:
 9838 0592 43617053 		.ascii	"CapSense_ScanEnabledWidgets\000"
 9838      656E7365 
 9838      5F536361 
 9838      6E456E61 
 9838      626C6564 
 9839              	.LASF98:
 9840 05ae 43617053 		.ascii	"CapSense_modulationIDAC\000"
 9840      656E7365 
 9840      5F6D6F64 
 9840      756C6174 
 9840      696F6E49 
 9841              	.LASF6:
 9842 05c6 6C6F6E67 		.ascii	"long long int\000"
 9842      206C6F6E 
 9842      6720696E 
 9842      7400
 9843              	.LASF124:
 9844 05d4 43617053 		.ascii	"CapSense_SenseClk_StartEx\000"
 9844      656E7365 
 9844      5F53656E 
 9844      7365436C 
ARM GAS  C:\Users\young\AppData\Local\Temp\ccoFnsFE.s 			page 228


 9844      6B5F5374 
 9845              	.LASF31:
 9846 05ee 656E6162 		.ascii	"enableFlag\000"
 9846      6C65466C 
 9846      616700
 9847              	.LASF110:
 9848 05f9 43617053 		.ascii	"CapSense_pinShiftTbl\000"
 9848      656E7365 
 9848      5F70696E 
 9848      53686966 
 9848      7454626C 
 9849              	.LASF59:
 9850 060e 43617053 		.ascii	"CapSense_EnableSensor\000"
 9850      656E7365 
 9850      5F456E61 
 9850      626C6553 
 9850      656E736F 
 9851              	.LASF80:
 9852 0624 43617053 		.ascii	"CapSense_SetModulatorClkDivider\000"
 9852      656E7365 
 9852      5F536574 
 9852      4D6F6475 
 9852      6C61746F 
 9853              	.LASF95:
 9854 0644 43617053 		.ascii	"CapSense_unscannedSnsDriveMode\000"
 9854      656E7365 
 9854      5F756E73 
 9854      63616E6E 
 9854      6564536E 
 9855              	.LASF76:
 9856 0663 43617053 		.ascii	"CapSense_GetSenseClkDivider\000"
 9856      656E7365 
 9856      5F476574 
 9856      53656E73 
 9856      65436C6B 
 9857              	.LASF11:
 9858 067f 75696E74 		.ascii	"uint32\000"
 9858      333200
 9859              	.LASF20:
 9860 0686 70696E4E 		.ascii	"pinNumber\000"
 9860      756D6265 
 9860      7200
 9861              	.LASF30:
 9862 0690 736E7349 		.ascii	"snsIndex\000"
 9862      6E646578 
 9862      00
 9863              	.LASF18:
 9864 0699 6C6F6E67 		.ascii	"long double\000"
 9864      20646F75 
 9864      626C6500 
 9865              	.LASF71:
 9866 06a5 6C617374 		.ascii	"lastSensor\000"
 9866      53656E73 
 9866      6F7200
 9867              	.LASF16:
 9868 06b0 72656733 		.ascii	"reg32\000"
 9868      3200
ARM GAS  C:\Users\young\AppData\Local\Temp\ccoFnsFE.s 			page 229


 9869              	.LASF63:
 9870 06b6 43617053 		.ascii	"CapSense_RestoreDriveModeAllPins\000"
 9870      656E7365 
 9870      5F526573 
 9870      746F7265 
 9870      44726976 
 9871              	.LASF119:
 9872 06d7 43617053 		.ascii	"CapSense_SenseClk_Stop\000"
 9872      656E7365 
 9872      5F53656E 
 9872      7365436C 
 9872      6B5F5374 
 9873              	.LASF89:
 9874 06ee 43617053 		.ascii	"CapSense_SetIDACRange\000"
 9874      656E7365 
 9874      5F536574 
 9874      49444143 
 9874      52616E67 
 9875              	.LASF21:
 9876 0704 706F7274 		.ascii	"portNumber\000"
 9876      4E756D62 
 9876      657200
 9877              	.LASF42:
 9878 070f 43617053 		.ascii	"CapSense_Init\000"
 9878      656E7365 
 9878      5F496E69 
 9878      7400
 9879              	.LASF91:
 9880 071d 43617053 		.ascii	"CapSense_prescalersTuningDone\000"
 9880      656E7365 
 9880      5F707265 
 9880      7363616C 
 9880      65727354 
 9881              	.LASF78:
 9882 073b 73656E73 		.ascii	"senseClk\000"
 9882      65436C6B 
 9882      00
 9883              	.LASF32:
 9884 0744 43617053 		.ascii	"CapSense_SetPinDriveMode\000"
 9884      656E7365 
 9884      5F536574 
 9884      50696E44 
 9884      72697665 
 9885              	.LASF2:
 9886 075d 73686F72 		.ascii	"short int\000"
 9886      7420696E 
 9886      7400
 9887              	.LASF4:
 9888 0767 6C6F6E67 		.ascii	"long int\000"
 9888      20696E74 
 9888      00
 9889              	.LASF40:
 9890 0770 64656C61 		.ascii	"delay\000"
 9890      7900
 9891              	.LASF75:
 9892 0776 43617053 		.ascii	"CapSense_ReadCurrentScanningSensor\000"
 9892      656E7365 
ARM GAS  C:\Users\young\AppData\Local\Temp\ccoFnsFE.s 			page 230


 9892      5F526561 
 9892      64437572 
 9892      72656E74 
 9893              	.LASF60:
 9894 0799 43617053 		.ascii	"CapSense_SetDriveModeAllPins\000"
 9894      656E7365 
 9894      5F536574 
 9894      44726976 
 9894      654D6F64 
 9895              	.LASF96:
 9896 07b6 43617053 		.ascii	"CapSense_sensorEnableMaskBackup\000"
 9896      656E7365 
 9896      5F73656E 
 9896      736F7245 
 9896      6E61626C 
 9897              	.LASF35:
 9898 07d6 43617053 		.ascii	"CapSense_SetUnscannedSensorState\000"
 9898      656E7365 
 9898      5F536574 
 9898      556E7363 
 9898      616E6E65 
 9899              	.LASF121:
 9900 07f7 43617053 		.ascii	"CapSense_SampleClk_SetFractionalDividerRegister\000"
 9900      656E7365 
 9900      5F53616D 
 9900      706C6543 
 9900      6C6B5F53 
 9901              	.LASF79:
 9902 0827 43617053 		.ascii	"CapSense_GetModulatorClkDivider\000"
 9902      656E7365 
 9902      5F476574 
 9902      4D6F6475 
 9902      6C61746F 
 9903              	.LASF97:
 9904 0847 43617053 		.ascii	"CapSense_sensorEnableMask\000"
 9904      656E7365 
 9904      5F73656E 
 9904      736F7245 
 9904      6E61626C 
 9905              	.LASF90:
 9906 0861 69446163 		.ascii	"iDacRange\000"
 9906      52616E67 
 9906      6500
 9907              	.LASF108:
 9908 086b 43617053 		.ascii	"CapSense_portTable\000"
 9908      656E7365 
 9908      5F706F72 
 9908      74546162 
 9908      6C6500
 9909              	.LASF87:
 9910 087e 636F6D70 		.ascii	"compIdacValue\000"
 9910      49646163 
 9910      56616C75 
 9910      6500
 9911              	.LASF120:
 9912 088c 43617053 		.ascii	"CapSense_SampleClk_Stop\000"
 9912      656E7365 
ARM GAS  C:\Users\young\AppData\Local\Temp\ccoFnsFE.s 			page 231


 9912      5F53616D 
 9912      706C6543 
 9912      6C6B5F53 
 9913              	.LASF84:
 9914 08a4 6D6F6449 		.ascii	"modIdacValue\000"
 9914      64616356 
 9914      616C7565 
 9914      00
 9915              	.LASF17:
 9916 08b1 73697A65 		.ascii	"sizetype\000"
 9916      74797065 
 9916      00
 9917              	.LASF5:
 9918 08ba 6C6F6E67 		.ascii	"long unsigned int\000"
 9918      20756E73 
 9918      69676E65 
 9918      6420696E 
 9918      7400
 9919              	.LASF47:
 9920 08cc 706F7274 		.ascii	"port\000"
 9920      00
 9921              	.LASF27:
 9922 08d1 656E4D61 		.ascii	"enMask\000"
 9922      736B00
 9923              	.LASF1:
 9924 08d8 756E7369 		.ascii	"unsigned char\000"
 9924      676E6564 
 9924      20636861 
 9924      7200
 9925              	.LASF66:
 9926 08e6 636F756E 		.ascii	"counterResolution\000"
 9926      74657252 
 9926      65736F6C 
 9926      7574696F 
 9926      6E00
 9927              	.LASF57:
 9928 08f8 43617053 		.ascii	"CapSense_ReadSensorRaw\000"
 9928      656E7365 
 9928      5F526561 
 9928      6453656E 
 9928      736F7252 
 9929              	.LASF83:
 9930 090f 43617053 		.ascii	"CapSense_SetModulationIDAC\000"
 9930      656E7365 
 9930      5F536574 
 9930      4D6F6475 
 9930      6C617469 
 9931              	.LASF123:
 9932 092a 43617053 		.ascii	"CapSense_SampleClk_StartEx\000"
 9932      656E7365 
 9932      5F53616D 
 9932      706C6543 
 9932      6C6B5F53 
 9933              	.LASF33:
 9934 0945 43617053 		.ascii	"CapSense_SetBitValue\000"
 9934      656E7365 
 9934      5F536574 
ARM GAS  C:\Users\young\AppData\Local\Temp\ccoFnsFE.s 			page 232


 9934      42697456 
 9934      616C7565 
 9935              	.LASF28:
 9936 095a 43617053 		.ascii	"CapSense_GetBitValue\000"
 9936      656E7365 
 9936      5F476574 
 9936      42697456 
 9936      616C7565 
 9937              	.LASF85:
 9938 096f 43617053 		.ascii	"CapSense_GetCompensationIDAC\000"
 9938      656E7365 
 9938      5F476574 
 9938      436F6D70 
 9938      656E7361 
 9939              	.LASF122:
 9940 098c 43617053 		.ascii	"CapSense_SenseClk_SetFractionalDividerRegister\000"
 9940      656E7365 
 9940      5F53656E 
 9940      7365436C 
 9940      6B5F5365 
 9941              	.LASF125:
 9942 09bb 4379496E 		.ascii	"CyIntEnable\000"
 9942      74456E61 
 9942      626C6500 
 9943              	.LASF82:
 9944 09c7 43617053 		.ascii	"CapSense_GetModulationIDAC\000"
 9944      656E7365 
 9944      5F476574 
 9944      4D6F6475 
 9944      6C617469 
 9945              	.LASF117:
 9946 09e2 4379456E 		.ascii	"CyEnterCriticalSection\000"
 9946      74657243 
 9946      72697469 
 9946      63616C53 
 9946      65637469 
 9947              	.LASF0:
 9948 09f9 7369676E 		.ascii	"signed char\000"
 9948      65642063 
 9948      68617200 
 9949              	.LASF3:
 9950 0a05 73686F72 		.ascii	"short unsigned int\000"
 9950      7420756E 
 9950      7369676E 
 9950      65642069 
 9950      6E7400
 9951              	.LASF41:
 9952 0a18 6E657752 		.ascii	"newRegValue\000"
 9952      65675661 
 9952      6C756500 
 9953              	.LASF9:
 9954 0a24 75696E74 		.ascii	"uint8\000"
 9954      3800
 9955              	.LASF13:
 9956 0a2a 646F7562 		.ascii	"double\000"
 9956      6C6500
 9957              	.LASF43:
ARM GAS  C:\Users\young\AppData\Local\Temp\ccoFnsFE.s 			page 233


 9958 0a31 63757253 		.ascii	"curSensor\000"
 9958      656E736F 
 9958      7200
 9959              	.LASF19:
 9960 0a3b 64726976 		.ascii	"driveMode\000"
 9960      654D6F64 
 9960      6500
 9961              	.LASF25:
 9962 0a45 706F7369 		.ascii	"position\000"
 9962      74696F6E 
 9962      00
 9963              		.ident	"GCC: (GNU Tools for ARM Embedded Processors) 5.4.1 20160609 (release) [ARM/embedded-5-bran
