ARM GAS  C:\Users\young\AppData\Local\Temp\ccZHlxL6.s 			page 1


   1              		.syntax unified
   2              		.cpu cortex-m0
   3              		.fpu softvfp
   4              		.eabi_attribute 20, 1
   5              		.eabi_attribute 21, 1
   6              		.eabi_attribute 23, 3
   7              		.eabi_attribute 24, 1
   8              		.eabi_attribute 25, 1
   9              		.eabi_attribute 26, 1
  10              		.eabi_attribute 30, 2
  11              		.eabi_attribute 34, 0
  12              		.eabi_attribute 18, 4
  13              		.thumb
  14              		.syntax unified
  15              		.file	"cy_em_eeprom.c"
  16              		.text
  17              	.Ltext0:
  18              		.cfi_sections	.debug_frame
  19              		.section	.text.CheckCrcAndCopy.isra.2,"ax",%progbits
  20              		.align	2
  21              		.code	16
  22              		.thumb_func
  23              		.type	CheckCrcAndCopy.isra.2, %function
  24              	CheckCrcAndCopy.isra.2:
  25              	.LFB17:
  26              		.file 1 "Generated_Source\\PSoC4\\cy_em_eeprom.c"
   1:Generated_Source\PSoC4/cy_em_eeprom.c **** /***************************************************************************//**
   2:Generated_Source\PSoC4/cy_em_eeprom.c **** * \file cy_em_eeprom.c
   3:Generated_Source\PSoC4/cy_em_eeprom.c **** * \version 2.20
   4:Generated_Source\PSoC4/cy_em_eeprom.c **** *
   5:Generated_Source\PSoC4/cy_em_eeprom.c **** * \brief
   6:Generated_Source\PSoC4/cy_em_eeprom.c **** *  This file provides source code of the API for the Emulated EEPROM library.
   7:Generated_Source\PSoC4/cy_em_eeprom.c **** *  The Emulated EEPROM API allows creating of an emulated EEPROM in flash that
   8:Generated_Source\PSoC4/cy_em_eeprom.c **** *  has the ability to do wear leveling and restore corrupted data from a
   9:Generated_Source\PSoC4/cy_em_eeprom.c **** *  redundant copy.
  10:Generated_Source\PSoC4/cy_em_eeprom.c **** *
  11:Generated_Source\PSoC4/cy_em_eeprom.c **** ********************************************************************************
  12:Generated_Source\PSoC4/cy_em_eeprom.c **** * \copyright
  13:Generated_Source\PSoC4/cy_em_eeprom.c **** * Copyright 2017, Cypress Semiconductor Corporation.  All rights reserved.
  14:Generated_Source\PSoC4/cy_em_eeprom.c **** * You may use this file only in accordance with the license, terms, conditions,
  15:Generated_Source\PSoC4/cy_em_eeprom.c **** * disclaimers, and limitations in the end user license agreement accompanying
  16:Generated_Source\PSoC4/cy_em_eeprom.c **** * the software package with which this file was provided.
  17:Generated_Source\PSoC4/cy_em_eeprom.c **** *******************************************************************************/
  18:Generated_Source\PSoC4/cy_em_eeprom.c **** 
  19:Generated_Source\PSoC4/cy_em_eeprom.c **** 
  20:Generated_Source\PSoC4/cy_em_eeprom.c **** #include "cytypes.h"
  21:Generated_Source\PSoC4/cy_em_eeprom.c **** #include <string.h>
  22:Generated_Source\PSoC4/cy_em_eeprom.c **** 
  23:Generated_Source\PSoC4/cy_em_eeprom.c **** #if (CYDEV_CHIP_FAMILY_USED == CYDEV_CHIP_FAMILY_PSOC6)
  24:Generated_Source\PSoC4/cy_em_eeprom.c ****     #include "em_eeprom/cy_em_eeprom.h"
  25:Generated_Source\PSoC4/cy_em_eeprom.c **** #else
  26:Generated_Source\PSoC4/cy_em_eeprom.c ****     #include "cy_em_eeprom.h"
  27:Generated_Source\PSoC4/cy_em_eeprom.c **** #endif /* (CYDEV_CHIP_FAMILY_USED == CYDEV_CHIP_FAMILY_PSOC6) */
  28:Generated_Source\PSoC4/cy_em_eeprom.c **** 
  29:Generated_Source\PSoC4/cy_em_eeprom.c **** 
  30:Generated_Source\PSoC4/cy_em_eeprom.c **** #if defined(__cplusplus)
  31:Generated_Source\PSoC4/cy_em_eeprom.c **** extern "C" {
ARM GAS  C:\Users\young\AppData\Local\Temp\ccZHlxL6.s 			page 2


  32:Generated_Source\PSoC4/cy_em_eeprom.c **** #endif
  33:Generated_Source\PSoC4/cy_em_eeprom.c **** 
  34:Generated_Source\PSoC4/cy_em_eeprom.c **** 
  35:Generated_Source\PSoC4/cy_em_eeprom.c **** /***************************************
  36:Generated_Source\PSoC4/cy_em_eeprom.c **** * Private Function Prototypes
  37:Generated_Source\PSoC4/cy_em_eeprom.c **** ***************************************/
  38:Generated_Source\PSoC4/cy_em_eeprom.c **** static void FindLastWrittenRow(uint32 * lastWrRowPtr, cy_stc_eeprom_context_t * context);
  39:Generated_Source\PSoC4/cy_em_eeprom.c **** static uint32 GetRowAddrBySeqNum(uint32 seqNum, cy_stc_eeprom_context_t * context);
  40:Generated_Source\PSoC4/cy_em_eeprom.c **** static uint8 CalcChecksum(uint8 rowData[], uint32 len);
  41:Generated_Source\PSoC4/cy_em_eeprom.c **** static void GetNextRowToWrite(uint32 seqNum,
  42:Generated_Source\PSoC4/cy_em_eeprom.c ****                             uint32 * rowToWrPtr,
  43:Generated_Source\PSoC4/cy_em_eeprom.c ****                             uint32 * rowToRdPtr,
  44:Generated_Source\PSoC4/cy_em_eeprom.c ****                             cy_stc_eeprom_context_t * context);
  45:Generated_Source\PSoC4/cy_em_eeprom.c **** static cy_en_em_eeprom_status_t CheckRanges(cy_stc_eeprom_config_t* config);
  46:Generated_Source\PSoC4/cy_em_eeprom.c **** static cy_en_em_eeprom_status_t WriteRow(uint32 rowAddr, uint32 *rowData, cy_stc_eeprom_context_t *
  47:Generated_Source\PSoC4/cy_em_eeprom.c **** static cy_en_em_eeprom_status_t EraseRow(uint32 rowAddr, uint32 ramBuffAddr, cy_stc_eeprom_context_
  48:Generated_Source\PSoC4/cy_em_eeprom.c **** static cy_en_em_eeprom_status_t CheckCrcAndCopy(uint32 startAddr,
  49:Generated_Source\PSoC4/cy_em_eeprom.c ****                                                 uint32 dstAddr,
  50:Generated_Source\PSoC4/cy_em_eeprom.c ****                                                 uint32 rowOffset,
  51:Generated_Source\PSoC4/cy_em_eeprom.c ****                                                 uint32 numBytes,
  52:Generated_Source\PSoC4/cy_em_eeprom.c ****                                                 cy_stc_eeprom_context_t * context);
  53:Generated_Source\PSoC4/cy_em_eeprom.c **** static uint32 GetAddresses(uint32 *startAddr, uint32 *endAddr, uint32 *offset, uint32 rowNum, uint3
  54:Generated_Source\PSoC4/cy_em_eeprom.c **** static cy_en_em_eeprom_status_t FillChecksum(cy_stc_eeprom_context_t * context);
  55:Generated_Source\PSoC4/cy_em_eeprom.c **** 
  56:Generated_Source\PSoC4/cy_em_eeprom.c **** /**
  57:Generated_Source\PSoC4/cy_em_eeprom.c **** * \addtogroup group_em_eeprom_functions
  58:Generated_Source\PSoC4/cy_em_eeprom.c **** * \{
  59:Generated_Source\PSoC4/cy_em_eeprom.c **** */
  60:Generated_Source\PSoC4/cy_em_eeprom.c **** 
  61:Generated_Source\PSoC4/cy_em_eeprom.c **** /*******************************************************************************
  62:Generated_Source\PSoC4/cy_em_eeprom.c **** * Function Name: Cy_Em_EEPROM_Init
  63:Generated_Source\PSoC4/cy_em_eeprom.c **** ****************************************************************************//**
  64:Generated_Source\PSoC4/cy_em_eeprom.c **** *
  65:Generated_Source\PSoC4/cy_em_eeprom.c **** * Initializes the Emulated EEPROM library by filling the context structure. 
  66:Generated_Source\PSoC4/cy_em_eeprom.c **** *
  67:Generated_Source\PSoC4/cy_em_eeprom.c **** * \param config
  68:Generated_Source\PSoC4/cy_em_eeprom.c **** * The pointer to a configuration structure. See \ref cy_stc_eeprom_config_t.
  69:Generated_Source\PSoC4/cy_em_eeprom.c **** *
  70:Generated_Source\PSoC4/cy_em_eeprom.c **** * \param context
  71:Generated_Source\PSoC4/cy_em_eeprom.c **** * The pointer to the EEPROM context structure to be filled by the function.
  72:Generated_Source\PSoC4/cy_em_eeprom.c **** * \ref cy_stc_eeprom_context_t.
  73:Generated_Source\PSoC4/cy_em_eeprom.c **** *
  74:Generated_Source\PSoC4/cy_em_eeprom.c **** * \return
  75:Generated_Source\PSoC4/cy_em_eeprom.c **** * error / status code. See \ref cy_en_em_eeprom_status_t.
  76:Generated_Source\PSoC4/cy_em_eeprom.c **** *
  77:Generated_Source\PSoC4/cy_em_eeprom.c **** * \note
  78:Generated_Source\PSoC4/cy_em_eeprom.c **** * The context structure should not be modified by the user after it is filled
  79:Generated_Source\PSoC4/cy_em_eeprom.c **** * with this function. Modification of context structure may cause the 
  80:Generated_Source\PSoC4/cy_em_eeprom.c **** * unexpected behavior of the Cy_Em_EEPROM API functions which rely on it.
  81:Generated_Source\PSoC4/cy_em_eeprom.c **** *
  82:Generated_Source\PSoC4/cy_em_eeprom.c **** * \note
  83:Generated_Source\PSoC4/cy_em_eeprom.c **** * This function uses a buffer of the flash row size to perform read
  84:Generated_Source\PSoC4/cy_em_eeprom.c **** * operation. For the size of the row refer to the specific PSoC device
  85:Generated_Source\PSoC4/cy_em_eeprom.c **** * datasheet.
  86:Generated_Source\PSoC4/cy_em_eeprom.c **** *
  87:Generated_Source\PSoC4/cy_em_eeprom.c **** * \sideeffect 
  88:Generated_Source\PSoC4/cy_em_eeprom.c **** * If the "Redundant Copy" option is used, the function performs a number of 
ARM GAS  C:\Users\young\AppData\Local\Temp\ccZHlxL6.s 			page 3


  89:Generated_Source\PSoC4/cy_em_eeprom.c **** * write operations to the EEPROM to initialize flash rows checksums. Therefore,
  90:Generated_Source\PSoC4/cy_em_eeprom.c **** * Cy_Em_EEPROM_NumWrites(), when it is called right after Cy_Em_EEPROM_Init(), 
  91:Generated_Source\PSoC4/cy_em_eeprom.c **** * will return a non-zero value that identifies the number of writes performed 
  92:Generated_Source\PSoC4/cy_em_eeprom.c **** * by Cy_Em_EEPROM_Init().
  93:Generated_Source\PSoC4/cy_em_eeprom.c **** *
  94:Generated_Source\PSoC4/cy_em_eeprom.c **** *******************************************************************************/
  95:Generated_Source\PSoC4/cy_em_eeprom.c **** cy_en_em_eeprom_status_t Cy_Em_EEPROM_Init(cy_stc_eeprom_config_t* config, cy_stc_eeprom_context_t 
  96:Generated_Source\PSoC4/cy_em_eeprom.c **** {
  97:Generated_Source\PSoC4/cy_em_eeprom.c ****     cy_en_em_eeprom_status_t ret = CY_EM_EEPROM_BAD_PARAM;
  98:Generated_Source\PSoC4/cy_em_eeprom.c **** 
  99:Generated_Source\PSoC4/cy_em_eeprom.c ****     if((NULL != context) && (NULL != config) && (NULL != ((uint32 *)config->userFlashStartAddr)) &&
 100:Generated_Source\PSoC4/cy_em_eeprom.c ****         (config->wearLevelingFactor <= CY_EM_EEPROM_MAX_WEAR_LEVELING_FACTOR) && (config->eepromSiz
 101:Generated_Source\PSoC4/cy_em_eeprom.c ****     {
 102:Generated_Source\PSoC4/cy_em_eeprom.c ****         ret = CheckRanges(config);
 103:Generated_Source\PSoC4/cy_em_eeprom.c **** 
 104:Generated_Source\PSoC4/cy_em_eeprom.c ****         if(CY_EM_EEPROM_SUCCESS == ret)
 105:Generated_Source\PSoC4/cy_em_eeprom.c ****         {
 106:Generated_Source\PSoC4/cy_em_eeprom.c ****             /* Copy the user config structure fields into context */
 107:Generated_Source\PSoC4/cy_em_eeprom.c ****             context->eepromSize = config->eepromSize;
 108:Generated_Source\PSoC4/cy_em_eeprom.c ****             context->wearLevelingFactor = config->wearLevelingFactor;
 109:Generated_Source\PSoC4/cy_em_eeprom.c ****             context->redundantCopy = config->redundantCopy;
 110:Generated_Source\PSoC4/cy_em_eeprom.c ****             context->blockingWrite = config->blockingWrite;
 111:Generated_Source\PSoC4/cy_em_eeprom.c ****             context->userFlashStartAddr = config->userFlashStartAddr;
 112:Generated_Source\PSoC4/cy_em_eeprom.c ****             /* Store frequently used data for internal use */
 113:Generated_Source\PSoC4/cy_em_eeprom.c ****             context->numberOfRows = CY_EM_EEPROM_GET_NUM_ROWS_IN_EEPROM(config->eepromSize);
 114:Generated_Source\PSoC4/cy_em_eeprom.c ****             context->wlEndAddr = ((CY_EM_EEPROM_GET_EEPROM_SIZE(context->numberOfRows) * config->we
 115:Generated_Source\PSoC4/cy_em_eeprom.c ****                     config->userFlashStartAddr);
 116:Generated_Source\PSoC4/cy_em_eeprom.c ****             /* Find last written EEPROM row and store it for quick access */
 117:Generated_Source\PSoC4/cy_em_eeprom.c ****             FindLastWrittenRow(&context->lastWrRowAddr, context);
 118:Generated_Source\PSoC4/cy_em_eeprom.c **** 
 119:Generated_Source\PSoC4/cy_em_eeprom.c ****             if((0u == CY_EM_EEPROM_GET_SEQ_NUM(context->lastWrRowAddr)) && (0u != context->redundan
 120:Generated_Source\PSoC4/cy_em_eeprom.c ****             {
 121:Generated_Source\PSoC4/cy_em_eeprom.c ****                 /* Call the function only after device reprogramming in case
 122:Generated_Source\PSoC4/cy_em_eeprom.c ****                 * if redundant copy is enabled.
 123:Generated_Source\PSoC4/cy_em_eeprom.c ****                 */
 124:Generated_Source\PSoC4/cy_em_eeprom.c ****                 ret = FillChecksum(context);
 125:Generated_Source\PSoC4/cy_em_eeprom.c ****                 
 126:Generated_Source\PSoC4/cy_em_eeprom.c ****                 /* Update the last written EEPROM row for Cy_Em_EEPROM_NumWrites() */
 127:Generated_Source\PSoC4/cy_em_eeprom.c ****                 FindLastWrittenRow(&context->lastWrRowAddr, context);
 128:Generated_Source\PSoC4/cy_em_eeprom.c ****             }
 129:Generated_Source\PSoC4/cy_em_eeprom.c ****         }
 130:Generated_Source\PSoC4/cy_em_eeprom.c ****     }
 131:Generated_Source\PSoC4/cy_em_eeprom.c **** 
 132:Generated_Source\PSoC4/cy_em_eeprom.c ****     return(ret);
 133:Generated_Source\PSoC4/cy_em_eeprom.c **** }
 134:Generated_Source\PSoC4/cy_em_eeprom.c **** 
 135:Generated_Source\PSoC4/cy_em_eeprom.c **** 
 136:Generated_Source\PSoC4/cy_em_eeprom.c **** /*******************************************************************************
 137:Generated_Source\PSoC4/cy_em_eeprom.c **** * Function Name: Cy_Em_EEPROM_Read
 138:Generated_Source\PSoC4/cy_em_eeprom.c **** ****************************************************************************//**
 139:Generated_Source\PSoC4/cy_em_eeprom.c **** *
 140:Generated_Source\PSoC4/cy_em_eeprom.c **** * This function takes the logical EEPROM address, converts it to the actual
 141:Generated_Source\PSoC4/cy_em_eeprom.c **** * physical address where the data is stored and returns the data to the user.
 142:Generated_Source\PSoC4/cy_em_eeprom.c **** *
 143:Generated_Source\PSoC4/cy_em_eeprom.c **** * \param addr
 144:Generated_Source\PSoC4/cy_em_eeprom.c **** * The logical start address in EEPROM to start reading data from.
 145:Generated_Source\PSoC4/cy_em_eeprom.c **** *
ARM GAS  C:\Users\young\AppData\Local\Temp\ccZHlxL6.s 			page 4


 146:Generated_Source\PSoC4/cy_em_eeprom.c **** * \param eepromData
 147:Generated_Source\PSoC4/cy_em_eeprom.c **** * The pointer to a user array to write data to.
 148:Generated_Source\PSoC4/cy_em_eeprom.c **** *
 149:Generated_Source\PSoC4/cy_em_eeprom.c **** * \param size
 150:Generated_Source\PSoC4/cy_em_eeprom.c **** * The amount of data to read.
 151:Generated_Source\PSoC4/cy_em_eeprom.c **** *
 152:Generated_Source\PSoC4/cy_em_eeprom.c **** * \param context
 153:Generated_Source\PSoC4/cy_em_eeprom.c **** * The pointer to the EEPROM context structure \ref cy_stc_eeprom_context_t.
 154:Generated_Source\PSoC4/cy_em_eeprom.c **** *
 155:Generated_Source\PSoC4/cy_em_eeprom.c **** * \return
 156:Generated_Source\PSoC4/cy_em_eeprom.c **** * This function returns \ref cy_en_em_eeprom_status_t.
 157:Generated_Source\PSoC4/cy_em_eeprom.c **** *
 158:Generated_Source\PSoC4/cy_em_eeprom.c **** * \note
 159:Generated_Source\PSoC4/cy_em_eeprom.c **** * This function uses a buffer of the flash row size to perform read
 160:Generated_Source\PSoC4/cy_em_eeprom.c **** * operation. For the size of the row refer to the specific PSoC device
 161:Generated_Source\PSoC4/cy_em_eeprom.c **** * datasheet.
 162:Generated_Source\PSoC4/cy_em_eeprom.c **** *
 163:Generated_Source\PSoC4/cy_em_eeprom.c **** * \note
 164:Generated_Source\PSoC4/cy_em_eeprom.c **** * In case if redundant copy option is enabled the function may perform writes
 165:Generated_Source\PSoC4/cy_em_eeprom.c **** * to EEPROM. This is done in case if the data in the EEPPROM is corrupted and
 166:Generated_Source\PSoC4/cy_em_eeprom.c **** * the data in redundant copy is valid based on CRC-8 data integrity check.
 167:Generated_Source\PSoC4/cy_em_eeprom.c **** *
 168:Generated_Source\PSoC4/cy_em_eeprom.c **** *******************************************************************************/
 169:Generated_Source\PSoC4/cy_em_eeprom.c **** cy_en_em_eeprom_status_t Cy_Em_EEPROM_Read(uint32 addr, 
 170:Generated_Source\PSoC4/cy_em_eeprom.c ****                                         void * eepromData, 
 171:Generated_Source\PSoC4/cy_em_eeprom.c ****                                         uint32 size,
 172:Generated_Source\PSoC4/cy_em_eeprom.c ****                                         cy_stc_eeprom_context_t * context)
 173:Generated_Source\PSoC4/cy_em_eeprom.c **** {
 174:Generated_Source\PSoC4/cy_em_eeprom.c ****     cy_en_em_eeprom_status_t ret = CY_EM_EEPROM_BAD_PARAM;
 175:Generated_Source\PSoC4/cy_em_eeprom.c ****     uint32 i;
 176:Generated_Source\PSoC4/cy_em_eeprom.c ****     uint32 numBytesToRead;
 177:Generated_Source\PSoC4/cy_em_eeprom.c ****     uint32 curEepromBaseAddr;
 178:Generated_Source\PSoC4/cy_em_eeprom.c ****     uint32 curRowOffset;
 179:Generated_Source\PSoC4/cy_em_eeprom.c ****     uint32 startRowAddr;
 180:Generated_Source\PSoC4/cy_em_eeprom.c ****     uint32 actEepromRowNum;
 181:Generated_Source\PSoC4/cy_em_eeprom.c ****     uint32 curRdEepromRowNum = 0u;
 182:Generated_Source\PSoC4/cy_em_eeprom.c ****     uint32 dataStartEepromRowNum = 0u;
 183:Generated_Source\PSoC4/cy_em_eeprom.c ****     uint32 eeData = (uint32) eepromData; /* To avoid the pointer arithmetic with void */
 184:Generated_Source\PSoC4/cy_em_eeprom.c **** 
 185:Generated_Source\PSoC4/cy_em_eeprom.c ****     /* Validate input parameters */
 186:Generated_Source\PSoC4/cy_em_eeprom.c ****     if((0u != size) && ((addr + size) <= (context->eepromSize)) && (NULL != eepromData))
 187:Generated_Source\PSoC4/cy_em_eeprom.c ****     {
 188:Generated_Source\PSoC4/cy_em_eeprom.c ****         uint32 rdAddr = addr;
 189:Generated_Source\PSoC4/cy_em_eeprom.c ****         uint32 rdSize = size;
 190:Generated_Source\PSoC4/cy_em_eeprom.c ****         /* Get the sequence number of the last written row */
 191:Generated_Source\PSoC4/cy_em_eeprom.c ****         uint32 seqNum = CY_EM_EEPROM_GET_SEQ_NUM(context->lastWrRowAddr);
 192:Generated_Source\PSoC4/cy_em_eeprom.c ****         uint32 updateAddrFlag = 0u;
 193:Generated_Source\PSoC4/cy_em_eeprom.c **** 
 194:Generated_Source\PSoC4/cy_em_eeprom.c ****         /* Calculate the number of the row read operations. Currently this only concerns
 195:Generated_Source\PSoC4/cy_em_eeprom.c ****         * the reads from the EEPROM data locations.
 196:Generated_Source\PSoC4/cy_em_eeprom.c ****         */
 197:Generated_Source\PSoC4/cy_em_eeprom.c ****         uint32 numRowReads = ((((rdAddr + rdSize) - 1u) / CY_EM_EEPROM_EEPROM_DATA_LEN) -
 198:Generated_Source\PSoC4/cy_em_eeprom.c ****                               (rdAddr / CY_EM_EEPROM_EEPROM_DATA_LEN)) + 1u;
 199:Generated_Source\PSoC4/cy_em_eeprom.c **** 
 200:Generated_Source\PSoC4/cy_em_eeprom.c ****         /* Get the address of the first row of the currently active EEPROM sector. If
 201:Generated_Source\PSoC4/cy_em_eeprom.c ****         * no wear leveling is used - the EEPROM has only one sector, so use the base
 202:Generated_Source\PSoC4/cy_em_eeprom.c ****         * addr stored in "context->userFlashStartAddr".
ARM GAS  C:\Users\young\AppData\Local\Temp\ccZHlxL6.s 			page 5


 203:Generated_Source\PSoC4/cy_em_eeprom.c ****         */
 204:Generated_Source\PSoC4/cy_em_eeprom.c ****         curEepromBaseAddr = (((context->lastWrRowAddr - context->userFlashStartAddr) /
 205:Generated_Source\PSoC4/cy_em_eeprom.c ****                               (CY_EM_EEPROM_FLASH_SIZEOF_ROW * context->numberOfRows)) *
 206:Generated_Source\PSoC4/cy_em_eeprom.c ****                               (CY_EM_EEPROM_FLASH_SIZEOF_ROW * context->numberOfRows)) +
 207:Generated_Source\PSoC4/cy_em_eeprom.c ****                                context->userFlashStartAddr;
 208:Generated_Source\PSoC4/cy_em_eeprom.c **** 
 209:Generated_Source\PSoC4/cy_em_eeprom.c ****         /* Find the number of the row that contains the start address of the data */
 210:Generated_Source\PSoC4/cy_em_eeprom.c ****         for(i = 0u; i < context->numberOfRows; i++)
 211:Generated_Source\PSoC4/cy_em_eeprom.c ****         {
 212:Generated_Source\PSoC4/cy_em_eeprom.c ****             if(0u != CY_EM_EEPROM_IS_ADDR_IN_ROW_RANGE(rdAddr, i))
 213:Generated_Source\PSoC4/cy_em_eeprom.c ****             {
 214:Generated_Source\PSoC4/cy_em_eeprom.c ****                 dataStartEepromRowNum = i;
 215:Generated_Source\PSoC4/cy_em_eeprom.c ****                 curRdEepromRowNum = dataStartEepromRowNum;
 216:Generated_Source\PSoC4/cy_em_eeprom.c ****                 break;
 217:Generated_Source\PSoC4/cy_em_eeprom.c ****             }
 218:Generated_Source\PSoC4/cy_em_eeprom.c ****         }
 219:Generated_Source\PSoC4/cy_em_eeprom.c **** 
 220:Generated_Source\PSoC4/cy_em_eeprom.c ****         /* Find the row number of the last written row */
 221:Generated_Source\PSoC4/cy_em_eeprom.c ****         actEepromRowNum = (context->lastWrRowAddr - curEepromBaseAddr) / CY_EM_EEPROM_FLASH_SIZEOF_
 222:Generated_Source\PSoC4/cy_em_eeprom.c **** 
 223:Generated_Source\PSoC4/cy_em_eeprom.c ****         /* Check if wear leveling is used */
 224:Generated_Source\PSoC4/cy_em_eeprom.c ****         if(context->wearLevelingFactor > 1u)
 225:Generated_Source\PSoC4/cy_em_eeprom.c ****         {
 226:Generated_Source\PSoC4/cy_em_eeprom.c ****             uint32 dataEndEepromRowNum = dataStartEepromRowNum + (numRowReads - 1u);
 227:Generated_Source\PSoC4/cy_em_eeprom.c **** 
 228:Generated_Source\PSoC4/cy_em_eeprom.c ****             /* Check if the future validation of the read address is required. */
 229:Generated_Source\PSoC4/cy_em_eeprom.c ****             updateAddrFlag = (dataStartEepromRowNum > actEepromRowNum) ? 1u :
 230:Generated_Source\PSoC4/cy_em_eeprom.c ****                               ((dataEndEepromRowNum > actEepromRowNum) ? 1u : 0u);
 231:Generated_Source\PSoC4/cy_em_eeprom.c ****         }
 232:Generated_Source\PSoC4/cy_em_eeprom.c **** 
 233:Generated_Source\PSoC4/cy_em_eeprom.c ****         /* Copy data from the EEPROM data locations to the user buffer */
 234:Generated_Source\PSoC4/cy_em_eeprom.c ****         for(i = 0u; i < numRowReads; i++)
 235:Generated_Source\PSoC4/cy_em_eeprom.c ****         {
 236:Generated_Source\PSoC4/cy_em_eeprom.c ****             startRowAddr = curEepromBaseAddr + (curRdEepromRowNum * CY_EM_EEPROM_FLASH_SIZEOF_ROW);
 237:Generated_Source\PSoC4/cy_em_eeprom.c ****             curRowOffset = CY_EM_EEPROM_EEPROM_DATA_LEN + (rdAddr % CY_EM_EEPROM_EEPROM_DATA_LEN);
 238:Generated_Source\PSoC4/cy_em_eeprom.c **** 
 239:Generated_Source\PSoC4/cy_em_eeprom.c ****             /* Check if there are more reads pending and update the number of the
 240:Generated_Source\PSoC4/cy_em_eeprom.c ****             * remaining bytes to read respectively.
 241:Generated_Source\PSoC4/cy_em_eeprom.c ****             */
 242:Generated_Source\PSoC4/cy_em_eeprom.c ****             if((i + 1u) < numRowReads)
 243:Generated_Source\PSoC4/cy_em_eeprom.c ****             {
 244:Generated_Source\PSoC4/cy_em_eeprom.c ****                 numBytesToRead = CY_EM_EEPROM_EEPROM_DATA_LEN - (rdAddr % CY_EM_EEPROM_EEPROM_DATA_
 245:Generated_Source\PSoC4/cy_em_eeprom.c ****             }
 246:Generated_Source\PSoC4/cy_em_eeprom.c ****             else
 247:Generated_Source\PSoC4/cy_em_eeprom.c ****             {
 248:Generated_Source\PSoC4/cy_em_eeprom.c ****                 numBytesToRead = rdSize;
 249:Generated_Source\PSoC4/cy_em_eeprom.c ****             }
 250:Generated_Source\PSoC4/cy_em_eeprom.c **** 
 251:Generated_Source\PSoC4/cy_em_eeprom.c ****             /* Check if the read address needs to be updated to point to the correct
 252:Generated_Source\PSoC4/cy_em_eeprom.c ****             * EEPROM sector.
 253:Generated_Source\PSoC4/cy_em_eeprom.c ****             */
 254:Generated_Source\PSoC4/cy_em_eeprom.c ****             if((0u != updateAddrFlag) && (curRdEepromRowNum > actEepromRowNum))
 255:Generated_Source\PSoC4/cy_em_eeprom.c ****             {
 256:Generated_Source\PSoC4/cy_em_eeprom.c ****                 startRowAddr -= context->numberOfRows * CY_EM_EEPROM_FLASH_SIZEOF_ROW;
 257:Generated_Source\PSoC4/cy_em_eeprom.c **** 
 258:Generated_Source\PSoC4/cy_em_eeprom.c ****                 if(startRowAddr < context->userFlashStartAddr)
 259:Generated_Source\PSoC4/cy_em_eeprom.c ****                 {
ARM GAS  C:\Users\young\AppData\Local\Temp\ccZHlxL6.s 			page 6


 260:Generated_Source\PSoC4/cy_em_eeprom.c ****                     startRowAddr = context->wlEndAddr -
 261:Generated_Source\PSoC4/cy_em_eeprom.c ****                         ((context->numberOfRows - curRdEepromRowNum) * CY_EM_EEPROM_FLASH_SIZEOF_RO
 262:Generated_Source\PSoC4/cy_em_eeprom.c ****                 }
 263:Generated_Source\PSoC4/cy_em_eeprom.c ****             }
 264:Generated_Source\PSoC4/cy_em_eeprom.c **** 
 265:Generated_Source\PSoC4/cy_em_eeprom.c ****             if(0u != context->redundantCopy)
 266:Generated_Source\PSoC4/cy_em_eeprom.c ****             {
 267:Generated_Source\PSoC4/cy_em_eeprom.c ****                 /* Check a checksum of the EEPROM row and if it is bad, check a checksum in
 268:Generated_Source\PSoC4/cy_em_eeprom.c ****                 * the corresponding row in redundant copy, otherwise return failure.
 269:Generated_Source\PSoC4/cy_em_eeprom.c ****                 */
 270:Generated_Source\PSoC4/cy_em_eeprom.c ****                 ret = CheckCrcAndCopy(startRowAddr, eeData, curRowOffset, numBytesToRead, context);
 271:Generated_Source\PSoC4/cy_em_eeprom.c **** 
 272:Generated_Source\PSoC4/cy_em_eeprom.c ****                 if(CY_EM_EEPROM_SUCCESS != ret)
 273:Generated_Source\PSoC4/cy_em_eeprom.c ****                 {
 274:Generated_Source\PSoC4/cy_em_eeprom.c ****                     break;
 275:Generated_Source\PSoC4/cy_em_eeprom.c ****                 }
 276:Generated_Source\PSoC4/cy_em_eeprom.c ****             }
 277:Generated_Source\PSoC4/cy_em_eeprom.c ****             else
 278:Generated_Source\PSoC4/cy_em_eeprom.c ****             {
 279:Generated_Source\PSoC4/cy_em_eeprom.c ****                 /* Copy the data to the user buffer */
 280:Generated_Source\PSoC4/cy_em_eeprom.c ****                 (void)memcpy((void *)(eeData),
 281:Generated_Source\PSoC4/cy_em_eeprom.c ****                              (void *)(startRowAddr + curRowOffset),
 282:Generated_Source\PSoC4/cy_em_eeprom.c ****                              numBytesToRead);
 283:Generated_Source\PSoC4/cy_em_eeprom.c **** 
 284:Generated_Source\PSoC4/cy_em_eeprom.c ****                 /* Indicate success to be able to execute next code block */
 285:Generated_Source\PSoC4/cy_em_eeprom.c ****                 ret = CY_EM_EEPROM_SUCCESS;
 286:Generated_Source\PSoC4/cy_em_eeprom.c ****             }
 287:Generated_Source\PSoC4/cy_em_eeprom.c **** 
 288:Generated_Source\PSoC4/cy_em_eeprom.c ****             /* Update variables anticipated in the read operation */
 289:Generated_Source\PSoC4/cy_em_eeprom.c ****             rdAddr += numBytesToRead;
 290:Generated_Source\PSoC4/cy_em_eeprom.c ****             rdSize -= numBytesToRead;
 291:Generated_Source\PSoC4/cy_em_eeprom.c ****             eeData += numBytesToRead;
 292:Generated_Source\PSoC4/cy_em_eeprom.c ****             curRdEepromRowNum++;
 293:Generated_Source\PSoC4/cy_em_eeprom.c ****         }
 294:Generated_Source\PSoC4/cy_em_eeprom.c **** 
 295:Generated_Source\PSoC4/cy_em_eeprom.c ****         /* This code block will copy the latest data from the EEPROM headers into the
 296:Generated_Source\PSoC4/cy_em_eeprom.c ****         * user buffer. The data previously copied into the user buffer may be updated
 297:Generated_Source\PSoC4/cy_em_eeprom.c ****         * as the EEPROM headers contain more recent data. 
 298:Generated_Source\PSoC4/cy_em_eeprom.c ****         * The code block is executed when two following conditions are true:
 299:Generated_Source\PSoC4/cy_em_eeprom.c ****         *  1) The reads from "historic" data locations were successful;
 300:Generated_Source\PSoC4/cy_em_eeprom.c ****         *  2) The user performed at least one write operation to Em_EEPROM (0u !=
 301:Generated_Source\PSoC4/cy_em_eeprom.c ****         *     seqNum).        
 302:Generated_Source\PSoC4/cy_em_eeprom.c ****         */
 303:Generated_Source\PSoC4/cy_em_eeprom.c ****         if((CY_EM_EEPROM_SUCCESS == ret) && (0u != seqNum))
 304:Generated_Source\PSoC4/cy_em_eeprom.c ****         {
 305:Generated_Source\PSoC4/cy_em_eeprom.c ****             numRowReads = (context->numberOfRows <= seqNum) ? (context->numberOfRows) : (seqNum);
 306:Generated_Source\PSoC4/cy_em_eeprom.c ****             numRowReads--;
 307:Generated_Source\PSoC4/cy_em_eeprom.c **** 
 308:Generated_Source\PSoC4/cy_em_eeprom.c ****             for(i = (seqNum - numRowReads); i <= seqNum; i++)
 309:Generated_Source\PSoC4/cy_em_eeprom.c ****             {
 310:Generated_Source\PSoC4/cy_em_eeprom.c ****                 startRowAddr = GetRowAddrBySeqNum(i, context);
 311:Generated_Source\PSoC4/cy_em_eeprom.c **** 
 312:Generated_Source\PSoC4/cy_em_eeprom.c ****                 if (0u != startRowAddr)
 313:Generated_Source\PSoC4/cy_em_eeprom.c ****                 {
 314:Generated_Source\PSoC4/cy_em_eeprom.c ****                     /* The following variables are introduced to increase code readability. */
 315:Generated_Source\PSoC4/cy_em_eeprom.c ****                     uint32 startAddr  = *(uint32 *)(startRowAddr + CY_EM_EEPROM_HEADER_ADDR_OFFSET)
 316:Generated_Source\PSoC4/cy_em_eeprom.c ****                     uint32 endAddr    = startAddr + (*(uint32 *)(startRowAddr + CY_EM_EEPROM_HEADER
ARM GAS  C:\Users\young\AppData\Local\Temp\ccZHlxL6.s 			page 7


 317:Generated_Source\PSoC4/cy_em_eeprom.c **** 
 318:Generated_Source\PSoC4/cy_em_eeprom.c ****                     /* Check if the current row EEPROM header contains the data requested for read 
 319:Generated_Source\PSoC4/cy_em_eeprom.c ****                     if(0u != CY_EM_EEPROM_IS_ADDRESES_CROSSING(startAddr, endAddr, addr, addr + siz
 320:Generated_Source\PSoC4/cy_em_eeprom.c ****                     {
 321:Generated_Source\PSoC4/cy_em_eeprom.c ****                         uint32 srcOffset = (startAddr > addr) ? (0u) : (addr - startAddr);
 322:Generated_Source\PSoC4/cy_em_eeprom.c ****                         uint32 dstOffset = (startAddr > addr) ? (startAddr - addr): (0u);
 323:Generated_Source\PSoC4/cy_em_eeprom.c ****                         rdAddr = (startAddr > addr) ? (startAddr) : (addr);
 324:Generated_Source\PSoC4/cy_em_eeprom.c **** 
 325:Generated_Source\PSoC4/cy_em_eeprom.c ****                         srcOffset += CY_EM_EEPROM_HEADER_DATA_OFFSET;
 326:Generated_Source\PSoC4/cy_em_eeprom.c **** 
 327:Generated_Source\PSoC4/cy_em_eeprom.c ****                         /* Calculate the number of bytes to be read from the current row's EEPROM h
 328:Generated_Source\PSoC4/cy_em_eeprom.c ****                         numBytesToRead = ((endAddr < (addr + size)) ? endAddr : (addr + size)) - rd
 329:Generated_Source\PSoC4/cy_em_eeprom.c **** 
 330:Generated_Source\PSoC4/cy_em_eeprom.c ****                         /* Calculate the offset in the user buffer from which the data will be upda
 331:Generated_Source\PSoC4/cy_em_eeprom.c ****                         eeData = ((uint32)eepromData) + dstOffset;
 332:Generated_Source\PSoC4/cy_em_eeprom.c **** 
 333:Generated_Source\PSoC4/cy_em_eeprom.c ****                         /* Check a checksum of the EEPROM row and if it is bad, check a checksum in
 334:Generated_Source\PSoC4/cy_em_eeprom.c ****                         * corresponding row in redundant copy, otherwise return failure. Copy the d
 335:Generated_Source\PSoC4/cy_em_eeprom.c ****                         * from the recent EEPROM headers to the user buffer. This will overwrite th
 336:Generated_Source\PSoC4/cy_em_eeprom.c ****                         * data copied form EEPROM data locations as the data in EEPROM headers is n
 337:Generated_Source\PSoC4/cy_em_eeprom.c ****                         */
 338:Generated_Source\PSoC4/cy_em_eeprom.c ****                         if(0u != context->redundantCopy)
 339:Generated_Source\PSoC4/cy_em_eeprom.c ****                         {
 340:Generated_Source\PSoC4/cy_em_eeprom.c ****                             ret = CheckCrcAndCopy(startRowAddr, eeData, srcOffset, numBytesToRead, 
 341:Generated_Source\PSoC4/cy_em_eeprom.c **** 
 342:Generated_Source\PSoC4/cy_em_eeprom.c ****                             if(CY_EM_EEPROM_SUCCESS != ret)
 343:Generated_Source\PSoC4/cy_em_eeprom.c ****                             {
 344:Generated_Source\PSoC4/cy_em_eeprom.c ****                                 break;
 345:Generated_Source\PSoC4/cy_em_eeprom.c ****                             }
 346:Generated_Source\PSoC4/cy_em_eeprom.c ****                         }
 347:Generated_Source\PSoC4/cy_em_eeprom.c ****                         else
 348:Generated_Source\PSoC4/cy_em_eeprom.c ****                         {
 349:Generated_Source\PSoC4/cy_em_eeprom.c ****                             (void)memcpy((void *)(eeData), (void *)(startRowAddr + srcOffset), numB
 350:Generated_Source\PSoC4/cy_em_eeprom.c ****                         }
 351:Generated_Source\PSoC4/cy_em_eeprom.c ****                     }
 352:Generated_Source\PSoC4/cy_em_eeprom.c ****                 }
 353:Generated_Source\PSoC4/cy_em_eeprom.c ****             }
 354:Generated_Source\PSoC4/cy_em_eeprom.c ****         }
 355:Generated_Source\PSoC4/cy_em_eeprom.c ****     }
 356:Generated_Source\PSoC4/cy_em_eeprom.c **** 
 357:Generated_Source\PSoC4/cy_em_eeprom.c ****     return(ret);
 358:Generated_Source\PSoC4/cy_em_eeprom.c **** }
 359:Generated_Source\PSoC4/cy_em_eeprom.c **** 
 360:Generated_Source\PSoC4/cy_em_eeprom.c **** 
 361:Generated_Source\PSoC4/cy_em_eeprom.c **** /*******************************************************************************
 362:Generated_Source\PSoC4/cy_em_eeprom.c **** * Function Name: Cy_Em_EEPROM_Write
 363:Generated_Source\PSoC4/cy_em_eeprom.c **** ****************************************************************************//**
 364:Generated_Source\PSoC4/cy_em_eeprom.c **** *
 365:Generated_Source\PSoC4/cy_em_eeprom.c **** * This function takes the logical EEPROM address and converts it to the actual
 366:Generated_Source\PSoC4/cy_em_eeprom.c **** * physical address and writes data there. If wear leveling is implemented, the
 367:Generated_Source\PSoC4/cy_em_eeprom.c **** * writing process will use the wear leveling techniques. This is a blocking
 368:Generated_Source\PSoC4/cy_em_eeprom.c **** * function and it does not return until the write operation is completed. The
 369:Generated_Source\PSoC4/cy_em_eeprom.c **** * user firmware should not enter Hibernate mode until write is completed. The
 370:Generated_Source\PSoC4/cy_em_eeprom.c **** * write operation is allowed in Sleep and Deep-Sleep modes. During the flash
 371:Generated_Source\PSoC4/cy_em_eeprom.c **** * operation, the device should not be reset, including the XRES pin, a software
 372:Generated_Source\PSoC4/cy_em_eeprom.c **** * reset, and watchdog reset sources. Also, low-voltage detect circuits should
 373:Generated_Source\PSoC4/cy_em_eeprom.c **** * be configured to generate an interrupt instead of a reset. Otherwise, portions
ARM GAS  C:\Users\young\AppData\Local\Temp\ccZHlxL6.s 			page 8


 374:Generated_Source\PSoC4/cy_em_eeprom.c **** * of flash may undergo unexpected changes.
 375:Generated_Source\PSoC4/cy_em_eeprom.c **** *
 376:Generated_Source\PSoC4/cy_em_eeprom.c **** * \param addr
 377:Generated_Source\PSoC4/cy_em_eeprom.c **** * The logical start address in EEPROM to start writing data from.
 378:Generated_Source\PSoC4/cy_em_eeprom.c **** *
 379:Generated_Source\PSoC4/cy_em_eeprom.c **** * \param eepromData
 380:Generated_Source\PSoC4/cy_em_eeprom.c **** * Data to write to EEPROM.
 381:Generated_Source\PSoC4/cy_em_eeprom.c **** *
 382:Generated_Source\PSoC4/cy_em_eeprom.c **** * \param size
 383:Generated_Source\PSoC4/cy_em_eeprom.c **** * The amount of data to write to EEPROM.
 384:Generated_Source\PSoC4/cy_em_eeprom.c **** *
 385:Generated_Source\PSoC4/cy_em_eeprom.c **** * \param context
 386:Generated_Source\PSoC4/cy_em_eeprom.c **** * The pointer to the EEPROM context structure \ref cy_stc_eeprom_context_t.
 387:Generated_Source\PSoC4/cy_em_eeprom.c **** *
 388:Generated_Source\PSoC4/cy_em_eeprom.c **** * \return
 389:Generated_Source\PSoC4/cy_em_eeprom.c **** * This function returns \ref cy_en_em_eeprom_status_t.
 390:Generated_Source\PSoC4/cy_em_eeprom.c **** *
 391:Generated_Source\PSoC4/cy_em_eeprom.c **** * \note
 392:Generated_Source\PSoC4/cy_em_eeprom.c **** * This function uses a buffer of the flash row size to perform write
 393:Generated_Source\PSoC4/cy_em_eeprom.c **** * operation. For the size of the row refer to the specific PSoC device
 394:Generated_Source\PSoC4/cy_em_eeprom.c **** * datasheet.
 395:Generated_Source\PSoC4/cy_em_eeprom.c **** *
 396:Generated_Source\PSoC4/cy_em_eeprom.c **** * \sideeffect
 397:Generated_Source\PSoC4/cy_em_eeprom.c **** * In case when blocking write option is used, if this function is called by
 398:Generated_Source\PSoC4/cy_em_eeprom.c **** * the CM4 the user code on CM0P and the user code on CM4 are blocked until erase
 399:Generated_Source\PSoC4/cy_em_eeprom.c **** * flash row operation is finished. If this function is called by the CM0P the
 400:Generated_Source\PSoC4/cy_em_eeprom.c **** * user code on CM4 is not blocked and the user code on CM0P is blocked until
 401:Generated_Source\PSoC4/cy_em_eeprom.c **** * erase flash row operation is finished. Plan your task allocation accordingly.
 402:Generated_Source\PSoC4/cy_em_eeprom.c **** *
 403:Generated_Source\PSoC4/cy_em_eeprom.c **** * \sideeffect
 404:Generated_Source\PSoC4/cy_em_eeprom.c **** * In case if non-blocking write option is used and when user flash is used as
 405:Generated_Source\PSoC4/cy_em_eeprom.c **** * an EEPROM storage care should be taken to prevent the read while write (RWW)
 406:Generated_Source\PSoC4/cy_em_eeprom.c **** * exception. To prevent the RWW exception the user flash macro that includes
 407:Generated_Source\PSoC4/cy_em_eeprom.c **** * the EEPROM storage should not be read while the EEPROM write is not completed.
 408:Generated_Source\PSoC4/cy_em_eeprom.c **** * The read also means the user code execution from the respective flash macro.
 409:Generated_Source\PSoC4/cy_em_eeprom.c **** *
 410:Generated_Source\PSoC4/cy_em_eeprom.c **** *******************************************************************************/
 411:Generated_Source\PSoC4/cy_em_eeprom.c **** cy_en_em_eeprom_status_t Cy_Em_EEPROM_Write(uint32 addr,
 412:Generated_Source\PSoC4/cy_em_eeprom.c ****                                             void * eepromData,
 413:Generated_Source\PSoC4/cy_em_eeprom.c ****                                             uint32 size,
 414:Generated_Source\PSoC4/cy_em_eeprom.c ****                                             cy_stc_eeprom_context_t * context)
 415:Generated_Source\PSoC4/cy_em_eeprom.c **** {
 416:Generated_Source\PSoC4/cy_em_eeprom.c ****     cy_en_em_eeprom_status_t ret = CY_EM_EEPROM_BAD_PARAM;
 417:Generated_Source\PSoC4/cy_em_eeprom.c ****     uint32 i;
 418:Generated_Source\PSoC4/cy_em_eeprom.c ****     uint32 wrCnt;
 419:Generated_Source\PSoC4/cy_em_eeprom.c ****     uint32 actEmEepromRowNum;
 420:Generated_Source\PSoC4/cy_em_eeprom.c ****     uint32 writeRamBuffer[CY_EM_EEPROM_FLASH_SIZEOF_ROW / CY_EM_EEPROM_U32_DIV];
 421:Generated_Source\PSoC4/cy_em_eeprom.c ****     uint32 startAddr = 0u;
 422:Generated_Source\PSoC4/cy_em_eeprom.c ****     uint32 endAddr = 0u;
 423:Generated_Source\PSoC4/cy_em_eeprom.c ****     uint32 tmpRowAddr;
 424:Generated_Source\PSoC4/cy_em_eeprom.c ****     uint32 emEepromRowAddr = context->lastWrRowAddr;
 425:Generated_Source\PSoC4/cy_em_eeprom.c ****     uint32 emEepromRowRdAddr;
 426:Generated_Source\PSoC4/cy_em_eeprom.c ****     void * tmpData;
 427:Generated_Source\PSoC4/cy_em_eeprom.c ****     uint32 eeData = (uint32) eepromData; /* To avoid the pointer arithmetic with void */
 428:Generated_Source\PSoC4/cy_em_eeprom.c **** 
 429:Generated_Source\PSoC4/cy_em_eeprom.c ****     /* Check if the EEPROM data does not exceed the EEPROM capacity */
 430:Generated_Source\PSoC4/cy_em_eeprom.c ****     if((0u != size) && ((addr + size) <= (context->eepromSize)) && (NULL != eepromData))
ARM GAS  C:\Users\young\AppData\Local\Temp\ccZHlxL6.s 			page 9


 431:Generated_Source\PSoC4/cy_em_eeprom.c ****     {
 432:Generated_Source\PSoC4/cy_em_eeprom.c ****         uint32 numWrites = ((size - 1u) / CY_EM_EEPROM_HEADER_DATA_LEN) + 1u;
 433:Generated_Source\PSoC4/cy_em_eeprom.c ****         uint32 eeHeaderDataOffset = 0u;
 434:Generated_Source\PSoC4/cy_em_eeprom.c **** 
 435:Generated_Source\PSoC4/cy_em_eeprom.c ****         for(wrCnt = 0u; wrCnt < numWrites; wrCnt++)
 436:Generated_Source\PSoC4/cy_em_eeprom.c ****         {
 437:Generated_Source\PSoC4/cy_em_eeprom.c ****             uint32 skipOperation = 0u;
 438:Generated_Source\PSoC4/cy_em_eeprom.c ****             /* Get the sequence number of the last written row */
 439:Generated_Source\PSoC4/cy_em_eeprom.c ****             uint32 seqNum = CY_EM_EEPROM_GET_SEQ_NUM(emEepromRowAddr);
 440:Generated_Source\PSoC4/cy_em_eeprom.c **** 
 441:Generated_Source\PSoC4/cy_em_eeprom.c ****             /* Get the address of the row to be written. The "emEepromRowAddr" may be
 442:Generated_Source\PSoC4/cy_em_eeprom.c ****             * updated with the proper address (if wear leveling is used). The
 443:Generated_Source\PSoC4/cy_em_eeprom.c ****             * "emEepromRowRdAddr" will point to the row address from which the historic
 444:Generated_Source\PSoC4/cy_em_eeprom.c ****             * data will be read into the RAM buffer.
 445:Generated_Source\PSoC4/cy_em_eeprom.c ****             */
 446:Generated_Source\PSoC4/cy_em_eeprom.c ****             GetNextRowToWrite(seqNum, &emEepromRowAddr, &emEepromRowRdAddr, context);
 447:Generated_Source\PSoC4/cy_em_eeprom.c **** 
 448:Generated_Source\PSoC4/cy_em_eeprom.c ****             /* Clear the RAM buffer so to not put junk into flash */
 449:Generated_Source\PSoC4/cy_em_eeprom.c ****             (void)memset(writeRamBuffer, 0, CY_EM_EEPROM_FLASH_SIZEOF_ROW);
 450:Generated_Source\PSoC4/cy_em_eeprom.c **** 
 451:Generated_Source\PSoC4/cy_em_eeprom.c ****             /* Fill the EM_EEPROM header info for the row in the RAM buffer */
 452:Generated_Source\PSoC4/cy_em_eeprom.c ****             seqNum++;
 453:Generated_Source\PSoC4/cy_em_eeprom.c ****             writeRamBuffer[CY_EM_EEPROM_HEADER_SEQ_NUM_OFFSET_U32] = seqNum;
 454:Generated_Source\PSoC4/cy_em_eeprom.c ****             writeRamBuffer[CY_EM_EEPROM_HEADER_ADDR_OFFSET_U32] = addr;
 455:Generated_Source\PSoC4/cy_em_eeprom.c ****             tmpData = (void *) eeData;
 456:Generated_Source\PSoC4/cy_em_eeprom.c **** 
 457:Generated_Source\PSoC4/cy_em_eeprom.c ****             /* Check if this is the last row to write */
 458:Generated_Source\PSoC4/cy_em_eeprom.c ****             if(wrCnt == (numWrites - 1u))
 459:Generated_Source\PSoC4/cy_em_eeprom.c ****             {
 460:Generated_Source\PSoC4/cy_em_eeprom.c ****                 /* Fill in the remaining size value to the EEPROM header. */
 461:Generated_Source\PSoC4/cy_em_eeprom.c ****                 writeRamBuffer[CY_EM_EEPROM_HEADER_LEN_OFFSET_U32] = size;
 462:Generated_Source\PSoC4/cy_em_eeprom.c ****             }
 463:Generated_Source\PSoC4/cy_em_eeprom.c ****             else
 464:Generated_Source\PSoC4/cy_em_eeprom.c ****             {
 465:Generated_Source\PSoC4/cy_em_eeprom.c ****                 /* This is not the last row to write in the current EEPROM write operation.
 466:Generated_Source\PSoC4/cy_em_eeprom.c ****                 * Write the maximum possible data size to the EEPROM header. Update the
 467:Generated_Source\PSoC4/cy_em_eeprom.c ****                 * size, eeData and addr respectively.
 468:Generated_Source\PSoC4/cy_em_eeprom.c ****                 */
 469:Generated_Source\PSoC4/cy_em_eeprom.c ****                 writeRamBuffer[CY_EM_EEPROM_HEADER_LEN_OFFSET_U32] = CY_EM_EEPROM_HEADER_DATA_LEN;
 470:Generated_Source\PSoC4/cy_em_eeprom.c ****                 size -= CY_EM_EEPROM_HEADER_DATA_LEN;
 471:Generated_Source\PSoC4/cy_em_eeprom.c ****                 addr += CY_EM_EEPROM_HEADER_DATA_LEN;
 472:Generated_Source\PSoC4/cy_em_eeprom.c ****                 eeData += CY_EM_EEPROM_HEADER_DATA_LEN;
 473:Generated_Source\PSoC4/cy_em_eeprom.c ****             }
 474:Generated_Source\PSoC4/cy_em_eeprom.c **** 
 475:Generated_Source\PSoC4/cy_em_eeprom.c ****             /* Write the data to the EEPROM header */
 476:Generated_Source\PSoC4/cy_em_eeprom.c ****             (void)memcpy((void *)&writeRamBuffer[CY_EM_EEPROM_HEADER_DATA_OFFSET_U32],
 477:Generated_Source\PSoC4/cy_em_eeprom.c ****                          tmpData,
 478:Generated_Source\PSoC4/cy_em_eeprom.c ****                          writeRamBuffer[CY_EM_EEPROM_HEADER_LEN_OFFSET_U32]);
 479:Generated_Source\PSoC4/cy_em_eeprom.c **** 
 480:Generated_Source\PSoC4/cy_em_eeprom.c ****             if(emEepromRowRdAddr != 0UL)
 481:Generated_Source\PSoC4/cy_em_eeprom.c ****             {
 482:Generated_Source\PSoC4/cy_em_eeprom.c ****                 /* Copy the EEPROM historic data for this row from flash to RAM */
 483:Generated_Source\PSoC4/cy_em_eeprom.c ****                 (void)memcpy((void *)&writeRamBuffer[CY_EM_EEPROM_EEPROM_DATA_OFFSET_U32],
 484:Generated_Source\PSoC4/cy_em_eeprom.c ****                              (void *)(emEepromRowRdAddr + CY_EM_EEPROM_EEPROM_DATA_LEN),
 485:Generated_Source\PSoC4/cy_em_eeprom.c ****                              CY_EM_EEPROM_EEPROM_DATA_LEN);
 486:Generated_Source\PSoC4/cy_em_eeprom.c ****             }
 487:Generated_Source\PSoC4/cy_em_eeprom.c **** 
ARM GAS  C:\Users\young\AppData\Local\Temp\ccZHlxL6.s 			page 10


 488:Generated_Source\PSoC4/cy_em_eeprom.c ****             /* Check if there is data for this location in other EEPROM headers:
 489:Generated_Source\PSoC4/cy_em_eeprom.c ****             * find out the row with the lowest possible sequence number which
 490:Generated_Source\PSoC4/cy_em_eeprom.c ****             * may contain the data for the current row.
 491:Generated_Source\PSoC4/cy_em_eeprom.c ****             */
 492:Generated_Source\PSoC4/cy_em_eeprom.c ****             i = (seqNum > context->numberOfRows) ? ((seqNum - (context->numberOfRows)) + 1u) : 1u;
 493:Generated_Source\PSoC4/cy_em_eeprom.c **** 
 494:Generated_Source\PSoC4/cy_em_eeprom.c ****             for(; i <= seqNum; i++)
 495:Generated_Source\PSoC4/cy_em_eeprom.c ****             {
 496:Generated_Source\PSoC4/cy_em_eeprom.c ****                 if(i == seqNum)
 497:Generated_Source\PSoC4/cy_em_eeprom.c ****                 {
 498:Generated_Source\PSoC4/cy_em_eeprom.c ****                     /* The code reached the row that is about to be written. Analyze the recently
 499:Generated_Source\PSoC4/cy_em_eeprom.c ****                     * created EEPROM header (stored in the RAM buffer currently): if it contains
 500:Generated_Source\PSoC4/cy_em_eeprom.c ****                     * the data for EEPROM data locations in the row that is about to be written.
 501:Generated_Source\PSoC4/cy_em_eeprom.c ****                     */
 502:Generated_Source\PSoC4/cy_em_eeprom.c ****                     tmpRowAddr = (uint32) writeRamBuffer;
 503:Generated_Source\PSoC4/cy_em_eeprom.c ****                 }
 504:Generated_Source\PSoC4/cy_em_eeprom.c ****                 else
 505:Generated_Source\PSoC4/cy_em_eeprom.c ****                 {
 506:Generated_Source\PSoC4/cy_em_eeprom.c ****                     /* Retrieve the address of the previously written row by its sequence number.
 507:Generated_Source\PSoC4/cy_em_eeprom.c ****                     * The pointer will be used to get data from the respective EEPROM header.
 508:Generated_Source\PSoC4/cy_em_eeprom.c ****                     */
 509:Generated_Source\PSoC4/cy_em_eeprom.c ****                     tmpRowAddr = GetRowAddrBySeqNum(i, context);
 510:Generated_Source\PSoC4/cy_em_eeprom.c ****                 }
 511:Generated_Source\PSoC4/cy_em_eeprom.c **** 
 512:Generated_Source\PSoC4/cy_em_eeprom.c ****                 actEmEepromRowNum = CY_EM_EEPROM_GET_ACT_ROW_NUM_FROM_ADDR(emEepromRowAddr,
 513:Generated_Source\PSoC4/cy_em_eeprom.c ****                                                                            context->numberOfRows,
 514:Generated_Source\PSoC4/cy_em_eeprom.c ****                                                                            context->userFlashStartA
 515:Generated_Source\PSoC4/cy_em_eeprom.c ****                 if(0UL != tmpRowAddr)
 516:Generated_Source\PSoC4/cy_em_eeprom.c ****                 {
 517:Generated_Source\PSoC4/cy_em_eeprom.c ****                     /* Calculate the required addressed for the later EEPROM historic data update *
 518:Generated_Source\PSoC4/cy_em_eeprom.c ****                     skipOperation = GetAddresses(
 519:Generated_Source\PSoC4/cy_em_eeprom.c ****                                               &startAddr,
 520:Generated_Source\PSoC4/cy_em_eeprom.c ****                                               &endAddr,
 521:Generated_Source\PSoC4/cy_em_eeprom.c ****                                               &eeHeaderDataOffset,
 522:Generated_Source\PSoC4/cy_em_eeprom.c ****                                               actEmEepromRowNum,
 523:Generated_Source\PSoC4/cy_em_eeprom.c ****                                               *(uint32 *)(tmpRowAddr + CY_EM_EEPROM_HEADER_ADDR_OFF
 524:Generated_Source\PSoC4/cy_em_eeprom.c ****                                               *(uint32 *)(tmpRowAddr + CY_EM_EEPROM_HEADER_LEN_OFFS
 525:Generated_Source\PSoC4/cy_em_eeprom.c ****                 }
 526:Generated_Source\PSoC4/cy_em_eeprom.c ****                 else
 527:Generated_Source\PSoC4/cy_em_eeprom.c ****                 {
 528:Generated_Source\PSoC4/cy_em_eeprom.c ****                     /* Skip writes to the RAM buffer */
 529:Generated_Source\PSoC4/cy_em_eeprom.c ****                     skipOperation++;
 530:Generated_Source\PSoC4/cy_em_eeprom.c ****                 }
 531:Generated_Source\PSoC4/cy_em_eeprom.c **** 
 532:Generated_Source\PSoC4/cy_em_eeprom.c ****                 /* Write data to the RAM buffer */
 533:Generated_Source\PSoC4/cy_em_eeprom.c ****                 if(0u == skipOperation)
 534:Generated_Source\PSoC4/cy_em_eeprom.c ****                 {
 535:Generated_Source\PSoC4/cy_em_eeprom.c ****                     uint32 dataAddr = ((uint32)((uint8 *)&writeRamBuffer)) + startAddr;
 536:Generated_Source\PSoC4/cy_em_eeprom.c **** 
 537:Generated_Source\PSoC4/cy_em_eeprom.c ****                     /* Update the address to point to the EEPROM header data and not to
 538:Generated_Source\PSoC4/cy_em_eeprom.c ****                     * the start of the row.
 539:Generated_Source\PSoC4/cy_em_eeprom.c ****                     */
 540:Generated_Source\PSoC4/cy_em_eeprom.c ****                     tmpRowAddr = tmpRowAddr + CY_EM_EEPROM_HEADER_DATA_OFFSET + eeHeaderDataOffset;
 541:Generated_Source\PSoC4/cy_em_eeprom.c ****                     (void)memcpy((void *)(dataAddr), (void *)(tmpRowAddr), endAddr - startAddr);
 542:Generated_Source\PSoC4/cy_em_eeprom.c ****                 }
 543:Generated_Source\PSoC4/cy_em_eeprom.c **** 
 544:Generated_Source\PSoC4/cy_em_eeprom.c ****                 /* Calculate the checksum if redundant copy is enabled */
ARM GAS  C:\Users\young\AppData\Local\Temp\ccZHlxL6.s 			page 11


 545:Generated_Source\PSoC4/cy_em_eeprom.c ****                 if(0u != context->redundantCopy)
 546:Generated_Source\PSoC4/cy_em_eeprom.c ****                 {
 547:Generated_Source\PSoC4/cy_em_eeprom.c ****                     writeRamBuffer[CY_EM_EEPROM_HEADER_CHECKSUM_OFFSET_U32] = (uint32)
 548:Generated_Source\PSoC4/cy_em_eeprom.c ****                         CalcChecksum((uint8 *) &writeRamBuffer[CY_EM_EEPROM_EEPROM_DATA_OFFSET_U32]
 549:Generated_Source\PSoC4/cy_em_eeprom.c ****                                                   CY_EM_EEPROM_EEPROM_DATA_LEN);
 550:Generated_Source\PSoC4/cy_em_eeprom.c ****                 }
 551:Generated_Source\PSoC4/cy_em_eeprom.c ****             }
 552:Generated_Source\PSoC4/cy_em_eeprom.c **** 
 553:Generated_Source\PSoC4/cy_em_eeprom.c ****             /* Write the data to the specified flash row */
 554:Generated_Source\PSoC4/cy_em_eeprom.c ****             ret = WriteRow(emEepromRowAddr, writeRamBuffer, context);
 555:Generated_Source\PSoC4/cy_em_eeprom.c ****             tmpRowAddr = emEepromRowAddr;
 556:Generated_Source\PSoC4/cy_em_eeprom.c **** 
 557:Generated_Source\PSoC4/cy_em_eeprom.c ****             /* Check if redundant copy is used */
 558:Generated_Source\PSoC4/cy_em_eeprom.c ****             if((0u != context->redundantCopy) && (CY_EM_EEPROM_SUCCESS == ret))
 559:Generated_Source\PSoC4/cy_em_eeprom.c ****             {
 560:Generated_Source\PSoC4/cy_em_eeprom.c ****                 /* Update the row address to point to the row in the redundant EEPROM's copy */
 561:Generated_Source\PSoC4/cy_em_eeprom.c ****                 tmpRowAddr = (emEepromRowAddr - context->userFlashStartAddr) + context->wlEndAddr;
 562:Generated_Source\PSoC4/cy_em_eeprom.c **** 
 563:Generated_Source\PSoC4/cy_em_eeprom.c ****                 /* Write the data to the specified flash row */
 564:Generated_Source\PSoC4/cy_em_eeprom.c ****                 ret = WriteRow(tmpRowAddr, writeRamBuffer, context);
 565:Generated_Source\PSoC4/cy_em_eeprom.c ****             }
 566:Generated_Source\PSoC4/cy_em_eeprom.c **** 
 567:Generated_Source\PSoC4/cy_em_eeprom.c ****             if(CY_EM_EEPROM_SUCCESS == ret)
 568:Generated_Source\PSoC4/cy_em_eeprom.c ****             {
 569:Generated_Source\PSoC4/cy_em_eeprom.c ****                 /* Store last written row address only when EEPROM and redundant
 570:Generated_Source\PSoC4/cy_em_eeprom.c ****                 * copy writes were successful.
 571:Generated_Source\PSoC4/cy_em_eeprom.c ****                 */
 572:Generated_Source\PSoC4/cy_em_eeprom.c ****                 context->lastWrRowAddr = emEepromRowAddr;
 573:Generated_Source\PSoC4/cy_em_eeprom.c ****             }
 574:Generated_Source\PSoC4/cy_em_eeprom.c ****             else
 575:Generated_Source\PSoC4/cy_em_eeprom.c ****             {
 576:Generated_Source\PSoC4/cy_em_eeprom.c ****                 break;
 577:Generated_Source\PSoC4/cy_em_eeprom.c ****             }
 578:Generated_Source\PSoC4/cy_em_eeprom.c ****         }
 579:Generated_Source\PSoC4/cy_em_eeprom.c ****     }
 580:Generated_Source\PSoC4/cy_em_eeprom.c ****     return(ret);
 581:Generated_Source\PSoC4/cy_em_eeprom.c **** }
 582:Generated_Source\PSoC4/cy_em_eeprom.c **** 
 583:Generated_Source\PSoC4/cy_em_eeprom.c **** 
 584:Generated_Source\PSoC4/cy_em_eeprom.c **** /*******************************************************************************
 585:Generated_Source\PSoC4/cy_em_eeprom.c **** * Function Name: Cy_Em_EEPROM_Erase
 586:Generated_Source\PSoC4/cy_em_eeprom.c **** ****************************************************************************//**
 587:Generated_Source\PSoC4/cy_em_eeprom.c **** *
 588:Generated_Source\PSoC4/cy_em_eeprom.c **** * This function erases the entire contents of the EEPROM. Erased values are all
 589:Generated_Source\PSoC4/cy_em_eeprom.c **** * zeros. This is a blocking function and it does not return until the write
 590:Generated_Source\PSoC4/cy_em_eeprom.c **** * operation is completed. The user firmware should not enter Hibernate mode until
 591:Generated_Source\PSoC4/cy_em_eeprom.c **** * erase is completed. The erase operation is allowed in Sleep and Deep-Sleep modes.
 592:Generated_Source\PSoC4/cy_em_eeprom.c **** * During the flash operation, the device should not be reset, including the
 593:Generated_Source\PSoC4/cy_em_eeprom.c **** * XRES pin, a software reset, and watchdog reset sources. Also, low-voltage
 594:Generated_Source\PSoC4/cy_em_eeprom.c **** * detect circuits should be configured to generate an interrupt instead of a
 595:Generated_Source\PSoC4/cy_em_eeprom.c **** * reset. Otherwise, portions of flash may undergo unexpected changes.
 596:Generated_Source\PSoC4/cy_em_eeprom.c **** *
 597:Generated_Source\PSoC4/cy_em_eeprom.c **** * \param context
 598:Generated_Source\PSoC4/cy_em_eeprom.c **** * The pointer to the EEPROM context structure \ref cy_stc_eeprom_context_t.
 599:Generated_Source\PSoC4/cy_em_eeprom.c **** *
 600:Generated_Source\PSoC4/cy_em_eeprom.c **** * \return
 601:Generated_Source\PSoC4/cy_em_eeprom.c **** * This function returns \ref cy_en_em_eeprom_status_t.
ARM GAS  C:\Users\young\AppData\Local\Temp\ccZHlxL6.s 			page 12


 602:Generated_Source\PSoC4/cy_em_eeprom.c **** *
 603:Generated_Source\PSoC4/cy_em_eeprom.c **** * \note
 604:Generated_Source\PSoC4/cy_em_eeprom.c **** * For all non PSoC 6 devices the erase operation is performed by clearing
 605:Generated_Source\PSoC4/cy_em_eeprom.c **** * the EEPROM data using flash write. This affects the flash durability.
 606:Generated_Source\PSoC4/cy_em_eeprom.c **** * So it is recommended to use this function in utmost case to prolongate
 607:Generated_Source\PSoC4/cy_em_eeprom.c **** * flash life.
 608:Generated_Source\PSoC4/cy_em_eeprom.c **** *
 609:Generated_Source\PSoC4/cy_em_eeprom.c **** * \note
 610:Generated_Source\PSoC4/cy_em_eeprom.c **** * This function uses a buffer of the flash row size to perform erase
 611:Generated_Source\PSoC4/cy_em_eeprom.c **** * operation. For the size of the row refer to the specific PSoC device
 612:Generated_Source\PSoC4/cy_em_eeprom.c **** * datasheet.
 613:Generated_Source\PSoC4/cy_em_eeprom.c **** *
 614:Generated_Source\PSoC4/cy_em_eeprom.c **** * \sideeffect
 615:Generated_Source\PSoC4/cy_em_eeprom.c **** * In case when blocking write option is used, if this function is called by
 616:Generated_Source\PSoC4/cy_em_eeprom.c **** * the CM4 the user code on CM0P and the user code on CM4 are blocked until erase
 617:Generated_Source\PSoC4/cy_em_eeprom.c **** * flash row operation is finished. If this function is called by the CM0P the
 618:Generated_Source\PSoC4/cy_em_eeprom.c **** * user code on CM4 is not blocked and the user code on CM0P is blocked until
 619:Generated_Source\PSoC4/cy_em_eeprom.c **** * erase flash row operation is finished. Plan your task allocation accordingly.
 620:Generated_Source\PSoC4/cy_em_eeprom.c **** *
 621:Generated_Source\PSoC4/cy_em_eeprom.c **** * \sideeffect
 622:Generated_Source\PSoC4/cy_em_eeprom.c **** * In case if non-blocking write option is used and when user flash is used as
 623:Generated_Source\PSoC4/cy_em_eeprom.c **** * an EEPROM storage care should be taken to prevent the read while write (RWW)
 624:Generated_Source\PSoC4/cy_em_eeprom.c **** * exception. To prevent the RWW exception the user flash macro that includes
 625:Generated_Source\PSoC4/cy_em_eeprom.c **** * the EEPROM storage should not be read while the EEPROM erase is not completed.
 626:Generated_Source\PSoC4/cy_em_eeprom.c **** * The read also means the user code execution from the respective flash macro.
 627:Generated_Source\PSoC4/cy_em_eeprom.c **** *
 628:Generated_Source\PSoC4/cy_em_eeprom.c **** *******************************************************************************/
 629:Generated_Source\PSoC4/cy_em_eeprom.c **** cy_en_em_eeprom_status_t Cy_Em_EEPROM_Erase(cy_stc_eeprom_context_t * context)
 630:Generated_Source\PSoC4/cy_em_eeprom.c **** {
 631:Generated_Source\PSoC4/cy_em_eeprom.c ****     uint32 i;
 632:Generated_Source\PSoC4/cy_em_eeprom.c ****     uint32 seqNum;
 633:Generated_Source\PSoC4/cy_em_eeprom.c ****     uint32 emEepromRowAddr = context->lastWrRowAddr;
 634:Generated_Source\PSoC4/cy_em_eeprom.c ****     uint32 emEepromRowRdAddr;
 635:Generated_Source\PSoC4/cy_em_eeprom.c ****     cy_en_em_eeprom_status_t ret = CY_EM_EEPROM_WRITE_FAIL;
 636:Generated_Source\PSoC4/cy_em_eeprom.c ****     uint32 writeRamBuffer[CY_EM_EEPROM_FLASH_SIZEOF_ROW / CY_EM_EEPROM_U32_DIV] = {0u};
 637:Generated_Source\PSoC4/cy_em_eeprom.c **** #if (CY_PSOC6)
 638:Generated_Source\PSoC4/cy_em_eeprom.c ****     uint32 emEepromStoredRowAddr = context->lastWrRowAddr;
 639:Generated_Source\PSoC4/cy_em_eeprom.c ****     uint32 storedSeqNum;
 640:Generated_Source\PSoC4/cy_em_eeprom.c **** #endif /* (!CY_PSOC6) */
 641:Generated_Source\PSoC4/cy_em_eeprom.c **** 
 642:Generated_Source\PSoC4/cy_em_eeprom.c ****     /* Get the sequence number of the last written row */
 643:Generated_Source\PSoC4/cy_em_eeprom.c ****     seqNum = CY_EM_EEPROM_GET_SEQ_NUM(emEepromRowAddr);
 644:Generated_Source\PSoC4/cy_em_eeprom.c **** 
 645:Generated_Source\PSoC4/cy_em_eeprom.c ****     /* If there were no writes to EEPROM - nothing to erase */
 646:Generated_Source\PSoC4/cy_em_eeprom.c ****     if(0u != seqNum)
 647:Generated_Source\PSoC4/cy_em_eeprom.c ****     {
 648:Generated_Source\PSoC4/cy_em_eeprom.c ****         /* Calculate the number of row erase operations required */
 649:Generated_Source\PSoC4/cy_em_eeprom.c ****         uint32 numWrites = context->numberOfRows * context->wearLevelingFactor;
 650:Generated_Source\PSoC4/cy_em_eeprom.c **** 
 651:Generated_Source\PSoC4/cy_em_eeprom.c ****     #if (CY_PSOC6)
 652:Generated_Source\PSoC4/cy_em_eeprom.c ****         GetNextRowToWrite(seqNum, &emEepromStoredRowAddr, &emEepromRowRdAddr, context);
 653:Generated_Source\PSoC4/cy_em_eeprom.c ****         storedSeqNum = seqNum + 1u;
 654:Generated_Source\PSoC4/cy_em_eeprom.c ****     #endif /* (CY_PSOC6) */
 655:Generated_Source\PSoC4/cy_em_eeprom.c **** 
 656:Generated_Source\PSoC4/cy_em_eeprom.c ****         if(0u != context->redundantCopy)
 657:Generated_Source\PSoC4/cy_em_eeprom.c ****         {
 658:Generated_Source\PSoC4/cy_em_eeprom.c ****             writeRamBuffer[CY_EM_EEPROM_HEADER_CHECKSUM_OFFSET_U32] = (uint32)
ARM GAS  C:\Users\young\AppData\Local\Temp\ccZHlxL6.s 			page 13


 659:Generated_Source\PSoC4/cy_em_eeprom.c ****                         CalcChecksum((uint8 *) &writeRamBuffer[CY_EM_EEPROM_EEPROM_DATA_OFFSET_U32]
 660:Generated_Source\PSoC4/cy_em_eeprom.c ****                                                   CY_EM_EEPROM_EEPROM_DATA_LEN);
 661:Generated_Source\PSoC4/cy_em_eeprom.c ****         }
 662:Generated_Source\PSoC4/cy_em_eeprom.c **** 
 663:Generated_Source\PSoC4/cy_em_eeprom.c ****         for(i = 0u; i < numWrites; i++)
 664:Generated_Source\PSoC4/cy_em_eeprom.c ****         {
 665:Generated_Source\PSoC4/cy_em_eeprom.c ****         #if (CY_PSOC6)
 666:Generated_Source\PSoC4/cy_em_eeprom.c ****             /* For PSoC 6 the erase operation moves backwards. From last written row
 667:Generated_Source\PSoC4/cy_em_eeprom.c ****             * identified by "seqNum" down to "seqNum" - "numWrites". If "emEepromRowAddr"
 668:Generated_Source\PSoC4/cy_em_eeprom.c ****             * is zero this means that the row identified by "seqNum" was previously 
 669:Generated_Source\PSoC4/cy_em_eeprom.c ****             * erased.
 670:Generated_Source\PSoC4/cy_em_eeprom.c ****             */
 671:Generated_Source\PSoC4/cy_em_eeprom.c ****             if(0u != emEepromRowAddr)
 672:Generated_Source\PSoC4/cy_em_eeprom.c ****             {
 673:Generated_Source\PSoC4/cy_em_eeprom.c ****                 ret = EraseRow(emEepromRowAddr, (uint32)writeRamBuffer, context);
 674:Generated_Source\PSoC4/cy_em_eeprom.c ****             }
 675:Generated_Source\PSoC4/cy_em_eeprom.c **** 
 676:Generated_Source\PSoC4/cy_em_eeprom.c ****             seqNum--;
 677:Generated_Source\PSoC4/cy_em_eeprom.c **** 
 678:Generated_Source\PSoC4/cy_em_eeprom.c ****             if(0u == seqNum)
 679:Generated_Source\PSoC4/cy_em_eeprom.c ****             {
 680:Generated_Source\PSoC4/cy_em_eeprom.c ****                 /* Exit the loop as there is no more row is EEPROM to be erased */
 681:Generated_Source\PSoC4/cy_em_eeprom.c ****                 break;
 682:Generated_Source\PSoC4/cy_em_eeprom.c ****             }
 683:Generated_Source\PSoC4/cy_em_eeprom.c ****             emEepromRowAddr = GetRowAddrBySeqNum(seqNum, context);
 684:Generated_Source\PSoC4/cy_em_eeprom.c ****         #else
 685:Generated_Source\PSoC4/cy_em_eeprom.c ****             seqNum = CY_EM_EEPROM_GET_SEQ_NUM(emEepromRowAddr);
 686:Generated_Source\PSoC4/cy_em_eeprom.c ****             /* Get the address of the row to be erased. "emEepromRowAddr" may be updated
 687:Generated_Source\PSoC4/cy_em_eeprom.c ****             * with the proper address (if wear leveling is used).
 688:Generated_Source\PSoC4/cy_em_eeprom.c ****             */
 689:Generated_Source\PSoC4/cy_em_eeprom.c ****             GetNextRowToWrite(seqNum, &emEepromRowAddr, &emEepromRowRdAddr, context);
 690:Generated_Source\PSoC4/cy_em_eeprom.c ****             seqNum++;
 691:Generated_Source\PSoC4/cy_em_eeprom.c ****             writeRamBuffer[0u] = seqNum;
 692:Generated_Source\PSoC4/cy_em_eeprom.c ****             ret = EraseRow(emEepromRowAddr, (uint32)writeRamBuffer, context);
 693:Generated_Source\PSoC4/cy_em_eeprom.c ****         #endif /* (CY_PSOC6) */
 694:Generated_Source\PSoC4/cy_em_eeprom.c ****         }
 695:Generated_Source\PSoC4/cy_em_eeprom.c **** 
 696:Generated_Source\PSoC4/cy_em_eeprom.c ****     #if (CY_PSOC6)
 697:Generated_Source\PSoC4/cy_em_eeprom.c ****         if(CY_EM_EEPROM_SUCCESS == ret)
 698:Generated_Source\PSoC4/cy_em_eeprom.c ****         {
 699:Generated_Source\PSoC4/cy_em_eeprom.c ****             writeRamBuffer[0u] = storedSeqNum;
 700:Generated_Source\PSoC4/cy_em_eeprom.c **** 
 701:Generated_Source\PSoC4/cy_em_eeprom.c ****             /* Write the previously stored sequence number to the flash row which would be
 702:Generated_Source\PSoC4/cy_em_eeprom.c ****             * written next if the erase wouldn't happen. In this case the write to
 703:Generated_Source\PSoC4/cy_em_eeprom.c ****             * redundant copy can be skipped as it does not add any value.
 704:Generated_Source\PSoC4/cy_em_eeprom.c ****             */
 705:Generated_Source\PSoC4/cy_em_eeprom.c ****             ret = WriteRow(emEepromStoredRowAddr, writeRamBuffer, context);
 706:Generated_Source\PSoC4/cy_em_eeprom.c **** 
 707:Generated_Source\PSoC4/cy_em_eeprom.c ****             if(CY_EM_EEPROM_SUCCESS == ret)
 708:Generated_Source\PSoC4/cy_em_eeprom.c ****             {
 709:Generated_Source\PSoC4/cy_em_eeprom.c ****                 context->lastWrRowAddr = emEepromStoredRowAddr;
 710:Generated_Source\PSoC4/cy_em_eeprom.c ****             }
 711:Generated_Source\PSoC4/cy_em_eeprom.c ****         }
 712:Generated_Source\PSoC4/cy_em_eeprom.c ****     #endif /* (CY_PSOC6) */
 713:Generated_Source\PSoC4/cy_em_eeprom.c **** 
 714:Generated_Source\PSoC4/cy_em_eeprom.c ****     }
 715:Generated_Source\PSoC4/cy_em_eeprom.c ****     return(ret);
ARM GAS  C:\Users\young\AppData\Local\Temp\ccZHlxL6.s 			page 14


 716:Generated_Source\PSoC4/cy_em_eeprom.c **** }
 717:Generated_Source\PSoC4/cy_em_eeprom.c **** 
 718:Generated_Source\PSoC4/cy_em_eeprom.c **** 
 719:Generated_Source\PSoC4/cy_em_eeprom.c **** /*******************************************************************************
 720:Generated_Source\PSoC4/cy_em_eeprom.c **** * Function Name: Cy_Em_EEPROM_NumWrites
 721:Generated_Source\PSoC4/cy_em_eeprom.c **** ****************************************************************************//**
 722:Generated_Source\PSoC4/cy_em_eeprom.c **** *
 723:Generated_Source\PSoC4/cy_em_eeprom.c **** * Returns the number of the EEPROM writes completed so far.
 724:Generated_Source\PSoC4/cy_em_eeprom.c **** *
 725:Generated_Source\PSoC4/cy_em_eeprom.c **** * \param context
 726:Generated_Source\PSoC4/cy_em_eeprom.c **** * The pointer to the EEPROM context structure \ref cy_stc_eeprom_context_t.
 727:Generated_Source\PSoC4/cy_em_eeprom.c **** *
 728:Generated_Source\PSoC4/cy_em_eeprom.c **** * \return
 729:Generated_Source\PSoC4/cy_em_eeprom.c **** * The number of writes performed to the EEPROM.
 730:Generated_Source\PSoC4/cy_em_eeprom.c **** *
 731:Generated_Source\PSoC4/cy_em_eeprom.c **** *******************************************************************************/
 732:Generated_Source\PSoC4/cy_em_eeprom.c **** uint32 Cy_Em_EEPROM_NumWrites(cy_stc_eeprom_context_t * context)
 733:Generated_Source\PSoC4/cy_em_eeprom.c **** {
 734:Generated_Source\PSoC4/cy_em_eeprom.c ****     return(CY_EM_EEPROM_GET_SEQ_NUM(context->lastWrRowAddr));
 735:Generated_Source\PSoC4/cy_em_eeprom.c **** }
 736:Generated_Source\PSoC4/cy_em_eeprom.c **** 
 737:Generated_Source\PSoC4/cy_em_eeprom.c **** /** \} */
 738:Generated_Source\PSoC4/cy_em_eeprom.c **** 
 739:Generated_Source\PSoC4/cy_em_eeprom.c **** /** \cond INTERNAL */
 740:Generated_Source\PSoC4/cy_em_eeprom.c **** 
 741:Generated_Source\PSoC4/cy_em_eeprom.c **** 
 742:Generated_Source\PSoC4/cy_em_eeprom.c **** /*******************************************************************************
 743:Generated_Source\PSoC4/cy_em_eeprom.c **** * Function Name: FindLastWrittenRow
 744:Generated_Source\PSoC4/cy_em_eeprom.c **** ****************************************************************************//**
 745:Generated_Source\PSoC4/cy_em_eeprom.c **** *
 746:Generated_Source\PSoC4/cy_em_eeprom.c **** * Performs a search of the last written row address of the EEPROM associated
 747:Generated_Source\PSoC4/cy_em_eeprom.c **** * with the context structure. If there were no writes to the EEPROM the
 748:Generated_Source\PSoC4/cy_em_eeprom.c **** * function returns the start address of the EEPROM. The row address is returned
 749:Generated_Source\PSoC4/cy_em_eeprom.c **** * in the input parameter.
 750:Generated_Source\PSoC4/cy_em_eeprom.c **** *
 751:Generated_Source\PSoC4/cy_em_eeprom.c **** * \param lastWrRowPtr
 752:Generated_Source\PSoC4/cy_em_eeprom.c **** * The pointer to a memory where the last written row will be returned.
 753:Generated_Source\PSoC4/cy_em_eeprom.c **** *
 754:Generated_Source\PSoC4/cy_em_eeprom.c **** * \param context
 755:Generated_Source\PSoC4/cy_em_eeprom.c **** * The pointer to the EEPROM context structure \ref cy_stc_eeprom_context_t.
 756:Generated_Source\PSoC4/cy_em_eeprom.c **** *
 757:Generated_Source\PSoC4/cy_em_eeprom.c **** *******************************************************************************/
 758:Generated_Source\PSoC4/cy_em_eeprom.c **** static void FindLastWrittenRow(uint32 * lastWrRowPtr, cy_stc_eeprom_context_t * context)
 759:Generated_Source\PSoC4/cy_em_eeprom.c **** {
 760:Generated_Source\PSoC4/cy_em_eeprom.c ****     uint32 seqNum = 0u;
 761:Generated_Source\PSoC4/cy_em_eeprom.c ****     uint32 prevSeqNum = 0u;
 762:Generated_Source\PSoC4/cy_em_eeprom.c ****     uint32 numRows;
 763:Generated_Source\PSoC4/cy_em_eeprom.c ****     uint32 emEepromAddr = context->userFlashStartAddr;
 764:Generated_Source\PSoC4/cy_em_eeprom.c **** 
 765:Generated_Source\PSoC4/cy_em_eeprom.c ****     *lastWrRowPtr = emEepromAddr;
 766:Generated_Source\PSoC4/cy_em_eeprom.c **** 
 767:Generated_Source\PSoC4/cy_em_eeprom.c ****     for(numRows = 0u; numRows < (context->numberOfRows * context->wearLevelingFactor); numRows++)
 768:Generated_Source\PSoC4/cy_em_eeprom.c ****     {
 769:Generated_Source\PSoC4/cy_em_eeprom.c ****         seqNum = CY_EM_EEPROM_GET_SEQ_NUM(emEepromAddr);
 770:Generated_Source\PSoC4/cy_em_eeprom.c ****         if((0u != seqNum) && (seqNum > prevSeqNum))
 771:Generated_Source\PSoC4/cy_em_eeprom.c ****         {
 772:Generated_Source\PSoC4/cy_em_eeprom.c ****             /* Some record in EEPROM was found. Store found sequence
ARM GAS  C:\Users\young\AppData\Local\Temp\ccZHlxL6.s 			page 15


 773:Generated_Source\PSoC4/cy_em_eeprom.c ****             * number and row address.
 774:Generated_Source\PSoC4/cy_em_eeprom.c ****             */
 775:Generated_Source\PSoC4/cy_em_eeprom.c ****             prevSeqNum = seqNum;
 776:Generated_Source\PSoC4/cy_em_eeprom.c ****             *lastWrRowPtr = emEepromAddr;
 777:Generated_Source\PSoC4/cy_em_eeprom.c ****         }
 778:Generated_Source\PSoC4/cy_em_eeprom.c **** 
 779:Generated_Source\PSoC4/cy_em_eeprom.c ****         /* Switch to the next row */
 780:Generated_Source\PSoC4/cy_em_eeprom.c ****         emEepromAddr = emEepromAddr + CY_EM_EEPROM_FLASH_SIZEOF_ROW;
 781:Generated_Source\PSoC4/cy_em_eeprom.c ****     }
 782:Generated_Source\PSoC4/cy_em_eeprom.c **** }
 783:Generated_Source\PSoC4/cy_em_eeprom.c **** 
 784:Generated_Source\PSoC4/cy_em_eeprom.c **** 
 785:Generated_Source\PSoC4/cy_em_eeprom.c **** /*******************************************************************************
 786:Generated_Source\PSoC4/cy_em_eeprom.c **** * Function Name: GetRowAddrBySeqNum
 787:Generated_Source\PSoC4/cy_em_eeprom.c **** ****************************************************************************//**
 788:Generated_Source\PSoC4/cy_em_eeprom.c **** *
 789:Generated_Source\PSoC4/cy_em_eeprom.c **** * Returns the address of the row in EEPROM using its sequence number.
 790:Generated_Source\PSoC4/cy_em_eeprom.c **** *
 791:Generated_Source\PSoC4/cy_em_eeprom.c **** * \param seqNum
 792:Generated_Source\PSoC4/cy_em_eeprom.c **** * The sequence number of the row.
 793:Generated_Source\PSoC4/cy_em_eeprom.c **** *
 794:Generated_Source\PSoC4/cy_em_eeprom.c **** * \param context
 795:Generated_Source\PSoC4/cy_em_eeprom.c **** * The pointer to the EEPROM context structure.
 796:Generated_Source\PSoC4/cy_em_eeprom.c **** *
 797:Generated_Source\PSoC4/cy_em_eeprom.c **** * \return
 798:Generated_Source\PSoC4/cy_em_eeprom.c **** * The address of the row or zero if the row with the sequence number was not
 799:Generated_Source\PSoC4/cy_em_eeprom.c **** * found.
 800:Generated_Source\PSoC4/cy_em_eeprom.c **** *
 801:Generated_Source\PSoC4/cy_em_eeprom.c **** *******************************************************************************/
 802:Generated_Source\PSoC4/cy_em_eeprom.c **** static uint32 GetRowAddrBySeqNum(uint32 seqNum, cy_stc_eeprom_context_t * context)
 803:Generated_Source\PSoC4/cy_em_eeprom.c **** {
 804:Generated_Source\PSoC4/cy_em_eeprom.c ****     uint32 emEepromAddr = context->userFlashStartAddr;
 805:Generated_Source\PSoC4/cy_em_eeprom.c **** 
 806:Generated_Source\PSoC4/cy_em_eeprom.c ****     while(CY_EM_EEPROM_GET_SEQ_NUM(emEepromAddr) != seqNum)
 807:Generated_Source\PSoC4/cy_em_eeprom.c ****     {
 808:Generated_Source\PSoC4/cy_em_eeprom.c ****         /* Switch to the next row */
 809:Generated_Source\PSoC4/cy_em_eeprom.c ****         emEepromAddr = emEepromAddr + CY_EM_EEPROM_FLASH_SIZEOF_ROW;
 810:Generated_Source\PSoC4/cy_em_eeprom.c **** 
 811:Generated_Source\PSoC4/cy_em_eeprom.c ****         if (CY_EM_EEPROM_ADDR_IN_RANGE !=
 812:Generated_Source\PSoC4/cy_em_eeprom.c ****             CY_EM_EEPROM_IS_ADDR_EXCEED_RANGE(emEepromAddr, context->wlEndAddr))
 813:Generated_Source\PSoC4/cy_em_eeprom.c ****         {
 814:Generated_Source\PSoC4/cy_em_eeprom.c ****             emEepromAddr = 0u;
 815:Generated_Source\PSoC4/cy_em_eeprom.c ****             /* Exit the loop as we reached the end of EEPROM */
 816:Generated_Source\PSoC4/cy_em_eeprom.c ****             break;
 817:Generated_Source\PSoC4/cy_em_eeprom.c ****         }
 818:Generated_Source\PSoC4/cy_em_eeprom.c ****     }
 819:Generated_Source\PSoC4/cy_em_eeprom.c **** 
 820:Generated_Source\PSoC4/cy_em_eeprom.c ****     return (emEepromAddr);
 821:Generated_Source\PSoC4/cy_em_eeprom.c **** }
 822:Generated_Source\PSoC4/cy_em_eeprom.c **** 
 823:Generated_Source\PSoC4/cy_em_eeprom.c **** 
 824:Generated_Source\PSoC4/cy_em_eeprom.c **** /*******************************************************************************
 825:Generated_Source\PSoC4/cy_em_eeprom.c **** * Function Name: GetNextRowToWrite
 826:Generated_Source\PSoC4/cy_em_eeprom.c **** ****************************************************************************//**
 827:Generated_Source\PSoC4/cy_em_eeprom.c **** *
 828:Generated_Source\PSoC4/cy_em_eeprom.c **** * Performs a range check of the row that should be written and updates the
 829:Generated_Source\PSoC4/cy_em_eeprom.c **** * address to the row respectively. The similar actions are done for the read
ARM GAS  C:\Users\young\AppData\Local\Temp\ccZHlxL6.s 			page 16


 830:Generated_Source\PSoC4/cy_em_eeprom.c **** * address.
 831:Generated_Source\PSoC4/cy_em_eeprom.c **** *
 832:Generated_Source\PSoC4/cy_em_eeprom.c **** * \param seqNum
 833:Generated_Source\PSoC4/cy_em_eeprom.c **** * The sequence number of the last written row.
 834:Generated_Source\PSoC4/cy_em_eeprom.c **** *
 835:Generated_Source\PSoC4/cy_em_eeprom.c **** * \param rowToWrPtr
 836:Generated_Source\PSoC4/cy_em_eeprom.c **** * The address of the last written row (input). The address of the row to be 
 837:Generated_Source\PSoC4/cy_em_eeprom.c **** * written (output).
 838:Generated_Source\PSoC4/cy_em_eeprom.c **** *
 839:Generated_Source\PSoC4/cy_em_eeprom.c **** * \param rowToRdPtr
 840:Generated_Source\PSoC4/cy_em_eeprom.c **** * The address of the row from which the data should be read into the RAM buffer
 841:Generated_Source\PSoC4/cy_em_eeprom.c **** * in a later write operation. Out parameter.
 842:Generated_Source\PSoC4/cy_em_eeprom.c **** *
 843:Generated_Source\PSoC4/cy_em_eeprom.c **** * \param context
 844:Generated_Source\PSoC4/cy_em_eeprom.c **** * The pointer to the EEPROM context structure \ref cy_stc_eeprom_context_t.
 845:Generated_Source\PSoC4/cy_em_eeprom.c **** *
 846:Generated_Source\PSoC4/cy_em_eeprom.c **** *******************************************************************************/
 847:Generated_Source\PSoC4/cy_em_eeprom.c **** static void GetNextRowToWrite(uint32 seqNum,
 848:Generated_Source\PSoC4/cy_em_eeprom.c ****                             uint32 * rowToWrPtr,
 849:Generated_Source\PSoC4/cy_em_eeprom.c ****                             uint32 * rowToRdPtr,
 850:Generated_Source\PSoC4/cy_em_eeprom.c ****                             cy_stc_eeprom_context_t * context)
 851:Generated_Source\PSoC4/cy_em_eeprom.c **** {
 852:Generated_Source\PSoC4/cy_em_eeprom.c ****     /* Switch to the next row to be written if the current sequence number is
 853:Generated_Source\PSoC4/cy_em_eeprom.c ****     * not zero.
 854:Generated_Source\PSoC4/cy_em_eeprom.c ****     */
 855:Generated_Source\PSoC4/cy_em_eeprom.c ****     if(0u != seqNum)
 856:Generated_Source\PSoC4/cy_em_eeprom.c ****     {
 857:Generated_Source\PSoC4/cy_em_eeprom.c ****         *rowToWrPtr = (*rowToWrPtr + CY_EM_EEPROM_FLASH_SIZEOF_ROW);
 858:Generated_Source\PSoC4/cy_em_eeprom.c ****     }
 859:Generated_Source\PSoC4/cy_em_eeprom.c **** 
 860:Generated_Source\PSoC4/cy_em_eeprom.c ****     /* If the resulting row address is out of EEPROM, then switch to the base
 861:Generated_Source\PSoC4/cy_em_eeprom.c ****     * EEPROM address (Row#0).
 862:Generated_Source\PSoC4/cy_em_eeprom.c ****     */
 863:Generated_Source\PSoC4/cy_em_eeprom.c ****     if(CY_EM_EEPROM_ADDR_IN_RANGE !=
 864:Generated_Source\PSoC4/cy_em_eeprom.c ****             CY_EM_EEPROM_IS_ADDR_EXCEED_RANGE(*rowToWrPtr, context->wlEndAddr))
 865:Generated_Source\PSoC4/cy_em_eeprom.c ****     {
 866:Generated_Source\PSoC4/cy_em_eeprom.c ****         *rowToWrPtr = context->userFlashStartAddr;
 867:Generated_Source\PSoC4/cy_em_eeprom.c ****     }
 868:Generated_Source\PSoC4/cy_em_eeprom.c **** 
 869:Generated_Source\PSoC4/cy_em_eeprom.c ****     *rowToRdPtr = 0u;
 870:Generated_Source\PSoC4/cy_em_eeprom.c **** 
 871:Generated_Source\PSoC4/cy_em_eeprom.c ****     /* Check if the sequence number is larger than the number of rows in the EEPROM.
 872:Generated_Source\PSoC4/cy_em_eeprom.c ****     * If not, do not update the row read address because there is no historic
 873:Generated_Source\PSoC4/cy_em_eeprom.c ****     * data to be read.
 874:Generated_Source\PSoC4/cy_em_eeprom.c ****     */
 875:Generated_Source\PSoC4/cy_em_eeprom.c ****     if(context->numberOfRows <= seqNum)
 876:Generated_Source\PSoC4/cy_em_eeprom.c ****     {
 877:Generated_Source\PSoC4/cy_em_eeprom.c ****         /* Check if wear leveling is used in EEPROM */
 878:Generated_Source\PSoC4/cy_em_eeprom.c ****         if(context->wearLevelingFactor > 1u)
 879:Generated_Source\PSoC4/cy_em_eeprom.c ****         {
 880:Generated_Source\PSoC4/cy_em_eeprom.c ****             /* The read row address should be taken from an EEPROM copy that became
 881:Generated_Source\PSoC4/cy_em_eeprom.c ****             * inactive recently. This condition check handles that.
 882:Generated_Source\PSoC4/cy_em_eeprom.c ****             */
 883:Generated_Source\PSoC4/cy_em_eeprom.c ****             if((*rowToWrPtr - (context->numberOfRows * CY_EM_EEPROM_FLASH_SIZEOF_ROW)) <
 884:Generated_Source\PSoC4/cy_em_eeprom.c ****                 context->userFlashStartAddr)
 885:Generated_Source\PSoC4/cy_em_eeprom.c ****             {
 886:Generated_Source\PSoC4/cy_em_eeprom.c ****                 *rowToRdPtr = context->userFlashStartAddr +
ARM GAS  C:\Users\young\AppData\Local\Temp\ccZHlxL6.s 			page 17


 887:Generated_Source\PSoC4/cy_em_eeprom.c ****                     (context->numberOfRows * (context->wearLevelingFactor - 1u) *
 888:Generated_Source\PSoC4/cy_em_eeprom.c ****                         CY_EM_EEPROM_FLASH_SIZEOF_ROW) + (*rowToWrPtr - context->userFlashStartAddr
 889:Generated_Source\PSoC4/cy_em_eeprom.c ****             }
 890:Generated_Source\PSoC4/cy_em_eeprom.c ****             else
 891:Generated_Source\PSoC4/cy_em_eeprom.c ****             {
 892:Generated_Source\PSoC4/cy_em_eeprom.c ****                 *rowToRdPtr = *rowToWrPtr - (context->numberOfRows * CY_EM_EEPROM_FLASH_SIZEOF_ROW)
 893:Generated_Source\PSoC4/cy_em_eeprom.c ****             }
 894:Generated_Source\PSoC4/cy_em_eeprom.c ****         }
 895:Generated_Source\PSoC4/cy_em_eeprom.c ****         else
 896:Generated_Source\PSoC4/cy_em_eeprom.c ****         {
 897:Generated_Source\PSoC4/cy_em_eeprom.c ****             /* If no wear leveling, always read from the same flash row that
 898:Generated_Source\PSoC4/cy_em_eeprom.c ****             * should be written.
 899:Generated_Source\PSoC4/cy_em_eeprom.c ****             */
 900:Generated_Source\PSoC4/cy_em_eeprom.c ****             *rowToRdPtr = *rowToWrPtr;
 901:Generated_Source\PSoC4/cy_em_eeprom.c ****         }
 902:Generated_Source\PSoC4/cy_em_eeprom.c ****     }
 903:Generated_Source\PSoC4/cy_em_eeprom.c **** }
 904:Generated_Source\PSoC4/cy_em_eeprom.c **** 
 905:Generated_Source\PSoC4/cy_em_eeprom.c **** 
 906:Generated_Source\PSoC4/cy_em_eeprom.c **** /*******************************************************************************
 907:Generated_Source\PSoC4/cy_em_eeprom.c **** * Function Name: CalcChecksum
 908:Generated_Source\PSoC4/cy_em_eeprom.c **** ****************************************************************************//**
 909:Generated_Source\PSoC4/cy_em_eeprom.c **** *
 910:Generated_Source\PSoC4/cy_em_eeprom.c **** * Implements CRC-8 that is used in checksum calculation for the redundant copy
 911:Generated_Source\PSoC4/cy_em_eeprom.c **** * algorithm.
 912:Generated_Source\PSoC4/cy_em_eeprom.c **** *
 913:Generated_Source\PSoC4/cy_em_eeprom.c **** * \param rowData
 914:Generated_Source\PSoC4/cy_em_eeprom.c **** * The row data to be used to calculate the checksum.
 915:Generated_Source\PSoC4/cy_em_eeprom.c **** *
 916:Generated_Source\PSoC4/cy_em_eeprom.c **** * \param len
 917:Generated_Source\PSoC4/cy_em_eeprom.c **** * The length of rowData.
 918:Generated_Source\PSoC4/cy_em_eeprom.c **** *
 919:Generated_Source\PSoC4/cy_em_eeprom.c **** * \return
 920:Generated_Source\PSoC4/cy_em_eeprom.c **** * The calculated value of CRC-8.
 921:Generated_Source\PSoC4/cy_em_eeprom.c **** *
 922:Generated_Source\PSoC4/cy_em_eeprom.c **** *******************************************************************************/
 923:Generated_Source\PSoC4/cy_em_eeprom.c **** static uint8 CalcChecksum(uint8 rowData[], uint32 len)
 924:Generated_Source\PSoC4/cy_em_eeprom.c **** {
 925:Generated_Source\PSoC4/cy_em_eeprom.c ****     uint8 crc = CY_EM_EEPROM_CRC8_SEED;
 926:Generated_Source\PSoC4/cy_em_eeprom.c ****     uint8 i;
 927:Generated_Source\PSoC4/cy_em_eeprom.c ****     uint16 cnt = 0u;
 928:Generated_Source\PSoC4/cy_em_eeprom.c **** 
 929:Generated_Source\PSoC4/cy_em_eeprom.c ****     while(cnt != len)
 930:Generated_Source\PSoC4/cy_em_eeprom.c ****     {
 931:Generated_Source\PSoC4/cy_em_eeprom.c ****         crc ^= rowData[cnt];
 932:Generated_Source\PSoC4/cy_em_eeprom.c ****         for (i = 0u; i < CY_EM_EEPROM_CRC8_POLYNOM_LEN; i++)
 933:Generated_Source\PSoC4/cy_em_eeprom.c ****         {
 934:Generated_Source\PSoC4/cy_em_eeprom.c ****             crc = CY_EM_EEPROM_CALCULATE_CRC8(crc);
 935:Generated_Source\PSoC4/cy_em_eeprom.c ****         }
 936:Generated_Source\PSoC4/cy_em_eeprom.c ****         cnt++;
 937:Generated_Source\PSoC4/cy_em_eeprom.c ****     }
 938:Generated_Source\PSoC4/cy_em_eeprom.c **** 
 939:Generated_Source\PSoC4/cy_em_eeprom.c ****     return (crc);
 940:Generated_Source\PSoC4/cy_em_eeprom.c **** }
 941:Generated_Source\PSoC4/cy_em_eeprom.c **** 
 942:Generated_Source\PSoC4/cy_em_eeprom.c **** 
 943:Generated_Source\PSoC4/cy_em_eeprom.c **** /*******************************************************************************
ARM GAS  C:\Users\young\AppData\Local\Temp\ccZHlxL6.s 			page 18


 944:Generated_Source\PSoC4/cy_em_eeprom.c **** * Function Name: CheckRanges
 945:Generated_Source\PSoC4/cy_em_eeprom.c **** ****************************************************************************//**
 946:Generated_Source\PSoC4/cy_em_eeprom.c **** *
 947:Generated_Source\PSoC4/cy_em_eeprom.c **** * Checks if the EEPROM of the requested size can be placed in flash.
 948:Generated_Source\PSoC4/cy_em_eeprom.c **** *
 949:Generated_Source\PSoC4/cy_em_eeprom.c **** * \param config
 950:Generated_Source\PSoC4/cy_em_eeprom.c **** * The pointer to a configuration structure. See \ref cy_stc_eeprom_config_t.
 951:Generated_Source\PSoC4/cy_em_eeprom.c **** *
 952:Generated_Source\PSoC4/cy_em_eeprom.c **** * \return
 953:Generated_Source\PSoC4/cy_em_eeprom.c **** * error / status code. See \ref cy_en_em_eeprom_status_t.
 954:Generated_Source\PSoC4/cy_em_eeprom.c **** *
 955:Generated_Source\PSoC4/cy_em_eeprom.c **** *******************************************************************************/
 956:Generated_Source\PSoC4/cy_em_eeprom.c **** static cy_en_em_eeprom_status_t CheckRanges(cy_stc_eeprom_config_t* config)
 957:Generated_Source\PSoC4/cy_em_eeprom.c **** {
 958:Generated_Source\PSoC4/cy_em_eeprom.c ****     cy_en_em_eeprom_status_t ret = CY_EM_EEPROM_BAD_DATA;
 959:Generated_Source\PSoC4/cy_em_eeprom.c ****     uint32 startAddr = config->userFlashStartAddr;
 960:Generated_Source\PSoC4/cy_em_eeprom.c ****     uint32 endAddr = startAddr + CY_EM_EEPROM_GET_PHYSICAL_SIZE(config->eepromSize,
 961:Generated_Source\PSoC4/cy_em_eeprom.c ****             config->wearLevelingFactor, config->redundantCopy);
 962:Generated_Source\PSoC4/cy_em_eeprom.c **** 
 963:Generated_Source\PSoC4/cy_em_eeprom.c ****     /* Range check if there is enough flash for EEPROM */
 964:Generated_Source\PSoC4/cy_em_eeprom.c ****     if (CY_EM_EEPROM_IS_IN_FLASH_RANGE(startAddr, endAddr))
 965:Generated_Source\PSoC4/cy_em_eeprom.c ****     {
 966:Generated_Source\PSoC4/cy_em_eeprom.c ****         ret = CY_EM_EEPROM_SUCCESS;
 967:Generated_Source\PSoC4/cy_em_eeprom.c ****     }
 968:Generated_Source\PSoC4/cy_em_eeprom.c ****     return (ret);
 969:Generated_Source\PSoC4/cy_em_eeprom.c **** }
 970:Generated_Source\PSoC4/cy_em_eeprom.c **** 
 971:Generated_Source\PSoC4/cy_em_eeprom.c **** 
 972:Generated_Source\PSoC4/cy_em_eeprom.c **** /*******************************************************************************
 973:Generated_Source\PSoC4/cy_em_eeprom.c **** * Function Name: WriteRow
 974:Generated_Source\PSoC4/cy_em_eeprom.c **** ****************************************************************************//**
 975:Generated_Source\PSoC4/cy_em_eeprom.c **** *
 976:Generated_Source\PSoC4/cy_em_eeprom.c **** * Writes one flash row starting from the specified row address.
 977:Generated_Source\PSoC4/cy_em_eeprom.c **** *
 978:Generated_Source\PSoC4/cy_em_eeprom.c **** * \param rowAdd
 979:Generated_Source\PSoC4/cy_em_eeprom.c **** * The address of the flash row.
 980:Generated_Source\PSoC4/cy_em_eeprom.c **** *
 981:Generated_Source\PSoC4/cy_em_eeprom.c **** * \param rowData
 982:Generated_Source\PSoC4/cy_em_eeprom.c **** * The pointer to the data to be written to the row.
 983:Generated_Source\PSoC4/cy_em_eeprom.c **** *
 984:Generated_Source\PSoC4/cy_em_eeprom.c **** * \param context
 985:Generated_Source\PSoC4/cy_em_eeprom.c **** * The pointer to the EEPROM context structure \ref cy_stc_eeprom_context_t.
 986:Generated_Source\PSoC4/cy_em_eeprom.c **** *
 987:Generated_Source\PSoC4/cy_em_eeprom.c **** * \return
 988:Generated_Source\PSoC4/cy_em_eeprom.c **** * error / status code. See \ref cy_en_em_eeprom_status_t.
 989:Generated_Source\PSoC4/cy_em_eeprom.c **** *
 990:Generated_Source\PSoC4/cy_em_eeprom.c **** *******************************************************************************/
 991:Generated_Source\PSoC4/cy_em_eeprom.c **** static cy_en_em_eeprom_status_t WriteRow(uint32 rowAddr,
 992:Generated_Source\PSoC4/cy_em_eeprom.c ****                                         uint32 *rowData,
 993:Generated_Source\PSoC4/cy_em_eeprom.c ****                                         cy_stc_eeprom_context_t * context)
 994:Generated_Source\PSoC4/cy_em_eeprom.c **** {
 995:Generated_Source\PSoC4/cy_em_eeprom.c ****     cy_en_em_eeprom_status_t ret = CY_EM_EEPROM_WRITE_FAIL;
 996:Generated_Source\PSoC4/cy_em_eeprom.c **** #if (!CY_PSOC6)
 997:Generated_Source\PSoC4/cy_em_eeprom.c ****     cystatus rc;
 998:Generated_Source\PSoC4/cy_em_eeprom.c ****     #if ((CY_PSOC3) || (CY_PSOC5))
 999:Generated_Source\PSoC4/cy_em_eeprom.c ****         uint32 arrayId;
1000:Generated_Source\PSoC4/cy_em_eeprom.c ****         uint32 rowId;
ARM GAS  C:\Users\young\AppData\Local\Temp\ccZHlxL6.s 			page 19


1001:Generated_Source\PSoC4/cy_em_eeprom.c ****     #else
1002:Generated_Source\PSoC4/cy_em_eeprom.c ****         uint32 rowNum;
1003:Generated_Source\PSoC4/cy_em_eeprom.c ****     #endif /* (CY_PSOC3) */
1004:Generated_Source\PSoC4/cy_em_eeprom.c ****     
1005:Generated_Source\PSoC4/cy_em_eeprom.c ****     #if (CY_PSOC3)
1006:Generated_Source\PSoC4/cy_em_eeprom.c ****         rowAddr &= CY_EM_EEPROM_CODE_ADDR_MASK;
1007:Generated_Source\PSoC4/cy_em_eeprom.c ****         context = context;      /* To avoid compiler warning generation */
1008:Generated_Source\PSoC4/cy_em_eeprom.c ****     #else
1009:Generated_Source\PSoC4/cy_em_eeprom.c ****         (void)context;          /* To avoid compiler warning generation */
1010:Generated_Source\PSoC4/cy_em_eeprom.c ****     #endif /* ((CY_PSOC3) */
1011:Generated_Source\PSoC4/cy_em_eeprom.c ****     
1012:Generated_Source\PSoC4/cy_em_eeprom.c ****     /* Write the flash row */
1013:Generated_Source\PSoC4/cy_em_eeprom.c ****     #if (CY_PSOC4)
1014:Generated_Source\PSoC4/cy_em_eeprom.c ****         /* For PSoC 4 devices, the array ID is included in the row number */
1015:Generated_Source\PSoC4/cy_em_eeprom.c ****         rowNum = rowAddr / CY_EM_EEPROM_FLASH_SIZEOF_ROW;
1016:Generated_Source\PSoC4/cy_em_eeprom.c ****         
1017:Generated_Source\PSoC4/cy_em_eeprom.c ****         rc = CySysFlashWriteRow(rowNum, (uint8 *)rowData);
1018:Generated_Source\PSoC4/cy_em_eeprom.c ****     #else
1019:Generated_Source\PSoC4/cy_em_eeprom.c ****         /* For PSoC 3/5 devices, the array ID and row ID needed to write the row */
1020:Generated_Source\PSoC4/cy_em_eeprom.c ****         rowId = (rowAddr / CY_EM_EEPROM_FLASH_SIZEOF_ROW) % CY_EM_EEPROM_ROWS_IN_ARRAY;
1021:Generated_Source\PSoC4/cy_em_eeprom.c ****         
1022:Generated_Source\PSoC4/cy_em_eeprom.c ****         #ifndef CY_EM_EEPROM_SKIP_TEMP_MEASUREMENT
1023:Generated_Source\PSoC4/cy_em_eeprom.c ****             (void)CySetTemp();
1024:Generated_Source\PSoC4/cy_em_eeprom.c ****         #endif /* (CY_EM_EEPROM_SKIP_TEMP_MEASUREMENT) */
1025:Generated_Source\PSoC4/cy_em_eeprom.c **** 
1026:Generated_Source\PSoC4/cy_em_eeprom.c ****         arrayId = rowAddr / CY_FLASH_SIZEOF_ARRAY;
1027:Generated_Source\PSoC4/cy_em_eeprom.c ****         rc = CyWriteRowData((uint8)arrayId, (uint16)rowId, (uint8 *)rowData);
1028:Generated_Source\PSoC4/cy_em_eeprom.c ****         
1029:Generated_Source\PSoC4/cy_em_eeprom.c ****         #if (CY_PSOC5)
1030:Generated_Source\PSoC4/cy_em_eeprom.c ****             CyFlushCache();
1031:Generated_Source\PSoC4/cy_em_eeprom.c ****         #endif /* (CY_PSOC5) */
1032:Generated_Source\PSoC4/cy_em_eeprom.c ****     #endif /* (CY_PSOC4) */
1033:Generated_Source\PSoC4/cy_em_eeprom.c **** 
1034:Generated_Source\PSoC4/cy_em_eeprom.c ****     if(CYRET_SUCCESS == rc)
1035:Generated_Source\PSoC4/cy_em_eeprom.c ****     {
1036:Generated_Source\PSoC4/cy_em_eeprom.c ****         ret = CY_EM_EEPROM_SUCCESS;
1037:Generated_Source\PSoC4/cy_em_eeprom.c ****     }
1038:Generated_Source\PSoC4/cy_em_eeprom.c **** #else /* PSoC 6 */
1039:Generated_Source\PSoC4/cy_em_eeprom.c ****     if(0u != context->blockingWrite)
1040:Generated_Source\PSoC4/cy_em_eeprom.c ****     {
1041:Generated_Source\PSoC4/cy_em_eeprom.c ****         /* Do blocking write */
1042:Generated_Source\PSoC4/cy_em_eeprom.c ****         if(CY_FLASH_DRV_SUCCESS == Cy_Flash_WriteRow(rowAddr, (const uint32 *)rowData))
1043:Generated_Source\PSoC4/cy_em_eeprom.c ****         {
1044:Generated_Source\PSoC4/cy_em_eeprom.c ****             ret = CY_EM_EEPROM_SUCCESS;
1045:Generated_Source\PSoC4/cy_em_eeprom.c ****         }
1046:Generated_Source\PSoC4/cy_em_eeprom.c ****     }
1047:Generated_Source\PSoC4/cy_em_eeprom.c ****     else
1048:Generated_Source\PSoC4/cy_em_eeprom.c ****     {
1049:Generated_Source\PSoC4/cy_em_eeprom.c ****         /* Initiate write */
1050:Generated_Source\PSoC4/cy_em_eeprom.c ****         if(CY_FLASH_DRV_OPERATION_STARTED == Cy_Flash_StartWrite(rowAddr, (const uint32 *)rowData))
1051:Generated_Source\PSoC4/cy_em_eeprom.c ****         {
1052:Generated_Source\PSoC4/cy_em_eeprom.c ****             uint32 countMs = CY_EM_EEPROM_MAX_WRITE_DURATION_MS;
1053:Generated_Source\PSoC4/cy_em_eeprom.c ****             cy_en_flashdrv_status_t rc;
1054:Generated_Source\PSoC4/cy_em_eeprom.c **** 
1055:Generated_Source\PSoC4/cy_em_eeprom.c ****             do
1056:Generated_Source\PSoC4/cy_em_eeprom.c ****             {
1057:Generated_Source\PSoC4/cy_em_eeprom.c ****                 CyDelay(1u);                         /* Wait 1ms */
ARM GAS  C:\Users\young\AppData\Local\Temp\ccZHlxL6.s 			page 20


1058:Generated_Source\PSoC4/cy_em_eeprom.c ****                 rc = Cy_Flash_IsWriteComplete();     /* Check if write completed */
1059:Generated_Source\PSoC4/cy_em_eeprom.c ****                 countMs--;
1060:Generated_Source\PSoC4/cy_em_eeprom.c ****             }
1061:Generated_Source\PSoC4/cy_em_eeprom.c ****             while ((rc == CY_FLASH_DRV_OPCODE_BUSY) && (0u != countMs));
1062:Generated_Source\PSoC4/cy_em_eeprom.c **** 
1063:Generated_Source\PSoC4/cy_em_eeprom.c ****             if(CY_FLASH_DRV_SUCCESS == rc)
1064:Generated_Source\PSoC4/cy_em_eeprom.c ****             {
1065:Generated_Source\PSoC4/cy_em_eeprom.c ****                 ret = CY_EM_EEPROM_SUCCESS;
1066:Generated_Source\PSoC4/cy_em_eeprom.c ****             }
1067:Generated_Source\PSoC4/cy_em_eeprom.c ****         }
1068:Generated_Source\PSoC4/cy_em_eeprom.c ****     }
1069:Generated_Source\PSoC4/cy_em_eeprom.c **** #endif /* (CY_PSOC6) */
1070:Generated_Source\PSoC4/cy_em_eeprom.c **** 
1071:Generated_Source\PSoC4/cy_em_eeprom.c ****     return (ret);
1072:Generated_Source\PSoC4/cy_em_eeprom.c **** }
1073:Generated_Source\PSoC4/cy_em_eeprom.c **** 
1074:Generated_Source\PSoC4/cy_em_eeprom.c **** 
1075:Generated_Source\PSoC4/cy_em_eeprom.c **** /*******************************************************************************
1076:Generated_Source\PSoC4/cy_em_eeprom.c **** * Function Name: EraseRow
1077:Generated_Source\PSoC4/cy_em_eeprom.c **** ****************************************************************************//**
1078:Generated_Source\PSoC4/cy_em_eeprom.c **** *
1079:Generated_Source\PSoC4/cy_em_eeprom.c **** * Erases one flash row starting from the specified row address. If the redundant
1080:Generated_Source\PSoC4/cy_em_eeprom.c **** * copy option is enabled the corresponding row in the redundant copy will also
1081:Generated_Source\PSoC4/cy_em_eeprom.c **** * be erased.
1082:Generated_Source\PSoC4/cy_em_eeprom.c **** *
1083:Generated_Source\PSoC4/cy_em_eeprom.c **** * \param rowAdd
1084:Generated_Source\PSoC4/cy_em_eeprom.c **** * The address of the flash row.
1085:Generated_Source\PSoC4/cy_em_eeprom.c **** *
1086:Generated_Source\PSoC4/cy_em_eeprom.c **** * \param ramBuffAddr
1087:Generated_Source\PSoC4/cy_em_eeprom.c **** * The address of the RAM buffer that contains zeroed data (used only for
1088:Generated_Source\PSoC4/cy_em_eeprom.c **** * non-PSoC 6 devices).
1089:Generated_Source\PSoC4/cy_em_eeprom.c **** *
1090:Generated_Source\PSoC4/cy_em_eeprom.c **** * \param context
1091:Generated_Source\PSoC4/cy_em_eeprom.c **** * The pointer to the EEPROM context structure \ref cy_stc_eeprom_context_t.
1092:Generated_Source\PSoC4/cy_em_eeprom.c **** *
1093:Generated_Source\PSoC4/cy_em_eeprom.c **** * \return
1094:Generated_Source\PSoC4/cy_em_eeprom.c **** * error / status code. See \ref cy_en_em_eeprom_status_t.
1095:Generated_Source\PSoC4/cy_em_eeprom.c **** *
1096:Generated_Source\PSoC4/cy_em_eeprom.c **** *******************************************************************************/
1097:Generated_Source\PSoC4/cy_em_eeprom.c **** static cy_en_em_eeprom_status_t EraseRow(uint32 rowAddr,
1098:Generated_Source\PSoC4/cy_em_eeprom.c ****                                         uint32 ramBuffAddr,
1099:Generated_Source\PSoC4/cy_em_eeprom.c ****                                         cy_stc_eeprom_context_t * context)
1100:Generated_Source\PSoC4/cy_em_eeprom.c **** {
1101:Generated_Source\PSoC4/cy_em_eeprom.c ****     uint32 emEepromRowAddr = rowAddr;
1102:Generated_Source\PSoC4/cy_em_eeprom.c ****     cy_en_em_eeprom_status_t ret = CY_EM_EEPROM_WRITE_FAIL;
1103:Generated_Source\PSoC4/cy_em_eeprom.c **** #if (CY_PSOC6)
1104:Generated_Source\PSoC4/cy_em_eeprom.c ****     uint32 i = 1u;
1105:Generated_Source\PSoC4/cy_em_eeprom.c **** 
1106:Generated_Source\PSoC4/cy_em_eeprom.c ****     (void)ramBuffAddr; /* To avoid compiler warning */
1107:Generated_Source\PSoC4/cy_em_eeprom.c **** 
1108:Generated_Source\PSoC4/cy_em_eeprom.c ****     if(0u != context->redundantCopy)
1109:Generated_Source\PSoC4/cy_em_eeprom.c ****     {
1110:Generated_Source\PSoC4/cy_em_eeprom.c ****         i++;
1111:Generated_Source\PSoC4/cy_em_eeprom.c ****     }
1112:Generated_Source\PSoC4/cy_em_eeprom.c **** 
1113:Generated_Source\PSoC4/cy_em_eeprom.c ****     do
1114:Generated_Source\PSoC4/cy_em_eeprom.c ****     {
ARM GAS  C:\Users\young\AppData\Local\Temp\ccZHlxL6.s 			page 21


1115:Generated_Source\PSoC4/cy_em_eeprom.c ****         if(0u != context->blockingWrite)
1116:Generated_Source\PSoC4/cy_em_eeprom.c ****         {
1117:Generated_Source\PSoC4/cy_em_eeprom.c ****             /* Erase the flash row */
1118:Generated_Source\PSoC4/cy_em_eeprom.c ****             if(CY_FLASH_DRV_SUCCESS == Cy_Flash_EraseRow(emEepromRowAddr))
1119:Generated_Source\PSoC4/cy_em_eeprom.c ****             {
1120:Generated_Source\PSoC4/cy_em_eeprom.c ****                 ret = CY_EM_EEPROM_SUCCESS;
1121:Generated_Source\PSoC4/cy_em_eeprom.c ****             }
1122:Generated_Source\PSoC4/cy_em_eeprom.c ****         }
1123:Generated_Source\PSoC4/cy_em_eeprom.c ****         else
1124:Generated_Source\PSoC4/cy_em_eeprom.c ****         {
1125:Generated_Source\PSoC4/cy_em_eeprom.c ****             /* Initiate erase */
1126:Generated_Source\PSoC4/cy_em_eeprom.c ****             if(CY_FLASH_DRV_OPERATION_STARTED == Cy_Flash_StartErase(emEepromRowAddr))
1127:Generated_Source\PSoC4/cy_em_eeprom.c ****             {
1128:Generated_Source\PSoC4/cy_em_eeprom.c ****                 uint32 countMs = CY_EM_EEPROM_MAX_WRITE_DURATION_MS;
1129:Generated_Source\PSoC4/cy_em_eeprom.c ****                 cy_en_flashdrv_status_t rc;
1130:Generated_Source\PSoC4/cy_em_eeprom.c **** 
1131:Generated_Source\PSoC4/cy_em_eeprom.c ****                 do
1132:Generated_Source\PSoC4/cy_em_eeprom.c ****                 {
1133:Generated_Source\PSoC4/cy_em_eeprom.c ****                     CyDelay(1u);                         /* Wait 1ms */
1134:Generated_Source\PSoC4/cy_em_eeprom.c ****                     rc = Cy_Flash_IsWriteComplete();     /* Check if erase completed */
1135:Generated_Source\PSoC4/cy_em_eeprom.c ****                     countMs--;
1136:Generated_Source\PSoC4/cy_em_eeprom.c ****                 }
1137:Generated_Source\PSoC4/cy_em_eeprom.c ****                 while ((rc == CY_FLASH_DRV_OPCODE_BUSY) && (0u != countMs));
1138:Generated_Source\PSoC4/cy_em_eeprom.c **** 
1139:Generated_Source\PSoC4/cy_em_eeprom.c ****                 if(CY_FLASH_DRV_SUCCESS == rc)
1140:Generated_Source\PSoC4/cy_em_eeprom.c ****                 {
1141:Generated_Source\PSoC4/cy_em_eeprom.c ****                     ret = CY_EM_EEPROM_SUCCESS;
1142:Generated_Source\PSoC4/cy_em_eeprom.c ****                 }
1143:Generated_Source\PSoC4/cy_em_eeprom.c ****             }
1144:Generated_Source\PSoC4/cy_em_eeprom.c ****         }
1145:Generated_Source\PSoC4/cy_em_eeprom.c **** 
1146:Generated_Source\PSoC4/cy_em_eeprom.c ****         if(CY_EM_EEPROM_SUCCESS == ret)
1147:Generated_Source\PSoC4/cy_em_eeprom.c ****         {
1148:Generated_Source\PSoC4/cy_em_eeprom.c ****             /* Update the address to point to the redundant copy row */
1149:Generated_Source\PSoC4/cy_em_eeprom.c ****             emEepromRowAddr = (emEepromRowAddr - context->userFlashStartAddr) + context->wlEndAddr;
1150:Generated_Source\PSoC4/cy_em_eeprom.c ****         }
1151:Generated_Source\PSoC4/cy_em_eeprom.c ****         else
1152:Generated_Source\PSoC4/cy_em_eeprom.c ****         {
1153:Generated_Source\PSoC4/cy_em_eeprom.c ****             break;
1154:Generated_Source\PSoC4/cy_em_eeprom.c ****         }
1155:Generated_Source\PSoC4/cy_em_eeprom.c ****         i--;
1156:Generated_Source\PSoC4/cy_em_eeprom.c ****     } while (0u != i);
1157:Generated_Source\PSoC4/cy_em_eeprom.c **** #else
1158:Generated_Source\PSoC4/cy_em_eeprom.c ****     /* Write the data to the specified flash row */
1159:Generated_Source\PSoC4/cy_em_eeprom.c ****     ret = WriteRow(emEepromRowAddr, (uint32 *)ramBuffAddr, context);
1160:Generated_Source\PSoC4/cy_em_eeprom.c **** 
1161:Generated_Source\PSoC4/cy_em_eeprom.c ****     if((CY_EM_EEPROM_SUCCESS == ret) && (0u != context->redundantCopy))
1162:Generated_Source\PSoC4/cy_em_eeprom.c ****     {
1163:Generated_Source\PSoC4/cy_em_eeprom.c ****         /* Update the address to point to the redundant copy row */
1164:Generated_Source\PSoC4/cy_em_eeprom.c ****         emEepromRowAddr = (emEepromRowAddr - context->userFlashStartAddr) + context->wlEndAddr;
1165:Generated_Source\PSoC4/cy_em_eeprom.c ****         ret = WriteRow(emEepromRowAddr, (uint32 *)ramBuffAddr, context);
1166:Generated_Source\PSoC4/cy_em_eeprom.c ****     }
1167:Generated_Source\PSoC4/cy_em_eeprom.c **** 
1168:Generated_Source\PSoC4/cy_em_eeprom.c ****     if(CY_EM_EEPROM_SUCCESS == ret)
1169:Generated_Source\PSoC4/cy_em_eeprom.c ****     {
1170:Generated_Source\PSoC4/cy_em_eeprom.c ****         context->lastWrRowAddr = rowAddr;
1171:Generated_Source\PSoC4/cy_em_eeprom.c ****     }
ARM GAS  C:\Users\young\AppData\Local\Temp\ccZHlxL6.s 			page 22


1172:Generated_Source\PSoC4/cy_em_eeprom.c **** #endif /* (CY_PSOC6) */
1173:Generated_Source\PSoC4/cy_em_eeprom.c **** 
1174:Generated_Source\PSoC4/cy_em_eeprom.c ****     return(ret);
1175:Generated_Source\PSoC4/cy_em_eeprom.c **** }
1176:Generated_Source\PSoC4/cy_em_eeprom.c **** 
1177:Generated_Source\PSoC4/cy_em_eeprom.c **** 
1178:Generated_Source\PSoC4/cy_em_eeprom.c **** /*******************************************************************************
1179:Generated_Source\PSoC4/cy_em_eeprom.c **** * Function Name: CheckCrcAndCopy
1180:Generated_Source\PSoC4/cy_em_eeprom.c **** ****************************************************************************//**
1181:Generated_Source\PSoC4/cy_em_eeprom.c **** *
1182:Generated_Source\PSoC4/cy_em_eeprom.c **** * Checks the checksum of the specific row in EEPROM. If the CRC matches - copies
1183:Generated_Source\PSoC4/cy_em_eeprom.c **** * the data to the "datAddr" from EEPROM. f the CRC does not match checks the
1184:Generated_Source\PSoC4/cy_em_eeprom.c **** * CRC of the corresponding row in the EEPROM's redundant copy. If the CRC
1185:Generated_Source\PSoC4/cy_em_eeprom.c **** * matches - copies the data to the "datAddr" from EEPROM redundant copy. If the
1186:Generated_Source\PSoC4/cy_em_eeprom.c **** * CRC of the redundant copy does not match - returns bad checksum.
1187:Generated_Source\PSoC4/cy_em_eeprom.c **** *
1188:Generated_Source\PSoC4/cy_em_eeprom.c **** * \param startAddr
1189:Generated_Source\PSoC4/cy_em_eeprom.c **** * The address that points to the start of the specified row.
1190:Generated_Source\PSoC4/cy_em_eeprom.c **** *
1191:Generated_Source\PSoC4/cy_em_eeprom.c **** * \param datAddr
1192:Generated_Source\PSoC4/cy_em_eeprom.c **** * The start address of where the row data will be copied if the CRC check
1193:Generated_Source\PSoC4/cy_em_eeprom.c **** * will succeed.
1194:Generated_Source\PSoC4/cy_em_eeprom.c **** *
1195:Generated_Source\PSoC4/cy_em_eeprom.c **** * \param rowOffset
1196:Generated_Source\PSoC4/cy_em_eeprom.c **** * The offset in the row from which the data should be copied.
1197:Generated_Source\PSoC4/cy_em_eeprom.c **** *
1198:Generated_Source\PSoC4/cy_em_eeprom.c **** * \param numBytes
1199:Generated_Source\PSoC4/cy_em_eeprom.c **** * The number of bytes to be copied.
1200:Generated_Source\PSoC4/cy_em_eeprom.c **** *
1201:Generated_Source\PSoC4/cy_em_eeprom.c **** * \param context
1202:Generated_Source\PSoC4/cy_em_eeprom.c **** * The pointer to the EEPROM context structure \ref cy_stc_eeprom_context_t.
1203:Generated_Source\PSoC4/cy_em_eeprom.c **** *
1204:Generated_Source\PSoC4/cy_em_eeprom.c **** * \return
1205:Generated_Source\PSoC4/cy_em_eeprom.c **** * error / status code. See \ref cy_en_em_eeprom_status_t.
1206:Generated_Source\PSoC4/cy_em_eeprom.c **** *
1207:Generated_Source\PSoC4/cy_em_eeprom.c **** * \note
1208:Generated_Source\PSoC4/cy_em_eeprom.c **** * This function uses a buffer of the flash row size to perform read
1209:Generated_Source\PSoC4/cy_em_eeprom.c **** * operation. For the size of the row refer to the specific PSoC device
1210:Generated_Source\PSoC4/cy_em_eeprom.c **** * datasheet.
1211:Generated_Source\PSoC4/cy_em_eeprom.c **** *
1212:Generated_Source\PSoC4/cy_em_eeprom.c **** *******************************************************************************/
1213:Generated_Source\PSoC4/cy_em_eeprom.c **** static cy_en_em_eeprom_status_t CheckCrcAndCopy(uint32 startAddr,
  27              		.loc 1 1213 0
  28              		.cfi_startproc
  29              		@ args = 8, pretend = 0, frame = 64
  30              		@ frame_needed = 0, uses_anonymous_args = 0
  31              	.LVL0:
  32 0000 F0B5     		push	{r4, r5, r6, r7, lr}
  33              		.cfi_def_cfa_offset 20
  34              		.cfi_offset 4, -20
  35              		.cfi_offset 5, -16
  36              		.cfi_offset 6, -12
  37              		.cfi_offset 7, -8
  38              		.cfi_offset 14, -4
  39 0002 5646     		mov	r6, r10
  40 0004 4D46     		mov	r5, r9
  41 0006 4446     		mov	r4, r8
ARM GAS  C:\Users\young\AppData\Local\Temp\ccZHlxL6.s 			page 23


  42 0008 5F46     		mov	r7, fp
  43 000a F0B4     		push	{r4, r5, r6, r7}
  44              		.cfi_def_cfa_offset 36
  45              		.cfi_offset 8, -36
  46              		.cfi_offset 9, -32
  47              		.cfi_offset 10, -28
  48              		.cfi_offset 11, -24
  49 000c 0600     		movs	r6, r0
  50 000e 91B0     		sub	sp, sp, #68
  51              		.cfi_def_cfa_offset 104
  52              		.loc 1 1213 0
  53 0010 9346     		mov	fp, r2
  54 0012 9946     		mov	r9, r3
1214:Generated_Source\PSoC4/cy_em_eeprom.c ****                                                 uint32 dstAddr,
1215:Generated_Source\PSoC4/cy_em_eeprom.c ****                                                 uint32 rowOffset,
1216:Generated_Source\PSoC4/cy_em_eeprom.c ****                                                 uint32 numBytes,
1217:Generated_Source\PSoC4/cy_em_eeprom.c ****                                                 cy_stc_eeprom_context_t * context)
1218:Generated_Source\PSoC4/cy_em_eeprom.c **** {
1219:Generated_Source\PSoC4/cy_em_eeprom.c ****     cy_en_em_eeprom_status_t ret;
1220:Generated_Source\PSoC4/cy_em_eeprom.c ****     uint32 writeRamBuffer[CY_EM_EEPROM_FLASH_SIZEOF_ROW / CY_EM_EEPROM_U32_DIV];
1221:Generated_Source\PSoC4/cy_em_eeprom.c **** 
1222:Generated_Source\PSoC4/cy_em_eeprom.c ****     /* Calculate the row address in the EEPROM's redundant copy */
1223:Generated_Source\PSoC4/cy_em_eeprom.c ****     uint32 rcStartRowAddr = (startAddr - context->userFlashStartAddr) + context->wlEndAddr;
  55              		.loc 1 1223 0
  56 0014 1B9A     		ldr	r2, [sp, #108]
  57              	.LVL1:
  58 0016 1A9B     		ldr	r3, [sp, #104]
  59              	.LVL2:
1213:Generated_Source\PSoC4/cy_em_eeprom.c ****                                                 uint32 dstAddr,
  60              		.loc 1 1213 0
  61 0018 8A46     		mov	r10, r1
  62              		.loc 1 1223 0
  63 001a 991A     		subs	r1, r3, r2
  64              	.LVL3:
1224:Generated_Source\PSoC4/cy_em_eeprom.c **** 
1225:Generated_Source\PSoC4/cy_em_eeprom.c ****     /* Check the row data CRC in the EEPROM */
1226:Generated_Source\PSoC4/cy_em_eeprom.c ****     if((*(uint32 *)(startAddr + CY_EM_EEPROM_HEADER_CHECKSUM_OFFSET)) ==
  65              		.loc 1 1226 0
  66 001c C369     		ldr	r3, [r0, #28]
1213:Generated_Source\PSoC4/cy_em_eeprom.c ****                                                 uint32 dstAddr,
  67              		.loc 1 1213 0
  68 001e 0400     		movs	r4, r0
1223:Generated_Source\PSoC4/cy_em_eeprom.c **** 
  69              		.loc 1 1223 0
  70 0020 0918     		adds	r1, r1, r0
  71              	.LVL4:
  72              		.loc 1 1226 0
  73 0022 9846     		mov	r8, r3
  74 0024 4036     		adds	r6, r6, #64
1227:Generated_Source\PSoC4/cy_em_eeprom.c ****         ((uint32) CalcChecksum((uint8 *)(startAddr + CY_EM_EEPROM_EEPROM_DATA_OFFSET),
  75              		.loc 1 1227 0
  76 0026 2030     		adds	r0, r0, #32
  77              	.LVL5:
  78 0028 FF25     		movs	r5, #255
  79              	.LBB50:
  80              	.LBB51:
 934:Generated_Source\PSoC4/cy_em_eeprom.c ****         }
ARM GAS  C:\Users\young\AppData\Local\Temp\ccZHlxL6.s 			page 24


  81              		.loc 1 934 0
  82 002a 3122     		movs	r2, #49
  83 002c 39E0     		b	.L18
  84              	.LVL6:
  85              	.L3:
  86 002e 5D00     		lsls	r5, r3, #1
  87 0030 EFB2     		uxtb	r7, r5
  88 0032 3D00     		movs	r5, r7
  89 0034 5540     		eors	r5, r2
  90 0036 EDB2     		uxtb	r5, r5
  91 0038 1B06     		lsls	r3, r3, #24
  92 003a 44D4     		bmi	.L4
  93              	.L53:
  94 003c 3B1C     		adds	r3, r7, #0
  95 003e 5D00     		lsls	r5, r3, #1
  96 0040 EFB2     		uxtb	r7, r5
  97 0042 3D00     		movs	r5, r7
  98 0044 5540     		eors	r5, r2
  99 0046 EDB2     		uxtb	r5, r5
 100 0048 1B06     		lsls	r3, r3, #24
 101 004a 44D4     		bmi	.L6
 102              	.L54:
 103 004c 3B1C     		adds	r3, r7, #0
 104 004e 5D00     		lsls	r5, r3, #1
 105 0050 EFB2     		uxtb	r7, r5
 106 0052 3D00     		movs	r5, r7
 107 0054 5540     		eors	r5, r2
 108 0056 EDB2     		uxtb	r5, r5
 109 0058 1B06     		lsls	r3, r3, #24
 110 005a 44D4     		bmi	.L8
 111              	.L55:
 112 005c 3B1C     		adds	r3, r7, #0
 113 005e 5D00     		lsls	r5, r3, #1
 114 0060 EFB2     		uxtb	r7, r5
 115 0062 3D00     		movs	r5, r7
 116 0064 5540     		eors	r5, r2
 117 0066 EDB2     		uxtb	r5, r5
 118 0068 1B06     		lsls	r3, r3, #24
 119 006a 44D4     		bmi	.L10
 120              	.L56:
 121 006c 3B1C     		adds	r3, r7, #0
 122 006e 5D00     		lsls	r5, r3, #1
 123 0070 EFB2     		uxtb	r7, r5
 124 0072 3D00     		movs	r5, r7
 125 0074 5540     		eors	r5, r2
 126 0076 EDB2     		uxtb	r5, r5
 127 0078 1B06     		lsls	r3, r3, #24
 128 007a 44D4     		bmi	.L12
 129              	.L57:
 130 007c 3B1C     		adds	r3, r7, #0
 131 007e 5D00     		lsls	r5, r3, #1
 132 0080 EFB2     		uxtb	r7, r5
 133 0082 3D00     		movs	r5, r7
 134 0084 5540     		eors	r5, r2
 135 0086 EDB2     		uxtb	r5, r5
 136 0088 1B06     		lsls	r3, r3, #24
 137 008a 44D4     		bmi	.L50
ARM GAS  C:\Users\young\AppData\Local\Temp\ccZHlxL6.s 			page 25


 138              	.L15:
 139 008c 7B00     		lsls	r3, r7, #1
 140 008e DBB2     		uxtb	r3, r3
 141 0090 1D00     		movs	r5, r3
 142 0092 5540     		eors	r5, r2
 143 0094 EDB2     		uxtb	r5, r5
 144 0096 3F06     		lsls	r7, r7, #24
 145 0098 45D4     		bmi	.L51
 146              	.L17:
 147 009a 0130     		adds	r0, r0, #1
 148 009c DDB2     		uxtb	r5, r3
 149              	.LVL7:
 929:Generated_Source\PSoC4/cy_em_eeprom.c ****     {
 150              		.loc 1 929 0
 151 009e 8642     		cmp	r6, r0
 152 00a0 46D0     		beq	.L52
 153              	.LVL8:
 154              	.L18:
 931:Generated_Source\PSoC4/cy_em_eeprom.c ****         for (i = 0u; i < CY_EM_EEPROM_CRC8_POLYNOM_LEN; i++)
 155              		.loc 1 931 0
 156 00a2 0378     		ldrb	r3, [r0]
 157 00a4 6B40     		eors	r3, r5
 934:Generated_Source\PSoC4/cy_em_eeprom.c ****         }
 158              		.loc 1 934 0
 159 00a6 5FB2     		sxtb	r7, r3
 160 00a8 5B00     		lsls	r3, r3, #1
 161 00aa DBB2     		uxtb	r3, r3
 162 00ac 1D00     		movs	r5, r3
 163 00ae 5540     		eors	r5, r2
 164 00b0 EDB2     		uxtb	r5, r5
 165 00b2 002F     		cmp	r7, #0
 166 00b4 BBDA     		bge	.L3
 167 00b6 2B1C     		adds	r3, r5, #0
 168 00b8 5D00     		lsls	r5, r3, #1
 169 00ba EFB2     		uxtb	r7, r5
 170 00bc 3D00     		movs	r5, r7
 171 00be 5540     		eors	r5, r2
 172 00c0 EDB2     		uxtb	r5, r5
 173 00c2 1B06     		lsls	r3, r3, #24
 174 00c4 BAD5     		bpl	.L53
 175              	.L4:
 176 00c6 2B1C     		adds	r3, r5, #0
 177 00c8 5D00     		lsls	r5, r3, #1
 178 00ca EFB2     		uxtb	r7, r5
 179 00cc 3D00     		movs	r5, r7
 180 00ce 5540     		eors	r5, r2
 181 00d0 EDB2     		uxtb	r5, r5
 182 00d2 1B06     		lsls	r3, r3, #24
 183 00d4 BAD5     		bpl	.L54
 184              	.L6:
 185 00d6 2B1C     		adds	r3, r5, #0
 186 00d8 5D00     		lsls	r5, r3, #1
 187 00da EFB2     		uxtb	r7, r5
 188 00dc 3D00     		movs	r5, r7
 189 00de 5540     		eors	r5, r2
 190 00e0 EDB2     		uxtb	r5, r5
 191 00e2 1B06     		lsls	r3, r3, #24
ARM GAS  C:\Users\young\AppData\Local\Temp\ccZHlxL6.s 			page 26


 192 00e4 BAD5     		bpl	.L55
 193              	.L8:
 194 00e6 2B1C     		adds	r3, r5, #0
 195 00e8 5D00     		lsls	r5, r3, #1
 196 00ea EFB2     		uxtb	r7, r5
 197 00ec 3D00     		movs	r5, r7
 198 00ee 5540     		eors	r5, r2
 199 00f0 EDB2     		uxtb	r5, r5
 200 00f2 1B06     		lsls	r3, r3, #24
 201 00f4 BAD5     		bpl	.L56
 202              	.L10:
 203 00f6 2B1C     		adds	r3, r5, #0
 204 00f8 5D00     		lsls	r5, r3, #1
 205 00fa EFB2     		uxtb	r7, r5
 206 00fc 3D00     		movs	r5, r7
 207 00fe 5540     		eors	r5, r2
 208 0100 EDB2     		uxtb	r5, r5
 209 0102 1B06     		lsls	r3, r3, #24
 210 0104 BAD5     		bpl	.L57
 211              	.L12:
 212 0106 2B1C     		adds	r3, r5, #0
 213 0108 5D00     		lsls	r5, r3, #1
 214 010a EFB2     		uxtb	r7, r5
 215 010c 3D00     		movs	r5, r7
 216 010e 5540     		eors	r5, r2
 217 0110 EDB2     		uxtb	r5, r5
 218 0112 1B06     		lsls	r3, r3, #24
 219 0114 BAD5     		bpl	.L15
 220              	.L50:
 221 0116 2F1C     		adds	r7, r5, #0
 222 0118 7B00     		lsls	r3, r7, #1
 223 011a DBB2     		uxtb	r3, r3
 224 011c 1D00     		movs	r5, r3
 225 011e 5540     		eors	r5, r2
 226 0120 EDB2     		uxtb	r5, r5
 227 0122 3F06     		lsls	r7, r7, #24
 228 0124 B9D5     		bpl	.L17
 229              	.L51:
 230 0126 2B1C     		adds	r3, r5, #0
 231 0128 0130     		adds	r0, r0, #1
 232 012a DDB2     		uxtb	r5, r3
 233              	.LVL9:
 929:Generated_Source\PSoC4/cy_em_eeprom.c ****     {
 234              		.loc 1 929 0
 235 012c 8642     		cmp	r6, r0
 236 012e B8D1     		bne	.L18
 237              	.LVL10:
 238              	.L52:
 239              	.LBE51:
 240              	.LBE50:
1226:Generated_Source\PSoC4/cy_em_eeprom.c ****         ((uint32) CalcChecksum((uint8 *)(startAddr + CY_EM_EEPROM_EEPROM_DATA_OFFSET),
 241              		.loc 1 1226 0
 242 0130 A845     		cmp	r8, r5
 243 0132 00D1     		bne	.LCB237
 244 0134 93E0     		b	.L58	@long jump
 245              	.LCB237:
 246              	.LVL11:
ARM GAS  C:\Users\young\AppData\Local\Temp\ccZHlxL6.s 			page 27


 247 0136 0E00     		movs	r6, r1
1228:Generated_Source\PSoC4/cy_em_eeprom.c ****             CY_EM_EEPROM_EEPROM_DATA_LEN)))
1229:Generated_Source\PSoC4/cy_em_eeprom.c ****     {
1230:Generated_Source\PSoC4/cy_em_eeprom.c ****         (void)memcpy((void *)(dstAddr), (void *)(startAddr + rowOffset), numBytes);
1231:Generated_Source\PSoC4/cy_em_eeprom.c **** 
1232:Generated_Source\PSoC4/cy_em_eeprom.c ****         ret = CY_EM_EEPROM_SUCCESS;
1233:Generated_Source\PSoC4/cy_em_eeprom.c ****     }
1234:Generated_Source\PSoC4/cy_em_eeprom.c ****     /* Check the row data CRC in the EEPROM's redundant copy */
1235:Generated_Source\PSoC4/cy_em_eeprom.c ****     else if((*(uint32 *)(rcStartRowAddr + CY_EM_EEPROM_HEADER_CHECKSUM_OFFSET)) ==
1236:Generated_Source\PSoC4/cy_em_eeprom.c ****             ((uint32) CalcChecksum((uint8 *)(rcStartRowAddr + CY_EM_EEPROM_EEPROM_DATA_OFFSET),
 248              		.loc 1 1236 0
 249 0138 0800     		movs	r0, r1
1235:Generated_Source\PSoC4/cy_em_eeprom.c ****             ((uint32) CalcChecksum((uint8 *)(rcStartRowAddr + CY_EM_EEPROM_EEPROM_DATA_OFFSET),
 250              		.loc 1 1235 0
 251 013a CB69     		ldr	r3, [r1, #28]
 252 013c 4036     		adds	r6, r6, #64
 253 013e 9846     		mov	r8, r3
 254              		.loc 1 1236 0
 255 0140 2030     		adds	r0, r0, #32
 256              	.LVL12:
 257 0142 FF25     		movs	r5, #255
 258              	.LBB52:
 259              	.LBB53:
 934:Generated_Source\PSoC4/cy_em_eeprom.c ****         }
 260              		.loc 1 934 0
 261 0144 3122     		movs	r2, #49
 262 0146 39E0     		b	.L37
 263              	.LVL13:
 264              	.L22:
 265 0148 5D00     		lsls	r5, r3, #1
 266 014a EFB2     		uxtb	r7, r5
 267 014c 3D00     		movs	r5, r7
 268 014e 5540     		eors	r5, r2
 269 0150 EDB2     		uxtb	r5, r5
 270 0152 1B06     		lsls	r3, r3, #24
 271 0154 44D4     		bmi	.L23
 272              	.L62:
 273 0156 3B1C     		adds	r3, r7, #0
 274 0158 5D00     		lsls	r5, r3, #1
 275 015a EFB2     		uxtb	r7, r5
 276 015c 3D00     		movs	r5, r7
 277 015e 5540     		eors	r5, r2
 278 0160 EDB2     		uxtb	r5, r5
 279 0162 1B06     		lsls	r3, r3, #24
 280 0164 44D4     		bmi	.L25
 281              	.L63:
 282 0166 3B1C     		adds	r3, r7, #0
 283 0168 5D00     		lsls	r5, r3, #1
 284 016a EFB2     		uxtb	r7, r5
 285 016c 3D00     		movs	r5, r7
 286 016e 5540     		eors	r5, r2
 287 0170 EDB2     		uxtb	r5, r5
 288 0172 1B06     		lsls	r3, r3, #24
 289 0174 44D4     		bmi	.L27
 290              	.L64:
 291 0176 3B1C     		adds	r3, r7, #0
 292 0178 5D00     		lsls	r5, r3, #1
ARM GAS  C:\Users\young\AppData\Local\Temp\ccZHlxL6.s 			page 28


 293 017a EFB2     		uxtb	r7, r5
 294 017c 3D00     		movs	r5, r7
 295 017e 5540     		eors	r5, r2
 296 0180 EDB2     		uxtb	r5, r5
 297 0182 1B06     		lsls	r3, r3, #24
 298 0184 44D4     		bmi	.L29
 299              	.L65:
 300 0186 3B1C     		adds	r3, r7, #0
 301 0188 5D00     		lsls	r5, r3, #1
 302 018a EFB2     		uxtb	r7, r5
 303 018c 3D00     		movs	r5, r7
 304 018e 5540     		eors	r5, r2
 305 0190 EDB2     		uxtb	r5, r5
 306 0192 1B06     		lsls	r3, r3, #24
 307 0194 44D4     		bmi	.L31
 308              	.L66:
 309 0196 3B1C     		adds	r3, r7, #0
 310 0198 5D00     		lsls	r5, r3, #1
 311 019a EFB2     		uxtb	r7, r5
 312 019c 3D00     		movs	r5, r7
 313 019e 5540     		eors	r5, r2
 314 01a0 EDB2     		uxtb	r5, r5
 315 01a2 1B06     		lsls	r3, r3, #24
 316 01a4 44D4     		bmi	.L59
 317              	.L34:
 318 01a6 7B00     		lsls	r3, r7, #1
 319 01a8 DBB2     		uxtb	r3, r3
 320 01aa 1D00     		movs	r5, r3
 321 01ac 5540     		eors	r5, r2
 322 01ae EDB2     		uxtb	r5, r5
 323 01b0 3F06     		lsls	r7, r7, #24
 324 01b2 45D4     		bmi	.L60
 325              	.L36:
 326 01b4 0130     		adds	r0, r0, #1
 327 01b6 DDB2     		uxtb	r5, r3
 328              	.LVL14:
 929:Generated_Source\PSoC4/cy_em_eeprom.c ****     {
 329              		.loc 1 929 0
 330 01b8 8642     		cmp	r6, r0
 331 01ba 46D0     		beq	.L61
 332              	.LVL15:
 333              	.L37:
 931:Generated_Source\PSoC4/cy_em_eeprom.c ****         for (i = 0u; i < CY_EM_EEPROM_CRC8_POLYNOM_LEN; i++)
 334              		.loc 1 931 0
 335 01bc 0378     		ldrb	r3, [r0]
 336 01be 6B40     		eors	r3, r5
 934:Generated_Source\PSoC4/cy_em_eeprom.c ****         }
 337              		.loc 1 934 0
 338 01c0 5FB2     		sxtb	r7, r3
 339 01c2 5B00     		lsls	r3, r3, #1
 340 01c4 DBB2     		uxtb	r3, r3
 341 01c6 1D00     		movs	r5, r3
 342 01c8 5540     		eors	r5, r2
 343 01ca EDB2     		uxtb	r5, r5
 344 01cc 002F     		cmp	r7, #0
 345 01ce BBDA     		bge	.L22
 346 01d0 2B1C     		adds	r3, r5, #0
ARM GAS  C:\Users\young\AppData\Local\Temp\ccZHlxL6.s 			page 29


 347 01d2 5D00     		lsls	r5, r3, #1
 348 01d4 EFB2     		uxtb	r7, r5
 349 01d6 3D00     		movs	r5, r7
 350 01d8 5540     		eors	r5, r2
 351 01da EDB2     		uxtb	r5, r5
 352 01dc 1B06     		lsls	r3, r3, #24
 353 01de BAD5     		bpl	.L62
 354              	.L23:
 355 01e0 2B1C     		adds	r3, r5, #0
 356 01e2 5D00     		lsls	r5, r3, #1
 357 01e4 EFB2     		uxtb	r7, r5
 358 01e6 3D00     		movs	r5, r7
 359 01e8 5540     		eors	r5, r2
 360 01ea EDB2     		uxtb	r5, r5
 361 01ec 1B06     		lsls	r3, r3, #24
 362 01ee BAD5     		bpl	.L63
 363              	.L25:
 364 01f0 2B1C     		adds	r3, r5, #0
 365 01f2 5D00     		lsls	r5, r3, #1
 366 01f4 EFB2     		uxtb	r7, r5
 367 01f6 3D00     		movs	r5, r7
 368 01f8 5540     		eors	r5, r2
 369 01fa EDB2     		uxtb	r5, r5
 370 01fc 1B06     		lsls	r3, r3, #24
 371 01fe BAD5     		bpl	.L64
 372              	.L27:
 373 0200 2B1C     		adds	r3, r5, #0
 374 0202 5D00     		lsls	r5, r3, #1
 375 0204 EFB2     		uxtb	r7, r5
 376 0206 3D00     		movs	r5, r7
 377 0208 5540     		eors	r5, r2
 378 020a EDB2     		uxtb	r5, r5
 379 020c 1B06     		lsls	r3, r3, #24
 380 020e BAD5     		bpl	.L65
 381              	.L29:
 382 0210 2B1C     		adds	r3, r5, #0
 383 0212 5D00     		lsls	r5, r3, #1
 384 0214 EFB2     		uxtb	r7, r5
 385 0216 3D00     		movs	r5, r7
 386 0218 5540     		eors	r5, r2
 387 021a EDB2     		uxtb	r5, r5
 388 021c 1B06     		lsls	r3, r3, #24
 389 021e BAD5     		bpl	.L66
 390              	.L31:
 391 0220 2B1C     		adds	r3, r5, #0
 392 0222 5D00     		lsls	r5, r3, #1
 393 0224 EFB2     		uxtb	r7, r5
 394 0226 3D00     		movs	r5, r7
 395 0228 5540     		eors	r5, r2
 396 022a EDB2     		uxtb	r5, r5
 397 022c 1B06     		lsls	r3, r3, #24
 398 022e BAD5     		bpl	.L34
 399              	.L59:
 400 0230 2F1C     		adds	r7, r5, #0
 401 0232 7B00     		lsls	r3, r7, #1
 402 0234 DBB2     		uxtb	r3, r3
 403 0236 1D00     		movs	r5, r3
ARM GAS  C:\Users\young\AppData\Local\Temp\ccZHlxL6.s 			page 30


 404 0238 5540     		eors	r5, r2
 405 023a EDB2     		uxtb	r5, r5
 406 023c 3F06     		lsls	r7, r7, #24
 407 023e B9D5     		bpl	.L36
 408              	.L60:
 409 0240 2B1C     		adds	r3, r5, #0
 410 0242 0130     		adds	r0, r0, #1
 411 0244 DDB2     		uxtb	r5, r3
 412              	.LVL16:
 929:Generated_Source\PSoC4/cy_em_eeprom.c ****     {
 413              		.loc 1 929 0
 414 0246 8642     		cmp	r6, r0
 415 0248 B8D1     		bne	.L37
 416              	.LVL17:
 417              	.L61:
 418              	.LBE53:
 419              	.LBE52:
1237:Generated_Source\PSoC4/cy_em_eeprom.c ****                 CY_EM_EEPROM_EEPROM_DATA_LEN)))
1238:Generated_Source\PSoC4/cy_em_eeprom.c ****     {
1239:Generated_Source\PSoC4/cy_em_eeprom.c ****         /* Copy the redundant copy row to RAM buffer to avoid read while write (RWW)
1240:Generated_Source\PSoC4/cy_em_eeprom.c ****         * flash exception. The RWW occurs while trying to write and read the data from
1241:Generated_Source\PSoC4/cy_em_eeprom.c ****         * same flash macro.
1242:Generated_Source\PSoC4/cy_em_eeprom.c ****         */
1243:Generated_Source\PSoC4/cy_em_eeprom.c ****         (void)memcpy((void *)(writeRamBuffer), (void *)(rcStartRowAddr), CY_EM_EEPROM_FLASH_SIZEOF_
1244:Generated_Source\PSoC4/cy_em_eeprom.c **** 
1245:Generated_Source\PSoC4/cy_em_eeprom.c ****         /* Restore bad row data from the RAM buffer */
1246:Generated_Source\PSoC4/cy_em_eeprom.c ****         ret = WriteRow(startAddr, (uint32 *)writeRamBuffer, context);
1247:Generated_Source\PSoC4/cy_em_eeprom.c **** 
1248:Generated_Source\PSoC4/cy_em_eeprom.c ****         if(CY_EM_EEPROM_SUCCESS == ret)
1249:Generated_Source\PSoC4/cy_em_eeprom.c ****         {
1250:Generated_Source\PSoC4/cy_em_eeprom.c ****             (void)memcpy((void *)(dstAddr), (void *)(writeRamBuffer + rowOffset), numBytes);
1251:Generated_Source\PSoC4/cy_em_eeprom.c ****         }
1252:Generated_Source\PSoC4/cy_em_eeprom.c ****     }
1253:Generated_Source\PSoC4/cy_em_eeprom.c ****     else
1254:Generated_Source\PSoC4/cy_em_eeprom.c ****     {
1255:Generated_Source\PSoC4/cy_em_eeprom.c ****         ret = CY_EM_EEPROM_BAD_CHECKSUM;
 420              		.loc 1 1255 0
 421 024a 0220     		movs	r0, #2
1235:Generated_Source\PSoC4/cy_em_eeprom.c ****             ((uint32) CalcChecksum((uint8 *)(rcStartRowAddr + CY_EM_EEPROM_EEPROM_DATA_OFFSET),
 422              		.loc 1 1235 0
 423 024c 4545     		cmp	r5, r8
 424 024e 0ED0     		beq	.L67
 425              	.LVL18:
 426              	.L42:
1256:Generated_Source\PSoC4/cy_em_eeprom.c ****     }
1257:Generated_Source\PSoC4/cy_em_eeprom.c **** 
1258:Generated_Source\PSoC4/cy_em_eeprom.c ****     return(ret);
1259:Generated_Source\PSoC4/cy_em_eeprom.c **** }
 427              		.loc 1 1259 0
 428 0250 11B0     		add	sp, sp, #68
 429              		@ sp needed
 430              	.LVL19:
 431              	.LVL20:
 432              	.LVL21:
 433              	.LVL22:
 434 0252 3CBC     		pop	{r2, r3, r4, r5}
 435 0254 9046     		mov	r8, r2
ARM GAS  C:\Users\young\AppData\Local\Temp\ccZHlxL6.s 			page 31


 436 0256 9946     		mov	r9, r3
 437 0258 A246     		mov	r10, r4
 438 025a AB46     		mov	fp, r5
 439 025c F0BD     		pop	{r4, r5, r6, r7, pc}
 440              	.LVL23:
 441              	.L58:
1230:Generated_Source\PSoC4/cy_em_eeprom.c **** 
 442              		.loc 1 1230 0
 443 025e 2100     		movs	r1, r4
 444              	.LVL24:
 445 0260 4A46     		mov	r2, r9
 446 0262 5944     		add	r1, r1, fp
 447 0264 5046     		mov	r0, r10
 448 0266 FFF7FEFF 		bl	memcpy
 449              	.LVL25:
1232:Generated_Source\PSoC4/cy_em_eeprom.c ****     }
 450              		.loc 1 1232 0
 451 026a 0020     		movs	r0, #0
 452 026c F0E7     		b	.L42
 453              	.LVL26:
 454              	.L67:
1243:Generated_Source\PSoC4/cy_em_eeprom.c **** 
 455              		.loc 1 1243 0
 456 026e 4022     		movs	r2, #64
 457 0270 6846     		mov	r0, sp
 458 0272 FFF7FEFF 		bl	memcpy
 459              	.LVL27:
 460              	.LBB54:
 461              	.LBB55:
1017:Generated_Source\PSoC4/cy_em_eeprom.c ****     #else
 462              		.loc 1 1017 0
 463 0276 A009     		lsrs	r0, r4, #6
 464              	.LVL28:
 465 0278 6946     		mov	r1, sp
 466 027a FFF7FEFF 		bl	CySysFlashWriteRow
 467              	.LVL29:
1034:Generated_Source\PSoC4/cy_em_eeprom.c ****     {
 468              		.loc 1 1034 0
 469 027e 0028     		cmp	r0, #0
 470 0280 01D0     		beq	.L38
 995:Generated_Source\PSoC4/cy_em_eeprom.c **** #if (!CY_PSOC6)
 471              		.loc 1 995 0
 472 0282 0420     		movs	r0, #4
 473              	.LVL30:
 474 0284 E4E7     		b	.L42
 475              	.LVL31:
 476              	.L38:
 477              	.LBE55:
 478              	.LBE54:
1250:Generated_Source\PSoC4/cy_em_eeprom.c ****         }
 479              		.loc 1 1250 0
 480 0286 5B46     		mov	r3, fp
 481 0288 9900     		lsls	r1, r3, #2
 482 028a 6944     		add	r1, r1, sp
 483 028c 4A46     		mov	r2, r9
 484 028e 5046     		mov	r0, r10
 485 0290 FFF7FEFF 		bl	memcpy
ARM GAS  C:\Users\young\AppData\Local\Temp\ccZHlxL6.s 			page 32


 486              	.LVL32:
 487 0294 0020     		movs	r0, #0
 488              	.LVL33:
 489 0296 DBE7     		b	.L42
 490              		.cfi_endproc
 491              	.LFE17:
 492              		.size	CheckCrcAndCopy.isra.2, .-CheckCrcAndCopy.isra.2
 493              		.section	.text.Cy_Em_EEPROM_Init,"ax",%progbits
 494              		.align	2
 495              		.global	Cy_Em_EEPROM_Init
 496              		.code	16
 497              		.thumb_func
 498              		.type	Cy_Em_EEPROM_Init, %function
 499              	Cy_Em_EEPROM_Init:
 500              	.LFB0:
  96:Generated_Source\PSoC4/cy_em_eeprom.c ****     cy_en_em_eeprom_status_t ret = CY_EM_EEPROM_BAD_PARAM;
 501              		.loc 1 96 0
 502              		.cfi_startproc
 503              		@ args = 0, pretend = 0, frame = 64
 504              		@ frame_needed = 0, uses_anonymous_args = 0
 505              	.LVL34:
 506 0000 F0B5     		push	{r4, r5, r6, r7, lr}
 507              		.cfi_def_cfa_offset 20
 508              		.cfi_offset 4, -20
 509              		.cfi_offset 5, -16
 510              		.cfi_offset 6, -12
 511              		.cfi_offset 7, -8
 512              		.cfi_offset 14, -4
 513 0002 4746     		mov	r7, r8
 514 0004 80B4     		push	{r7}
 515              		.cfi_def_cfa_offset 24
 516              		.cfi_offset 8, -24
 517 0006 0300     		movs	r3, r0
 518 0008 90B0     		sub	sp, sp, #64
 519              		.cfi_def_cfa_offset 88
  96:Generated_Source\PSoC4/cy_em_eeprom.c ****     cy_en_em_eeprom_status_t ret = CY_EM_EEPROM_BAD_PARAM;
 520              		.loc 1 96 0
 521 000a 0E1E     		subs	r6, r1, #0
  99:Generated_Source\PSoC4/cy_em_eeprom.c ****         (config->wearLevelingFactor <= CY_EM_EEPROM_MAX_WEAR_LEVELING_FACTOR) && (config->eepromSiz
 522              		.loc 1 99 0
 523 000c 00D1     		bne	.LCB553
 524 000e 1AE1     		b	.L123	@long jump
 525              	.LCB553:
  99:Generated_Source\PSoC4/cy_em_eeprom.c ****         (config->wearLevelingFactor <= CY_EM_EEPROM_MAX_WEAR_LEVELING_FACTOR) && (config->eepromSiz
 526              		.loc 1 99 0 is_stmt 0 discriminator 1
 527 0010 0028     		cmp	r0, #0
 528 0012 00D1     		bne	.LCB555
 529 0014 17E1     		b	.L123	@long jump
 530              	.LCB555:
  99:Generated_Source\PSoC4/cy_em_eeprom.c ****         (config->wearLevelingFactor <= CY_EM_EEPROM_MAX_WEAR_LEVELING_FACTOR) && (config->eepromSiz
 531              		.loc 1 99 0 discriminator 2
 532 0016 C268     		ldr	r2, [r0, #12]
 533 0018 002A     		cmp	r2, #0
 534 001a 00D1     		bne	.LCB558
 535 001c 13E1     		b	.L123	@long jump
 536              	.LCB558:
 100:Generated_Source\PSoC4/cy_em_eeprom.c ****     {
ARM GAS  C:\Users\young\AppData\Local\Temp\ccZHlxL6.s 			page 33


 537              		.loc 1 100 0 is_stmt 1 discriminator 3
 538 001e 4768     		ldr	r7, [r0, #4]
  97:Generated_Source\PSoC4/cy_em_eeprom.c **** 
 539              		.loc 1 97 0 discriminator 3
 540 0020 0120     		movs	r0, #1
 541              	.LVL35:
  99:Generated_Source\PSoC4/cy_em_eeprom.c ****         (config->wearLevelingFactor <= CY_EM_EEPROM_MAX_WEAR_LEVELING_FACTOR) && (config->eepromSiz
 542              		.loc 1 99 0 discriminator 3
 543 0022 0A2F     		cmp	r7, #10
 544 0024 00D9     		bls	.LCB563
 545 0026 09E1     		b	.L107	@long jump
 546              	.LCB563:
 100:Generated_Source\PSoC4/cy_em_eeprom.c ****     {
 547              		.loc 1 100 0
 548 0028 1968     		ldr	r1, [r3]
 549              	.LVL36:
 550 002a 0029     		cmp	r1, #0
 551 002c 00D1     		bne	.LCB567
 552 002e 05E1     		b	.L107	@long jump
 553              	.LCB567:
 554              	.LBB72:
 555              	.LBB73:
 964:Generated_Source\PSoC4/cy_em_eeprom.c ****     {
 556              		.loc 1 964 0
 557 0030 1E30     		adds	r0, r0, #30
 558 0032 0500     		movs	r5, r0
 559 0034 0D40     		ands	r5, r1
 560 0036 6C1E     		subs	r4, r5, #1
 561 0038 A541     		sbcs	r5, r5, r4
 562 003a AC46     		mov	ip, r5
 563 003c 4C09     		lsrs	r4, r1, #5
 564 003e A444     		add	ip, ip, r4
 565 0040 1C7A     		ldrb	r4, [r3, #8]
 566 0042 BD01     		lsls	r5, r7, #6
 567 0044 0134     		adds	r4, r4, #1
 568 0046 6C43     		muls	r4, r5
 569 0048 6546     		mov	r5, ip
 570 004a 6C43     		muls	r4, r5
 571 004c A218     		adds	r2, r4, r2
 572 004e 8024     		movs	r4, #128
 573 0050 E401     		lsls	r4, r4, #7
 574 0052 A242     		cmp	r2, r4
 575 0054 00D9     		bls	.LCB587
 576 0056 F8E0     		b	.L124	@long jump
 577              	.LCB587:
 578              	.LVL37:
 579              	.LBE73:
 580              	.LBE72:
 107:Generated_Source\PSoC4/cy_em_eeprom.c ****             context->wearLevelingFactor = config->wearLevelingFactor;
 581              		.loc 1 107 0
 582 0058 F160     		str	r1, [r6, #12]
 108:Generated_Source\PSoC4/cy_em_eeprom.c ****             context->redundantCopy = config->redundantCopy;
 583              		.loc 1 108 0
 584 005a 3761     		str	r7, [r6, #16]
 109:Generated_Source\PSoC4/cy_em_eeprom.c ****             context->blockingWrite = config->blockingWrite;
 585              		.loc 1 109 0
 586 005c 1A7A     		ldrb	r2, [r3, #8]
ARM GAS  C:\Users\young\AppData\Local\Temp\ccZHlxL6.s 			page 34


 587 005e 3275     		strb	r2, [r6, #20]
 588 0060 9446     		mov	ip, r2
 110:Generated_Source\PSoC4/cy_em_eeprom.c ****             context->userFlashStartAddr = config->userFlashStartAddr;
 589              		.loc 1 110 0
 590 0062 5A7A     		ldrb	r2, [r3, #9]
 591 0064 7275     		strb	r2, [r6, #21]
 113:Generated_Source\PSoC4/cy_em_eeprom.c ****             context->wlEndAddr = ((CY_EM_EEPROM_GET_EEPROM_SIZE(context->numberOfRows) * config->we
 592              		.loc 1 113 0
 593 0066 1968     		ldr	r1, [r3]
 111:Generated_Source\PSoC4/cy_em_eeprom.c ****             /* Store frequently used data for internal use */
 594              		.loc 1 111 0
 595 0068 DD68     		ldr	r5, [r3, #12]
 113:Generated_Source\PSoC4/cy_em_eeprom.c ****             context->wlEndAddr = ((CY_EM_EEPROM_GET_EEPROM_SIZE(context->numberOfRows) * config->we
 596              		.loc 1 113 0
 597 006a 0840     		ands	r0, r1
 598 006c 0400     		movs	r4, r0
 599 006e 601E     		subs	r0, r4, #1
 600 0070 8441     		sbcs	r4, r4, r0
 114:Generated_Source\PSoC4/cy_em_eeprom.c ****                     config->userFlashStartAddr);
 601              		.loc 1 114 0
 602 0072 5B68     		ldr	r3, [r3, #4]
 603              	.LVL38:
 113:Generated_Source\PSoC4/cy_em_eeprom.c ****             context->wlEndAddr = ((CY_EM_EEPROM_GET_EEPROM_SIZE(context->numberOfRows) * config->we
 604              		.loc 1 113 0
 605 0074 4909     		lsrs	r1, r1, #5
 606 0076 6218     		adds	r2, r4, r1
 114:Generated_Source\PSoC4/cy_em_eeprom.c ****                     config->userFlashStartAddr);
 607              		.loc 1 114 0
 608 0078 9B01     		lsls	r3, r3, #6
 609 007a 5343     		muls	r3, r2
 113:Generated_Source\PSoC4/cy_em_eeprom.c ****             context->wlEndAddr = ((CY_EM_EEPROM_GET_EEPROM_SIZE(context->numberOfRows) * config->we
 610              		.loc 1 113 0
 611 007c 7260     		str	r2, [r6, #4]
 612              	.LBB75:
 613              	.LBB76:
 767:Generated_Source\PSoC4/cy_em_eeprom.c ****     {
 614              		.loc 1 767 0
 615 007e 7A43     		muls	r2, r7
 616              	.LBE76:
 617              	.LBE75:
 114:Generated_Source\PSoC4/cy_em_eeprom.c ****                     config->userFlashStartAddr);
 618              		.loc 1 114 0
 619 0080 5B19     		adds	r3, r3, r5
 111:Generated_Source\PSoC4/cy_em_eeprom.c ****             /* Store frequently used data for internal use */
 620              		.loc 1 111 0
 621 0082 B561     		str	r5, [r6, #24]
 114:Generated_Source\PSoC4/cy_em_eeprom.c ****                     config->userFlashStartAddr);
 622              		.loc 1 114 0
 623 0084 3360     		str	r3, [r6]
 624              	.LVL39:
 625              	.LBB78:
 626              	.LBB77:
 765:Generated_Source\PSoC4/cy_em_eeprom.c **** 
 627              		.loc 1 765 0
 628 0086 B560     		str	r5, [r6, #8]
 629              	.LVL40:
 767:Generated_Source\PSoC4/cy_em_eeprom.c ****     {
ARM GAS  C:\Users\young\AppData\Local\Temp\ccZHlxL6.s 			page 35


 630              		.loc 1 767 0
 631 0088 1400     		movs	r4, r2
 632 008a 2F00     		movs	r7, r5
 633 008c 002A     		cmp	r2, #0
 634 008e 0ED0     		beq	.L97
 635 0090 2B00     		movs	r3, r5
 636 0092 0022     		movs	r2, #0
 637 0094 0020     		movs	r0, #0
 638              	.LVL41:
 639              	.L72:
 769:Generated_Source\PSoC4/cy_em_eeprom.c ****         if((0u != seqNum) && (seqNum > prevSeqNum))
 640              		.loc 1 769 0
 641 0096 1968     		ldr	r1, [r3]
 642              	.LVL42:
 770:Generated_Source\PSoC4/cy_em_eeprom.c ****         {
 643              		.loc 1 770 0
 644 0098 0029     		cmp	r1, #0
 645 009a 03D0     		beq	.L71
 646 009c 8142     		cmp	r1, r0
 647 009e 01D9     		bls	.L71
 648              	.LVL43:
 776:Generated_Source\PSoC4/cy_em_eeprom.c ****         }
 649              		.loc 1 776 0
 650 00a0 0800     		movs	r0, r1
 651 00a2 B360     		str	r3, [r6, #8]
 652              	.LVL44:
 653              	.L71:
 767:Generated_Source\PSoC4/cy_em_eeprom.c ****     {
 654              		.loc 1 767 0
 655 00a4 0132     		adds	r2, r2, #1
 656              	.LVL45:
 780:Generated_Source\PSoC4/cy_em_eeprom.c ****     }
 657              		.loc 1 780 0
 658 00a6 4033     		adds	r3, r3, #64
 659              	.LVL46:
 767:Generated_Source\PSoC4/cy_em_eeprom.c ****     {
 660              		.loc 1 767 0
 661 00a8 A242     		cmp	r2, r4
 662 00aa F4D1     		bne	.L72
 663 00ac B768     		ldr	r7, [r6, #8]
 664              	.LVL47:
 665              	.L97:
 666              	.LBE77:
 667              	.LBE78:
 119:Generated_Source\PSoC4/cy_em_eeprom.c ****             {
 668              		.loc 1 119 0 discriminator 4
 669 00ae 3B68     		ldr	r3, [r7]
 670 00b0 0020     		movs	r0, #0
 671 00b2 002B     		cmp	r3, #0
 672 00b4 00D0     		beq	.LCB691
 673 00b6 C1E0     		b	.L107	@long jump
 674              	.LCB691:
 675 00b8 1800     		movs	r0, r3
 119:Generated_Source\PSoC4/cy_em_eeprom.c ****             {
 676              		.loc 1 119 0 is_stmt 0 discriminator 1
 677 00ba 6346     		mov	r3, ip
 678 00bc 002B     		cmp	r3, #0
ARM GAS  C:\Users\young\AppData\Local\Temp\ccZHlxL6.s 			page 36


 679 00be 00D1     		bne	.LCB695
 680 00c0 BCE0     		b	.L107	@long jump
 681              	.LCB695:
 682              	.LVL48:
 683              	.LBB79:
 684              	.LBB80:
1260:Generated_Source\PSoC4/cy_em_eeprom.c **** 
1261:Generated_Source\PSoC4/cy_em_eeprom.c **** 
1262:Generated_Source\PSoC4/cy_em_eeprom.c **** /*******************************************************************************
1263:Generated_Source\PSoC4/cy_em_eeprom.c **** * Function Name: GetAddresses
1264:Generated_Source\PSoC4/cy_em_eeprom.c **** ****************************************************************************//**
1265:Generated_Source\PSoC4/cy_em_eeprom.c **** *
1266:Generated_Source\PSoC4/cy_em_eeprom.c **** * Calculates the start and end address of the row's EEPROM data to be updated.
1267:Generated_Source\PSoC4/cy_em_eeprom.c **** * The start and end are not absolute addresses but a relative addresses in a
1268:Generated_Source\PSoC4/cy_em_eeprom.c **** * flash row.
1269:Generated_Source\PSoC4/cy_em_eeprom.c **** *
1270:Generated_Source\PSoC4/cy_em_eeprom.c **** * \param startAddr
1271:Generated_Source\PSoC4/cy_em_eeprom.c **** * The pointer the address where the EEPROM data start address will be returned.
1272:Generated_Source\PSoC4/cy_em_eeprom.c **** *
1273:Generated_Source\PSoC4/cy_em_eeprom.c **** * \param endAddr
1274:Generated_Source\PSoC4/cy_em_eeprom.c **** * The pointer the address where the EEPROM data end address will be returned.
1275:Generated_Source\PSoC4/cy_em_eeprom.c **** *
1276:Generated_Source\PSoC4/cy_em_eeprom.c **** * \param offset
1277:Generated_Source\PSoC4/cy_em_eeprom.c **** * The pointer the address where the calculated offset of the EEPROM header data
1278:Generated_Source\PSoC4/cy_em_eeprom.c **** * will be returned.
1279:Generated_Source\PSoC4/cy_em_eeprom.c **** *
1280:Generated_Source\PSoC4/cy_em_eeprom.c **** * \param rowNum
1281:Generated_Source\PSoC4/cy_em_eeprom.c **** * The row number that is about to be written.
1282:Generated_Source\PSoC4/cy_em_eeprom.c **** *
1283:Generated_Source\PSoC4/cy_em_eeprom.c **** * \param addr
1284:Generated_Source\PSoC4/cy_em_eeprom.c **** * The address of the EEPROM header data in the currently analyzed row that may
1285:Generated_Source\PSoC4/cy_em_eeprom.c **** * concern to the row about to be written.
1286:Generated_Source\PSoC4/cy_em_eeprom.c **** *
1287:Generated_Source\PSoC4/cy_em_eeprom.c **** * \param len
1288:Generated_Source\PSoC4/cy_em_eeprom.c **** * The length of the EEPROM header data in the currently analyzed row that may
1289:Generated_Source\PSoC4/cy_em_eeprom.c **** * concern to the row about to be written.
1290:Generated_Source\PSoC4/cy_em_eeprom.c **** *
1291:Generated_Source\PSoC4/cy_em_eeprom.c **** * \return
1292:Generated_Source\PSoC4/cy_em_eeprom.c **** * Zero indicates that the currently analyzed row has the data to be written to
1293:Generated_Source\PSoC4/cy_em_eeprom.c **** * the active EEPROM row data locations. Non zero value indicates that there is
1294:Generated_Source\PSoC4/cy_em_eeprom.c **** * no data to be written
1295:Generated_Source\PSoC4/cy_em_eeprom.c **** *
1296:Generated_Source\PSoC4/cy_em_eeprom.c **** *******************************************************************************/
1297:Generated_Source\PSoC4/cy_em_eeprom.c **** static uint32 GetAddresses(uint32 *startAddr, 
1298:Generated_Source\PSoC4/cy_em_eeprom.c ****                         uint32 *endAddr, 
1299:Generated_Source\PSoC4/cy_em_eeprom.c ****                         uint32 *offset,
1300:Generated_Source\PSoC4/cy_em_eeprom.c ****                         uint32 rowNum,
1301:Generated_Source\PSoC4/cy_em_eeprom.c ****                         uint32 addr,
1302:Generated_Source\PSoC4/cy_em_eeprom.c ****                         uint32 len)
1303:Generated_Source\PSoC4/cy_em_eeprom.c **** {
1304:Generated_Source\PSoC4/cy_em_eeprom.c ****     uint32 skip = 0u;
1305:Generated_Source\PSoC4/cy_em_eeprom.c **** 
1306:Generated_Source\PSoC4/cy_em_eeprom.c ****     *offset =0u;
1307:Generated_Source\PSoC4/cy_em_eeprom.c **** 
1308:Generated_Source\PSoC4/cy_em_eeprom.c ****     if(0u != CY_EM_EEPROM_IS_ADDR_IN_ROW_RANGE(addr, rowNum))
1309:Generated_Source\PSoC4/cy_em_eeprom.c ****     {
1310:Generated_Source\PSoC4/cy_em_eeprom.c ****         *startAddr = CY_EM_EEPROM_EEPROM_DATA_LEN + (addr % CY_EM_EEPROM_EEPROM_DATA_LEN);
ARM GAS  C:\Users\young\AppData\Local\Temp\ccZHlxL6.s 			page 37


1311:Generated_Source\PSoC4/cy_em_eeprom.c **** 
1312:Generated_Source\PSoC4/cy_em_eeprom.c ****         if(0u != CY_EM_EEPROM_IS_ADDR_IN_ROW_RANGE(addr + len, rowNum))
1313:Generated_Source\PSoC4/cy_em_eeprom.c ****         {
1314:Generated_Source\PSoC4/cy_em_eeprom.c ****             *endAddr = *startAddr + len;
1315:Generated_Source\PSoC4/cy_em_eeprom.c ****         }
1316:Generated_Source\PSoC4/cy_em_eeprom.c ****         else
1317:Generated_Source\PSoC4/cy_em_eeprom.c ****         {
1318:Generated_Source\PSoC4/cy_em_eeprom.c ****             *endAddr = CY_EM_EEPROM_FLASH_SIZEOF_ROW;
1319:Generated_Source\PSoC4/cy_em_eeprom.c ****         }
1320:Generated_Source\PSoC4/cy_em_eeprom.c ****     }
1321:Generated_Source\PSoC4/cy_em_eeprom.c ****     else
1322:Generated_Source\PSoC4/cy_em_eeprom.c ****     {
1323:Generated_Source\PSoC4/cy_em_eeprom.c **** 
1324:Generated_Source\PSoC4/cy_em_eeprom.c ****         if(0u != CY_EM_EEPROM_IS_ADDR_IN_ROW_RANGE(addr + len, rowNum))
1325:Generated_Source\PSoC4/cy_em_eeprom.c ****         {
1326:Generated_Source\PSoC4/cy_em_eeprom.c ****             *startAddr = CY_EM_EEPROM_EEPROM_DATA_LEN;
1327:Generated_Source\PSoC4/cy_em_eeprom.c ****             *endAddr = (*startAddr + len) - (*startAddr - (addr % CY_EM_EEPROM_EEPROM_DATA_LEN));
1328:Generated_Source\PSoC4/cy_em_eeprom.c ****             *offset = len - (*endAddr - *startAddr);
1329:Generated_Source\PSoC4/cy_em_eeprom.c ****         }
1330:Generated_Source\PSoC4/cy_em_eeprom.c ****         else
1331:Generated_Source\PSoC4/cy_em_eeprom.c ****         {
1332:Generated_Source\PSoC4/cy_em_eeprom.c ****             skip++;
1333:Generated_Source\PSoC4/cy_em_eeprom.c ****         }
1334:Generated_Source\PSoC4/cy_em_eeprom.c ****     }
1335:Generated_Source\PSoC4/cy_em_eeprom.c **** 
1336:Generated_Source\PSoC4/cy_em_eeprom.c ****     return (skip);
1337:Generated_Source\PSoC4/cy_em_eeprom.c **** }
1338:Generated_Source\PSoC4/cy_em_eeprom.c **** 
1339:Generated_Source\PSoC4/cy_em_eeprom.c **** 
1340:Generated_Source\PSoC4/cy_em_eeprom.c **** /*******************************************************************************
1341:Generated_Source\PSoC4/cy_em_eeprom.c **** * Function Name: FillChecksum
1342:Generated_Source\PSoC4/cy_em_eeprom.c **** ****************************************************************************//**
1343:Generated_Source\PSoC4/cy_em_eeprom.c **** *
1344:Generated_Source\PSoC4/cy_em_eeprom.c **** * Performs calculation of the checksum on each row in the Em_EEPROM and fills
1345:Generated_Source\PSoC4/cy_em_eeprom.c **** * the Em_EEPROM headers checksum field with the calculated checksums.
1346:Generated_Source\PSoC4/cy_em_eeprom.c **** *
1347:Generated_Source\PSoC4/cy_em_eeprom.c **** * \param context
1348:Generated_Source\PSoC4/cy_em_eeprom.c **** * The pointer to the EEPROM context structure.
1349:Generated_Source\PSoC4/cy_em_eeprom.c **** *
1350:Generated_Source\PSoC4/cy_em_eeprom.c **** * \return
1351:Generated_Source\PSoC4/cy_em_eeprom.c **** * error / status code. See \ref cy_en_em_eeprom_status_t.
1352:Generated_Source\PSoC4/cy_em_eeprom.c **** *
1353:Generated_Source\PSoC4/cy_em_eeprom.c **** * \theory 
1354:Generated_Source\PSoC4/cy_em_eeprom.c **** * In case if redundant copy option is used the Em_EEPROM would return bad 
1355:Generated_Source\PSoC4/cy_em_eeprom.c **** * checksum while trying to read the EEPROM rows which were not yet written by 
1356:Generated_Source\PSoC4/cy_em_eeprom.c **** * the user. E.g. any read after device reprogramming without previous Write() 
1357:Generated_Source\PSoC4/cy_em_eeprom.c **** * operation to the EEPROM would fail. This would happen because the Em_EEPROM 
1358:Generated_Source\PSoC4/cy_em_eeprom.c **** * headers checksum field values (which is zero at the moment) would not be 
1359:Generated_Source\PSoC4/cy_em_eeprom.c **** * equal to the actual data checksum. This function allows to avoid read failure
1360:Generated_Source\PSoC4/cy_em_eeprom.c **** * after device reprogramming. 
1361:Generated_Source\PSoC4/cy_em_eeprom.c **** *
1362:Generated_Source\PSoC4/cy_em_eeprom.c **** * \note
1363:Generated_Source\PSoC4/cy_em_eeprom.c **** * This function uses a buffer of the flash row size to perform read
1364:Generated_Source\PSoC4/cy_em_eeprom.c **** * operation. For the size of the row refer to the specific PSoC device
1365:Generated_Source\PSoC4/cy_em_eeprom.c **** * datasheet.
1366:Generated_Source\PSoC4/cy_em_eeprom.c **** *
1367:Generated_Source\PSoC4/cy_em_eeprom.c **** *******************************************************************************/
ARM GAS  C:\Users\young\AppData\Local\Temp\ccZHlxL6.s 			page 38


1368:Generated_Source\PSoC4/cy_em_eeprom.c **** static cy_en_em_eeprom_status_t FillChecksum(cy_stc_eeprom_context_t * context)
1369:Generated_Source\PSoC4/cy_em_eeprom.c **** {
1370:Generated_Source\PSoC4/cy_em_eeprom.c ****     uint32 i;
1371:Generated_Source\PSoC4/cy_em_eeprom.c ****     uint32 rdAddr;
1372:Generated_Source\PSoC4/cy_em_eeprom.c ****     uint32 writeRamBuffer[CY_EM_EEPROM_FLASH_SIZEOF_ROW / CY_EM_EEPROM_U32_DIV];
1373:Generated_Source\PSoC4/cy_em_eeprom.c ****     uint32 wrAddr = context->lastWrRowAddr;
1374:Generated_Source\PSoC4/cy_em_eeprom.c ****     uint32 tmpRowAddr;
1375:Generated_Source\PSoC4/cy_em_eeprom.c ****     /* Get the sequence number (number of writes) */
1376:Generated_Source\PSoC4/cy_em_eeprom.c ****     uint32 seqNum = CY_EM_EEPROM_GET_SEQ_NUM(wrAddr);
1377:Generated_Source\PSoC4/cy_em_eeprom.c ****     cy_en_em_eeprom_status_t ret = CY_EM_EEPROM_BAD_PARAM;
1378:Generated_Source\PSoC4/cy_em_eeprom.c **** 
1379:Generated_Source\PSoC4/cy_em_eeprom.c ****     for(i = 0u; i < (context->numberOfRows * context->wearLevelingFactor); i++)
 685              		.loc 1 1379 0 is_stmt 1
 686 00c2 002C     		cmp	r4, #0
 687 00c4 00D1     		bne	.LCB703
 688 00c6 BDE0     		b	.L73	@long jump
 689              	.LCB703:
 690 00c8 0023     		movs	r3, #0
 691              	.LBB81:
 692              	.LBB82:
 934:Generated_Source\PSoC4/cy_em_eeprom.c ****         }
 693              		.loc 1 934 0
 694 00ca 3124     		movs	r4, #49
 695              	.LBE82:
 696              	.LBE81:
 697              		.loc 1 1379 0
 698 00cc 9846     		mov	r8, r3
 699 00ce 10AD     		add	r5, sp, #64
 700              	.LVL49:
 701              	.L93:
1380:Generated_Source\PSoC4/cy_em_eeprom.c ****     {
1381:Generated_Source\PSoC4/cy_em_eeprom.c ****         /* Copy the EEPROM row from Flash to RAM */
1382:Generated_Source\PSoC4/cy_em_eeprom.c ****         (void)memcpy((void *)&writeRamBuffer[0u], (void *)(wrAddr), CY_EM_EEPROM_FLASH_SIZEOF_ROW);
 702              		.loc 1 1382 0
 703 00d0 4022     		movs	r2, #64
 704 00d2 3900     		movs	r1, r7
 705 00d4 6846     		mov	r0, sp
 706 00d6 FFF7FEFF 		bl	memcpy
 707              	.LVL50:
1383:Generated_Source\PSoC4/cy_em_eeprom.c **** 
1384:Generated_Source\PSoC4/cy_em_eeprom.c ****         /* Increment the sequence number */
1385:Generated_Source\PSoC4/cy_em_eeprom.c ****         seqNum++;
 708              		.loc 1 1385 0
 709 00da 0123     		movs	r3, #1
 710 00dc 9C46     		mov	ip, r3
 711 00de E044     		add	r8, r8, ip
 712              	.LVL51:
1386:Generated_Source\PSoC4/cy_em_eeprom.c ****         writeRamBuffer[CY_EM_EEPROM_HEADER_SEQ_NUM_OFFSET_U32] = seqNum;
 713              		.loc 1 1386 0
 714 00e0 4346     		mov	r3, r8
 715 00e2 08A9     		add	r1, sp, #32
 716 00e4 0093     		str	r3, [sp]
 717              	.LVL52:
 718 00e6 FF22     		movs	r2, #255
 719 00e8 35E0     		b	.L90
 720              	.LVL53:
 721              	.L75:
ARM GAS  C:\Users\young\AppData\Local\Temp\ccZHlxL6.s 			page 39


 722              	.LBB84:
 723              	.LBB83:
 934:Generated_Source\PSoC4/cy_em_eeprom.c ****         }
 724              		.loc 1 934 0
 725 00ea 5A00     		lsls	r2, r3, #1
 726 00ec D2B2     		uxtb	r2, r2
 727 00ee 1000     		movs	r0, r2
 728 00f0 6040     		eors	r0, r4
 729 00f2 C0B2     		uxtb	r0, r0
 730 00f4 1B06     		lsls	r3, r3, #24
 731 00f6 40D4     		bmi	.L125
 732              	.L77:
 733 00f8 5300     		lsls	r3, r2, #1
 734 00fa DBB2     		uxtb	r3, r3
 735 00fc 1800     		movs	r0, r3
 736 00fe 6040     		eors	r0, r4
 737 0100 C0B2     		uxtb	r0, r0
 738 0102 1206     		lsls	r2, r2, #24
 739 0104 41D4     		bmi	.L78
 740              	.L132:
 741 0106 1A1C     		adds	r2, r3, #0
 742 0108 5300     		lsls	r3, r2, #1
 743 010a DBB2     		uxtb	r3, r3
 744 010c 1800     		movs	r0, r3
 745 010e 6040     		eors	r0, r4
 746 0110 C0B2     		uxtb	r0, r0
 747 0112 1206     		lsls	r2, r2, #24
 748 0114 41D4     		bmi	.L126
 749              	.L81:
 750 0116 5A00     		lsls	r2, r3, #1
 751 0118 D2B2     		uxtb	r2, r2
 752 011a 1000     		movs	r0, r2
 753 011c 6040     		eors	r0, r4
 754 011e C0B2     		uxtb	r0, r0
 755 0120 1B06     		lsls	r3, r3, #24
 756 0122 42D4     		bmi	.L127
 757              	.L83:
 758 0124 5300     		lsls	r3, r2, #1
 759 0126 DBB2     		uxtb	r3, r3
 760 0128 1800     		movs	r0, r3
 761 012a 6040     		eors	r0, r4
 762 012c C0B2     		uxtb	r0, r0
 763 012e 1206     		lsls	r2, r2, #24
 764 0130 43D4     		bmi	.L128
 765              	.L85:
 766 0132 5800     		lsls	r0, r3, #1
 767 0134 C0B2     		uxtb	r0, r0
 768 0136 0200     		movs	r2, r0
 769 0138 6240     		eors	r2, r4
 770 013a D2B2     		uxtb	r2, r2
 771 013c 1B06     		lsls	r3, r3, #24
 772 013e 44D4     		bmi	.L129
 773              	.L87:
 774 0140 4300     		lsls	r3, r0, #1
 775 0142 DBB2     		uxtb	r3, r3
 776 0144 1A00     		movs	r2, r3
 777 0146 6240     		eors	r2, r4
ARM GAS  C:\Users\young\AppData\Local\Temp\ccZHlxL6.s 			page 40


 778 0148 D2B2     		uxtb	r2, r2
 779 014a 0006     		lsls	r0, r0, #24
 780 014c 45D4     		bmi	.L130
 781              	.L89:
 782 014e 0131     		adds	r1, r1, #1
 783 0150 DAB2     		uxtb	r2, r3
 784              	.LVL54:
 929:Generated_Source\PSoC4/cy_em_eeprom.c ****     {
 785              		.loc 1 929 0
 786 0152 A942     		cmp	r1, r5
 787 0154 46D0     		beq	.L131
 788              	.LVL55:
 789              	.L90:
 931:Generated_Source\PSoC4/cy_em_eeprom.c ****         for (i = 0u; i < CY_EM_EEPROM_CRC8_POLYNOM_LEN; i++)
 790              		.loc 1 931 0
 791 0156 0B78     		ldrb	r3, [r1]
 792 0158 5340     		eors	r3, r2
 934:Generated_Source\PSoC4/cy_em_eeprom.c ****         }
 793              		.loc 1 934 0
 794 015a 58B2     		sxtb	r0, r3
 795 015c 5B00     		lsls	r3, r3, #1
 796 015e DBB2     		uxtb	r3, r3
 797 0160 1A00     		movs	r2, r3
 798 0162 6240     		eors	r2, r4
 799 0164 D2B2     		uxtb	r2, r2
 800 0166 0028     		cmp	r0, #0
 801 0168 BFDA     		bge	.L75
 802 016a 131C     		adds	r3, r2, #0
 803 016c 5A00     		lsls	r2, r3, #1
 804 016e D2B2     		uxtb	r2, r2
 805 0170 1000     		movs	r0, r2
 806 0172 6040     		eors	r0, r4
 807 0174 C0B2     		uxtb	r0, r0
 808 0176 1B06     		lsls	r3, r3, #24
 809 0178 BED5     		bpl	.L77
 810              	.L125:
 811 017a 021C     		adds	r2, r0, #0
 812 017c 5300     		lsls	r3, r2, #1
 813 017e DBB2     		uxtb	r3, r3
 814 0180 1800     		movs	r0, r3
 815 0182 6040     		eors	r0, r4
 816 0184 C0B2     		uxtb	r0, r0
 817 0186 1206     		lsls	r2, r2, #24
 818 0188 BDD5     		bpl	.L132
 819              	.L78:
 820 018a 021C     		adds	r2, r0, #0
 821 018c 5300     		lsls	r3, r2, #1
 822 018e DBB2     		uxtb	r3, r3
 823 0190 1800     		movs	r0, r3
 824 0192 6040     		eors	r0, r4
 825 0194 C0B2     		uxtb	r0, r0
 826 0196 1206     		lsls	r2, r2, #24
 827 0198 BDD5     		bpl	.L81
 828              	.L126:
 829 019a 031C     		adds	r3, r0, #0
 830 019c 5A00     		lsls	r2, r3, #1
 831 019e D2B2     		uxtb	r2, r2
ARM GAS  C:\Users\young\AppData\Local\Temp\ccZHlxL6.s 			page 41


 832 01a0 1000     		movs	r0, r2
 833 01a2 6040     		eors	r0, r4
 834 01a4 C0B2     		uxtb	r0, r0
 835 01a6 1B06     		lsls	r3, r3, #24
 836 01a8 BCD5     		bpl	.L83
 837              	.L127:
 838 01aa 021C     		adds	r2, r0, #0
 839 01ac 5300     		lsls	r3, r2, #1
 840 01ae DBB2     		uxtb	r3, r3
 841 01b0 1800     		movs	r0, r3
 842 01b2 6040     		eors	r0, r4
 843 01b4 C0B2     		uxtb	r0, r0
 844 01b6 1206     		lsls	r2, r2, #24
 845 01b8 BBD5     		bpl	.L85
 846              	.L128:
 847 01ba 031C     		adds	r3, r0, #0
 848 01bc 5800     		lsls	r0, r3, #1
 849 01be C0B2     		uxtb	r0, r0
 850 01c0 0200     		movs	r2, r0
 851 01c2 6240     		eors	r2, r4
 852 01c4 D2B2     		uxtb	r2, r2
 853 01c6 1B06     		lsls	r3, r3, #24
 854 01c8 BAD5     		bpl	.L87
 855              	.L129:
 856 01ca 101C     		adds	r0, r2, #0
 857 01cc 4300     		lsls	r3, r0, #1
 858 01ce DBB2     		uxtb	r3, r3
 859 01d0 1A00     		movs	r2, r3
 860 01d2 6240     		eors	r2, r4
 861 01d4 D2B2     		uxtb	r2, r2
 862 01d6 0006     		lsls	r0, r0, #24
 863 01d8 B9D5     		bpl	.L89
 864              	.L130:
 865 01da 131C     		adds	r3, r2, #0
 866 01dc 0131     		adds	r1, r1, #1
 867 01de DAB2     		uxtb	r2, r3
 868              	.LVL56:
 929:Generated_Source\PSoC4/cy_em_eeprom.c ****     {
 869              		.loc 1 929 0
 870 01e0 A942     		cmp	r1, r5
 871 01e2 B8D1     		bne	.L90
 872              	.LVL57:
 873              	.L131:
 874              	.LBE83:
 875              	.LBE84:
 876              	.LBB85:
 877              	.LBB86:
1017:Generated_Source\PSoC4/cy_em_eeprom.c ****     #else
 878              		.loc 1 1017 0
 879 01e4 B809     		lsrs	r0, r7, #6
 880 01e6 6946     		mov	r1, sp
 881              	.LBE86:
 882              	.LBE85:
1387:Generated_Source\PSoC4/cy_em_eeprom.c **** 
1388:Generated_Source\PSoC4/cy_em_eeprom.c ****         /* Calculate and fill the checksum to the Em_EEPROM header */
1389:Generated_Source\PSoC4/cy_em_eeprom.c ****         writeRamBuffer[CY_EM_EEPROM_HEADER_CHECKSUM_OFFSET_U32] = (uint32)
 883              		.loc 1 1389 0
ARM GAS  C:\Users\young\AppData\Local\Temp\ccZHlxL6.s 			page 42


 884 01e8 0792     		str	r2, [sp, #28]
 885              	.LVL58:
 886              	.LBB88:
 887              	.LBB87:
1017:Generated_Source\PSoC4/cy_em_eeprom.c ****     #else
 888              		.loc 1 1017 0
 889 01ea FFF7FEFF 		bl	CySysFlashWriteRow
 890              	.LVL59:
 891              	.LBE87:
 892              	.LBE88:
 893              	.LBB89:
 894              	.LBB90:
 895 01ee 3368     		ldr	r3, [r6]
 896 01f0 B269     		ldr	r2, [r6, #24]
 897 01f2 6946     		mov	r1, sp
 898 01f4 981A     		subs	r0, r3, r2
 899 01f6 C019     		adds	r0, r0, r7
 900 01f8 8009     		lsrs	r0, r0, #6
 901 01fa FFF7FEFF 		bl	CySysFlashWriteRow
 902              	.LVL60:
 995:Generated_Source\PSoC4/cy_em_eeprom.c **** #if (!CY_PSOC6)
 903              		.loc 1 995 0
 904 01fe 431E     		subs	r3, r0, #1
 905 0200 9841     		sbcs	r0, r0, r3
 906              	.LVL61:
 907              	.LBE90:
 908              	.LBE89:
 909              	.LBB92:
 910              	.LBB93:
 863:Generated_Source\PSoC4/cy_em_eeprom.c ****             CY_EM_EEPROM_IS_ADDR_EXCEED_RANGE(*rowToWrPtr, context->wlEndAddr))
 911              		.loc 1 863 0
 912 0202 3368     		ldr	r3, [r6]
 857:Generated_Source\PSoC4/cy_em_eeprom.c ****     }
 913              		.loc 1 857 0
 914 0204 4037     		adds	r7, r7, #64
 915              	.LVL62:
 916              	.LBE93:
 917              	.LBE92:
 918              	.LBB95:
 919              	.LBB91:
 995:Generated_Source\PSoC4/cy_em_eeprom.c **** #if (!CY_PSOC6)
 920              		.loc 1 995 0
 921 0206 8000     		lsls	r0, r0, #2
 922              	.LVL63:
 923              	.LBE91:
 924              	.LBE95:
 925              	.LBB96:
 926              	.LBB94:
 863:Generated_Source\PSoC4/cy_em_eeprom.c ****             CY_EM_EEPROM_IS_ADDR_EXCEED_RANGE(*rowToWrPtr, context->wlEndAddr))
 927              		.loc 1 863 0
 928 0208 9F42     		cmp	r7, r3
 929 020a 00D3     		bcc	.L92
 866:Generated_Source\PSoC4/cy_em_eeprom.c ****     }
 930              		.loc 1 866 0
 931 020c B769     		ldr	r7, [r6, #24]
 932              	.LVL64:
 933              	.L92:
ARM GAS  C:\Users\young\AppData\Local\Temp\ccZHlxL6.s 			page 43


 934              	.LBE94:
 935              	.LBE96:
1379:Generated_Source\PSoC4/cy_em_eeprom.c ****     {
 936              		.loc 1 1379 0
 937 020e 7368     		ldr	r3, [r6, #4]
 938 0210 3269     		ldr	r2, [r6, #16]
 939 0212 5343     		muls	r3, r2
 940 0214 9845     		cmp	r8, r3
 941 0216 00D2     		bcs	.LCB1029
 942 0218 5AE7     		b	.L93	@long jump
 943              	.LCB1029:
 944              	.LVL65:
 945              	.LBE80:
 946              	.LBE79:
 947              	.LBB97:
 948              	.LBB98:
 763:Generated_Source\PSoC4/cy_em_eeprom.c **** 
 949              		.loc 1 763 0
 950 021a B269     		ldr	r2, [r6, #24]
 951              	.LVL66:
 765:Generated_Source\PSoC4/cy_em_eeprom.c **** 
 952              		.loc 1 765 0
 953 021c B260     		str	r2, [r6, #8]
 954              	.LVL67:
 767:Generated_Source\PSoC4/cy_em_eeprom.c ****     {
 955              		.loc 1 767 0
 956 021e 002B     		cmp	r3, #0
 957 0220 0CD0     		beq	.L107
 958 0222 0021     		movs	r1, #0
 959 0224 0025     		movs	r5, #0
 960              	.LVL68:
 961              	.L95:
 769:Generated_Source\PSoC4/cy_em_eeprom.c ****         if((0u != seqNum) && (seqNum > prevSeqNum))
 962              		.loc 1 769 0
 963 0226 1468     		ldr	r4, [r2]
 964              	.LVL69:
 770:Generated_Source\PSoC4/cy_em_eeprom.c ****         {
 965              		.loc 1 770 0
 966 0228 002C     		cmp	r4, #0
 967 022a 03D0     		beq	.L94
 968 022c AC42     		cmp	r4, r5
 969 022e 01D9     		bls	.L94
 970              	.LVL70:
 776:Generated_Source\PSoC4/cy_em_eeprom.c ****         }
 971              		.loc 1 776 0
 972 0230 2500     		movs	r5, r4
 973 0232 B260     		str	r2, [r6, #8]
 974              	.LVL71:
 975              	.L94:
 767:Generated_Source\PSoC4/cy_em_eeprom.c ****     {
 976              		.loc 1 767 0
 977 0234 0131     		adds	r1, r1, #1
 978              	.LVL72:
 780:Generated_Source\PSoC4/cy_em_eeprom.c ****     }
 979              		.loc 1 780 0
 980 0236 4032     		adds	r2, r2, #64
 981              	.LVL73:
ARM GAS  C:\Users\young\AppData\Local\Temp\ccZHlxL6.s 			page 44


 767:Generated_Source\PSoC4/cy_em_eeprom.c ****     {
 982              		.loc 1 767 0
 983 0238 9942     		cmp	r1, r3
 984 023a F4D1     		bne	.L95
 985              	.LVL74:
 986              	.L107:
 987              	.LBE98:
 988              	.LBE97:
 133:Generated_Source\PSoC4/cy_em_eeprom.c **** 
 989              		.loc 1 133 0
 990 023c 10B0     		add	sp, sp, #64
 991              		@ sp needed
 992              	.LVL75:
 993 023e 04BC     		pop	{r2}
 994 0240 9046     		mov	r8, r2
 995 0242 F0BD     		pop	{r4, r5, r6, r7, pc}
 996              	.LVL76:
 997              	.L73:
 998              	.LBB100:
 999              	.LBB99:
 765:Generated_Source\PSoC4/cy_em_eeprom.c **** 
 1000              		.loc 1 765 0
 1001 0244 B560     		str	r5, [r6, #8]
 1002              	.LVL77:
 1003              	.L123:
 1004 0246 0120     		movs	r0, #1
 1005              	.LVL78:
 1006              	.LBE99:
 1007              	.LBE100:
 132:Generated_Source\PSoC4/cy_em_eeprom.c **** }
 1008              		.loc 1 132 0
 1009 0248 F8E7     		b	.L107
 1010              	.LVL79:
 1011              	.L124:
 1012              	.LBB101:
 1013              	.LBB74:
 964:Generated_Source\PSoC4/cy_em_eeprom.c ****     {
 1014              		.loc 1 964 0
 1015 024a 1C38     		subs	r0, r0, #28
 1016 024c F6E7     		b	.L107
 1017              	.LBE74:
 1018              	.LBE101:
 1019              		.cfi_endproc
 1020              	.LFE0:
 1021              		.size	Cy_Em_EEPROM_Init, .-Cy_Em_EEPROM_Init
 1022              		.global	__aeabi_uidiv
 1023 024e C046     		.section	.text.Cy_Em_EEPROM_Read,"ax",%progbits
 1024              		.align	2
 1025              		.global	Cy_Em_EEPROM_Read
 1026              		.code	16
 1027              		.thumb_func
 1028              		.type	Cy_Em_EEPROM_Read, %function
 1029              	Cy_Em_EEPROM_Read:
 1030              	.LFB1:
 173:Generated_Source\PSoC4/cy_em_eeprom.c ****     cy_en_em_eeprom_status_t ret = CY_EM_EEPROM_BAD_PARAM;
 1031              		.loc 1 173 0
 1032              		.cfi_startproc
ARM GAS  C:\Users\young\AppData\Local\Temp\ccZHlxL6.s 			page 45


 1033              		@ args = 0, pretend = 0, frame = 24
 1034              		@ frame_needed = 0, uses_anonymous_args = 0
 1035              	.LVL80:
 1036 0000 F0B5     		push	{r4, r5, r6, r7, lr}
 1037              		.cfi_def_cfa_offset 20
 1038              		.cfi_offset 4, -20
 1039              		.cfi_offset 5, -16
 1040              		.cfi_offset 6, -12
 1041              		.cfi_offset 7, -8
 1042              		.cfi_offset 14, -4
 1043 0002 5F46     		mov	r7, fp
 1044 0004 4D46     		mov	r5, r9
 1045 0006 4446     		mov	r4, r8
 1046 0008 5646     		mov	r6, r10
 1047 000a F0B4     		push	{r4, r5, r6, r7}
 1048              		.cfi_def_cfa_offset 36
 1049              		.cfi_offset 8, -36
 1050              		.cfi_offset 9, -32
 1051              		.cfi_offset 10, -28
 1052              		.cfi_offset 11, -24
 1053 000c 89B0     		sub	sp, sp, #36
 1054              		.cfi_def_cfa_offset 72
 173:Generated_Source\PSoC4/cy_em_eeprom.c ****     cy_en_em_eeprom_status_t ret = CY_EM_EEPROM_BAD_PARAM;
 1055              		.loc 1 173 0
 1056 000e 8146     		mov	r9, r0
 1057 0010 0491     		str	r1, [sp, #16]
 1058 0012 1700     		movs	r7, r2
 1059 0014 1C00     		movs	r4, r3
 174:Generated_Source\PSoC4/cy_em_eeprom.c ****     uint32 i;
 1060              		.loc 1 174 0
 1061 0016 0120     		movs	r0, #1
 1062              	.LVL81:
 186:Generated_Source\PSoC4/cy_em_eeprom.c ****     {
 1063              		.loc 1 186 0
 1064 0018 002A     		cmp	r2, #0
 1065 001a 00D1     		bne	.LCB1209
 1066 001c 9BE0     		b	.L184	@long jump
 1067              	.LCB1209:
 186:Generated_Source\PSoC4/cy_em_eeprom.c ****     {
 1068              		.loc 1 186 0 is_stmt 0 discriminator 1
 1069 001e 1300     		movs	r3, r2
 1070              	.LVL82:
 1071 0020 E568     		ldr	r5, [r4, #12]
 1072 0022 4B44     		add	r3, r3, r9
 1073 0024 0693     		str	r3, [sp, #24]
 1074 0026 AB42     		cmp	r3, r5
 1075 0028 00D9     		bls	.LCB1217
 1076 002a 94E0     		b	.L184	@long jump
 1077              	.LCB1217:
 186:Generated_Source\PSoC4/cy_em_eeprom.c ****     {
 1078              		.loc 1 186 0 discriminator 2
 1079 002c 0029     		cmp	r1, #0
 1080 002e 00D1     		bne	.LCB1219
 1081 0030 91E0     		b	.L184	@long jump
 1082              	.LCB1219:
 1083              	.LVL83:
 1084              	.LBB102:
ARM GAS  C:\Users\young\AppData\Local\Temp\ccZHlxL6.s 			page 46


 191:Generated_Source\PSoC4/cy_em_eeprom.c ****         uint32 updateAddrFlag = 0u;
 1085              		.loc 1 191 0 is_stmt 1
 1086 0032 A268     		ldr	r2, [r4, #8]
 1087              	.LVL84:
 197:Generated_Source\PSoC4/cy_em_eeprom.c ****                               (rdAddr / CY_EM_EEPROM_EEPROM_DATA_LEN)) + 1u;
 1088              		.loc 1 197 0
 1089 0034 013B     		subs	r3, r3, #1
 191:Generated_Source\PSoC4/cy_em_eeprom.c ****         uint32 updateAddrFlag = 0u;
 1090              		.loc 1 191 0
 1091 0036 9246     		mov	r10, r2
 1092 0038 1268     		ldr	r2, [r2]
 197:Generated_Source\PSoC4/cy_em_eeprom.c ****                               (rdAddr / CY_EM_EEPROM_EEPROM_DATA_LEN)) + 1u;
 1093              		.loc 1 197 0
 1094 003a 5B09     		lsrs	r3, r3, #5
 191:Generated_Source\PSoC4/cy_em_eeprom.c ****         uint32 updateAddrFlag = 0u;
 1095              		.loc 1 191 0
 1096 003c 0592     		str	r2, [sp, #20]
 1097              	.LVL85:
 197:Generated_Source\PSoC4/cy_em_eeprom.c ****                               (rdAddr / CY_EM_EEPROM_EEPROM_DATA_LEN)) + 1u;
 1098              		.loc 1 197 0
 1099 003e 4A46     		mov	r2, r9
 1100              	.LVL86:
 1101 0040 5209     		lsrs	r2, r2, #5
 1102 0042 801A     		subs	r0, r0, r2
 1103 0044 1B18     		adds	r3, r3, r0
 1104 0046 0293     		str	r3, [sp, #8]
 1105              	.LVL87:
 204:Generated_Source\PSoC4/cy_em_eeprom.c ****                               (CY_EM_EEPROM_FLASH_SIZEOF_ROW * context->numberOfRows)) *
 1106              		.loc 1 204 0
 1107 0048 A369     		ldr	r3, [r4, #24]
 1108              	.LVL88:
 205:Generated_Source\PSoC4/cy_em_eeprom.c ****                               (CY_EM_EEPROM_FLASH_SIZEOF_ROW * context->numberOfRows)) +
 1109              		.loc 1 205 0
 1110 004a 6568     		ldr	r5, [r4, #4]
 204:Generated_Source\PSoC4/cy_em_eeprom.c ****                               (CY_EM_EEPROM_FLASH_SIZEOF_ROW * context->numberOfRows)) *
 1111              		.loc 1 204 0
 1112 004c 9846     		mov	r8, r3
 1113 004e 5346     		mov	r3, r10
 1114 0050 4246     		mov	r2, r8
 205:Generated_Source\PSoC4/cy_em_eeprom.c ****                               (CY_EM_EEPROM_FLASH_SIZEOF_ROW * context->numberOfRows)) +
 1115              		.loc 1 205 0
 1116 0052 AE01     		lsls	r6, r5, #6
 204:Generated_Source\PSoC4/cy_em_eeprom.c ****                               (CY_EM_EEPROM_FLASH_SIZEOF_ROW * context->numberOfRows)) *
 1117              		.loc 1 204 0
 1118 0054 3100     		movs	r1, r6
 1119              	.LVL89:
 1120 0056 981A     		subs	r0, r3, r2
 1121 0058 FFF7FEFF 		bl	__aeabi_uidiv
 1122              	.LVL90:
 1123 005c 4643     		muls	r6, r0
 1124 005e 4644     		add	r6, r6, r8
 1125              	.LVL91:
 210:Generated_Source\PSoC4/cy_em_eeprom.c ****         {
 1126              		.loc 1 210 0
 1127 0060 002D     		cmp	r5, #0
 1128 0062 00D1     		bne	.LCB1259
 1129 0064 80E0     		b	.L135	@long jump
ARM GAS  C:\Users\young\AppData\Local\Temp\ccZHlxL6.s 			page 47


 1130              	.LCB1259:
 1131 0066 A446     		mov	ip, r4
 1132 0068 0123     		movs	r3, #1
 1133 006a 0022     		movs	r2, #0
 1134 006c 4846     		mov	r0, r9
 1135 006e 2C00     		movs	r4, r5
 1136              	.LVL92:
 1137 0070 05E0     		b	.L166
 1138              	.LVL93:
 1139              	.L176:
 1140 0072 1900     		movs	r1, r3
 1141              	.LVL94:
 1142 0074 2032     		adds	r2, r2, #32
 1143 0076 0133     		adds	r3, r3, #1
 1144              	.LVL95:
 1145 0078 8C42     		cmp	r4, r1
 1146 007a 00D8     		bhi	.LCB1278
 1147 007c 72E0     		b	.L202	@long jump
 1148              	.LCB1278:
 1149              	.LVL96:
 1150              	.L166:
 1151 007e 591E     		subs	r1, r3, #1
 1152              	.LVL97:
 212:Generated_Source\PSoC4/cy_em_eeprom.c ****             {
 1153              		.loc 1 212 0
 1154 0080 9042     		cmp	r0, r2
 1155 0082 F6D3     		bcc	.L176
 212:Generated_Source\PSoC4/cy_em_eeprom.c ****             {
 1156              		.loc 1 212 0 is_stmt 0 discriminator 1
 1157 0084 1500     		movs	r5, r2
 1158 0086 1F35     		adds	r5, r5, #31
 1159 0088 A842     		cmp	r0, r5
 1160 008a F2D8     		bhi	.L176
 1161 008c 6446     		mov	r4, ip
 1162              	.LVL98:
 221:Generated_Source\PSoC4/cy_em_eeprom.c **** 
 1163              		.loc 1 221 0 is_stmt 1
 1164 008e 5346     		mov	r3, r10
 224:Generated_Source\PSoC4/cy_em_eeprom.c ****         {
 1165              		.loc 1 224 0
 1166 0090 2269     		ldr	r2, [r4, #16]
 221:Generated_Source\PSoC4/cy_em_eeprom.c **** 
 1167              		.loc 1 221 0
 1168 0092 9B1B     		subs	r3, r3, r6
 1169 0094 9B09     		lsrs	r3, r3, #6
 1170 0096 8846     		mov	r8, r1
 1171 0098 8146     		mov	r9, r0
 1172              	.LVL99:
 1173 009a 0393     		str	r3, [sp, #12]
 1174              	.LVL100:
 224:Generated_Source\PSoC4/cy_em_eeprom.c ****         {
 1175              		.loc 1 224 0
 1176 009c 012A     		cmp	r2, #1
 1177 009e 56D9     		bls	.L138
 1178              	.LVL101:
 1179              	.LBB103:
 229:Generated_Source\PSoC4/cy_em_eeprom.c ****                               ((dataEndEepromRowNum > actEepromRowNum) ? 1u : 0u);
ARM GAS  C:\Users\young\AppData\Local\Temp\ccZHlxL6.s 			page 48


 1180              		.loc 1 229 0
 1181 00a0 8B42     		cmp	r3, r1
 1182 00a2 00D3     		bcc	.LCB1312
 1183 00a4 14E1     		b	.L203	@long jump
 1184              	.LCB1312:
 1185              	.LVL102:
 1186              	.LBE103:
 234:Generated_Source\PSoC4/cy_em_eeprom.c ****         {
 1187              		.loc 1 234 0
 1188 00a6 029B     		ldr	r3, [sp, #8]
 1189              	.LVL103:
 1190 00a8 002B     		cmp	r3, #0
 1191 00aa 53D0     		beq	.L201
 1192              	.LVL104:
 1193              	.L140:
 242:Generated_Source\PSoC4/cy_em_eeprom.c ****             {
 1194              		.loc 1 242 0
 1195 00ac 0022     		movs	r2, #0
 1196 00ae 9246     		mov	r10, r2
 244:Generated_Source\PSoC4/cy_em_eeprom.c ****             }
 1197              		.loc 1 244 0
 1198 00b0 4A46     		mov	r2, r9
 1199 00b2 4346     		mov	r3, r8
 1200 00b4 0792     		str	r2, [sp, #28]
 1201 00b6 3A00     		movs	r2, r7
 1202 00b8 9B01     		lsls	r3, r3, #6
 1203 00ba 9E19     		adds	r6, r3, r6
 1204              	.LVL105:
 242:Generated_Source\PSoC4/cy_em_eeprom.c ****             {
 1205              		.loc 1 242 0
 1206 00bc 049B     		ldr	r3, [sp, #16]
 1207 00be CB46     		mov	fp, r9
 244:Generated_Source\PSoC4/cy_em_eeprom.c ****             }
 1208              		.loc 1 244 0
 1209 00c0 3700     		movs	r7, r6
 1210              	.LVL106:
 1211 00c2 A146     		mov	r9, r4
 1212              	.LVL107:
 1213 00c4 5646     		mov	r6, r10
 1214 00c6 4446     		mov	r4, r8
 1215              	.LVL108:
 1216 00c8 9246     		mov	r10, r2
 1217 00ca 9846     		mov	r8, r3
 1218 00cc 16E0     		b	.L151
 1219              	.LVL109:
 1220              	.L205:
 270:Generated_Source\PSoC4/cy_em_eeprom.c **** 
 1221              		.loc 1 270 0
 1222 00ce 4B46     		mov	r3, r9
 1223 00d0 9B69     		ldr	r3, [r3, #24]
 1224 00d2 4146     		mov	r1, r8
 1225 00d4 0193     		str	r3, [sp, #4]
 1226 00d6 4B46     		mov	r3, r9
 1227 00d8 1B68     		ldr	r3, [r3]
 1228 00da 0093     		str	r3, [sp]
 1229 00dc 2B00     		movs	r3, r5
 1230 00de FFF7FEFF 		bl	CheckCrcAndCopy.isra.2
ARM GAS  C:\Users\young\AppData\Local\Temp\ccZHlxL6.s 			page 49


 1231              	.LVL110:
 272:Generated_Source\PSoC4/cy_em_eeprom.c ****                 {
 1232              		.loc 1 272 0
 1233 00e2 0028     		cmp	r0, #0
 1234 00e4 37D1     		bne	.L184
 1235              	.LVL111:
 1236              	.L150:
 290:Generated_Source\PSoC4/cy_em_eeprom.c ****             eeData += numBytesToRead;
 1237              		.loc 1 290 0 discriminator 2
 1238 00e6 5346     		mov	r3, r10
 1239 00e8 5B1B     		subs	r3, r3, r5
 1240 00ea 9A46     		mov	r10, r3
 1241              	.LVL112:
 234:Generated_Source\PSoC4/cy_em_eeprom.c ****         {
 1242              		.loc 1 234 0 discriminator 2
 1243 00ec 029B     		ldr	r3, [sp, #8]
 289:Generated_Source\PSoC4/cy_em_eeprom.c ****             rdSize -= numBytesToRead;
 1244              		.loc 1 289 0 discriminator 2
 1245 00ee AB44     		add	fp, fp, r5
 1246              	.LVL113:
 291:Generated_Source\PSoC4/cy_em_eeprom.c ****             curRdEepromRowNum++;
 1247              		.loc 1 291 0 discriminator 2
 1248 00f0 A844     		add	r8, r8, r5
 1249              	.LVL114:
 292:Generated_Source\PSoC4/cy_em_eeprom.c ****         }
 1250              		.loc 1 292 0 discriminator 2
 1251 00f2 0134     		adds	r4, r4, #1
 1252              	.LVL115:
 1253 00f4 4037     		adds	r7, r7, #64
 234:Generated_Source\PSoC4/cy_em_eeprom.c ****         {
 1254              		.loc 1 234 0 discriminator 2
 1255 00f6 B342     		cmp	r3, r6
 1256 00f8 00D1     		bne	.LCB1424
 1257 00fa E5E0     		b	.L204	@long jump
 1258              	.LCB1424:
 1259              	.LVL116:
 1260              	.L151:
 237:Generated_Source\PSoC4/cy_em_eeprom.c **** 
 1261              		.loc 1 237 0
 1262 00fc 5B46     		mov	r3, fp
 1263 00fe 1F25     		movs	r5, #31
 1264 0100 1D40     		ands	r5, r3
 1265 0102 2A00     		movs	r2, r5
 242:Generated_Source\PSoC4/cy_em_eeprom.c ****             {
 1266              		.loc 1 242 0
 1267 0104 029B     		ldr	r3, [sp, #8]
 1268 0106 0136     		adds	r6, r6, #1
 1269              	.LVL117:
 237:Generated_Source\PSoC4/cy_em_eeprom.c **** 
 1270              		.loc 1 237 0
 1271 0108 2032     		adds	r2, r2, #32
 1272              	.LVL118:
 242:Generated_Source\PSoC4/cy_em_eeprom.c ****             {
 1273              		.loc 1 242 0
 1274 010a B342     		cmp	r3, r6
 1275 010c 00D8     		bhi	.LCB1453
 1276 010e E5E0     		b	.L179	@long jump
ARM GAS  C:\Users\young\AppData\Local\Temp\ccZHlxL6.s 			page 50


 1277              	.LCB1453:
 244:Generated_Source\PSoC4/cy_em_eeprom.c ****             }
 1278              		.loc 1 244 0
 1279 0110 2023     		movs	r3, #32
 1280 0112 5D1B     		subs	r5, r3, r5
 1281              	.LVL119:
 1282              	.L147:
 254:Generated_Source\PSoC4/cy_em_eeprom.c ****             {
 1283              		.loc 1 254 0
 1284 0114 039B     		ldr	r3, [sp, #12]
 236:Generated_Source\PSoC4/cy_em_eeprom.c ****             curRowOffset = CY_EM_EEPROM_EEPROM_DATA_LEN + (rdAddr % CY_EM_EEPROM_EEPROM_DATA_LEN);
 1285              		.loc 1 236 0
 1286 0116 3800     		movs	r0, r7
 254:Generated_Source\PSoC4/cy_em_eeprom.c ****             {
 1287              		.loc 1 254 0
 1288 0118 9C42     		cmp	r4, r3
 1289 011a 0CD9     		bls	.L148
 1290              	.LVL120:
 256:Generated_Source\PSoC4/cy_em_eeprom.c **** 
 1291              		.loc 1 256 0
 1292 011c 4B46     		mov	r3, r9
 258:Generated_Source\PSoC4/cy_em_eeprom.c ****                 {
 1293              		.loc 1 258 0
 1294 011e 4946     		mov	r1, r9
 256:Generated_Source\PSoC4/cy_em_eeprom.c **** 
 1295              		.loc 1 256 0
 1296 0120 5B68     		ldr	r3, [r3, #4]
 258:Generated_Source\PSoC4/cy_em_eeprom.c ****                 {
 1297              		.loc 1 258 0
 1298 0122 8969     		ldr	r1, [r1, #24]
 256:Generated_Source\PSoC4/cy_em_eeprom.c **** 
 1299              		.loc 1 256 0
 1300 0124 9801     		lsls	r0, r3, #6
 1301              	.LVL121:
 1302 0126 381A     		subs	r0, r7, r0
 1303              	.LVL122:
 258:Generated_Source\PSoC4/cy_em_eeprom.c ****                 {
 1304              		.loc 1 258 0
 1305 0128 8842     		cmp	r0, r1
 1306 012a 04D2     		bcs	.L148
 260:Generated_Source\PSoC4/cy_em_eeprom.c ****                         ((context->numberOfRows - curRdEepromRowNum) * CY_EM_EEPROM_FLASH_SIZEOF_RO
 1307              		.loc 1 260 0
 1308 012c 4946     		mov	r1, r9
 1309 012e 181B     		subs	r0, r3, r4
 1310              	.LVL123:
 1311 0130 0968     		ldr	r1, [r1]
 1312 0132 8301     		lsls	r3, r0, #6
 1313              	.LVL124:
 1314 0134 C81A     		subs	r0, r1, r3
 1315              	.LVL125:
 1316              	.L148:
 265:Generated_Source\PSoC4/cy_em_eeprom.c ****             {
 1317              		.loc 1 265 0
 1318 0136 4B46     		mov	r3, r9
 1319 0138 1B7D     		ldrb	r3, [r3, #20]
 1320 013a 002B     		cmp	r3, #0
 1321 013c C7D1     		bne	.L205
ARM GAS  C:\Users\young\AppData\Local\Temp\ccZHlxL6.s 			page 51


 280:Generated_Source\PSoC4/cy_em_eeprom.c ****                              (void *)(startRowAddr + curRowOffset),
 1322              		.loc 1 280 0
 1323 013e 8118     		adds	r1, r0, r2
 1324 0140 2A00     		movs	r2, r5
 1325              	.LVL126:
 1326 0142 4046     		mov	r0, r8
 1327              	.LVL127:
 1328 0144 FFF7FEFF 		bl	memcpy
 1329              	.LVL128:
 1330 0148 CDE7     		b	.L150
 1331              	.LVL129:
 1332              	.L206:
 1333              	.LBE102:
 181:Generated_Source\PSoC4/cy_em_eeprom.c ****     uint32 dataStartEepromRowNum = 0u;
 1334              		.loc 1 181 0
 1335 014a 0023     		movs	r3, #0
 1336 014c 9846     		mov	r8, r3
 1337              	.LVL130:
 1338              	.L138:
 1339              	.LBB112:
 234:Generated_Source\PSoC4/cy_em_eeprom.c ****         {
 1340              		.loc 1 234 0
 1341 014e 029B     		ldr	r3, [sp, #8]
 1342 0150 002B     		cmp	r3, #0
 1343 0152 1AD1     		bne	.L170
 1344              	.LVL131:
 1345              	.L201:
 1346              	.LBE112:
 174:Generated_Source\PSoC4/cy_em_eeprom.c ****     uint32 i;
 1347              		.loc 1 174 0
 1348 0154 0120     		movs	r0, #1
 1349              	.LVL132:
 1350              	.L184:
 358:Generated_Source\PSoC4/cy_em_eeprom.c **** 
 1351              		.loc 1 358 0
 1352 0156 09B0     		add	sp, sp, #36
 1353              		@ sp needed
 1354 0158 3CBC     		pop	{r2, r3, r4, r5}
 1355 015a 9046     		mov	r8, r2
 1356 015c 9946     		mov	r9, r3
 1357 015e A246     		mov	r10, r4
 1358 0160 AB46     		mov	fp, r5
 1359 0162 F0BD     		pop	{r4, r5, r6, r7, pc}
 1360              	.LVL133:
 1361              	.L202:
 1362 0164 8146     		mov	r9, r0
 1363 0166 6446     		mov	r4, ip
 1364              	.LVL134:
 1365              	.L135:
 1366              	.LBB113:
 221:Generated_Source\PSoC4/cy_em_eeprom.c **** 
 1367              		.loc 1 221 0
 1368 0168 5346     		mov	r3, r10
 1369 016a 9B1B     		subs	r3, r3, r6
 1370 016c 9B09     		lsrs	r3, r3, #6
 1371 016e 0393     		str	r3, [sp, #12]
 1372              	.LVL135:
ARM GAS  C:\Users\young\AppData\Local\Temp\ccZHlxL6.s 			page 52


 224:Generated_Source\PSoC4/cy_em_eeprom.c ****         {
 1373              		.loc 1 224 0
 1374 0170 2369     		ldr	r3, [r4, #16]
 1375              	.LVL136:
 1376 0172 012B     		cmp	r3, #1
 1377 0174 E9D9     		bls	.L206
 1378              	.LBE113:
 181:Generated_Source\PSoC4/cy_em_eeprom.c ****     uint32 dataStartEepromRowNum = 0u;
 1379              		.loc 1 181 0
 1380 0176 0022     		movs	r2, #0
 1381 0178 9046     		mov	r8, r2
 1382              	.LBB114:
 1383              	.LBB104:
 226:Generated_Source\PSoC4/cy_em_eeprom.c **** 
 1384              		.loc 1 226 0
 1385 017a 029B     		ldr	r3, [sp, #8]
 1386 017c 013B     		subs	r3, r3, #1
 1387              	.LVL137:
 1388              	.L167:
 1389              	.LBE104:
 234:Generated_Source\PSoC4/cy_em_eeprom.c ****         {
 1390              		.loc 1 234 0 discriminator 1
 1391 017e 029A     		ldr	r2, [sp, #8]
 1392 0180 002A     		cmp	r2, #0
 1393 0182 E7D0     		beq	.L201
 1394 0184 039A     		ldr	r2, [sp, #12]
 1395 0186 9A42     		cmp	r2, r3
 1396 0188 90D3     		bcc	.L140
 1397              	.LVL138:
 1398              	.L170:
 1399 018a 4346     		mov	r3, r8
 1400 018c 9B01     		lsls	r3, r3, #6
 1401 018e 9E19     		adds	r6, r3, r6
 1402              	.LVL139:
 1403              	.LBE114:
 181:Generated_Source\PSoC4/cy_em_eeprom.c ****     uint32 dataStartEepromRowNum = 0u;
 1404              		.loc 1 181 0
 1405 0190 049B     		ldr	r3, [sp, #16]
 1406 0192 CA46     		mov	r10, r9
 1407 0194 9B46     		mov	fp, r3
 1408 0196 0023     		movs	r3, #0
 1409 0198 9846     		mov	r8, r3
 1410              	.LBB115:
 244:Generated_Source\PSoC4/cy_em_eeprom.c ****             }
 1411              		.loc 1 244 0
 1412 019a 4B46     		mov	r3, r9
 1413 019c 0393     		str	r3, [sp, #12]
 1414 019e 029B     		ldr	r3, [sp, #8]
 1415 01a0 3A00     		movs	r2, r7
 1416 01a2 9946     		mov	r9, r3
 1417              	.LVL140:
 1418 01a4 2300     		movs	r3, r4
 1419 01a6 5746     		mov	r7, r10
 1420              	.LVL141:
 1421 01a8 3400     		movs	r4, r6
 1422              	.LVL142:
 1423 01aa 9246     		mov	r10, r2
ARM GAS  C:\Users\young\AppData\Local\Temp\ccZHlxL6.s 			page 53


 1424              	.LVL143:
 1425 01ac 4646     		mov	r6, r8
 1426 01ae 9846     		mov	r8, r3
 1427 01b0 0CE0     		b	.L145
 1428              	.LVL144:
 1429              	.L208:
 280:Generated_Source\PSoC4/cy_em_eeprom.c ****                              (void *)(startRowAddr + curRowOffset),
 1430              		.loc 1 280 0
 1431 01b2 A118     		adds	r1, r4, r2
 1432 01b4 5846     		mov	r0, fp
 1433 01b6 2A00     		movs	r2, r5
 1434              	.LVL145:
 1435 01b8 FFF7FEFF 		bl	memcpy
 1436              	.LVL146:
 290:Generated_Source\PSoC4/cy_em_eeprom.c ****             eeData += numBytesToRead;
 1437              		.loc 1 290 0
 1438 01bc 5346     		mov	r3, r10
 1439 01be 5B1B     		subs	r3, r3, r5
 289:Generated_Source\PSoC4/cy_em_eeprom.c ****             rdSize -= numBytesToRead;
 1440              		.loc 1 289 0
 1441 01c0 7F19     		adds	r7, r7, r5
 1442              	.LVL147:
 290:Generated_Source\PSoC4/cy_em_eeprom.c ****             eeData += numBytesToRead;
 1443              		.loc 1 290 0
 1444 01c2 9A46     		mov	r10, r3
 1445              	.LVL148:
 291:Generated_Source\PSoC4/cy_em_eeprom.c ****             curRdEepromRowNum++;
 1446              		.loc 1 291 0
 1447 01c4 AB44     		add	fp, fp, r5
 1448              	.LVL149:
 1449 01c6 4034     		adds	r4, r4, #64
 1450              	.LVL150:
 234:Generated_Source\PSoC4/cy_em_eeprom.c ****         {
 1451              		.loc 1 234 0
 1452 01c8 B145     		cmp	r9, r6
 1453 01ca 21D0     		beq	.L207
 1454              	.LVL151:
 1455              	.L145:
 237:Generated_Source\PSoC4/cy_em_eeprom.c **** 
 1456              		.loc 1 237 0
 1457 01cc 1F25     		movs	r5, #31
 1458 01ce 3D40     		ands	r5, r7
 1459 01d0 2A00     		movs	r2, r5
 242:Generated_Source\PSoC4/cy_em_eeprom.c ****             {
 1460              		.loc 1 242 0
 1461 01d2 0136     		adds	r6, r6, #1
 1462              	.LVL152:
 237:Generated_Source\PSoC4/cy_em_eeprom.c **** 
 1463              		.loc 1 237 0
 1464 01d4 2032     		adds	r2, r2, #32
 1465              	.LVL153:
 242:Generated_Source\PSoC4/cy_em_eeprom.c ****             {
 1466              		.loc 1 242 0
 1467 01d6 B145     		cmp	r9, r6
 1468 01d8 7ED9     		bls	.L178
 244:Generated_Source\PSoC4/cy_em_eeprom.c ****             }
 1469              		.loc 1 244 0
ARM GAS  C:\Users\young\AppData\Local\Temp\ccZHlxL6.s 			page 54


 1470 01da 2023     		movs	r3, #32
 1471 01dc 5D1B     		subs	r5, r3, r5
 1472              	.LVL154:
 1473              	.L141:
 265:Generated_Source\PSoC4/cy_em_eeprom.c ****             {
 1474              		.loc 1 265 0
 1475 01de 4346     		mov	r3, r8
 1476 01e0 1B7D     		ldrb	r3, [r3, #20]
 1477 01e2 002B     		cmp	r3, #0
 1478 01e4 E5D0     		beq	.L208
 270:Generated_Source\PSoC4/cy_em_eeprom.c **** 
 1479              		.loc 1 270 0
 1480 01e6 4346     		mov	r3, r8
 1481 01e8 9B69     		ldr	r3, [r3, #24]
 1482 01ea 5946     		mov	r1, fp
 1483 01ec 0193     		str	r3, [sp, #4]
 1484 01ee 4346     		mov	r3, r8
 1485 01f0 1B68     		ldr	r3, [r3]
 1486 01f2 2000     		movs	r0, r4
 1487 01f4 0093     		str	r3, [sp]
 1488 01f6 2B00     		movs	r3, r5
 1489 01f8 FFF7FEFF 		bl	CheckCrcAndCopy.isra.2
 1490              	.LVL155:
 272:Generated_Source\PSoC4/cy_em_eeprom.c ****                 {
 1491              		.loc 1 272 0
 1492 01fc 0028     		cmp	r0, #0
 1493 01fe AAD1     		bne	.L184
 1494              	.LVL156:
 290:Generated_Source\PSoC4/cy_em_eeprom.c ****             eeData += numBytesToRead;
 1495              		.loc 1 290 0
 1496 0200 5346     		mov	r3, r10
 1497 0202 5B1B     		subs	r3, r3, r5
 289:Generated_Source\PSoC4/cy_em_eeprom.c ****             rdSize -= numBytesToRead;
 1498              		.loc 1 289 0
 1499 0204 7F19     		adds	r7, r7, r5
 1500              	.LVL157:
 290:Generated_Source\PSoC4/cy_em_eeprom.c ****             eeData += numBytesToRead;
 1501              		.loc 1 290 0
 1502 0206 9A46     		mov	r10, r3
 1503              	.LVL158:
 291:Generated_Source\PSoC4/cy_em_eeprom.c ****             curRdEepromRowNum++;
 1504              		.loc 1 291 0
 1505 0208 AB44     		add	fp, fp, r5
 1506              	.LVL159:
 1507 020a 4034     		adds	r4, r4, #64
 1508              	.LVL160:
 234:Generated_Source\PSoC4/cy_em_eeprom.c ****         {
 1509              		.loc 1 234 0
 1510 020c B145     		cmp	r9, r6
 1511 020e DDD1     		bne	.L145
 1512              	.LVL161:
 1513              	.L207:
 1514 0210 039B     		ldr	r3, [sp, #12]
 1515              	.LVL162:
 1516 0212 4446     		mov	r4, r8
 1517 0214 9946     		mov	r9, r3
 1518              	.LVL163:
ARM GAS  C:\Users\young\AppData\Local\Temp\ccZHlxL6.s 			page 55


 1519              	.L146:
 303:Generated_Source\PSoC4/cy_em_eeprom.c ****         {
 1520              		.loc 1 303 0
 1521 0216 059B     		ldr	r3, [sp, #20]
 1522 0218 002B     		cmp	r3, #0
 1523 021a 45D0     		beq	.L165
 1524 021c 1900     		movs	r1, r3
 1525              	.LVL164:
 308:Generated_Source\PSoC4/cy_em_eeprom.c ****             {
 1526              		.loc 1 308 0
 1527 021e 5E1C     		adds	r6, r3, #1
 1528              	.LVL165:
 1529 0220 6368     		ldr	r3, [r4, #4]
 1530 0222 8B42     		cmp	r3, r1
 1531 0224 00D9     		bls	.L152
 1532 0226 0B00     		movs	r3, r1
 1533              	.L152:
 1534 0228 F61A     		subs	r6, r6, r3
 1535              	.LVL166:
 1536 022a 0C23     		movs	r3, #12
 1537 022c 4B44     		add	r3, r3, r9
 1538 022e 9A46     		mov	r10, r3
 1539              	.LVL167:
 1540 0230 059B     		ldr	r3, [sp, #20]
 1541 0232 B342     		cmp	r3, r6
 1542 0234 38D3     		bcc	.L165
 1543 0236 9846     		mov	r8, r3
 1544 0238 5346     		mov	r3, r10
 1545 023a 0393     		str	r3, [sp, #12]
 1546 023c 069B     		ldr	r3, [sp, #24]
 1547 023e 9A46     		mov	r10, r3
 1548              	.LVL168:
 1549              	.L188:
 1550 0240 A169     		ldr	r1, [r4, #24]
 1551 0242 2768     		ldr	r7, [r4]
 1552              	.LVL169:
 1553              	.LBB105:
 1554              	.LBB106:
 804:Generated_Source\PSoC4/cy_em_eeprom.c **** 
 1555              		.loc 1 804 0
 1556 0244 0D00     		movs	r5, r1
 1557 0246 02E0     		b	.L154
 1558              	.LVL170:
 1559              	.L156:
 809:Generated_Source\PSoC4/cy_em_eeprom.c **** 
 1560              		.loc 1 809 0
 1561 0248 4035     		adds	r5, r5, #64
 1562              	.LVL171:
 811:Generated_Source\PSoC4/cy_em_eeprom.c ****             CY_EM_EEPROM_IS_ADDR_EXCEED_RANGE(emEepromAddr, context->wlEndAddr))
 1563              		.loc 1 811 0
 1564 024a AF42     		cmp	r7, r5
 1565 024c 29D9     		bls	.L155
 1566              	.L154:
 806:Generated_Source\PSoC4/cy_em_eeprom.c ****     {
 1567              		.loc 1 806 0
 1568 024e 2B68     		ldr	r3, [r5]
 1569 0250 9E42     		cmp	r6, r3
ARM GAS  C:\Users\young\AppData\Local\Temp\ccZHlxL6.s 			page 56


 1570 0252 F9D1     		bne	.L156
 1571              	.LVL172:
 1572              	.LBE106:
 1573              	.LBE105:
 312:Generated_Source\PSoC4/cy_em_eeprom.c ****                 {
 1574              		.loc 1 312 0
 1575 0254 002D     		cmp	r5, #0
 1576 0256 24D0     		beq	.L155
 1577              	.LBB107:
 315:Generated_Source\PSoC4/cy_em_eeprom.c ****                     uint32 endAddr    = startAddr + (*(uint32 *)(startRowAddr + CY_EM_EEPROM_HEADER
 1578              		.loc 1 315 0
 1579 0258 6B68     		ldr	r3, [r5, #4]
 1580              	.LVL173:
 316:Generated_Source\PSoC4/cy_em_eeprom.c **** 
 1581              		.loc 1 316 0
 1582 025a AA68     		ldr	r2, [r5, #8]
 1583 025c 9818     		adds	r0, r3, r2
 1584              	.LVL174:
 319:Generated_Source\PSoC4/cy_em_eeprom.c ****                     {
 1585              		.loc 1 319 0
 1586 025e 9945     		cmp	r9, r3
 1587 0260 24D2     		bcs	.L158
 319:Generated_Source\PSoC4/cy_em_eeprom.c ****                     {
 1588              		.loc 1 319 0 is_stmt 0 discriminator 1
 1589 0262 9A45     		cmp	r10, r3
 1590 0264 1DD9     		bls	.L155
 1591              	.LVL175:
 1592              	.LBB108:
 322:Generated_Source\PSoC4/cy_em_eeprom.c ****                         rdAddr = (startAddr > addr) ? (startAddr) : (addr);
 1593              		.loc 1 322 0 is_stmt 1 discriminator 1
 1594 0266 4A46     		mov	r2, r9
 1595 0268 9A1A     		subs	r2, r3, r2
 1596 026a 9446     		mov	ip, r2
 1597 026c 0C22     		movs	r2, #12
 1598 026e 0292     		str	r2, [sp, #8]
 1599              	.LVL176:
 1600              	.L160:
 328:Generated_Source\PSoC4/cy_em_eeprom.c **** 
 1601              		.loc 1 328 0 discriminator 4
 1602 0270 D346     		mov	fp, r10
 1603 0272 8245     		cmp	r10, r0
 1604 0274 00D9     		bls	.L161
 1605 0276 8346     		mov	fp, r0
 1606              	.L161:
 1607 0278 4846     		mov	r0, r9
 1608              	.LVL177:
 1609 027a 9945     		cmp	r9, r3
 1610 027c 00D2     		bcs	.L162
 1611              	.LVL178:
 1612 027e 1800     		movs	r0, r3
 1613              	.LVL179:
 1614              	.L162:
 1615 0280 5B46     		mov	r3, fp
 1616              	.LVL180:
 338:Generated_Source\PSoC4/cy_em_eeprom.c ****                         {
 1617              		.loc 1 338 0 discriminator 4
 1618 0282 227D     		ldrb	r2, [r4, #20]
ARM GAS  C:\Users\young\AppData\Local\Temp\ccZHlxL6.s 			page 57


 328:Generated_Source\PSoC4/cy_em_eeprom.c **** 
 1619              		.loc 1 328 0 discriminator 4
 1620 0284 1B1A     		subs	r3, r3, r0
 1621              	.LVL181:
 331:Generated_Source\PSoC4/cy_em_eeprom.c **** 
 1622              		.loc 1 331 0 discriminator 4
 1623 0286 0498     		ldr	r0, [sp, #16]
 1624 0288 6044     		add	r0, r0, ip
 1625              	.LVL182:
 338:Generated_Source\PSoC4/cy_em_eeprom.c ****                         {
 1626              		.loc 1 338 0 discriminator 4
 1627 028a 002A     		cmp	r2, #0
 1628 028c 16D0     		beq	.L163
 340:Generated_Source\PSoC4/cy_em_eeprom.c **** 
 1629              		.loc 1 340 0
 1630 028e 0191     		str	r1, [sp, #4]
 1631              	.LVL183:
 1632 0290 0097     		str	r7, [sp]
 1633 0292 0100     		movs	r1, r0
 1634 0294 029A     		ldr	r2, [sp, #8]
 1635 0296 2800     		movs	r0, r5
 1636              	.LVL184:
 1637 0298 FFF7FEFF 		bl	CheckCrcAndCopy.isra.2
 1638              	.LVL185:
 342:Generated_Source\PSoC4/cy_em_eeprom.c ****                             {
 1639              		.loc 1 342 0
 1640 029c 0028     		cmp	r0, #0
 1641 029e 00D0     		beq	.LCB1988
 1642 02a0 59E7     		b	.L184	@long jump
 1643              	.LCB1988:
 1644              	.LVL186:
 1645              	.L155:
 1646              	.LBE108:
 1647              	.LBE107:
 308:Generated_Source\PSoC4/cy_em_eeprom.c ****             {
 1648              		.loc 1 308 0 discriminator 2
 1649 02a2 0136     		adds	r6, r6, #1
 1650              	.LVL187:
 1651 02a4 B045     		cmp	r8, r6
 1652 02a6 CBD2     		bcs	.L188
 1653              	.LVL188:
 1654              	.L165:
 1655              	.LBE115:
 174:Generated_Source\PSoC4/cy_em_eeprom.c ****     uint32 i;
 1656              		.loc 1 174 0
 1657 02a8 0020     		movs	r0, #0
 1658 02aa 54E7     		b	.L184
 1659              	.LVL189:
 1660              	.L158:
 1661              	.LBB116:
 1662              	.LBB110:
 319:Generated_Source\PSoC4/cy_em_eeprom.c ****                     {
 1663              		.loc 1 319 0 discriminator 2
 1664 02ac 8145     		cmp	r9, r0
 1665 02ae F8D2     		bcs	.L155
 1666              	.LVL190:
 1667 02b0 039A     		ldr	r2, [sp, #12]
ARM GAS  C:\Users\young\AppData\Local\Temp\ccZHlxL6.s 			page 58


 1668 02b2 D21A     		subs	r2, r2, r3
 1669 02b4 0292     		str	r2, [sp, #8]
 1670              	.LBB109:
 322:Generated_Source\PSoC4/cy_em_eeprom.c ****                         rdAddr = (startAddr > addr) ? (startAddr) : (addr);
 1671              		.loc 1 322 0 discriminator 1
 1672 02b6 0022     		movs	r2, #0
 1673 02b8 9446     		mov	ip, r2
 1674 02ba D9E7     		b	.L160
 1675              	.LVL191:
 1676              	.L163:
 349:Generated_Source\PSoC4/cy_em_eeprom.c ****                         }
 1677              		.loc 1 349 0
 1678 02bc 029A     		ldr	r2, [sp, #8]
 1679 02be A918     		adds	r1, r5, r2
 1680 02c0 1A00     		movs	r2, r3
 1681 02c2 FFF7FEFF 		bl	memcpy
 1682              	.LVL192:
 1683 02c6 ECE7     		b	.L155
 1684              	.LVL193:
 1685              	.L204:
 1686 02c8 079B     		ldr	r3, [sp, #28]
 1687 02ca 4C46     		mov	r4, r9
 1688              	.LVL194:
 1689 02cc 9946     		mov	r9, r3
 1690              	.LVL195:
 1691              	.LBE109:
 1692              	.LBE110:
 1693 02ce A2E7     		b	.L146
 1694              	.LVL196:
 1695              	.L203:
 1696              	.LBB111:
 226:Generated_Source\PSoC4/cy_em_eeprom.c **** 
 1697              		.loc 1 226 0
 1698 02d0 029B     		ldr	r3, [sp, #8]
 1699              	.LVL197:
 1700 02d2 013B     		subs	r3, r3, #1
 1701 02d4 4344     		add	r3, r3, r8
 1702 02d6 52E7     		b	.L167
 1703              	.LVL198:
 1704              	.L178:
 1705              	.LBE111:
 242:Generated_Source\PSoC4/cy_em_eeprom.c ****             {
 1706              		.loc 1 242 0
 1707 02d8 5546     		mov	r5, r10
 1708 02da 80E7     		b	.L141
 1709              	.LVL199:
 1710              	.L179:
 1711 02dc 5546     		mov	r5, r10
 1712 02de 19E7     		b	.L147
 1713              	.LBE116:
 1714              		.cfi_endproc
 1715              	.LFE1:
 1716              		.size	Cy_Em_EEPROM_Read, .-Cy_Em_EEPROM_Read
 1717              		.global	__aeabi_uidivmod
 1718              		.section	.text.Cy_Em_EEPROM_Write,"ax",%progbits
 1719              		.align	2
 1720              		.global	Cy_Em_EEPROM_Write
ARM GAS  C:\Users\young\AppData\Local\Temp\ccZHlxL6.s 			page 59


 1721              		.code	16
 1722              		.thumb_func
 1723              		.type	Cy_Em_EEPROM_Write, %function
 1724              	Cy_Em_EEPROM_Write:
 1725              	.LFB2:
 415:Generated_Source\PSoC4/cy_em_eeprom.c ****     cy_en_em_eeprom_status_t ret = CY_EM_EEPROM_BAD_PARAM;
 1726              		.loc 1 415 0
 1727              		.cfi_startproc
 1728              		@ args = 0, pretend = 0, frame = 104
 1729              		@ frame_needed = 0, uses_anonymous_args = 0
 1730              	.LVL200:
 1731 0000 F0B5     		push	{r4, r5, r6, r7, lr}
 1732              		.cfi_def_cfa_offset 20
 1733              		.cfi_offset 4, -20
 1734              		.cfi_offset 5, -16
 1735              		.cfi_offset 6, -12
 1736              		.cfi_offset 7, -8
 1737              		.cfi_offset 14, -4
 1738 0002 4446     		mov	r4, r8
 1739 0004 5F46     		mov	r7, fp
 1740 0006 5646     		mov	r6, r10
 1741 0008 4D46     		mov	r5, r9
 1742 000a F0B4     		push	{r4, r5, r6, r7}
 1743              		.cfi_def_cfa_offset 36
 1744              		.cfi_offset 8, -36
 1745              		.cfi_offset 9, -32
 1746              		.cfi_offset 10, -28
 1747              		.cfi_offset 11, -24
 1748 000c 9BB0     		sub	sp, sp, #108
 1749              		.cfi_def_cfa_offset 144
 415:Generated_Source\PSoC4/cy_em_eeprom.c ****     cy_en_em_eeprom_status_t ret = CY_EM_EEPROM_BAD_PARAM;
 1750              		.loc 1 415 0
 1751 000e 8446     		mov	ip, r0
 1752 0010 0690     		str	r0, [sp, #24]
 1753 0012 9846     		mov	r8, r3
 1754              	.LVL201:
 1755 0014 0792     		str	r2, [sp, #28]
 416:Generated_Source\PSoC4/cy_em_eeprom.c ****     uint32 i;
 1756              		.loc 1 416 0
 1757 0016 0120     		movs	r0, #1
 1758              	.LVL202:
 430:Generated_Source\PSoC4/cy_em_eeprom.c ****     {
 1759              		.loc 1 430 0
 1760 0018 131E     		subs	r3, r2, #0
 1761              	.LVL203:
 1762 001a 00D1     		bne	.LCB2202
 1763 001c 4FE1     		b	.L274	@long jump
 1764              	.LCB2202:
 430:Generated_Source\PSoC4/cy_em_eeprom.c ****     {
 1765              		.loc 1 430 0 is_stmt 0 discriminator 1
 1766 001e 4446     		mov	r4, r8
 1767 0020 E468     		ldr	r4, [r4, #12]
 1768 0022 6344     		add	r3, r3, ip
 1769 0024 A342     		cmp	r3, r4
 1770 0026 00D9     		bls	.LCB2208
 1771 0028 49E1     		b	.L274	@long jump
 1772              	.LCB2208:
ARM GAS  C:\Users\young\AppData\Local\Temp\ccZHlxL6.s 			page 60


 430:Generated_Source\PSoC4/cy_em_eeprom.c ****     {
 1773              		.loc 1 430 0 discriminator 2
 1774 002a 0029     		cmp	r1, #0
 1775 002c 00D1     		bne	.LCB2210
 1776 002e 46E1     		b	.L274	@long jump
 1777              	.LCB2210:
 424:Generated_Source\PSoC4/cy_em_eeprom.c ****     uint32 emEepromRowRdAddr;
 1778              		.loc 1 424 0 is_stmt 1
 1779 0030 4346     		mov	r3, r8
 1780 0032 9B68     		ldr	r3, [r3, #8]
 427:Generated_Source\PSoC4/cy_em_eeprom.c **** 
 1781              		.loc 1 427 0
 1782 0034 0491     		str	r1, [sp, #16]
 424:Generated_Source\PSoC4/cy_em_eeprom.c ****     uint32 emEepromRowRdAddr;
 1783              		.loc 1 424 0
 1784 0036 0193     		str	r3, [sp, #4]
 1785              	.LBB132:
 432:Generated_Source\PSoC4/cy_em_eeprom.c ****         uint32 eeHeaderDataOffset = 0u;
 1786              		.loc 1 432 0
 1787 0038 1300     		movs	r3, r2
 1788 003a 013B     		subs	r3, r3, #1
 1789 003c 1B09     		lsrs	r3, r3, #4
 1790 003e 0893     		str	r3, [sp, #32]
 1791 0040 0133     		adds	r3, r3, #1
 1792 0042 0993     		str	r3, [sp, #36]
 1793              	.LVL204:
 1794              	.LBE132:
 422:Generated_Source\PSoC4/cy_em_eeprom.c ****     uint32 tmpRowAddr;
 1795              		.loc 1 422 0
 1796 0044 0023     		movs	r3, #0
 1797              	.LVL205:
 1798              	.LBB159:
 433:Generated_Source\PSoC4/cy_em_eeprom.c **** 
 1799              		.loc 1 433 0
 1800 0046 9B46     		mov	fp, r3
 1801              	.LBE159:
 422:Generated_Source\PSoC4/cy_em_eeprom.c ****     uint32 tmpRowAddr;
 1802              		.loc 1 422 0
 1803 0048 0393     		str	r3, [sp, #12]
 421:Generated_Source\PSoC4/cy_em_eeprom.c ****     uint32 endAddr = 0u;
 1804              		.loc 1 421 0
 1805 004a 0293     		str	r3, [sp, #8]
 1806              	.LBB160:
 435:Generated_Source\PSoC4/cy_em_eeprom.c ****         {
 1807              		.loc 1 435 0
 1808 004c 0593     		str	r3, [sp, #20]
 1809              	.LVL206:
 1810              	.L252:
 1811              	.LBB133:
 439:Generated_Source\PSoC4/cy_em_eeprom.c **** 
 1812              		.loc 1 439 0
 1813 004e 019B     		ldr	r3, [sp, #4]
 1814 0050 1E68     		ldr	r6, [r3]
 1815              	.LVL207:
 1816              	.LBB134:
 1817              	.LBB135:
 855:Generated_Source\PSoC4/cy_em_eeprom.c ****     {
ARM GAS  C:\Users\young\AppData\Local\Temp\ccZHlxL6.s 			page 61


 1818              		.loc 1 855 0
 1819 0052 002E     		cmp	r6, #0
 1820 0054 01D0     		beq	.L211
 857:Generated_Source\PSoC4/cy_em_eeprom.c ****     }
 1821              		.loc 1 857 0
 1822 0056 4033     		adds	r3, r3, #64
 1823 0058 0193     		str	r3, [sp, #4]
 1824              	.LVL208:
 1825              	.L211:
 863:Generated_Source\PSoC4/cy_em_eeprom.c ****             CY_EM_EEPROM_IS_ADDR_EXCEED_RANGE(*rowToWrPtr, context->wlEndAddr))
 1826              		.loc 1 863 0
 1827 005a 4346     		mov	r3, r8
 1828 005c 019A     		ldr	r2, [sp, #4]
 1829 005e 1B68     		ldr	r3, [r3]
 1830 0060 9342     		cmp	r3, r2
 1831 0062 02D8     		bhi	.L212
 866:Generated_Source\PSoC4/cy_em_eeprom.c ****     }
 1832              		.loc 1 866 0
 1833 0064 4346     		mov	r3, r8
 1834 0066 9B69     		ldr	r3, [r3, #24]
 1835 0068 0193     		str	r3, [sp, #4]
 1836              	.LVL209:
 1837              	.L212:
 875:Generated_Source\PSoC4/cy_em_eeprom.c ****     {
 1838              		.loc 1 875 0
 1839 006a 4346     		mov	r3, r8
 1840 006c 5C68     		ldr	r4, [r3, #4]
 1841 006e A642     		cmp	r6, r4
 1842 0070 00D2     		bcs	.LCB2308
 1843 0072 68E1     		b	.L213	@long jump
 1844              	.LCB2308:
 1845              	.LVL210:
 878:Generated_Source\PSoC4/cy_em_eeprom.c ****         {
 1846              		.loc 1 878 0
 1847 0074 1A69     		ldr	r2, [r3, #16]
 1848 0076 012A     		cmp	r2, #1
 1849 0078 00D8     		bhi	.LCB2313
 1850 007a 7CE1     		b	.L264	@long jump
 1851              	.LCB2313:
 883:Generated_Source\PSoC4/cy_em_eeprom.c ****                 context->userFlashStartAddr)
 1852              		.loc 1 883 0
 1853 007c 4046     		mov	r0, r8
 1854 007e 0199     		ldr	r1, [sp, #4]
 1855 0080 8069     		ldr	r0, [r0, #24]
 1856 0082 A301     		lsls	r3, r4, #6
 1857              	.LVL211:
 1858 0084 CD1A     		subs	r5, r1, r3
 1859 0086 8542     		cmp	r5, r0
 1860 0088 04D2     		bcs	.L214
 888:Generated_Source\PSoC4/cy_em_eeprom.c ****             }
 1861              		.loc 1 888 0
 1862 008a 8C46     		mov	ip, r1
 1863 008c C148     		ldr	r0, .L297
 1864 008e 1518     		adds	r5, r2, r0
 1865 0090 5D43     		muls	r5, r3
 1866 0092 6544     		add	r5, r5, ip
 1867              	.LVL212:
ARM GAS  C:\Users\young\AppData\Local\Temp\ccZHlxL6.s 			page 62


 1868              	.L214:
 1869              	.LBE135:
 1870              	.LBE134:
 449:Generated_Source\PSoC4/cy_em_eeprom.c **** 
 1871              		.loc 1 449 0
 1872 0094 4022     		movs	r2, #64
 1873 0096 0021     		movs	r1, #0
 1874 0098 0AA8     		add	r0, sp, #40
 1875 009a FFF7FEFF 		bl	memset
 1876              	.LVL213:
 452:Generated_Source\PSoC4/cy_em_eeprom.c ****             writeRamBuffer[CY_EM_EEPROM_HEADER_SEQ_NUM_OFFSET_U32] = seqNum;
 1877              		.loc 1 452 0
 1878 009e 731C     		adds	r3, r6, #1
 1879 00a0 9946     		mov	r9, r3
 1880              	.LVL214:
 453:Generated_Source\PSoC4/cy_em_eeprom.c ****             writeRamBuffer[CY_EM_EEPROM_HEADER_ADDR_OFFSET_U32] = addr;
 1881              		.loc 1 453 0
 1882 00a2 0A93     		str	r3, [sp, #40]
 454:Generated_Source\PSoC4/cy_em_eeprom.c ****             tmpData = (void *) eeData;
 1883              		.loc 1 454 0
 1884 00a4 069B     		ldr	r3, [sp, #24]
 1885              	.LVL215:
 458:Generated_Source\PSoC4/cy_em_eeprom.c ****             {
 1886              		.loc 1 458 0
 1887 00a6 059A     		ldr	r2, [sp, #20]
 454:Generated_Source\PSoC4/cy_em_eeprom.c ****             tmpData = (void *) eeData;
 1888              		.loc 1 454 0
 1889 00a8 0B93     		str	r3, [sp, #44]
 458:Generated_Source\PSoC4/cy_em_eeprom.c ****             {
 1890              		.loc 1 458 0
 1891 00aa 089B     		ldr	r3, [sp, #32]
 455:Generated_Source\PSoC4/cy_em_eeprom.c **** 
 1892              		.loc 1 455 0
 1893 00ac 0499     		ldr	r1, [sp, #16]
 1894              	.LVL216:
 458:Generated_Source\PSoC4/cy_em_eeprom.c ****             {
 1895              		.loc 1 458 0
 1896 00ae 9342     		cmp	r3, r2
 1897 00b0 00D1     		bne	.LCB2358
 1898 00b2 62E1     		b	.L265	@long jump
 1899              	.LCB2358:
 1900              	.LVL217:
 1901              	.L259:
 469:Generated_Source\PSoC4/cy_em_eeprom.c ****                 size -= CY_EM_EEPROM_HEADER_DATA_LEN;
 1902              		.loc 1 469 0
 1903 00b4 1022     		movs	r2, #16
 470:Generated_Source\PSoC4/cy_em_eeprom.c ****                 addr += CY_EM_EEPROM_HEADER_DATA_LEN;
 1904              		.loc 1 470 0
 1905 00b6 079B     		ldr	r3, [sp, #28]
 1906 00b8 103B     		subs	r3, r3, #16
 1907 00ba 0793     		str	r3, [sp, #28]
 1908              	.LVL218:
 471:Generated_Source\PSoC4/cy_em_eeprom.c ****                 eeData += CY_EM_EEPROM_HEADER_DATA_LEN;
 1909              		.loc 1 471 0
 1910 00bc 069B     		ldr	r3, [sp, #24]
 1911              	.LVL219:
 1912 00be 1033     		adds	r3, r3, #16
ARM GAS  C:\Users\young\AppData\Local\Temp\ccZHlxL6.s 			page 63


 1913 00c0 0693     		str	r3, [sp, #24]
 1914              	.LVL220:
 472:Generated_Source\PSoC4/cy_em_eeprom.c ****             }
 1915              		.loc 1 472 0
 1916 00c2 049B     		ldr	r3, [sp, #16]
 1917              	.LVL221:
 1918 00c4 1033     		adds	r3, r3, #16
 1919 00c6 0493     		str	r3, [sp, #16]
 1920              	.LVL222:
 1921              	.L215:
 476:Generated_Source\PSoC4/cy_em_eeprom.c ****                          tmpData,
 1922              		.loc 1 476 0
 1923 00c8 0DA8     		add	r0, sp, #52
 1924 00ca 0C92     		str	r2, [sp, #48]
 1925 00cc FFF7FEFF 		bl	memcpy
 1926              	.LVL223:
 480:Generated_Source\PSoC4/cy_em_eeprom.c ****             {
 1927              		.loc 1 480 0
 1928 00d0 002D     		cmp	r5, #0
 1929 00d2 00D0     		beq	.LCB2397
 1930 00d4 48E1     		b	.L286	@long jump
 1931              	.LCB2397:
 1932              	.L216:
 492:Generated_Source\PSoC4/cy_em_eeprom.c **** 
 1933              		.loc 1 492 0
 1934 00d6 0126     		movs	r6, #1
 1935 00d8 4C45     		cmp	r4, r9
 1936 00da 02D2     		bcs	.L217
 492:Generated_Source\PSoC4/cy_em_eeprom.c **** 
 1937              		.loc 1 492 0 is_stmt 0 discriminator 1
 1938 00dc 0123     		movs	r3, #1
 1939 00de 1E1B     		subs	r6, r3, r4
 1940 00e0 4E44     		add	r6, r6, r9
 1941              	.L217:
 1942              	.LVL224:
 494:Generated_Source\PSoC4/cy_em_eeprom.c ****             {
 1943              		.loc 1 494 0 is_stmt 1 discriminator 1
 1944 00e2 4E45     		cmp	r6, r9
 1945 00e4 00D9     		bls	.LCB2419
 1946 00e6 D4E0     		b	.L218	@long jump
 1947              	.LCB2419:
 494:Generated_Source\PSoC4/cy_em_eeprom.c ****             {
 1948              		.loc 1 494 0 is_stmt 0
 1949 00e8 0021     		movs	r1, #0
 1950              	.LBB138:
 1951              	.LBB139:
 934:Generated_Source\PSoC4/cy_em_eeprom.c ****         }
 1952              		.loc 1 934 0 is_stmt 1
 1953 00ea 3125     		movs	r5, #49
 1954 00ec 1AAF     		add	r7, sp, #104
 1955              	.LVL225:
 1956              	.L249:
 1957              	.LBE139:
 1958              	.LBE138:
 496:Generated_Source\PSoC4/cy_em_eeprom.c ****                 {
 1959              		.loc 1 496 0
 1960 00ee B145     		cmp	r9, r6
ARM GAS  C:\Users\young\AppData\Local\Temp\ccZHlxL6.s 			page 64


 1961 00f0 00D1     		bne	.LCB2440
 1962 00f2 4BE1     		b	.L287	@long jump
 1963              	.LCB2440:
 1964 00f4 4246     		mov	r2, r8
 1965 00f6 4346     		mov	r3, r8
 1966 00f8 9269     		ldr	r2, [r2, #24]
 1967 00fa 1B68     		ldr	r3, [r3]
 1968              	.LVL226:
 1969              	.LBB141:
 1970              	.LBB142:
 804:Generated_Source\PSoC4/cy_em_eeprom.c **** 
 1971              		.loc 1 804 0
 1972 00fc 1400     		movs	r4, r2
 1973 00fe 03E0     		b	.L221
 1974              	.LVL227:
 1975              	.L223:
 809:Generated_Source\PSoC4/cy_em_eeprom.c **** 
 1976              		.loc 1 809 0
 1977 0100 4034     		adds	r4, r4, #64
 1978              	.LVL228:
 811:Generated_Source\PSoC4/cy_em_eeprom.c ****             CY_EM_EEPROM_IS_ADDR_EXCEED_RANGE(emEepromAddr, context->wlEndAddr))
 1979              		.loc 1 811 0
 1980 0102 A342     		cmp	r3, r4
 1981 0104 00D8     		bhi	.LCB2468
 1982 0106 E1E0     		b	.L222	@long jump
 1983              	.LCB2468:
 1984              	.L221:
 806:Generated_Source\PSoC4/cy_em_eeprom.c ****     {
 1985              		.loc 1 806 0
 1986 0108 2068     		ldr	r0, [r4]
 1987 010a B042     		cmp	r0, r6
 1988 010c F8D1     		bne	.L223
 1989              	.LVL229:
 1990              	.L220:
 1991              	.LBE142:
 1992              	.LBE141:
 515:Generated_Source\PSoC4/cy_em_eeprom.c ****                 {
 1993              		.loc 1 515 0
 1994 010e 002C     		cmp	r4, #0
 1995 0110 00D1     		bne	.LCB2487
 1996 0112 DBE0     		b	.L222	@long jump
 1997              	.LCB2487:
 518:Generated_Source\PSoC4/cy_em_eeprom.c ****                                               &startAddr,
 1998              		.loc 1 518 0
 1999 0114 6368     		ldr	r3, [r4, #4]
 2000 0116 9A46     		mov	r10, r3
 2001 0118 A368     		ldr	r3, [r4, #8]
 2002 011a 9B46     		mov	fp, r3
 2003              	.LVL230:
 2004              	.LBB143:
 2005              	.LBB144:
1308:Generated_Source\PSoC4/cy_em_eeprom.c ****     {
 2006              		.loc 1 1308 0
 2007 011c 019B     		ldr	r3, [sp, #4]
 2008              	.LVL231:
 2009 011e 981A     		subs	r0, r3, r2
 2010              	.LVL232:
ARM GAS  C:\Users\young\AppData\Local\Temp\ccZHlxL6.s 			page 65


 2011 0120 4346     		mov	r3, r8
 2012 0122 8009     		lsrs	r0, r0, #6
 2013              	.LVL233:
 2014 0124 5968     		ldr	r1, [r3, #4]
 2015              	.LVL234:
 2016 0126 FFF7FEFF 		bl	__aeabi_uidivmod
 2017              	.LVL235:
 2018 012a 4901     		lsls	r1, r1, #5
 2019 012c 5145     		cmp	r1, r10
 2020 012e 00D9     		bls	.LCB2520
 2021 0130 D4E0     		b	.L224	@long jump
 2022              	.LCB2520:
 2023 0132 0A00     		movs	r2, r1
 2024 0134 1F32     		adds	r2, r2, #31
 2025 0136 9245     		cmp	r10, r2
 2026 0138 00D9     		bls	.LCB2524
 2027 013a CFE0     		b	.L224	@long jump
 2028              	.LCB2524:
1310:Generated_Source\PSoC4/cy_em_eeprom.c **** 
 2029              		.loc 1 1310 0
 2030 013c 1F23     		movs	r3, #31
 2031 013e 5046     		mov	r0, r10
 2032 0140 0340     		ands	r3, r0
 2033 0142 2033     		adds	r3, r3, #32
 2034 0144 0293     		str	r3, [sp, #8]
 2035              	.LVL236:
1312:Generated_Source\PSoC4/cy_em_eeprom.c ****         {
 2036              		.loc 1 1312 0
 2037 0146 5346     		mov	r3, r10
 2038              	.LVL237:
 2039 0148 5B44     		add	r3, r3, fp
 2040 014a 9942     		cmp	r1, r3
 2041 014c 00D9     		bls	.LCB2536
 2042 014e E1E0     		b	.L284	@long jump
 2043              	.LCB2536:
 2044 0150 9A42     		cmp	r2, r3
 2045 0152 00D2     		bcs	.LCB2538
 2046 0154 DEE0     		b	.L284	@long jump
 2047              	.LCB2538:
1314:Generated_Source\PSoC4/cy_em_eeprom.c ****         }
 2048              		.loc 1 1314 0
 2049 0156 029A     		ldr	r2, [sp, #8]
 2050 0158 5B46     		mov	r3, fp
 2051 015a 9446     		mov	ip, r2
 2052 015c 6344     		add	r3, r3, ip
 2053              	.L283:
 2054 015e 0393     		str	r3, [sp, #12]
 2055              	.LVL238:
1306:Generated_Source\PSoC4/cy_em_eeprom.c **** 
 2056              		.loc 1 1306 0
 2057 0160 0023     		movs	r3, #0
 2058              	.LVL239:
 2059 0162 039A     		ldr	r2, [sp, #12]
 2060 0164 9B46     		mov	fp, r3
 2061              	.LVL240:
 2062 0166 029B     		ldr	r3, [sp, #8]
 2063              	.LVL241:
ARM GAS  C:\Users\young\AppData\Local\Temp\ccZHlxL6.s 			page 66


 2064              	.L227:
 2065              	.LBE144:
 2066              	.LBE143:
 2067              	.LBB147:
 541:Generated_Source\PSoC4/cy_em_eeprom.c ****                 }
 2068              		.loc 1 541 0
 2069 0168 0AA8     		add	r0, sp, #40
 2070 016a 8446     		mov	ip, r0
 540:Generated_Source\PSoC4/cy_em_eeprom.c ****                     (void)memcpy((void *)(dataAddr), (void *)(tmpRowAddr), endAddr - startAddr);
 2071              		.loc 1 540 0
 2072 016c 5C44     		add	r4, r4, fp
 2073              	.LVL242:
 541:Generated_Source\PSoC4/cy_em_eeprom.c ****                 }
 2074              		.loc 1 541 0
 2075 016e 2100     		movs	r1, r4
 2076 0170 D21A     		subs	r2, r2, r3
 2077 0172 6344     		add	r3, r3, ip
 2078 0174 0C31     		adds	r1, r1, #12
 2079              	.LVL243:
 2080 0176 1800     		movs	r0, r3
 2081 0178 FFF7FEFF 		bl	memcpy
 2082              	.LVL244:
 2083 017c 0021     		movs	r1, #0
 2084              	.LVL245:
 2085              	.L230:
 2086              	.LBE147:
 545:Generated_Source\PSoC4/cy_em_eeprom.c ****                 {
 2087              		.loc 1 545 0
 2088 017e 4346     		mov	r3, r8
 2089 0180 1B7D     		ldrb	r3, [r3, #20]
 2090 0182 002B     		cmp	r3, #0
 2091 0184 00D1     		bne	.LCB2605
 2092 0186 80E0     		b	.L231	@long jump
 2093              	.LCB2605:
 2094              	.LVL246:
 2095              	.L260:
 2096 0188 12AA     		add	r2, sp, #72
 2097 018a FF23     		movs	r3, #255
 2098 018c 35E0     		b	.L248
 2099              	.LVL247:
 2100              	.L233:
 2101              	.LBB148:
 2102              	.LBB140:
 934:Generated_Source\PSoC4/cy_em_eeprom.c ****         }
 2103              		.loc 1 934 0
 2104 018e 5800     		lsls	r0, r3, #1
 2105 0190 C0B2     		uxtb	r0, r0
 2106 0192 0400     		movs	r4, r0
 2107 0194 6C40     		eors	r4, r5
 2108 0196 E4B2     		uxtb	r4, r4
 2109 0198 1B06     		lsls	r3, r3, #24
 2110 019a 40D4     		bmi	.L234
 2111              	.L295:
 2112 019c 031C     		adds	r3, r0, #0
 2113 019e 5800     		lsls	r0, r3, #1
 2114 01a0 C0B2     		uxtb	r0, r0
 2115 01a2 0400     		movs	r4, r0
ARM GAS  C:\Users\young\AppData\Local\Temp\ccZHlxL6.s 			page 67


 2116 01a4 6C40     		eors	r4, r5
 2117 01a6 E4B2     		uxtb	r4, r4
 2118 01a8 1B06     		lsls	r3, r3, #24
 2119 01aa 40D4     		bmi	.L288
 2120              	.L237:
 2121 01ac 4300     		lsls	r3, r0, #1
 2122 01ae DBB2     		uxtb	r3, r3
 2123 01b0 1C00     		movs	r4, r3
 2124 01b2 6C40     		eors	r4, r5
 2125 01b4 E4B2     		uxtb	r4, r4
 2126 01b6 0006     		lsls	r0, r0, #24
 2127 01b8 41D4     		bmi	.L289
 2128              	.L239:
 2129 01ba 5800     		lsls	r0, r3, #1
 2130 01bc C0B2     		uxtb	r0, r0
 2131 01be 0400     		movs	r4, r0
 2132 01c0 6C40     		eors	r4, r5
 2133 01c2 E4B2     		uxtb	r4, r4
 2134 01c4 1B06     		lsls	r3, r3, #24
 2135 01c6 42D4     		bmi	.L290
 2136              	.L241:
 2137 01c8 4300     		lsls	r3, r0, #1
 2138 01ca DBB2     		uxtb	r3, r3
 2139 01cc 1C00     		movs	r4, r3
 2140 01ce 6C40     		eors	r4, r5
 2141 01d0 E4B2     		uxtb	r4, r4
 2142 01d2 0006     		lsls	r0, r0, #24
 2143 01d4 43D4     		bmi	.L291
 2144              	.L243:
 2145 01d6 5800     		lsls	r0, r3, #1
 2146 01d8 C0B2     		uxtb	r0, r0
 2147 01da 0400     		movs	r4, r0
 2148 01dc 6C40     		eors	r4, r5
 2149 01de E4B2     		uxtb	r4, r4
 2150 01e0 1B06     		lsls	r3, r3, #24
 2151 01e2 44D4     		bmi	.L292
 2152              	.L245:
 2153 01e4 4300     		lsls	r3, r0, #1
 2154 01e6 DBB2     		uxtb	r3, r3
 2155 01e8 1C00     		movs	r4, r3
 2156 01ea 6C40     		eors	r4, r5
 2157 01ec E4B2     		uxtb	r4, r4
 2158 01ee 0006     		lsls	r0, r0, #24
 2159 01f0 45D4     		bmi	.L293
 2160              	.L247:
 2161 01f2 0132     		adds	r2, r2, #1
 2162 01f4 DBB2     		uxtb	r3, r3
 2163              	.LVL248:
 929:Generated_Source\PSoC4/cy_em_eeprom.c ****     {
 2164              		.loc 1 929 0
 2165 01f6 9742     		cmp	r7, r2
 2166 01f8 46D0     		beq	.L294
 2167              	.LVL249:
 2168              	.L248:
 931:Generated_Source\PSoC4/cy_em_eeprom.c ****         for (i = 0u; i < CY_EM_EEPROM_CRC8_POLYNOM_LEN; i++)
 2169              		.loc 1 931 0
 2170 01fa 1078     		ldrb	r0, [r2]
ARM GAS  C:\Users\young\AppData\Local\Temp\ccZHlxL6.s 			page 68


 2171 01fc 4340     		eors	r3, r0
 934:Generated_Source\PSoC4/cy_em_eeprom.c ****         }
 2172              		.loc 1 934 0
 2173 01fe 5CB2     		sxtb	r4, r3
 2174 0200 5B00     		lsls	r3, r3, #1
 2175 0202 DBB2     		uxtb	r3, r3
 2176 0204 1800     		movs	r0, r3
 2177 0206 6840     		eors	r0, r5
 2178 0208 C0B2     		uxtb	r0, r0
 2179 020a 002C     		cmp	r4, #0
 2180 020c BFDA     		bge	.L233
 2181 020e 031C     		adds	r3, r0, #0
 2182 0210 5800     		lsls	r0, r3, #1
 2183 0212 C0B2     		uxtb	r0, r0
 2184 0214 0400     		movs	r4, r0
 2185 0216 6C40     		eors	r4, r5
 2186 0218 E4B2     		uxtb	r4, r4
 2187 021a 1B06     		lsls	r3, r3, #24
 2188 021c BED5     		bpl	.L295
 2189              	.L234:
 2190 021e 231C     		adds	r3, r4, #0
 2191 0220 5800     		lsls	r0, r3, #1
 2192 0222 C0B2     		uxtb	r0, r0
 2193 0224 0400     		movs	r4, r0
 2194 0226 6C40     		eors	r4, r5
 2195 0228 E4B2     		uxtb	r4, r4
 2196 022a 1B06     		lsls	r3, r3, #24
 2197 022c BED5     		bpl	.L237
 2198              	.L288:
 2199 022e 201C     		adds	r0, r4, #0
 2200 0230 4300     		lsls	r3, r0, #1
 2201 0232 DBB2     		uxtb	r3, r3
 2202 0234 1C00     		movs	r4, r3
 2203 0236 6C40     		eors	r4, r5
 2204 0238 E4B2     		uxtb	r4, r4
 2205 023a 0006     		lsls	r0, r0, #24
 2206 023c BDD5     		bpl	.L239
 2207              	.L289:
 2208 023e 231C     		adds	r3, r4, #0
 2209 0240 5800     		lsls	r0, r3, #1
 2210 0242 C0B2     		uxtb	r0, r0
 2211 0244 0400     		movs	r4, r0
 2212 0246 6C40     		eors	r4, r5
 2213 0248 E4B2     		uxtb	r4, r4
 2214 024a 1B06     		lsls	r3, r3, #24
 2215 024c BCD5     		bpl	.L241
 2216              	.L290:
 2217 024e 201C     		adds	r0, r4, #0
 2218 0250 4300     		lsls	r3, r0, #1
 2219 0252 DBB2     		uxtb	r3, r3
 2220 0254 1C00     		movs	r4, r3
 2221 0256 6C40     		eors	r4, r5
 2222 0258 E4B2     		uxtb	r4, r4
 2223 025a 0006     		lsls	r0, r0, #24
 2224 025c BBD5     		bpl	.L243
 2225              	.L291:
 2226 025e 231C     		adds	r3, r4, #0
ARM GAS  C:\Users\young\AppData\Local\Temp\ccZHlxL6.s 			page 69


 2227 0260 5800     		lsls	r0, r3, #1
 2228 0262 C0B2     		uxtb	r0, r0
 2229 0264 0400     		movs	r4, r0
 2230 0266 6C40     		eors	r4, r5
 2231 0268 E4B2     		uxtb	r4, r4
 2232 026a 1B06     		lsls	r3, r3, #24
 2233 026c BAD5     		bpl	.L245
 2234              	.L292:
 2235 026e 201C     		adds	r0, r4, #0
 2236 0270 4300     		lsls	r3, r0, #1
 2237 0272 DBB2     		uxtb	r3, r3
 2238 0274 1C00     		movs	r4, r3
 2239 0276 6C40     		eors	r4, r5
 2240 0278 E4B2     		uxtb	r4, r4
 2241 027a 0006     		lsls	r0, r0, #24
 2242 027c B9D5     		bpl	.L247
 2243              	.L293:
 2244 027e 231C     		adds	r3, r4, #0
 2245 0280 0132     		adds	r2, r2, #1
 2246 0282 DBB2     		uxtb	r3, r3
 2247              	.LVL250:
 929:Generated_Source\PSoC4/cy_em_eeprom.c ****     {
 2248              		.loc 1 929 0
 2249 0284 9742     		cmp	r7, r2
 2250 0286 B8D1     		bne	.L248
 2251              	.LVL251:
 2252              	.L294:
 2253              	.LBE140:
 2254              	.LBE148:
 547:Generated_Source\PSoC4/cy_em_eeprom.c ****                         CalcChecksum((uint8 *) &writeRamBuffer[CY_EM_EEPROM_EEPROM_DATA_OFFSET_U32]
 2255              		.loc 1 547 0
 2256 0288 1193     		str	r3, [sp, #68]
 2257              	.L231:
 494:Generated_Source\PSoC4/cy_em_eeprom.c ****             {
 2258              		.loc 1 494 0
 2259 028a 0136     		adds	r6, r6, #1
 2260              	.LVL252:
 2261 028c 4E45     		cmp	r6, r9
 2262 028e 00D8     		bhi	.LCB2796
 2263 0290 2DE7     		b	.L249	@long jump
 2264              	.LCB2796:
 2265              	.LVL253:
 2266              	.L218:
 2267              	.LBB149:
 2268              	.LBB150:
1017:Generated_Source\PSoC4/cy_em_eeprom.c ****     #else
 2269              		.loc 1 1017 0
 2270 0292 019B     		ldr	r3, [sp, #4]
 2271 0294 0AA9     		add	r1, sp, #40
 2272              	.LVL254:
 2273 0296 9809     		lsrs	r0, r3, #6
 2274              	.LVL255:
 2275 0298 FFF7FEFF 		bl	CySysFlashWriteRow
 2276              	.LVL256:
1034:Generated_Source\PSoC4/cy_em_eeprom.c ****     {
 2277              		.loc 1 1034 0
 2278 029c 0028     		cmp	r0, #0
ARM GAS  C:\Users\young\AppData\Local\Temp\ccZHlxL6.s 			page 70


 2279 029e 50D1     		bne	.L251
 2280              	.LVL257:
 2281              	.LBE150:
 2282              	.LBE149:
 558:Generated_Source\PSoC4/cy_em_eeprom.c ****             {
 2283              		.loc 1 558 0
 2284 02a0 4346     		mov	r3, r8
 2285 02a2 1B7D     		ldrb	r3, [r3, #20]
 2286 02a4 002B     		cmp	r3, #0
 2287 02a6 3FD1     		bne	.L296
 2288              	.LVL258:
 2289              	.L257:
 572:Generated_Source\PSoC4/cy_em_eeprom.c ****             }
 2290              		.loc 1 572 0
 2291 02a8 4346     		mov	r3, r8
 2292 02aa 019A     		ldr	r2, [sp, #4]
 2293 02ac 9A60     		str	r2, [r3, #8]
 2294              	.LBE133:
 435:Generated_Source\PSoC4/cy_em_eeprom.c ****         {
 2295              		.loc 1 435 0
 2296 02ae 059B     		ldr	r3, [sp, #20]
 2297 02b0 099A     		ldr	r2, [sp, #36]
 2298 02b2 0133     		adds	r3, r3, #1
 2299 02b4 0593     		str	r3, [sp, #20]
 2300              	.LVL259:
 2301 02b6 9A42     		cmp	r2, r3
 2302 02b8 00D0     		beq	.LCB2858
 2303 02ba C8E6     		b	.L252	@long jump
 2304              	.LCB2858:
 2305 02bc 0020     		movs	r0, #0
 2306              	.LVL260:
 2307              	.L274:
 2308              	.LBE160:
 581:Generated_Source\PSoC4/cy_em_eeprom.c **** 
 2309              		.loc 1 581 0
 2310 02be 1BB0     		add	sp, sp, #108
 2311              		@ sp needed
 2312              	.LVL261:
 2313 02c0 3CBC     		pop	{r2, r3, r4, r5}
 2314 02c2 9046     		mov	r8, r2
 2315 02c4 9946     		mov	r9, r3
 2316 02c6 A246     		mov	r10, r4
 2317 02c8 AB46     		mov	fp, r5
 2318 02ca F0BD     		pop	{r4, r5, r6, r7, pc}
 2319              	.LVL262:
 2320              	.L222:
 2321              	.LBB161:
 2322              	.LBB157:
 529:Generated_Source\PSoC4/cy_em_eeprom.c ****                 }
 2323              		.loc 1 529 0
 2324 02cc 0131     		adds	r1, r1, #1
 2325              	.LVL263:
 533:Generated_Source\PSoC4/cy_em_eeprom.c ****                 {
 2326              		.loc 1 533 0
 2327 02ce 0029     		cmp	r1, #0
 2328 02d0 00D0     		beq	.LCB2918
 2329 02d2 54E7     		b	.L230	@long jump
ARM GAS  C:\Users\young\AppData\Local\Temp\ccZHlxL6.s 			page 71


 2330              	.LCB2918:
 2331 02d4 0024     		movs	r4, #0
 2332 02d6 039A     		ldr	r2, [sp, #12]
 2333 02d8 029B     		ldr	r3, [sp, #8]
 2334 02da 45E7     		b	.L227
 2335              	.LVL264:
 2336              	.L224:
 2337              	.LBB151:
 2338              	.LBB145:
1324:Generated_Source\PSoC4/cy_em_eeprom.c ****         {
 2339              		.loc 1 1324 0
 2340 02dc 5346     		mov	r3, r10
 2341 02de 5B44     		add	r3, r3, fp
 2342 02e0 9942     		cmp	r1, r3
 2343 02e2 0FD8     		bhi	.L229
 2344 02e4 1F31     		adds	r1, r1, #31
 2345 02e6 8B42     		cmp	r3, r1
 2346 02e8 0CD8     		bhi	.L229
 2347              	.LVL265:
1327:Generated_Source\PSoC4/cy_em_eeprom.c ****             *offset = len - (*endAddr - *startAddr);
 2348              		.loc 1 1327 0
 2349 02ea 5246     		mov	r2, r10
 2350 02ec 1F23     		movs	r3, #31
 2351 02ee 1340     		ands	r3, r2
 2352 02f0 5B44     		add	r3, r3, fp
 2353 02f2 1A00     		movs	r2, r3
 2354 02f4 0393     		str	r3, [sp, #12]
 2355              	.LVL266:
1328:Generated_Source\PSoC4/cy_em_eeprom.c ****         }
 2356              		.loc 1 1328 0
 2357 02f6 5B46     		mov	r3, fp
 2358 02f8 2033     		adds	r3, r3, #32
 2359 02fa 9B1A     		subs	r3, r3, r2
 2360 02fc 9B46     		mov	fp, r3
 2361              	.LVL267:
1326:Generated_Source\PSoC4/cy_em_eeprom.c ****             *endAddr = (*startAddr + len) - (*startAddr - (addr % CY_EM_EEPROM_EEPROM_DATA_LEN));
 2362              		.loc 1 1326 0
 2363 02fe 2023     		movs	r3, #32
 2364              	.LVL268:
 2365 0300 0293     		str	r3, [sp, #8]
 2366              	.LVL269:
 2367 0302 31E7     		b	.L227
 2368              	.LVL270:
 2369              	.L229:
 2370              	.LBE145:
 2371              	.LBE151:
 545:Generated_Source\PSoC4/cy_em_eeprom.c ****                 {
 2372              		.loc 1 545 0
 2373 0304 4346     		mov	r3, r8
 2374 0306 1B7D     		ldrb	r3, [r3, #20]
 2375 0308 002B     		cmp	r3, #0
 2376 030a 05D0     		beq	.L267
 2377 030c 0023     		movs	r3, #0
 2378 030e 0121     		movs	r1, #1
 2379 0310 9B46     		mov	fp, r3
 2380              	.LVL271:
 2381 0312 39E7     		b	.L260
ARM GAS  C:\Users\young\AppData\Local\Temp\ccZHlxL6.s 			page 72


 2382              	.LVL272:
 2383              	.L284:
 2384              	.LBB152:
 2385              	.LBB146:
1312:Generated_Source\PSoC4/cy_em_eeprom.c ****         {
 2386              		.loc 1 1312 0
 2387 0314 4023     		movs	r3, #64
 2388 0316 22E7     		b	.L283
 2389              	.LVL273:
 2390              	.L267:
 2391              	.LBE146:
 2392              	.LBE152:
 2393 0318 0023     		movs	r3, #0
 494:Generated_Source\PSoC4/cy_em_eeprom.c ****             {
 2394              		.loc 1 494 0
 2395 031a 0136     		adds	r6, r6, #1
 2396              	.LVL274:
 2397 031c 9B46     		mov	fp, r3
 2398              	.LVL275:
 2399 031e 0121     		movs	r1, #1
 2400              	.LVL276:
 2401 0320 4E45     		cmp	r6, r9
 2402 0322 00D8     		bhi	.LCB3031
 2403 0324 E3E6     		b	.L249	@long jump
 2404              	.LCB3031:
 2405 0326 B4E7     		b	.L218
 2406              	.LVL277:
 2407              	.L296:
 2408              	.LBB153:
 2409              	.LBB154:
1017:Generated_Source\PSoC4/cy_em_eeprom.c ****     #else
 2410              		.loc 1 1017 0
 2411 0328 4346     		mov	r3, r8
 2412 032a 1A68     		ldr	r2, [r3]
 2413 032c 9B69     		ldr	r3, [r3, #24]
 2414 032e 0AA9     		add	r1, sp, #40
 2415              	.LVL278:
 2416 0330 D01A     		subs	r0, r2, r3
 2417 0332 019B     		ldr	r3, [sp, #4]
 2418 0334 9C46     		mov	ip, r3
 2419 0336 6044     		add	r0, r0, ip
 2420              	.LVL279:
 2421 0338 8009     		lsrs	r0, r0, #6
 2422              	.LVL280:
 2423 033a FFF7FEFF 		bl	CySysFlashWriteRow
 2424              	.LVL281:
1034:Generated_Source\PSoC4/cy_em_eeprom.c ****     {
 2425              		.loc 1 1034 0
 2426 033e 0028     		cmp	r0, #0
 2427 0340 B2D0     		beq	.L257
 2428              	.LVL282:
 2429              	.L251:
 2430              	.LBE154:
 2431              	.LBE153:
 2432              	.LBE157:
 2433              	.LBE161:
 416:Generated_Source\PSoC4/cy_em_eeprom.c ****     uint32 i;
ARM GAS  C:\Users\young\AppData\Local\Temp\ccZHlxL6.s 			page 73


 2434              		.loc 1 416 0
 2435 0342 0420     		movs	r0, #4
 2436              	.LVL283:
 580:Generated_Source\PSoC4/cy_em_eeprom.c **** }
 2437              		.loc 1 580 0
 2438 0344 BBE7     		b	.L274
 2439              	.LVL284:
 2440              	.L213:
 2441              	.LBB162:
 2442              	.LBB158:
 449:Generated_Source\PSoC4/cy_em_eeprom.c **** 
 2443              		.loc 1 449 0
 2444 0346 4022     		movs	r2, #64
 2445 0348 0021     		movs	r1, #0
 2446 034a 0AA8     		add	r0, sp, #40
 2447 034c FFF7FEFF 		bl	memset
 2448              	.LVL285:
 452:Generated_Source\PSoC4/cy_em_eeprom.c ****             writeRamBuffer[CY_EM_EEPROM_HEADER_SEQ_NUM_OFFSET_U32] = seqNum;
 2449              		.loc 1 452 0
 2450 0350 731C     		adds	r3, r6, #1
 2451 0352 9946     		mov	r9, r3
 2452              	.LVL286:
 453:Generated_Source\PSoC4/cy_em_eeprom.c ****             writeRamBuffer[CY_EM_EEPROM_HEADER_ADDR_OFFSET_U32] = addr;
 2453              		.loc 1 453 0
 2454 0354 0A93     		str	r3, [sp, #40]
 454:Generated_Source\PSoC4/cy_em_eeprom.c ****             tmpData = (void *) eeData;
 2455              		.loc 1 454 0
 2456 0356 069B     		ldr	r3, [sp, #24]
 2457              	.LVL287:
 458:Generated_Source\PSoC4/cy_em_eeprom.c ****             {
 2458              		.loc 1 458 0
 2459 0358 059A     		ldr	r2, [sp, #20]
 454:Generated_Source\PSoC4/cy_em_eeprom.c ****             tmpData = (void *) eeData;
 2460              		.loc 1 454 0
 2461 035a 0B93     		str	r3, [sp, #44]
 458:Generated_Source\PSoC4/cy_em_eeprom.c ****             {
 2462              		.loc 1 458 0
 2463 035c 089B     		ldr	r3, [sp, #32]
 455:Generated_Source\PSoC4/cy_em_eeprom.c **** 
 2464              		.loc 1 455 0
 2465 035e 0499     		ldr	r1, [sp, #16]
 2466              	.LVL288:
 458:Generated_Source\PSoC4/cy_em_eeprom.c ****             {
 2467              		.loc 1 458 0
 2468 0360 9342     		cmp	r3, r2
 2469 0362 0CD0     		beq	.L258
 2470              	.LBB155:
 2471              	.LBB136:
 869:Generated_Source\PSoC4/cy_em_eeprom.c **** 
 2472              		.loc 1 869 0
 2473 0364 0025     		movs	r5, #0
 2474 0366 A5E6     		b	.L259
 2475              	.LVL289:
 2476              	.L286:
 2477              	.LBE136:
 2478              	.LBE155:
 483:Generated_Source\PSoC4/cy_em_eeprom.c ****                              (void *)(emEepromRowRdAddr + CY_EM_EEPROM_EEPROM_DATA_LEN),
ARM GAS  C:\Users\young\AppData\Local\Temp\ccZHlxL6.s 			page 74


 2479              		.loc 1 483 0
 2480 0368 2900     		movs	r1, r5
 2481 036a 2022     		movs	r2, #32
 2482 036c 2031     		adds	r1, r1, #32
 2483 036e 12A8     		add	r0, sp, #72
 2484 0370 FFF7FEFF 		bl	memcpy
 2485              	.LVL290:
 2486 0374 AFE6     		b	.L216
 2487              	.LVL291:
 2488              	.L264:
 2489              	.LBB156:
 2490              	.LBB137:
 900:Generated_Source\PSoC4/cy_em_eeprom.c ****         }
 2491              		.loc 1 900 0
 2492 0376 019D     		ldr	r5, [sp, #4]
 2493 0378 8CE6     		b	.L214
 2494              	.LVL292:
 2495              	.L265:
 2496              	.LBE137:
 2497              	.LBE156:
 461:Generated_Source\PSoC4/cy_em_eeprom.c ****             }
 2498              		.loc 1 461 0
 2499 037a 079A     		ldr	r2, [sp, #28]
 2500 037c A4E6     		b	.L215
 2501              	.LVL293:
 2502              	.L258:
 2503 037e 079B     		ldr	r3, [sp, #28]
 476:Generated_Source\PSoC4/cy_em_eeprom.c ****                          tmpData,
 2504              		.loc 1 476 0
 2505 0380 0DA8     		add	r0, sp, #52
 2506 0382 1A00     		movs	r2, r3
 2507 0384 0C93     		str	r3, [sp, #48]
 2508              	.LVL294:
 2509 0386 FFF7FEFF 		bl	memcpy
 2510              	.LVL295:
 2511 038a A4E6     		b	.L216
 2512              	.LVL296:
 2513              	.L287:
 2514 038c 4346     		mov	r3, r8
 502:Generated_Source\PSoC4/cy_em_eeprom.c ****                 }
 2515              		.loc 1 502 0
 2516 038e 0AAC     		add	r4, sp, #40
 2517              	.LVL297:
 2518 0390 9A69     		ldr	r2, [r3, #24]
 2519 0392 BCE6     		b	.L220
 2520              	.L298:
 2521              		.align	2
 2522              	.L297:
 2523 0394 FFFFFF03 		.word	67108863
 2524              	.LBE158:
 2525              	.LBE162:
 2526              		.cfi_endproc
 2527              	.LFE2:
 2528              		.size	Cy_Em_EEPROM_Write, .-Cy_Em_EEPROM_Write
 2529              		.section	.text.Cy_Em_EEPROM_Erase,"ax",%progbits
 2530              		.align	2
 2531              		.global	Cy_Em_EEPROM_Erase
ARM GAS  C:\Users\young\AppData\Local\Temp\ccZHlxL6.s 			page 75


 2532              		.code	16
 2533              		.thumb_func
 2534              		.type	Cy_Em_EEPROM_Erase, %function
 2535              	Cy_Em_EEPROM_Erase:
 2536              	.LFB3:
 630:Generated_Source\PSoC4/cy_em_eeprom.c ****     uint32 i;
 2537              		.loc 1 630 0
 2538              		.cfi_startproc
 2539              		@ args = 0, pretend = 0, frame = 64
 2540              		@ frame_needed = 0, uses_anonymous_args = 0
 2541              	.LVL298:
 2542 0000 F0B5     		push	{r4, r5, r6, r7, lr}
 2543              		.cfi_def_cfa_offset 20
 2544              		.cfi_offset 4, -20
 2545              		.cfi_offset 5, -16
 2546              		.cfi_offset 6, -12
 2547              		.cfi_offset 7, -8
 2548              		.cfi_offset 14, -4
 633:Generated_Source\PSoC4/cy_em_eeprom.c ****     uint32 emEepromRowRdAddr;
 2549              		.loc 1 633 0
 2550 0002 8468     		ldr	r4, [r0, #8]
 2551              	.LVL299:
 630:Generated_Source\PSoC4/cy_em_eeprom.c ****     uint32 i;
 2552              		.loc 1 630 0
 2553 0004 91B0     		sub	sp, sp, #68
 2554              		.cfi_def_cfa_offset 88
 630:Generated_Source\PSoC4/cy_em_eeprom.c ****     uint32 i;
 2555              		.loc 1 630 0
 2556 0006 0500     		movs	r5, r0
 636:Generated_Source\PSoC4/cy_em_eeprom.c **** #if (CY_PSOC6)
 2557              		.loc 1 636 0
 2558 0008 4022     		movs	r2, #64
 2559 000a 0021     		movs	r1, #0
 2560 000c 6846     		mov	r0, sp
 2561              	.LVL300:
 2562 000e FFF7FEFF 		bl	memset
 2563              	.LVL301:
 646:Generated_Source\PSoC4/cy_em_eeprom.c ****     {
 2564              		.loc 1 646 0
 2565 0012 2368     		ldr	r3, [r4]
 2566 0014 002B     		cmp	r3, #0
 2567 0016 02D1     		bne	.L300
 2568              	.LVL302:
 2569              	.L321:
 635:Generated_Source\PSoC4/cy_em_eeprom.c ****     uint32 writeRamBuffer[CY_EM_EEPROM_FLASH_SIZEOF_ROW / CY_EM_EEPROM_U32_DIV] = {0u};
 2570              		.loc 1 635 0
 2571 0018 0420     		movs	r0, #4
 2572              	.LVL303:
 2573              	.L343:
 716:Generated_Source\PSoC4/cy_em_eeprom.c **** 
 2574              		.loc 1 716 0
 2575 001a 11B0     		add	sp, sp, #68
 2576              		@ sp needed
 2577              	.LVL304:
 2578              	.LVL305:
 2579 001c F0BD     		pop	{r4, r5, r6, r7, pc}
 2580              	.LVL306:
ARM GAS  C:\Users\young\AppData\Local\Temp\ccZHlxL6.s 			page 76


 2581              	.L300:
 2582              	.LBB174:
 649:Generated_Source\PSoC4/cy_em_eeprom.c **** 
 2583              		.loc 1 649 0
 2584 001e 6B68     		ldr	r3, [r5, #4]
 2585              	.LVL307:
 2586 0020 2E69     		ldr	r6, [r5, #16]
 2587 0022 5E43     		muls	r6, r3
 2588              	.LVL308:
 656:Generated_Source\PSoC4/cy_em_eeprom.c ****         {
 2589              		.loc 1 656 0
 2590 0024 2B7D     		ldrb	r3, [r5, #20]
 2591 0026 002B     		cmp	r3, #0
 2592 0028 69D0     		beq	.L302
 2593 002a 2122     		movs	r2, #33
 2594 002c 10A8     		add	r0, sp, #64
 2595 002e 6A44     		add	r2, r2, sp
 2596 0030 0027     		movs	r7, #0
 2597 0032 FF23     		movs	r3, #255
 2598              	.LBB175:
 2599              	.LBB176:
 934:Generated_Source\PSoC4/cy_em_eeprom.c ****         }
 2600              		.loc 1 934 0
 2601 0034 3121     		movs	r1, #49
 2602 0036 26E0     		b	.L320
 2603              	.LVL309:
 2604              	.L304:
 2605 0038 5FB2     		sxtb	r7, r3
 2606 003a 5B00     		lsls	r3, r3, #1
 2607              	.LVL310:
 2608 003c DBB2     		uxtb	r3, r3
 2609 003e 002F     		cmp	r7, #0
 2610 0040 2EDB     		blt	.L345
 2611              	.LVL311:
 2612              	.L306:
 2613 0042 5FB2     		sxtb	r7, r3
 2614 0044 5B00     		lsls	r3, r3, #1
 2615              	.LVL312:
 2616 0046 DBB2     		uxtb	r3, r3
 2617 0048 002F     		cmp	r7, #0
 2618 004a 30DB     		blt	.L346
 2619              	.LVL313:
 2620              	.L308:
 2621 004c 5FB2     		sxtb	r7, r3
 2622 004e 5B00     		lsls	r3, r3, #1
 2623              	.LVL314:
 2624 0050 DBB2     		uxtb	r3, r3
 2625 0052 002F     		cmp	r7, #0
 2626 0054 32DB     		blt	.L347
 2627              	.LVL315:
 2628              	.L310:
 2629 0056 5FB2     		sxtb	r7, r3
 2630 0058 5B00     		lsls	r3, r3, #1
 2631              	.LVL316:
 2632 005a DBB2     		uxtb	r3, r3
 2633 005c 002F     		cmp	r7, #0
 2634 005e 34DB     		blt	.L348
ARM GAS  C:\Users\young\AppData\Local\Temp\ccZHlxL6.s 			page 77


 2635              	.LVL317:
 2636              	.L312:
 2637 0060 5FB2     		sxtb	r7, r3
 2638 0062 5B00     		lsls	r3, r3, #1
 2639              	.LVL318:
 2640 0064 DBB2     		uxtb	r3, r3
 2641 0066 002F     		cmp	r7, #0
 2642 0068 36DB     		blt	.L349
 2643              	.LVL319:
 2644              	.L314:
 2645 006a 5FB2     		sxtb	r7, r3
 2646 006c 5B00     		lsls	r3, r3, #1
 2647              	.LVL320:
 2648 006e DBB2     		uxtb	r3, r3
 2649 0070 002F     		cmp	r7, #0
 2650 0072 38DB     		blt	.L350
 2651              	.LVL321:
 2652              	.L316:
 2653 0074 5FB2     		sxtb	r7, r3
 2654 0076 5B00     		lsls	r3, r3, #1
 2655              	.LVL322:
 2656 0078 DBB2     		uxtb	r3, r3
 2657 007a 002F     		cmp	r7, #0
 2658 007c 3ADB     		blt	.L351
 2659              	.LVL323:
 2660              	.L318:
 929:Generated_Source\PSoC4/cy_em_eeprom.c ****     {
 2661              		.loc 1 929 0
 2662 007e 8242     		cmp	r2, r0
 2663 0080 3CD0     		beq	.L319
 2664              	.LVL324:
 2665              	.L352:
 2666 0082 1778     		ldrb	r7, [r2]
 2667 0084 0132     		adds	r2, r2, #1
 2668              	.LVL325:
 2669              	.L320:
 931:Generated_Source\PSoC4/cy_em_eeprom.c ****         for (i = 0u; i < CY_EM_EEPROM_CRC8_POLYNOM_LEN; i++)
 2670              		.loc 1 931 0
 2671 0086 7B40     		eors	r3, r7
 2672              	.LVL326:
 934:Generated_Source\PSoC4/cy_em_eeprom.c ****         }
 2673              		.loc 1 934 0
 2674 0088 5FB2     		sxtb	r7, r3
 2675 008a 5B00     		lsls	r3, r3, #1
 2676              	.LVL327:
 2677 008c DBB2     		uxtb	r3, r3
 2678 008e 002F     		cmp	r7, #0
 2679 0090 D2DA     		bge	.L304
 2680              	.LVL328:
 2681 0092 4B40     		eors	r3, r1
 2682              	.LVL329:
 2683 0094 DBB2     		uxtb	r3, r3
 2684              	.LVL330:
 2685 0096 5FB2     		sxtb	r7, r3
 2686 0098 5B00     		lsls	r3, r3, #1
 2687              	.LVL331:
 2688 009a DBB2     		uxtb	r3, r3
ARM GAS  C:\Users\young\AppData\Local\Temp\ccZHlxL6.s 			page 78


 2689 009c 002F     		cmp	r7, #0
 2690 009e D0DA     		bge	.L306
 2691              	.LVL332:
 2692              	.L345:
 2693 00a0 4B40     		eors	r3, r1
 2694 00a2 DBB2     		uxtb	r3, r3
 2695              	.LVL333:
 2696 00a4 5FB2     		sxtb	r7, r3
 2697 00a6 5B00     		lsls	r3, r3, #1
 2698              	.LVL334:
 2699 00a8 DBB2     		uxtb	r3, r3
 2700 00aa 002F     		cmp	r7, #0
 2701 00ac CEDA     		bge	.L308
 2702              	.LVL335:
 2703              	.L346:
 2704 00ae 4B40     		eors	r3, r1
 2705 00b0 DBB2     		uxtb	r3, r3
 2706              	.LVL336:
 2707 00b2 5FB2     		sxtb	r7, r3
 2708 00b4 5B00     		lsls	r3, r3, #1
 2709              	.LVL337:
 2710 00b6 DBB2     		uxtb	r3, r3
 2711 00b8 002F     		cmp	r7, #0
 2712 00ba CCDA     		bge	.L310
 2713              	.LVL338:
 2714              	.L347:
 2715 00bc 4B40     		eors	r3, r1
 2716 00be DBB2     		uxtb	r3, r3
 2717              	.LVL339:
 2718 00c0 5FB2     		sxtb	r7, r3
 2719 00c2 5B00     		lsls	r3, r3, #1
 2720              	.LVL340:
 2721 00c4 DBB2     		uxtb	r3, r3
 2722 00c6 002F     		cmp	r7, #0
 2723 00c8 CADA     		bge	.L312
 2724              	.LVL341:
 2725              	.L348:
 2726 00ca 4B40     		eors	r3, r1
 2727 00cc DBB2     		uxtb	r3, r3
 2728              	.LVL342:
 2729 00ce 5FB2     		sxtb	r7, r3
 2730 00d0 5B00     		lsls	r3, r3, #1
 2731              	.LVL343:
 2732 00d2 DBB2     		uxtb	r3, r3
 2733 00d4 002F     		cmp	r7, #0
 2734 00d6 C8DA     		bge	.L314
 2735              	.LVL344:
 2736              	.L349:
 2737 00d8 4B40     		eors	r3, r1
 2738 00da DBB2     		uxtb	r3, r3
 2739              	.LVL345:
 2740 00dc 5FB2     		sxtb	r7, r3
 2741 00de 5B00     		lsls	r3, r3, #1
 2742              	.LVL346:
 2743 00e0 DBB2     		uxtb	r3, r3
 2744 00e2 002F     		cmp	r7, #0
 2745 00e4 C6DA     		bge	.L316
ARM GAS  C:\Users\young\AppData\Local\Temp\ccZHlxL6.s 			page 79


 2746              	.LVL347:
 2747              	.L350:
 2748 00e6 4B40     		eors	r3, r1
 2749 00e8 DBB2     		uxtb	r3, r3
 2750              	.LVL348:
 2751 00ea 5FB2     		sxtb	r7, r3
 2752 00ec 5B00     		lsls	r3, r3, #1
 2753              	.LVL349:
 2754 00ee DBB2     		uxtb	r3, r3
 2755 00f0 002F     		cmp	r7, #0
 2756 00f2 C4DA     		bge	.L318
 2757              	.LVL350:
 2758              	.L351:
 2759 00f4 4B40     		eors	r3, r1
 2760 00f6 DBB2     		uxtb	r3, r3
 2761              	.LVL351:
 929:Generated_Source\PSoC4/cy_em_eeprom.c ****     {
 2762              		.loc 1 929 0
 2763 00f8 8242     		cmp	r2, r0
 2764 00fa C2D1     		bne	.L352
 2765              	.LVL352:
 2766              	.L319:
 2767              	.LBE176:
 2768              	.LBE175:
 658:Generated_Source\PSoC4/cy_em_eeprom.c ****                         CalcChecksum((uint8 *) &writeRamBuffer[CY_EM_EEPROM_EEPROM_DATA_OFFSET_U32]
 2769              		.loc 1 658 0
 2770 00fc 0793     		str	r3, [sp, #28]
 2771              	.LVL353:
 2772              	.L302:
 663:Generated_Source\PSoC4/cy_em_eeprom.c ****         {
 2773              		.loc 1 663 0 discriminator 1
 2774 00fe 002E     		cmp	r6, #0
 2775 0100 00D1     		bne	.LCB3551
 2776 0102 89E7     		b	.L321	@long jump
 2777              	.LCB3551:
 663:Generated_Source\PSoC4/cy_em_eeprom.c ****         {
 2778              		.loc 1 663 0 is_stmt 0 discriminator 3
 2779 0104 0027     		movs	r7, #0
 2780 0106 08E0     		b	.L327
 2781              	.LVL354:
 2782              	.L324:
 2783              	.LBB177:
 2784              	.LBB178:
1161:Generated_Source\PSoC4/cy_em_eeprom.c ****     {
 2785              		.loc 1 1161 0 is_stmt 1
 2786 0108 2B7D     		ldrb	r3, [r5, #20]
 2787 010a 002B     		cmp	r3, #0
 2788 010c 17D1     		bne	.L353
 2789              	.LVL355:
 2790              	.L326:
1170:Generated_Source\PSoC4/cy_em_eeprom.c ****     }
 2791              		.loc 1 1170 0
 2792 010e 0020     		movs	r0, #0
 2793 0110 AC60     		str	r4, [r5, #8]
 2794              	.LVL356:
 2795              	.L329:
 2796              	.LBE178:
ARM GAS  C:\Users\young\AppData\Local\Temp\ccZHlxL6.s 			page 80


 2797              	.LBE177:
 663:Generated_Source\PSoC4/cy_em_eeprom.c ****         {
 2798              		.loc 1 663 0
 2799 0112 0137     		adds	r7, r7, #1
 2800              	.LVL357:
 2801 0114 BE42     		cmp	r6, r7
 2802 0116 00D1     		bne	.LCB3611
 2803 0118 7FE7     		b	.L343	@long jump
 2804              	.LCB3611:
 2805              	.LVL358:
 2806              	.L327:
 685:Generated_Source\PSoC4/cy_em_eeprom.c ****             /* Get the address of the row to be erased. "emEepromRowAddr" may be updated
 2807              		.loc 1 685 0 discriminator 3
 2808 011a 2368     		ldr	r3, [r4]
 2809              	.LVL359:
 2810              	.LBB188:
 2811              	.LBB189:
 855:Generated_Source\PSoC4/cy_em_eeprom.c ****     {
 2812              		.loc 1 855 0 discriminator 3
 2813 011c 002B     		cmp	r3, #0
 2814 011e 00D0     		beq	.L322
 857:Generated_Source\PSoC4/cy_em_eeprom.c ****     }
 2815              		.loc 1 857 0
 2816 0120 4034     		adds	r4, r4, #64
 2817              	.LVL360:
 2818              	.L322:
 863:Generated_Source\PSoC4/cy_em_eeprom.c ****             CY_EM_EEPROM_IS_ADDR_EXCEED_RANGE(*rowToWrPtr, context->wlEndAddr))
 2819              		.loc 1 863 0
 2820 0122 2A68     		ldr	r2, [r5]
 2821 0124 9442     		cmp	r4, r2
 2822 0126 00D3     		bcc	.L323
 866:Generated_Source\PSoC4/cy_em_eeprom.c ****     }
 2823              		.loc 1 866 0
 2824 0128 AC69     		ldr	r4, [r5, #24]
 2825              	.LVL361:
 2826              	.L323:
 2827              	.LBE189:
 2828              	.LBE188:
 691:Generated_Source\PSoC4/cy_em_eeprom.c ****             ret = EraseRow(emEepromRowAddr, (uint32)writeRamBuffer, context);
 2829              		.loc 1 691 0
 2830 012a 0133     		adds	r3, r3, #1
 2831              	.LVL362:
 2832              	.LBB190:
 2833              	.LBB185:
 2834              	.LBB179:
 2835              	.LBB180:
1017:Generated_Source\PSoC4/cy_em_eeprom.c ****     #else
 2836              		.loc 1 1017 0
 2837 012c A009     		lsrs	r0, r4, #6
 2838 012e 6946     		mov	r1, sp
 2839              	.LBE180:
 2840              	.LBE179:
 2841              	.LBE185:
 2842              	.LBE190:
 691:Generated_Source\PSoC4/cy_em_eeprom.c ****             ret = EraseRow(emEepromRowAddr, (uint32)writeRamBuffer, context);
 2843              		.loc 1 691 0
 2844 0130 0093     		str	r3, [sp]
ARM GAS  C:\Users\young\AppData\Local\Temp\ccZHlxL6.s 			page 81


 2845              	.LVL363:
 2846              	.LBB191:
 2847              	.LBB186:
 2848              	.LBB182:
 2849              	.LBB181:
1017:Generated_Source\PSoC4/cy_em_eeprom.c ****     #else
 2850              		.loc 1 1017 0
 2851 0132 FFF7FEFF 		bl	CySysFlashWriteRow
 2852              	.LVL364:
1034:Generated_Source\PSoC4/cy_em_eeprom.c ****     {
 2853              		.loc 1 1034 0
 2854 0136 0028     		cmp	r0, #0
 2855 0138 E6D0     		beq	.L324
 2856              	.LBE181:
 2857              	.LBE182:
 2858              	.LBE186:
 2859              	.LBE191:
 663:Generated_Source\PSoC4/cy_em_eeprom.c ****         {
 2860              		.loc 1 663 0
 2861 013a 0420     		movs	r0, #4
 2862              	.LVL365:
 2863 013c E9E7     		b	.L329
 2864              	.LVL366:
 2865              	.L353:
 2866              	.LBB192:
 2867              	.LBB187:
 2868              	.LBB183:
 2869              	.LBB184:
1017:Generated_Source\PSoC4/cy_em_eeprom.c ****     #else
 2870              		.loc 1 1017 0
 2871 013e 2B68     		ldr	r3, [r5]
 2872 0140 AA69     		ldr	r2, [r5, #24]
 2873 0142 6946     		mov	r1, sp
 2874 0144 981A     		subs	r0, r3, r2
 2875 0146 0019     		adds	r0, r0, r4
 2876 0148 8009     		lsrs	r0, r0, #6
 2877 014a FFF7FEFF 		bl	CySysFlashWriteRow
 2878              	.LVL367:
1034:Generated_Source\PSoC4/cy_em_eeprom.c ****     {
 2879              		.loc 1 1034 0
 2880 014e 0028     		cmp	r0, #0
 2881 0150 DDD0     		beq	.L326
 2882              	.LVL368:
 2883              	.LBE184:
 2884              	.LBE183:
 2885              	.LBE187:
 2886              	.LBE192:
 663:Generated_Source\PSoC4/cy_em_eeprom.c ****         {
 2887              		.loc 1 663 0
 2888 0152 0420     		movs	r0, #4
 2889              	.LVL369:
 2890 0154 DDE7     		b	.L329
 2891              	.LBE174:
 2892              		.cfi_endproc
 2893              	.LFE3:
 2894              		.size	Cy_Em_EEPROM_Erase, .-Cy_Em_EEPROM_Erase
 2895 0156 C046     		.section	.text.Cy_Em_EEPROM_NumWrites,"ax",%progbits
ARM GAS  C:\Users\young\AppData\Local\Temp\ccZHlxL6.s 			page 82


 2896              		.align	2
 2897              		.global	Cy_Em_EEPROM_NumWrites
 2898              		.code	16
 2899              		.thumb_func
 2900              		.type	Cy_Em_EEPROM_NumWrites, %function
 2901              	Cy_Em_EEPROM_NumWrites:
 2902              	.LFB4:
 733:Generated_Source\PSoC4/cy_em_eeprom.c ****     return(CY_EM_EEPROM_GET_SEQ_NUM(context->lastWrRowAddr));
 2903              		.loc 1 733 0
 2904              		.cfi_startproc
 2905              		@ args = 0, pretend = 0, frame = 0
 2906              		@ frame_needed = 0, uses_anonymous_args = 0
 2907              		@ link register save eliminated.
 2908              	.LVL370:
 734:Generated_Source\PSoC4/cy_em_eeprom.c **** }
 2909              		.loc 1 734 0
 2910 0000 8368     		ldr	r3, [r0, #8]
 735:Generated_Source\PSoC4/cy_em_eeprom.c **** 
 2911              		.loc 1 735 0
 2912              		@ sp needed
 734:Generated_Source\PSoC4/cy_em_eeprom.c **** }
 2913              		.loc 1 734 0
 2914 0002 1868     		ldr	r0, [r3]
 2915              	.LVL371:
 735:Generated_Source\PSoC4/cy_em_eeprom.c **** 
 2916              		.loc 1 735 0
 2917 0004 7047     		bx	lr
 2918              		.cfi_endproc
 2919              	.LFE4:
 2920              		.size	Cy_Em_EEPROM_NumWrites, .-Cy_Em_EEPROM_NumWrites
 2921 0006 C046     		.text
 2922              	.Letext0:
 2923              		.file 2 "Generated_Source\\PSoC4\\cytypes.h"
 2924              		.file 3 "Generated_Source\\PSoC4\\cy_em_eeprom.h"
 2925              		.file 4 "Generated_Source\\PSoC4\\CyFlash.h"
 2926              		.section	.debug_info,"",%progbits
 2927              	.Ldebug_info0:
 2928 0000 27130000 		.4byte	0x1327
 2929 0004 0400     		.2byte	0x4
 2930 0006 00000000 		.4byte	.Ldebug_abbrev0
 2931 000a 04       		.byte	0x4
 2932 000b 01       		.uleb128 0x1
 2933 000c 85000000 		.4byte	.LASF102
 2934 0010 0C       		.byte	0xc
 2935 0011 49010000 		.4byte	.LASF103
 2936 0015 73030000 		.4byte	.LASF104
 2937 0019 18020000 		.4byte	.Ldebug_ranges0+0x218
 2938 001d 00000000 		.4byte	0
 2939 0021 00000000 		.4byte	.Ldebug_line0
 2940 0025 02       		.uleb128 0x2
 2941 0026 01       		.byte	0x1
 2942 0027 06       		.byte	0x6
 2943 0028 21010000 		.4byte	.LASF0
 2944 002c 02       		.uleb128 0x2
 2945 002d 01       		.byte	0x1
 2946 002e 08       		.byte	0x8
 2947 002f 8A040000 		.4byte	.LASF1
ARM GAS  C:\Users\young\AppData\Local\Temp\ccZHlxL6.s 			page 83


 2948 0033 02       		.uleb128 0x2
 2949 0034 02       		.byte	0x2
 2950 0035 05       		.byte	0x5
 2951 0036 A0040000 		.4byte	.LASF2
 2952 003a 02       		.uleb128 0x2
 2953 003b 02       		.byte	0x2
 2954 003c 07       		.byte	0x7
 2955 003d 9E020000 		.4byte	.LASF3
 2956 0041 02       		.uleb128 0x2
 2957 0042 04       		.byte	0x4
 2958 0043 05       		.byte	0x5
 2959 0044 9E010000 		.4byte	.LASF4
 2960 0048 02       		.uleb128 0x2
 2961 0049 04       		.byte	0x4
 2962 004a 07       		.byte	0x7
 2963 004b 53020000 		.4byte	.LASF5
 2964 004f 02       		.uleb128 0x2
 2965 0050 08       		.byte	0x8
 2966 0051 05       		.byte	0x5
 2967 0052 13010000 		.4byte	.LASF6
 2968 0056 02       		.uleb128 0x2
 2969 0057 08       		.byte	0x8
 2970 0058 07       		.byte	0x7
 2971 0059 5E000000 		.4byte	.LASF7
 2972 005d 03       		.uleb128 0x3
 2973 005e 04       		.byte	0x4
 2974 005f 05       		.byte	0x5
 2975 0060 696E7400 		.ascii	"int\000"
 2976 0064 02       		.uleb128 0x2
 2977 0065 04       		.byte	0x4
 2978 0066 07       		.byte	0x7
 2979 0067 3D020000 		.4byte	.LASF8
 2980 006b 04       		.uleb128 0x4
 2981 006c C1010000 		.4byte	.LASF9
 2982 0070 02       		.byte	0x2
 2983 0071 D201     		.2byte	0x1d2
 2984 0073 2C000000 		.4byte	0x2c
 2985 0077 04       		.uleb128 0x4
 2986 0078 00000000 		.4byte	.LASF10
 2987 007c 02       		.byte	0x2
 2988 007d D301     		.2byte	0x1d3
 2989 007f 3A000000 		.4byte	0x3a
 2990 0083 04       		.uleb128 0x4
 2991 0084 CE010000 		.4byte	.LASF11
 2992 0088 02       		.byte	0x2
 2993 0089 D401     		.2byte	0x1d4
 2994 008b 48000000 		.4byte	0x48
 2995 008f 02       		.uleb128 0x2
 2996 0090 04       		.byte	0x4
 2997 0091 04       		.byte	0x4
 2998 0092 5C040000 		.4byte	.LASF12
 2999 0096 02       		.uleb128 0x2
 3000 0097 08       		.byte	0x8
 3001 0098 04       		.byte	0x4
 3002 0099 C7010000 		.4byte	.LASF13
 3003 009d 02       		.uleb128 0x2
 3004 009e 01       		.byte	0x1
ARM GAS  C:\Users\young\AppData\Local\Temp\ccZHlxL6.s 			page 84


 3005 009f 08       		.byte	0x8
 3006 00a0 13050000 		.4byte	.LASF14
 3007 00a4 04       		.uleb128 0x4
 3008 00a5 0B060000 		.4byte	.LASF15
 3009 00a9 02       		.byte	0x2
 3010 00aa 7402     		.2byte	0x274
 3011 00ac 48000000 		.4byte	0x48
 3012 00b0 02       		.uleb128 0x2
 3013 00b1 08       		.byte	0x8
 3014 00b2 04       		.byte	0x4
 3015 00b3 67030000 		.4byte	.LASF16
 3016 00b7 02       		.uleb128 0x2
 3017 00b8 04       		.byte	0x4
 3018 00b9 07       		.byte	0x7
 3019 00ba 5E030000 		.4byte	.LASF17
 3020 00be 05       		.uleb128 0x5
 3021 00bf 04       		.byte	0x4
 3022 00c0 06       		.uleb128 0x6
 3023 00c1 10       		.byte	0x10
 3024 00c2 03       		.byte	0x3
 3025 00c3 FB       		.byte	0xfb
 3026 00c4 09010000 		.4byte	0x109
 3027 00c8 07       		.uleb128 0x7
 3028 00c9 7A000000 		.4byte	.LASF18
 3029 00cd 03       		.byte	0x3
 3030 00ce FE       		.byte	0xfe
 3031 00cf 83000000 		.4byte	0x83
 3032 00d3 00       		.byte	0
 3033 00d4 08       		.uleb128 0x8
 3034 00d5 85050000 		.4byte	.LASF19
 3035 00d9 03       		.byte	0x3
 3036 00da 0301     		.2byte	0x103
 3037 00dc 83000000 		.4byte	0x83
 3038 00e0 04       		.byte	0x4
 3039 00e1 08       		.uleb128 0x8
 3040 00e2 26020000 		.4byte	.LASF20
 3041 00e6 03       		.byte	0x3
 3042 00e7 0601     		.2byte	0x106
 3043 00e9 6B000000 		.4byte	0x6b
 3044 00ed 08       		.byte	0x8
 3045 00ee 08       		.uleb128 0x8
 3046 00ef EB050000 		.4byte	.LASF21
 3047 00f3 03       		.byte	0x3
 3048 00f4 0B01     		.2byte	0x10b
 3049 00f6 6B000000 		.4byte	0x6b
 3050 00fa 09       		.byte	0x9
 3051 00fb 08       		.uleb128 0x8
 3052 00fc A7010000 		.4byte	.LASF22
 3053 0100 03       		.byte	0x3
 3054 0101 0E01     		.2byte	0x10e
 3055 0103 83000000 		.4byte	0x83
 3056 0107 0C       		.byte	0xc
 3057 0108 00       		.byte	0
 3058 0109 04       		.uleb128 0x4
 3059 010a 67050000 		.4byte	.LASF23
 3060 010e 03       		.byte	0x3
 3061 010f 0F01     		.2byte	0x10f
ARM GAS  C:\Users\young\AppData\Local\Temp\ccZHlxL6.s 			page 85


 3062 0111 C0000000 		.4byte	0xc0
 3063 0115 09       		.uleb128 0x9
 3064 0116 1C       		.byte	0x1c
 3065 0117 03       		.byte	0x3
 3066 0118 1601     		.2byte	0x116
 3067 011a 87010000 		.4byte	0x187
 3068 011e 08       		.uleb128 0x8
 3069 011f 80040000 		.4byte	.LASF24
 3070 0123 03       		.byte	0x3
 3071 0124 1B01     		.2byte	0x11b
 3072 0126 83000000 		.4byte	0x83
 3073 012a 00       		.byte	0
 3074 012b 08       		.uleb128 0x8
 3075 012c 47000000 		.4byte	.LASF25
 3076 0130 03       		.byte	0x3
 3077 0131 2001     		.2byte	0x120
 3078 0133 83000000 		.4byte	0x83
 3079 0137 04       		.byte	0x4
 3080 0138 08       		.uleb128 0x8
 3081 0139 4C050000 		.4byte	.LASF26
 3082 013d 03       		.byte	0x3
 3083 013e 2301     		.2byte	0x123
 3084 0140 83000000 		.4byte	0x83
 3085 0144 08       		.byte	0x8
 3086 0145 08       		.uleb128 0x8
 3087 0146 7A000000 		.4byte	.LASF18
 3088 014a 03       		.byte	0x3
 3089 014b 2601     		.2byte	0x126
 3090 014d 83000000 		.4byte	0x83
 3091 0151 0C       		.byte	0xc
 3092 0152 08       		.uleb128 0x8
 3093 0153 85050000 		.4byte	.LASF19
 3094 0157 03       		.byte	0x3
 3095 0158 2B01     		.2byte	0x12b
 3096 015a 83000000 		.4byte	0x83
 3097 015e 10       		.byte	0x10
 3098 015f 08       		.uleb128 0x8
 3099 0160 26020000 		.4byte	.LASF20
 3100 0164 03       		.byte	0x3
 3101 0165 2E01     		.2byte	0x12e
 3102 0167 6B000000 		.4byte	0x6b
 3103 016b 14       		.byte	0x14
 3104 016c 08       		.uleb128 0x8
 3105 016d EB050000 		.4byte	.LASF21
 3106 0171 03       		.byte	0x3
 3107 0172 3301     		.2byte	0x133
 3108 0174 6B000000 		.4byte	0x6b
 3109 0178 15       		.byte	0x15
 3110 0179 08       		.uleb128 0x8
 3111 017a A7010000 		.4byte	.LASF22
 3112 017e 03       		.byte	0x3
 3113 017f 3601     		.2byte	0x136
 3114 0181 83000000 		.4byte	0x83
 3115 0185 18       		.byte	0x18
 3116 0186 00       		.byte	0
 3117 0187 04       		.uleb128 0x4
 3118 0188 0C040000 		.4byte	.LASF27
ARM GAS  C:\Users\young\AppData\Local\Temp\ccZHlxL6.s 			page 86


 3119 018c 03       		.byte	0x3
 3120 018d 3701     		.2byte	0x137
 3121 018f 15010000 		.4byte	0x115
 3122 0193 0A       		.uleb128 0xa
 3123 0194 01       		.byte	0x1
 3124 0195 2C000000 		.4byte	0x2c
 3125 0199 03       		.byte	0x3
 3126 019a 5401     		.2byte	0x154
 3127 019c BF010000 		.4byte	0x1bf
 3128 01a0 0B       		.uleb128 0xb
 3129 01a1 D6050000 		.4byte	.LASF28
 3130 01a5 00       		.byte	0
 3131 01a6 0B       		.uleb128 0xb
 3132 01a7 2D030000 		.4byte	.LASF29
 3133 01ab 01       		.byte	0x1
 3134 01ac 0B       		.uleb128 0xb
 3135 01ad 44030000 		.4byte	.LASF30
 3136 01b1 02       		.byte	0x2
 3137 01b2 0B       		.uleb128 0xb
 3138 01b3 6A040000 		.4byte	.LASF31
 3139 01b7 03       		.byte	0x3
 3140 01b8 0B       		.uleb128 0xb
 3141 01b9 6F010000 		.4byte	.LASF32
 3142 01bd 04       		.byte	0x4
 3143 01be 00       		.byte	0
 3144 01bf 04       		.uleb128 0x4
 3145 01c0 1A000000 		.4byte	.LASF33
 3146 01c4 03       		.byte	0x3
 3147 01c5 5A01     		.2byte	0x15a
 3148 01c7 93010000 		.4byte	0x193
 3149 01cb 0C       		.uleb128 0xc
 3150 01cc C3050000 		.4byte	.LASF36
 3151 01d0 01       		.byte	0x1
 3152 01d1 2203     		.2byte	0x322
 3153 01d3 83000000 		.4byte	0x83
 3154 01d7 01       		.byte	0x1
 3155 01d8 01020000 		.4byte	0x201
 3156 01dc 0D       		.uleb128 0xd
 3157 01dd 05040000 		.4byte	.LASF34
 3158 01e1 01       		.byte	0x1
 3159 01e2 2203     		.2byte	0x322
 3160 01e4 83000000 		.4byte	0x83
 3161 01e8 0D       		.uleb128 0xd
 3162 01e9 44050000 		.4byte	.LASF35
 3163 01ed 01       		.byte	0x1
 3164 01ee 2203     		.2byte	0x322
 3165 01f0 01020000 		.4byte	0x201
 3166 01f4 0E       		.uleb128 0xe
 3167 01f5 33000000 		.4byte	.LASF40
 3168 01f9 01       		.byte	0x1
 3169 01fa 2403     		.2byte	0x324
 3170 01fc 83000000 		.4byte	0x83
 3171 0200 00       		.byte	0
 3172 0201 0F       		.uleb128 0xf
 3173 0202 04       		.byte	0x4
 3174 0203 87010000 		.4byte	0x187
 3175 0207 0C       		.uleb128 0xc
ARM GAS  C:\Users\young\AppData\Local\Temp\ccZHlxL6.s 			page 87


 3176 0208 2D010000 		.4byte	.LASF37
 3177 020c 01       		.byte	0x1
 3178 020d DF03     		.2byte	0x3df
 3179 020f BF010000 		.4byte	0x1bf
 3180 0213 01       		.byte	0x1
 3181 0214 60020000 		.4byte	0x260
 3182 0218 0D       		.uleb128 0xd
 3183 0219 98040000 		.4byte	.LASF38
 3184 021d 01       		.byte	0x1
 3185 021e DF03     		.2byte	0x3df
 3186 0220 83000000 		.4byte	0x83
 3187 0224 0D       		.uleb128 0xd
 3188 0225 21060000 		.4byte	.LASF39
 3189 0229 01       		.byte	0x1
 3190 022a E003     		.2byte	0x3e0
 3191 022c 60020000 		.4byte	0x260
 3192 0230 0D       		.uleb128 0xd
 3193 0231 44050000 		.4byte	.LASF35
 3194 0235 01       		.byte	0x1
 3195 0236 E103     		.2byte	0x3e1
 3196 0238 01020000 		.4byte	0x201
 3197 023c 10       		.uleb128 0x10
 3198 023d 72657400 		.ascii	"ret\000"
 3199 0241 01       		.byte	0x1
 3200 0242 E303     		.2byte	0x3e3
 3201 0244 BF010000 		.4byte	0x1bf
 3202 0248 10       		.uleb128 0x10
 3203 0249 726300   		.ascii	"rc\000"
 3204 024c 01       		.byte	0x1
 3205 024d E503     		.2byte	0x3e5
 3206 024f A4000000 		.4byte	0xa4
 3207 0253 0E       		.uleb128 0xe
 3208 0254 40000000 		.4byte	.LASF41
 3209 0258 01       		.byte	0x1
 3210 0259 EA03     		.2byte	0x3ea
 3211 025b 83000000 		.4byte	0x83
 3212 025f 00       		.byte	0
 3213 0260 0F       		.uleb128 0xf
 3214 0261 04       		.byte	0x4
 3215 0262 83000000 		.4byte	0x83
 3216 0266 0C       		.uleb128 0xc
 3217 0267 14060000 		.4byte	.LASF42
 3218 026b 01       		.byte	0x1
 3219 026c 9B03     		.2byte	0x39b
 3220 026e 6B000000 		.4byte	0x6b
 3221 0272 01       		.byte	0x1
 3222 0273 B2020000 		.4byte	0x2b2
 3223 0277 0D       		.uleb128 0xd
 3224 0278 21060000 		.4byte	.LASF39
 3225 027c 01       		.byte	0x1
 3226 027d 9B03     		.2byte	0x39b
 3227 027f B2020000 		.4byte	0x2b2
 3228 0283 11       		.uleb128 0x11
 3229 0284 6C656E00 		.ascii	"len\000"
 3230 0288 01       		.byte	0x1
 3231 0289 9B03     		.2byte	0x39b
 3232 028b 83000000 		.4byte	0x83
ARM GAS  C:\Users\young\AppData\Local\Temp\ccZHlxL6.s 			page 88


 3233 028f 10       		.uleb128 0x10
 3234 0290 63726300 		.ascii	"crc\000"
 3235 0294 01       		.byte	0x1
 3236 0295 9D03     		.2byte	0x39d
 3237 0297 6B000000 		.4byte	0x6b
 3238 029b 10       		.uleb128 0x10
 3239 029c 6900     		.ascii	"i\000"
 3240 029e 01       		.byte	0x1
 3241 029f 9E03     		.2byte	0x39e
 3242 02a1 6B000000 		.4byte	0x6b
 3243 02a5 10       		.uleb128 0x10
 3244 02a6 636E7400 		.ascii	"cnt\000"
 3245 02aa 01       		.byte	0x1
 3246 02ab 9F03     		.2byte	0x39f
 3247 02ad 77000000 		.4byte	0x77
 3248 02b1 00       		.byte	0
 3249 02b2 0F       		.uleb128 0xf
 3250 02b3 04       		.byte	0x4
 3251 02b4 6B000000 		.4byte	0x6b
 3252 02b8 0C       		.uleb128 0xc
 3253 02b9 7F020000 		.4byte	.LASF43
 3254 02bd 01       		.byte	0x1
 3255 02be BD04     		.2byte	0x4bd
 3256 02c0 BF010000 		.4byte	0x1bf
 3257 02c4 01       		.byte	0x1
 3258 02c5 2A030000 		.4byte	0x32a
 3259 02c9 0D       		.uleb128 0xd
 3260 02ca 2E050000 		.4byte	.LASF44
 3261 02ce 01       		.byte	0x1
 3262 02cf BD04     		.2byte	0x4bd
 3263 02d1 83000000 		.4byte	0x83
 3264 02d5 0D       		.uleb128 0xd
 3265 02d6 EB020000 		.4byte	.LASF45
 3266 02da 01       		.byte	0x1
 3267 02db BE04     		.2byte	0x4be
 3268 02dd 83000000 		.4byte	0x83
 3269 02e1 0D       		.uleb128 0xd
 3270 02e2 FA040000 		.4byte	.LASF46
 3271 02e6 01       		.byte	0x1
 3272 02e7 BF04     		.2byte	0x4bf
 3273 02e9 83000000 		.4byte	0x83
 3274 02ed 0D       		.uleb128 0xd
 3275 02ee 4A020000 		.4byte	.LASF47
 3276 02f2 01       		.byte	0x1
 3277 02f3 C004     		.2byte	0x4c0
 3278 02f5 83000000 		.4byte	0x83
 3279 02f9 0D       		.uleb128 0xd
 3280 02fa 44050000 		.4byte	.LASF35
 3281 02fe 01       		.byte	0x1
 3282 02ff C104     		.2byte	0x4c1
 3283 0301 01020000 		.4byte	0x201
 3284 0305 10       		.uleb128 0x10
 3285 0306 72657400 		.ascii	"ret\000"
 3286 030a 01       		.byte	0x1
 3287 030b C304     		.2byte	0x4c3
 3288 030d BF010000 		.4byte	0x1bf
 3289 0311 0E       		.uleb128 0xe
ARM GAS  C:\Users\young\AppData\Local\Temp\ccZHlxL6.s 			page 89


 3290 0312 EB040000 		.4byte	.LASF48
 3291 0316 01       		.byte	0x1
 3292 0317 C404     		.2byte	0x4c4
 3293 0319 2A030000 		.4byte	0x32a
 3294 031d 0E       		.uleb128 0xe
 3295 031e 04050000 		.4byte	.LASF49
 3296 0322 01       		.byte	0x1
 3297 0323 C704     		.2byte	0x4c7
 3298 0325 83000000 		.4byte	0x83
 3299 0329 00       		.byte	0
 3300 032a 12       		.uleb128 0x12
 3301 032b 83000000 		.4byte	0x83
 3302 032f 3A030000 		.4byte	0x33a
 3303 0333 13       		.uleb128 0x13
 3304 0334 B7000000 		.4byte	0xb7
 3305 0338 0F       		.byte	0xf
 3306 0339 00       		.byte	0
 3307 033a 0C       		.uleb128 0xc
 3308 033b 43040000 		.4byte	.LASF50
 3309 033f 01       		.byte	0x1
 3310 0340 BC03     		.2byte	0x3bc
 3311 0342 BF010000 		.4byte	0x1bf
 3312 0346 01       		.byte	0x1
 3313 0347 7C030000 		.4byte	0x37c
 3314 034b 0D       		.uleb128 0xd
 3315 034c 18050000 		.4byte	.LASF51
 3316 0350 01       		.byte	0x1
 3317 0351 BC03     		.2byte	0x3bc
 3318 0353 7C030000 		.4byte	0x37c
 3319 0357 10       		.uleb128 0x10
 3320 0358 72657400 		.ascii	"ret\000"
 3321 035c 01       		.byte	0x1
 3322 035d BE03     		.2byte	0x3be
 3323 035f BF010000 		.4byte	0x1bf
 3324 0363 0E       		.uleb128 0xe
 3325 0364 2E050000 		.4byte	.LASF44
 3326 0368 01       		.byte	0x1
 3327 0369 BF03     		.2byte	0x3bf
 3328 036b 83000000 		.4byte	0x83
 3329 036f 0E       		.uleb128 0xe
 3330 0370 62040000 		.4byte	.LASF52
 3331 0374 01       		.byte	0x1
 3332 0375 C003     		.2byte	0x3c0
 3333 0377 83000000 		.4byte	0x83
 3334 037b 00       		.byte	0
 3335 037c 0F       		.uleb128 0xf
 3336 037d 04       		.byte	0x4
 3337 037e 09010000 		.4byte	0x109
 3338 0382 14       		.uleb128 0x14
 3339 0383 36010000 		.4byte	.LASF60
 3340 0387 01       		.byte	0x1
 3341 0388 F602     		.2byte	0x2f6
 3342 038a 01       		.byte	0x1
 3343 038b D8030000 		.4byte	0x3d8
 3344 038f 0D       		.uleb128 0xd
 3345 0390 72020000 		.4byte	.LASF53
 3346 0394 01       		.byte	0x1
ARM GAS  C:\Users\young\AppData\Local\Temp\ccZHlxL6.s 			page 90


 3347 0395 F602     		.2byte	0x2f6
 3348 0397 60020000 		.4byte	0x260
 3349 039b 0D       		.uleb128 0xd
 3350 039c 44050000 		.4byte	.LASF35
 3351 03a0 01       		.byte	0x1
 3352 03a1 F602     		.2byte	0x2f6
 3353 03a3 01020000 		.4byte	0x201
 3354 03a7 0E       		.uleb128 0xe
 3355 03a8 05040000 		.4byte	.LASF34
 3356 03ac 01       		.byte	0x1
 3357 03ad F802     		.2byte	0x2f8
 3358 03af 83000000 		.4byte	0x83
 3359 03b3 0E       		.uleb128 0xe
 3360 03b4 AA040000 		.4byte	.LASF54
 3361 03b8 01       		.byte	0x1
 3362 03b9 F902     		.2byte	0x2f9
 3363 03bb 83000000 		.4byte	0x83
 3364 03bf 0E       		.uleb128 0xe
 3365 03c0 07020000 		.4byte	.LASF55
 3366 03c4 01       		.byte	0x1
 3367 03c5 FA02     		.2byte	0x2fa
 3368 03c7 83000000 		.4byte	0x83
 3369 03cb 0E       		.uleb128 0xe
 3370 03cc 33000000 		.4byte	.LASF40
 3371 03d0 01       		.byte	0x1
 3372 03d1 FB02     		.2byte	0x2fb
 3373 03d3 83000000 		.4byte	0x83
 3374 03d7 00       		.byte	0
 3375 03d8 15       		.uleb128 0x15
 3376 03d9 B8020000 		.4byte	0x2b8
 3377 03dd 00000000 		.4byte	.LFB17
 3378 03e1 98020000 		.4byte	.LFE17-.LFB17
 3379 03e5 01       		.uleb128 0x1
 3380 03e6 9C       		.byte	0x9c
 3381 03e7 AC050000 		.4byte	0x5ac
 3382 03eb 16       		.uleb128 0x16
 3383 03ec C9020000 		.4byte	0x2c9
 3384 03f0 00000000 		.4byte	.LLST0
 3385 03f4 16       		.uleb128 0x16
 3386 03f5 D5020000 		.4byte	0x2d5
 3387 03f9 37000000 		.4byte	.LLST1
 3388 03fd 16       		.uleb128 0x16
 3389 03fe E1020000 		.4byte	0x2e1
 3390 0402 6E000000 		.4byte	.LLST2
 3391 0406 16       		.uleb128 0x16
 3392 0407 ED020000 		.4byte	0x2ed
 3393 040b A5000000 		.4byte	.LLST3
 3394 040f 17       		.uleb128 0x17
 3395 0410 F9020000 		.4byte	0x2f9
 3396 0414 06       		.uleb128 0x6
 3397 0415 FA       		.byte	0xfa
 3398 0416 F9020000 		.4byte	0x2f9
 3399 041a 9F       		.byte	0x9f
 3400 041b 17       		.uleb128 0x17
 3401 041c F9020000 		.4byte	0x2f9
 3402 0420 06       		.uleb128 0x6
 3403 0421 FA       		.byte	0xfa
ARM GAS  C:\Users\young\AppData\Local\Temp\ccZHlxL6.s 			page 91


 3404 0422 F9020000 		.4byte	0x2f9
 3405 0426 9F       		.byte	0x9f
 3406 0427 18       		.uleb128 0x18
 3407 0428 05030000 		.4byte	0x305
 3408 042c DC000000 		.4byte	.LLST4
 3409 0430 19       		.uleb128 0x19
 3410 0431 11030000 		.4byte	0x311
 3411 0435 03       		.uleb128 0x3
 3412 0436 91       		.byte	0x91
 3413 0437 987F     		.sleb128 -104
 3414 0439 18       		.uleb128 0x18
 3415 043a 1D030000 		.4byte	0x31d
 3416 043e FB000000 		.4byte	.LLST5
 3417 0442 1A       		.uleb128 0x1a
 3418 0443 66020000 		.4byte	0x266
 3419 0447 2A000000 		.4byte	.LBB50
 3420 044b 06010000 		.4byte	.LBE50-.LBB50
 3421 044f 01       		.byte	0x1
 3422 0450 CB04     		.2byte	0x4cb
 3423 0452 8E040000 		.4byte	0x48e
 3424 0456 16       		.uleb128 0x16
 3425 0457 83020000 		.4byte	0x283
 3426 045b 71010000 		.4byte	.LLST6
 3427 045f 16       		.uleb128 0x16
 3428 0460 77020000 		.4byte	0x277
 3429 0464 86010000 		.4byte	.LLST7
 3430 0468 1B       		.uleb128 0x1b
 3431 0469 2A000000 		.4byte	.LBB51
 3432 046d 06010000 		.4byte	.LBE51-.LBB51
 3433 0471 18       		.uleb128 0x18
 3434 0472 8F020000 		.4byte	0x28f
 3435 0476 B3010000 		.4byte	.LLST8
 3436 047a 18       		.uleb128 0x18
 3437 047b 9B020000 		.4byte	0x29b
 3438 047f D3010000 		.4byte	.LLST9
 3439 0483 18       		.uleb128 0x18
 3440 0484 A5020000 		.4byte	0x2a5
 3441 0488 F3010000 		.4byte	.LLST10
 3442 048c 00       		.byte	0
 3443 048d 00       		.byte	0
 3444 048e 1A       		.uleb128 0x1a
 3445 048f 66020000 		.4byte	0x266
 3446 0493 44010000 		.4byte	.LBB52
 3447 0497 06010000 		.4byte	.LBE52-.LBB52
 3448 049b 01       		.byte	0x1
 3449 049c D404     		.2byte	0x4d4
 3450 049e DA040000 		.4byte	0x4da
 3451 04a2 16       		.uleb128 0x16
 3452 04a3 83020000 		.4byte	0x283
 3453 04a7 07020000 		.4byte	.LLST11
 3454 04ab 16       		.uleb128 0x16
 3455 04ac 77020000 		.4byte	0x277
 3456 04b0 1C020000 		.4byte	.LLST12
 3457 04b4 1B       		.uleb128 0x1b
 3458 04b5 44010000 		.4byte	.LBB53
 3459 04b9 06010000 		.4byte	.LBE53-.LBB53
 3460 04bd 18       		.uleb128 0x18
ARM GAS  C:\Users\young\AppData\Local\Temp\ccZHlxL6.s 			page 92


 3461 04be 8F020000 		.4byte	0x28f
 3462 04c2 49020000 		.4byte	.LLST13
 3463 04c6 18       		.uleb128 0x18
 3464 04c7 9B020000 		.4byte	0x29b
 3465 04cb 69020000 		.4byte	.LLST14
 3466 04cf 18       		.uleb128 0x18
 3467 04d0 A5020000 		.4byte	0x2a5
 3468 04d4 89020000 		.4byte	.LLST15
 3469 04d8 00       		.byte	0
 3470 04d9 00       		.byte	0
 3471 04da 1A       		.uleb128 0x1a
 3472 04db 07020000 		.4byte	0x207
 3473 04df 76020000 		.4byte	.LBB54
 3474 04e3 10000000 		.4byte	.LBE54-.LBB54
 3475 04e7 01       		.byte	0x1
 3476 04e8 DE04     		.2byte	0x4de
 3477 04ea 4A050000 		.4byte	0x54a
 3478 04ee 17       		.uleb128 0x17
 3479 04ef 30020000 		.4byte	0x230
 3480 04f3 06       		.uleb128 0x6
 3481 04f4 FA       		.byte	0xfa
 3482 04f5 F9020000 		.4byte	0x2f9
 3483 04f9 9F       		.byte	0x9f
 3484 04fa 16       		.uleb128 0x16
 3485 04fb 24020000 		.4byte	0x224
 3486 04ff 9D020000 		.4byte	.LLST16
 3487 0503 16       		.uleb128 0x16
 3488 0504 18020000 		.4byte	0x218
 3489 0508 B0020000 		.4byte	.LLST17
 3490 050c 1B       		.uleb128 0x1b
 3491 050d 76020000 		.4byte	.LBB55
 3492 0511 10000000 		.4byte	.LBE55-.LBB55
 3493 0515 18       		.uleb128 0x18
 3494 0516 3C020000 		.4byte	0x23c
 3495 051a C3020000 		.4byte	.LLST18
 3496 051e 18       		.uleb128 0x18
 3497 051f 48020000 		.4byte	0x248
 3498 0523 D7020000 		.4byte	.LLST19
 3499 0527 18       		.uleb128 0x18
 3500 0528 53020000 		.4byte	0x253
 3501 052c EA020000 		.4byte	.LLST20
 3502 0530 1C       		.uleb128 0x1c
 3503 0531 7E020000 		.4byte	.LVL29
 3504 0535 0D130000 		.4byte	0x130d
 3505 0539 1D       		.uleb128 0x1d
 3506 053a 01       		.uleb128 0x1
 3507 053b 50       		.byte	0x50
 3508 053c 04       		.uleb128 0x4
 3509 053d 74       		.byte	0x74
 3510 053e 00       		.sleb128 0
 3511 053f 36       		.byte	0x36
 3512 0540 25       		.byte	0x25
 3513 0541 1D       		.uleb128 0x1d
 3514 0542 01       		.uleb128 0x1
 3515 0543 51       		.byte	0x51
 3516 0544 02       		.uleb128 0x2
 3517 0545 7D       		.byte	0x7d
ARM GAS  C:\Users\young\AppData\Local\Temp\ccZHlxL6.s 			page 93


 3518 0546 00       		.sleb128 0
 3519 0547 00       		.byte	0
 3520 0548 00       		.byte	0
 3521 0549 00       		.byte	0
 3522 054a 1E       		.uleb128 0x1e
 3523 054b 6A020000 		.4byte	.LVL25
 3524 054f 18130000 		.4byte	0x1318
 3525 0553 6D050000 		.4byte	0x56d
 3526 0557 1D       		.uleb128 0x1d
 3527 0558 01       		.uleb128 0x1
 3528 0559 50       		.byte	0x50
 3529 055a 02       		.uleb128 0x2
 3530 055b 7A       		.byte	0x7a
 3531 055c 00       		.sleb128 0
 3532 055d 1D       		.uleb128 0x1d
 3533 055e 01       		.uleb128 0x1
 3534 055f 51       		.byte	0x51
 3535 0560 05       		.uleb128 0x5
 3536 0561 74       		.byte	0x74
 3537 0562 00       		.sleb128 0
 3538 0563 7B       		.byte	0x7b
 3539 0564 00       		.sleb128 0
 3540 0565 22       		.byte	0x22
 3541 0566 1D       		.uleb128 0x1d
 3542 0567 01       		.uleb128 0x1
 3543 0568 52       		.byte	0x52
 3544 0569 02       		.uleb128 0x2
 3545 056a 79       		.byte	0x79
 3546 056b 00       		.sleb128 0
 3547 056c 00       		.byte	0
 3548 056d 1E       		.uleb128 0x1e
 3549 056e 76020000 		.4byte	.LVL27
 3550 0572 18130000 		.4byte	0x1318
 3551 0576 87050000 		.4byte	0x587
 3552 057a 1D       		.uleb128 0x1d
 3553 057b 01       		.uleb128 0x1
 3554 057c 50       		.byte	0x50
 3555 057d 02       		.uleb128 0x2
 3556 057e 7D       		.byte	0x7d
 3557 057f 00       		.sleb128 0
 3558 0580 1D       		.uleb128 0x1d
 3559 0581 01       		.uleb128 0x1
 3560 0582 52       		.byte	0x52
 3561 0583 02       		.uleb128 0x2
 3562 0584 08       		.byte	0x8
 3563 0585 40       		.byte	0x40
 3564 0586 00       		.byte	0
 3565 0587 1C       		.uleb128 0x1c
 3566 0588 94020000 		.4byte	.LVL32
 3567 058c 18130000 		.4byte	0x1318
 3568 0590 1D       		.uleb128 0x1d
 3569 0591 01       		.uleb128 0x1
 3570 0592 50       		.byte	0x50
 3571 0593 02       		.uleb128 0x2
 3572 0594 7A       		.byte	0x7a
 3573 0595 00       		.sleb128 0
 3574 0596 1D       		.uleb128 0x1d
ARM GAS  C:\Users\young\AppData\Local\Temp\ccZHlxL6.s 			page 94


 3575 0597 01       		.uleb128 0x1
 3576 0598 51       		.byte	0x51
 3577 0599 0A       		.uleb128 0xa
 3578 059a 7B       		.byte	0x7b
 3579 059b 00       		.sleb128 0
 3580 059c 32       		.byte	0x32
 3581 059d 24       		.byte	0x24
 3582 059e 91       		.byte	0x91
 3583 059f 00       		.sleb128 0
 3584 05a0 22       		.byte	0x22
 3585 05a1 08       		.byte	0x8
 3586 05a2 68       		.byte	0x68
 3587 05a3 1C       		.byte	0x1c
 3588 05a4 1D       		.uleb128 0x1d
 3589 05a5 01       		.uleb128 0x1
 3590 05a6 52       		.byte	0x52
 3591 05a7 02       		.uleb128 0x2
 3592 05a8 79       		.byte	0x79
 3593 05a9 00       		.sleb128 0
 3594 05aa 00       		.byte	0
 3595 05ab 00       		.byte	0
 3596 05ac 0C       		.uleb128 0xc
 3597 05ad 36040000 		.4byte	.LASF56
 3598 05b1 01       		.byte	0x1
 3599 05b2 5805     		.2byte	0x558
 3600 05b4 BF010000 		.4byte	0x1bf
 3601 05b8 01       		.byte	0x1
 3602 05b9 1C060000 		.4byte	0x61c
 3603 05bd 0D       		.uleb128 0xd
 3604 05be 44050000 		.4byte	.LASF35
 3605 05c2 01       		.byte	0x1
 3606 05c3 5805     		.2byte	0x558
 3607 05c5 01020000 		.4byte	0x201
 3608 05c9 10       		.uleb128 0x10
 3609 05ca 6900     		.ascii	"i\000"
 3610 05cc 01       		.byte	0x1
 3611 05cd 5A05     		.2byte	0x55a
 3612 05cf 83000000 		.4byte	0x83
 3613 05d3 0E       		.uleb128 0xe
 3614 05d4 9F050000 		.4byte	.LASF57
 3615 05d8 01       		.byte	0x1
 3616 05d9 5B05     		.2byte	0x55b
 3617 05db 83000000 		.4byte	0x83
 3618 05df 0E       		.uleb128 0xe
 3619 05e0 EB040000 		.4byte	.LASF48
 3620 05e4 01       		.byte	0x1
 3621 05e5 5C05     		.2byte	0x55c
 3622 05e7 2A030000 		.4byte	0x32a
 3623 05eb 0E       		.uleb128 0xe
 3624 05ec 4F040000 		.4byte	.LASF58
 3625 05f0 01       		.byte	0x1
 3626 05f1 5D05     		.2byte	0x55d
 3627 05f3 83000000 		.4byte	0x83
 3628 05f7 0E       		.uleb128 0xe
 3629 05f8 0F020000 		.4byte	.LASF59
 3630 05fc 01       		.byte	0x1
 3631 05fd 5E05     		.2byte	0x55e
ARM GAS  C:\Users\young\AppData\Local\Temp\ccZHlxL6.s 			page 95


 3632 05ff 83000000 		.4byte	0x83
 3633 0603 0E       		.uleb128 0xe
 3634 0604 05040000 		.4byte	.LASF34
 3635 0608 01       		.byte	0x1
 3636 0609 6005     		.2byte	0x560
 3637 060b 83000000 		.4byte	0x83
 3638 060f 10       		.uleb128 0x10
 3639 0610 72657400 		.ascii	"ret\000"
 3640 0614 01       		.byte	0x1
 3641 0615 6105     		.2byte	0x561
 3642 0617 BF010000 		.4byte	0x1bf
 3643 061b 00       		.byte	0
 3644 061c 14       		.uleb128 0x14
 3645 061d 24040000 		.4byte	.LASF61
 3646 0621 01       		.byte	0x1
 3647 0622 4F03     		.2byte	0x34f
 3648 0624 01       		.byte	0x1
 3649 0625 5A060000 		.4byte	0x65a
 3650 0629 0D       		.uleb128 0xd
 3651 062a 05040000 		.4byte	.LASF34
 3652 062e 01       		.byte	0x1
 3653 062f 4F03     		.2byte	0x34f
 3654 0631 83000000 		.4byte	0x83
 3655 0635 0D       		.uleb128 0xd
 3656 0636 07000000 		.4byte	.LASF62
 3657 063a 01       		.byte	0x1
 3658 063b 5003     		.2byte	0x350
 3659 063d 60020000 		.4byte	0x260
 3660 0641 0D       		.uleb128 0xd
 3661 0642 C3020000 		.4byte	.LASF63
 3662 0646 01       		.byte	0x1
 3663 0647 5103     		.2byte	0x351
 3664 0649 60020000 		.4byte	0x260
 3665 064d 0D       		.uleb128 0xd
 3666 064e 44050000 		.4byte	.LASF35
 3667 0652 01       		.byte	0x1
 3668 0653 5203     		.2byte	0x352
 3669 0655 01020000 		.4byte	0x201
 3670 0659 00       		.byte	0
 3671 065a 1F       		.uleb128 0x1f
 3672 065b D9040000 		.4byte	.LASF64
 3673 065f 01       		.byte	0x1
 3674 0660 5F       		.byte	0x5f
 3675 0661 BF010000 		.4byte	0x1bf
 3676 0665 00000000 		.4byte	.LFB0
 3677 0669 4E020000 		.4byte	.LFE0-.LFB0
 3678 066d 01       		.uleb128 0x1
 3679 066e 9C       		.byte	0x9c
 3680 066f 30090000 		.4byte	0x930
 3681 0673 20       		.uleb128 0x20
 3682 0674 18050000 		.4byte	.LASF51
 3683 0678 01       		.byte	0x1
 3684 0679 5F       		.byte	0x5f
 3685 067a 7C030000 		.4byte	0x37c
 3686 067e 1B030000 		.4byte	.LLST21
 3687 0682 20       		.uleb128 0x20
 3688 0683 44050000 		.4byte	.LASF35
ARM GAS  C:\Users\young\AppData\Local\Temp\ccZHlxL6.s 			page 96


 3689 0687 01       		.byte	0x1
 3690 0688 5F       		.byte	0x5f
 3691 0689 01020000 		.4byte	0x201
 3692 068d 52030000 		.4byte	.LLST22
 3693 0691 21       		.uleb128 0x21
 3694 0692 72657400 		.ascii	"ret\000"
 3695 0696 01       		.byte	0x1
 3696 0697 61       		.byte	0x61
 3697 0698 BF010000 		.4byte	0x1bf
 3698 069c 89030000 		.4byte	.LLST23
 3699 06a0 22       		.uleb128 0x22
 3700 06a1 3A030000 		.4byte	0x33a
 3701 06a5 30000000 		.4byte	.LBB72
 3702 06a9 00000000 		.4byte	.Ldebug_ranges0+0
 3703 06ad 01       		.byte	0x1
 3704 06ae 66       		.byte	0x66
 3705 06af CE060000 		.4byte	0x6ce
 3706 06b3 23       		.uleb128 0x23
 3707 06b4 4B030000 		.4byte	0x34b
 3708 06b8 24       		.uleb128 0x24
 3709 06b9 00000000 		.4byte	.Ldebug_ranges0+0
 3710 06bd 25       		.uleb128 0x25
 3711 06be 57030000 		.4byte	0x357
 3712 06c2 25       		.uleb128 0x25
 3713 06c3 63030000 		.4byte	0x363
 3714 06c7 25       		.uleb128 0x25
 3715 06c8 6F030000 		.4byte	0x36f
 3716 06cc 00       		.byte	0
 3717 06cd 00       		.byte	0
 3718 06ce 22       		.uleb128 0x22
 3719 06cf 82030000 		.4byte	0x382
 3720 06d3 7E000000 		.4byte	.LBB75
 3721 06d7 18000000 		.4byte	.Ldebug_ranges0+0x18
 3722 06db 01       		.byte	0x1
 3723 06dc 75       		.byte	0x75
 3724 06dd 1E070000 		.4byte	0x71e
 3725 06e1 16       		.uleb128 0x16
 3726 06e2 9B030000 		.4byte	0x39b
 3727 06e6 A9030000 		.4byte	.LLST24
 3728 06ea 16       		.uleb128 0x16
 3729 06eb 8F030000 		.4byte	0x38f
 3730 06ef BC030000 		.4byte	.LLST25
 3731 06f3 24       		.uleb128 0x24
 3732 06f4 18000000 		.4byte	.Ldebug_ranges0+0x18
 3733 06f8 18       		.uleb128 0x18
 3734 06f9 A7030000 		.4byte	0x3a7
 3735 06fd D1030000 		.4byte	.LLST26
 3736 0701 18       		.uleb128 0x18
 3737 0702 B3030000 		.4byte	0x3b3
 3738 0706 F0030000 		.4byte	.LLST27
 3739 070a 18       		.uleb128 0x18
 3740 070b BF030000 		.4byte	0x3bf
 3741 070f 25040000 		.4byte	.LLST28
 3742 0713 18       		.uleb128 0x18
 3743 0714 CB030000 		.4byte	0x3cb
 3744 0718 5C040000 		.4byte	.LLST29
 3745 071c 00       		.byte	0
ARM GAS  C:\Users\young\AppData\Local\Temp\ccZHlxL6.s 			page 97


 3746 071d 00       		.byte	0
 3747 071e 26       		.uleb128 0x26
 3748 071f AC050000 		.4byte	0x5ac
 3749 0723 C2000000 		.4byte	.LBB79
 3750 0727 58010000 		.4byte	.LBE79-.LBB79
 3751 072b 01       		.byte	0x1
 3752 072c 7C       		.byte	0x7c
 3753 072d E3080000 		.4byte	0x8e3
 3754 0731 23       		.uleb128 0x23
 3755 0732 BD050000 		.4byte	0x5bd
 3756 0736 1B       		.uleb128 0x1b
 3757 0737 C2000000 		.4byte	.LBB80
 3758 073b 58010000 		.4byte	.LBE80-.LBB80
 3759 073f 18       		.uleb128 0x18
 3760 0740 C9050000 		.4byte	0x5c9
 3761 0744 7A040000 		.4byte	.LLST30
 3762 0748 18       		.uleb128 0x18
 3763 0749 D3050000 		.4byte	0x5d3
 3764 074d B1040000 		.4byte	.LLST31
 3765 0751 19       		.uleb128 0x19
 3766 0752 DF050000 		.4byte	0x5df
 3767 0756 03       		.uleb128 0x3
 3768 0757 91       		.byte	0x91
 3769 0758 A87F     		.sleb128 -88
 3770 075a 18       		.uleb128 0x18
 3771 075b EB050000 		.4byte	0x5eb
 3772 075f C5040000 		.4byte	.LLST32
 3773 0763 18       		.uleb128 0x18
 3774 0764 F7050000 		.4byte	0x5f7
 3775 0768 FC040000 		.4byte	.LLST33
 3776 076c 18       		.uleb128 0x18
 3777 076d 03060000 		.4byte	0x603
 3778 0771 19050000 		.4byte	.LLST34
 3779 0775 18       		.uleb128 0x18
 3780 0776 0F060000 		.4byte	0x60f
 3781 077a 38050000 		.4byte	.LLST35
 3782 077e 27       		.uleb128 0x27
 3783 077f 66020000 		.4byte	0x266
 3784 0783 CA000000 		.4byte	.LBB81
 3785 0787 30000000 		.4byte	.Ldebug_ranges0+0x30
 3786 078b 01       		.byte	0x1
 3787 078c 6E05     		.2byte	0x56e
 3788 078e C6070000 		.4byte	0x7c6
 3789 0792 16       		.uleb128 0x16
 3790 0793 83020000 		.4byte	0x283
 3791 0797 57050000 		.4byte	.LLST36
 3792 079b 16       		.uleb128 0x16
 3793 079c 77020000 		.4byte	0x277
 3794 07a0 6C050000 		.4byte	.LLST37
 3795 07a4 24       		.uleb128 0x24
 3796 07a5 30000000 		.4byte	.Ldebug_ranges0+0x30
 3797 07a9 18       		.uleb128 0x18
 3798 07aa 8F020000 		.4byte	0x28f
 3799 07ae 8C050000 		.4byte	.LLST38
 3800 07b2 18       		.uleb128 0x18
 3801 07b3 9B020000 		.4byte	0x29b
 3802 07b7 AC050000 		.4byte	.LLST39
ARM GAS  C:\Users\young\AppData\Local\Temp\ccZHlxL6.s 			page 98


 3803 07bb 18       		.uleb128 0x18
 3804 07bc A5020000 		.4byte	0x2a5
 3805 07c0 CC050000 		.4byte	.LLST40
 3806 07c4 00       		.byte	0
 3807 07c5 00       		.byte	0
 3808 07c6 27       		.uleb128 0x27
 3809 07c7 07020000 		.4byte	0x207
 3810 07cb E4010000 		.4byte	.LBB85
 3811 07cf 48000000 		.4byte	.Ldebug_ranges0+0x48
 3812 07d3 01       		.byte	0x1
 3813 07d4 7205     		.2byte	0x572
 3814 07d6 2B080000 		.4byte	0x82b
 3815 07da 16       		.uleb128 0x16
 3816 07db 30020000 		.4byte	0x230
 3817 07df E0050000 		.4byte	.LLST41
 3818 07e3 16       		.uleb128 0x16
 3819 07e4 24020000 		.4byte	0x224
 3820 07e8 F3050000 		.4byte	.LLST42
 3821 07ec 16       		.uleb128 0x16
 3822 07ed 18020000 		.4byte	0x218
 3823 07f1 06060000 		.4byte	.LLST43
 3824 07f5 24       		.uleb128 0x24
 3825 07f6 48000000 		.4byte	.Ldebug_ranges0+0x48
 3826 07fa 18       		.uleb128 0x18
 3827 07fb 3C020000 		.4byte	0x23c
 3828 07ff 19060000 		.4byte	.LLST44
 3829 0803 25       		.uleb128 0x25
 3830 0804 48020000 		.4byte	0x248
 3831 0808 18       		.uleb128 0x18
 3832 0809 53020000 		.4byte	0x253
 3833 080d 2D060000 		.4byte	.LLST45
 3834 0811 1C       		.uleb128 0x1c
 3835 0812 EE010000 		.4byte	.LVL59
 3836 0816 0D130000 		.4byte	0x130d
 3837 081a 1D       		.uleb128 0x1d
 3838 081b 01       		.uleb128 0x1
 3839 081c 50       		.byte	0x50
 3840 081d 04       		.uleb128 0x4
 3841 081e 77       		.byte	0x77
 3842 081f 00       		.sleb128 0
 3843 0820 36       		.byte	0x36
 3844 0821 25       		.byte	0x25
 3845 0822 1D       		.uleb128 0x1d
 3846 0823 01       		.uleb128 0x1
 3847 0824 51       		.byte	0x51
 3848 0825 02       		.uleb128 0x2
 3849 0826 7D       		.byte	0x7d
 3850 0827 00       		.sleb128 0
 3851 0828 00       		.byte	0
 3852 0829 00       		.byte	0
 3853 082a 00       		.byte	0
 3854 082b 27       		.uleb128 0x27
 3855 082c 07020000 		.4byte	0x207
 3856 0830 EE010000 		.4byte	.LBB89
 3857 0834 60000000 		.4byte	.Ldebug_ranges0+0x60
 3858 0838 01       		.byte	0x1
 3859 0839 7A05     		.2byte	0x57a
ARM GAS  C:\Users\young\AppData\Local\Temp\ccZHlxL6.s 			page 99


 3860 083b 8C080000 		.4byte	0x88c
 3861 083f 16       		.uleb128 0x16
 3862 0840 30020000 		.4byte	0x230
 3863 0844 4F060000 		.4byte	.LLST46
 3864 0848 16       		.uleb128 0x16
 3865 0849 24020000 		.4byte	0x224
 3866 084d 62060000 		.4byte	.LLST47
 3867 0851 16       		.uleb128 0x16
 3868 0852 18020000 		.4byte	0x218
 3869 0856 FC040000 		.4byte	.LLST33
 3870 085a 24       		.uleb128 0x24
 3871 085b 60000000 		.4byte	.Ldebug_ranges0+0x60
 3872 085f 18       		.uleb128 0x18
 3873 0860 3C020000 		.4byte	0x23c
 3874 0864 75060000 		.4byte	.LLST49
 3875 0868 18       		.uleb128 0x18
 3876 0869 48020000 		.4byte	0x248
 3877 086d 89060000 		.4byte	.LLST50
 3878 0871 18       		.uleb128 0x18
 3879 0872 53020000 		.4byte	0x253
 3880 0876 9C060000 		.4byte	.LLST51
 3881 087a 1C       		.uleb128 0x1c
 3882 087b FE010000 		.4byte	.LVL60
 3883 087f 0D130000 		.4byte	0x130d
 3884 0883 1D       		.uleb128 0x1d
 3885 0884 01       		.uleb128 0x1
 3886 0885 51       		.byte	0x51
 3887 0886 02       		.uleb128 0x2
 3888 0887 7D       		.byte	0x7d
 3889 0888 00       		.sleb128 0
 3890 0889 00       		.byte	0
 3891 088a 00       		.byte	0
 3892 088b 00       		.byte	0
 3893 088c 27       		.uleb128 0x27
 3894 088d 1C060000 		.4byte	0x61c
 3895 0891 02020000 		.4byte	.LBB92
 3896 0895 78000000 		.4byte	.Ldebug_ranges0+0x78
 3897 0899 01       		.byte	0x1
 3898 089a 8005     		.2byte	0x580
 3899 089c C5080000 		.4byte	0x8c5
 3900 08a0 16       		.uleb128 0x16
 3901 08a1 4D060000 		.4byte	0x64d
 3902 08a5 BB060000 		.4byte	.LLST52
 3903 08a9 16       		.uleb128 0x16
 3904 08aa 41060000 		.4byte	0x641
 3905 08ae CE060000 		.4byte	.LLST53
 3906 08b2 16       		.uleb128 0x16
 3907 08b3 35060000 		.4byte	0x635
 3908 08b7 E6060000 		.4byte	.LLST54
 3909 08bb 16       		.uleb128 0x16
 3910 08bc 29060000 		.4byte	0x629
 3911 08c0 FE060000 		.4byte	.LLST55
 3912 08c4 00       		.byte	0
 3913 08c5 1C       		.uleb128 0x1c
 3914 08c6 DA000000 		.4byte	.LVL50
 3915 08ca 18130000 		.4byte	0x1318
 3916 08ce 1D       		.uleb128 0x1d
ARM GAS  C:\Users\young\AppData\Local\Temp\ccZHlxL6.s 			page 100


 3917 08cf 01       		.uleb128 0x1
 3918 08d0 50       		.byte	0x50
 3919 08d1 02       		.uleb128 0x2
 3920 08d2 7D       		.byte	0x7d
 3921 08d3 00       		.sleb128 0
 3922 08d4 1D       		.uleb128 0x1d
 3923 08d5 01       		.uleb128 0x1
 3924 08d6 51       		.byte	0x51
 3925 08d7 02       		.uleb128 0x2
 3926 08d8 77       		.byte	0x77
 3927 08d9 00       		.sleb128 0
 3928 08da 1D       		.uleb128 0x1d
 3929 08db 01       		.uleb128 0x1
 3930 08dc 52       		.byte	0x52
 3931 08dd 02       		.uleb128 0x2
 3932 08de 08       		.byte	0x8
 3933 08df 40       		.byte	0x40
 3934 08e0 00       		.byte	0
 3935 08e1 00       		.byte	0
 3936 08e2 00       		.byte	0
 3937 08e3 28       		.uleb128 0x28
 3938 08e4 82030000 		.4byte	0x382
 3939 08e8 1A020000 		.4byte	.LBB97
 3940 08ec 90000000 		.4byte	.Ldebug_ranges0+0x90
 3941 08f0 01       		.byte	0x1
 3942 08f1 7F       		.byte	0x7f
 3943 08f2 16       		.uleb128 0x16
 3944 08f3 9B030000 		.4byte	0x39b
 3945 08f7 11070000 		.4byte	.LLST56
 3946 08fb 16       		.uleb128 0x16
 3947 08fc 8F030000 		.4byte	0x38f
 3948 0900 2F070000 		.4byte	.LLST57
 3949 0904 24       		.uleb128 0x24
 3950 0905 90000000 		.4byte	.Ldebug_ranges0+0x90
 3951 0909 18       		.uleb128 0x18
 3952 090a A7030000 		.4byte	0x3a7
 3953 090e 51070000 		.4byte	.LLST58
 3954 0912 18       		.uleb128 0x18
 3955 0913 B3030000 		.4byte	0x3b3
 3956 0917 7C070000 		.4byte	.LLST59
 3957 091b 18       		.uleb128 0x18
 3958 091c BF030000 		.4byte	0x3bf
 3959 0920 BD070000 		.4byte	.LLST60
 3960 0924 18       		.uleb128 0x18
 3961 0925 CB030000 		.4byte	0x3cb
 3962 0929 00080000 		.4byte	.LLST61
 3963 092d 00       		.byte	0
 3964 092e 00       		.byte	0
 3965 092f 00       		.byte	0
 3966 0930 29       		.uleb128 0x29
 3967 0931 12030000 		.4byte	.LASF65
 3968 0935 01       		.byte	0x1
 3969 0936 A9       		.byte	0xa9
 3970 0937 BF010000 		.4byte	0x1bf
 3971 093b 00000000 		.4byte	.LFB1
 3972 093f E0020000 		.4byte	.LFE1-.LFB1
 3973 0943 01       		.uleb128 0x1
ARM GAS  C:\Users\young\AppData\Local\Temp\ccZHlxL6.s 			page 101


 3974 0944 9C       		.byte	0x9c
 3975 0945 DC0B0000 		.4byte	0xbdc
 3976 0949 20       		.uleb128 0x20
 3977 094a 75000000 		.4byte	.LASF66
 3978 094e 01       		.byte	0x1
 3979 094f A9       		.byte	0xa9
 3980 0950 83000000 		.4byte	0x83
 3981 0954 1E080000 		.4byte	.LLST62
 3982 0958 20       		.uleb128 0x20
 3983 0959 E0020000 		.4byte	.LASF67
 3984 095d 01       		.byte	0x1
 3985 095e AA       		.byte	0xaa
 3986 095f BE000000 		.4byte	0xbe
 3987 0963 F7080000 		.4byte	.LLST63
 3988 0967 20       		.uleb128 0x20
 3989 0968 99020000 		.4byte	.LASF68
 3990 096c 01       		.byte	0x1
 3991 096d AB       		.byte	0xab
 3992 096e 83000000 		.4byte	0x83
 3993 0972 16090000 		.4byte	.LLST64
 3994 0976 20       		.uleb128 0x20
 3995 0977 44050000 		.4byte	.LASF35
 3996 097b 01       		.byte	0x1
 3997 097c AC       		.byte	0xac
 3998 097d 01020000 		.4byte	0x201
 3999 0981 A3090000 		.4byte	.LLST65
 4000 0985 21       		.uleb128 0x21
 4001 0986 72657400 		.ascii	"ret\000"
 4002 098a 01       		.byte	0x1
 4003 098b AE       		.byte	0xae
 4004 098c BF010000 		.4byte	0x1bf
 4005 0990 5E0A0000 		.4byte	.LLST66
 4006 0994 21       		.uleb128 0x21
 4007 0995 6900     		.ascii	"i\000"
 4008 0997 01       		.byte	0x1
 4009 0998 AF       		.byte	0xaf
 4010 0999 83000000 		.4byte	0x83
 4011 099d 0B0B0000 		.4byte	.LLST67
 4012 09a1 2A       		.uleb128 0x2a
 4013 09a2 1F050000 		.4byte	.LASF69
 4014 09a6 01       		.byte	0x1
 4015 09a7 B0       		.byte	0xb0
 4016 09a8 83000000 		.4byte	0x83
 4017 09ac F20B0000 		.4byte	.LLST68
 4018 09b0 2A       		.uleb128 0x2a
 4019 09b1 00030000 		.4byte	.LASF70
 4020 09b5 01       		.byte	0x1
 4021 09b6 B1       		.byte	0xb1
 4022 09b7 83000000 		.4byte	0x83
 4023 09bb 470C0000 		.4byte	.LLST69
 4024 09bf 2A       		.uleb128 0x2a
 4025 09c0 5A050000 		.4byte	.LASF71
 4026 09c4 01       		.byte	0x1
 4027 09c5 B2       		.byte	0xb2
 4028 09c6 83000000 		.4byte	0x83
 4029 09ca 7B0C0000 		.4byte	.LLST70
 4030 09ce 2A       		.uleb128 0x2a
ARM GAS  C:\Users\young\AppData\Local\Temp\ccZHlxL6.s 			page 102


 4031 09cf F3020000 		.4byte	.LASF72
 4032 09d3 01       		.byte	0x1
 4033 09d4 B3       		.byte	0xb3
 4034 09d5 83000000 		.4byte	0x83
 4035 09d9 FE0C0000 		.4byte	.LLST71
 4036 09dd 2A       		.uleb128 0x2a
 4037 09de D5010000 		.4byte	.LASF73
 4038 09e2 01       		.byte	0x1
 4039 09e3 B4       		.byte	0xb4
 4040 09e4 83000000 		.4byte	0x83
 4041 09e8 B30D0000 		.4byte	.LLST72
 4042 09ec 2A       		.uleb128 0x2a
 4043 09ed F9050000 		.4byte	.LASF74
 4044 09f1 01       		.byte	0x1
 4045 09f2 B5       		.byte	0xb5
 4046 09f3 83000000 		.4byte	0x83
 4047 09f7 000E0000 		.4byte	.LLST73
 4048 09fb 2A       		.uleb128 0x2a
 4049 09fc C3040000 		.4byte	.LASF75
 4050 0a00 01       		.byte	0x1
 4051 0a01 B6       		.byte	0xb6
 4052 0a02 83000000 		.4byte	0x83
 4053 0a06 650E0000 		.4byte	.LLST74
 4054 0a0a 2A       		.uleb128 0x2a
 4055 0a0b 59060000 		.4byte	.LASF76
 4056 0a0f 01       		.byte	0x1
 4057 0a10 B7       		.byte	0xb7
 4058 0a11 83000000 		.4byte	0x83
 4059 0a15 A70E0000 		.4byte	.LLST75
 4060 0a19 24       		.uleb128 0x24
 4061 0a1a A8000000 		.4byte	.Ldebug_ranges0+0xa8
 4062 0a1e 2A       		.uleb128 0x2a
 4063 0a1f 9F050000 		.4byte	.LASF57
 4064 0a23 01       		.byte	0x1
 4065 0a24 BC       		.byte	0xbc
 4066 0a25 83000000 		.4byte	0x83
 4067 0a29 420F0000 		.4byte	.LLST76
 4068 0a2d 2A       		.uleb128 0x2a
 4069 0a2e 7E050000 		.4byte	.LASF77
 4070 0a32 01       		.byte	0x1
 4071 0a33 BD       		.byte	0xbd
 4072 0a34 83000000 		.4byte	0x83
 4073 0a38 7B100000 		.4byte	.LLST77
 4074 0a3c 2A       		.uleb128 0x2a
 4075 0a3d 05040000 		.4byte	.LASF34
 4076 0a41 01       		.byte	0x1
 4077 0a42 BF       		.byte	0xbf
 4078 0a43 83000000 		.4byte	0x83
 4079 0a47 33110000 		.4byte	.LLST78
 4080 0a4b 2A       		.uleb128 0x2a
 4081 0a4c F8010000 		.4byte	.LASF78
 4082 0a50 01       		.byte	0x1
 4083 0a51 C0       		.byte	0xc0
 4084 0a52 83000000 		.4byte	0x83
 4085 0a56 6A110000 		.4byte	.LLST79
 4086 0a5a 2A       		.uleb128 0x2a
 4087 0a5b 3D060000 		.4byte	.LASF79
ARM GAS  C:\Users\young\AppData\Local\Temp\ccZHlxL6.s 			page 103


 4088 0a5f 01       		.byte	0x1
 4089 0a60 C5       		.byte	0xc5
 4090 0a61 83000000 		.4byte	0x83
 4091 0a65 CA110000 		.4byte	.LLST80
 4092 0a69 2B       		.uleb128 0x2b
 4093 0a6a E0000000 		.4byte	.Ldebug_ranges0+0xe0
 4094 0a6e 820A0000 		.4byte	0xa82
 4095 0a72 2A       		.uleb128 0x2a
 4096 0a73 29060000 		.4byte	.LASF80
 4097 0a77 01       		.byte	0x1
 4098 0a78 E2       		.byte	0xe2
 4099 0a79 83000000 		.4byte	0x83
 4100 0a7d 24120000 		.4byte	.LLST81
 4101 0a81 00       		.byte	0
 4102 0a82 1A       		.uleb128 0x1a
 4103 0a83 CB010000 		.4byte	0x1cb
 4104 0a87 44020000 		.4byte	.LBB105
 4105 0a8b 10000000 		.4byte	.LBE105-.LBB105
 4106 0a8f 01       		.byte	0x1
 4107 0a90 3601     		.2byte	0x136
 4108 0a92 C50A0000 		.4byte	0xac5
 4109 0a96 16       		.uleb128 0x16
 4110 0a97 E8010000 		.4byte	0x1e8
 4111 0a9b 5D120000 		.4byte	.LLST82
 4112 0a9f 16       		.uleb128 0x16
 4113 0aa0 E8010000 		.4byte	0x1e8
 4114 0aa4 5D120000 		.4byte	.LLST82
 4115 0aa8 16       		.uleb128 0x16
 4116 0aa9 DC010000 		.4byte	0x1dc
 4117 0aad 7B120000 		.4byte	.LLST84
 4118 0ab1 1B       		.uleb128 0x1b
 4119 0ab2 44020000 		.4byte	.LBB106
 4120 0ab6 10000000 		.4byte	.LBE106-.LBB106
 4121 0aba 18       		.uleb128 0x18
 4122 0abb F4010000 		.4byte	0x1f4
 4123 0abf 8E120000 		.4byte	.LLST85
 4124 0ac3 00       		.byte	0
 4125 0ac4 00       		.byte	0
 4126 0ac5 2B       		.uleb128 0x2b
 4127 0ac6 00010000 		.4byte	.Ldebug_ranges0+0x100
 4128 0aca 530B0000 		.4byte	0xb53
 4129 0ace 2C       		.uleb128 0x2c
 4130 0acf 2E050000 		.4byte	.LASF44
 4131 0ad3 01       		.byte	0x1
 4132 0ad4 3B01     		.2byte	0x13b
 4133 0ad6 83000000 		.4byte	0x83
 4134 0ada AC120000 		.4byte	.LLST86
 4135 0ade 2C       		.uleb128 0x2c
 4136 0adf 62040000 		.4byte	.LASF52
 4137 0ae3 01       		.byte	0x1
 4138 0ae4 3C01     		.2byte	0x13c
 4139 0ae6 83000000 		.4byte	0x83
 4140 0aea E2120000 		.4byte	.LLST87
 4141 0aee 24       		.uleb128 0x24
 4142 0aef 18010000 		.4byte	.Ldebug_ranges0+0x118
 4143 0af3 2C       		.uleb128 0x2c
 4144 0af4 8F020000 		.4byte	.LASF81
ARM GAS  C:\Users\young\AppData\Local\Temp\ccZHlxL6.s 			page 104


 4145 0af8 01       		.byte	0x1
 4146 0af9 4101     		.2byte	0x141
 4147 0afb 83000000 		.4byte	0x83
 4148 0aff 35130000 		.4byte	.LLST88
 4149 0b03 2C       		.uleb128 0x2c
 4150 0b04 A6050000 		.4byte	.LASF82
 4151 0b08 01       		.byte	0x1
 4152 0b09 4201     		.2byte	0x142
 4153 0b0b 83000000 		.4byte	0x83
 4154 0b0f 59130000 		.4byte	.LLST89
 4155 0b13 1E       		.uleb128 0x1e
 4156 0b14 9C020000 		.4byte	.LVL185
 4157 0b18 D8030000 		.4byte	0x3d8
 4158 0b1c 3D0B0000 		.4byte	0xb3d
 4159 0b20 1D       		.uleb128 0x1d
 4160 0b21 01       		.uleb128 0x1
 4161 0b22 50       		.byte	0x50
 4162 0b23 02       		.uleb128 0x2
 4163 0b24 75       		.byte	0x75
 4164 0b25 00       		.sleb128 0
 4165 0b26 1D       		.uleb128 0x1d
 4166 0b27 01       		.uleb128 0x1
 4167 0b28 52       		.byte	0x52
 4168 0b29 03       		.uleb128 0x3
 4169 0b2a 91       		.byte	0x91
 4170 0b2b 40       		.sleb128 -64
 4171 0b2c 06       		.byte	0x6
 4172 0b2d 1D       		.uleb128 0x1d
 4173 0b2e 02       		.uleb128 0x2
 4174 0b2f 7D       		.byte	0x7d
 4175 0b30 00       		.sleb128 0
 4176 0b31 02       		.uleb128 0x2
 4177 0b32 77       		.byte	0x77
 4178 0b33 00       		.sleb128 0
 4179 0b34 2D       		.uleb128 0x2d
 4180 0b35 F9020000 		.4byte	0x2f9
 4181 0b39 02       		.uleb128 0x2
 4182 0b3a 74       		.byte	0x74
 4183 0b3b 00       		.sleb128 0
 4184 0b3c 00       		.byte	0
 4185 0b3d 1C       		.uleb128 0x1c
 4186 0b3e C6020000 		.4byte	.LVL192
 4187 0b42 18130000 		.4byte	0x1318
 4188 0b46 1D       		.uleb128 0x1d
 4189 0b47 01       		.uleb128 0x1
 4190 0b48 51       		.byte	0x51
 4191 0b49 06       		.uleb128 0x6
 4192 0b4a 75       		.byte	0x75
 4193 0b4b 00       		.sleb128 0
 4194 0b4c 91       		.byte	0x91
 4195 0b4d 40       		.sleb128 -64
 4196 0b4e 06       		.byte	0x6
 4197 0b4f 22       		.byte	0x22
 4198 0b50 00       		.byte	0
 4199 0b51 00       		.byte	0
 4200 0b52 00       		.byte	0
 4201 0b53 1E       		.uleb128 0x1e
ARM GAS  C:\Users\young\AppData\Local\Temp\ccZHlxL6.s 			page 105


 4202 0b54 E2000000 		.4byte	.LVL110
 4203 0b58 D8030000 		.4byte	0x3d8
 4204 0b5c 750B0000 		.4byte	0xb75
 4205 0b60 1D       		.uleb128 0x1d
 4206 0b61 01       		.uleb128 0x1
 4207 0b62 51       		.byte	0x51
 4208 0b63 02       		.uleb128 0x2
 4209 0b64 78       		.byte	0x78
 4210 0b65 00       		.sleb128 0
 4211 0b66 1D       		.uleb128 0x1d
 4212 0b67 01       		.uleb128 0x1
 4213 0b68 53       		.byte	0x53
 4214 0b69 02       		.uleb128 0x2
 4215 0b6a 75       		.byte	0x75
 4216 0b6b 00       		.sleb128 0
 4217 0b6c 2D       		.uleb128 0x2d
 4218 0b6d F9020000 		.4byte	0x2f9
 4219 0b71 02       		.uleb128 0x2
 4220 0b72 79       		.byte	0x79
 4221 0b73 00       		.sleb128 0
 4222 0b74 00       		.byte	0
 4223 0b75 1E       		.uleb128 0x1e
 4224 0b76 48010000 		.4byte	.LVL128
 4225 0b7a 18130000 		.4byte	0x1318
 4226 0b7e 8F0B0000 		.4byte	0xb8f
 4227 0b82 1D       		.uleb128 0x1d
 4228 0b83 01       		.uleb128 0x1
 4229 0b84 50       		.byte	0x50
 4230 0b85 02       		.uleb128 0x2
 4231 0b86 78       		.byte	0x78
 4232 0b87 00       		.sleb128 0
 4233 0b88 1D       		.uleb128 0x1d
 4234 0b89 01       		.uleb128 0x1
 4235 0b8a 52       		.byte	0x52
 4236 0b8b 02       		.uleb128 0x2
 4237 0b8c 75       		.byte	0x75
 4238 0b8d 00       		.sleb128 0
 4239 0b8e 00       		.byte	0
 4240 0b8f 1E       		.uleb128 0x1e
 4241 0b90 BC010000 		.4byte	.LVL146
 4242 0b94 18130000 		.4byte	0x1318
 4243 0b98 B60B0000 		.4byte	0xbb6
 4244 0b9c 1D       		.uleb128 0x1d
 4245 0b9d 01       		.uleb128 0x1
 4246 0b9e 50       		.byte	0x50
 4247 0b9f 02       		.uleb128 0x2
 4248 0ba0 7B       		.byte	0x7b
 4249 0ba1 00       		.sleb128 0
 4250 0ba2 1D       		.uleb128 0x1d
 4251 0ba3 01       		.uleb128 0x1
 4252 0ba4 51       		.byte	0x51
 4253 0ba5 09       		.uleb128 0x9
 4254 0ba6 77       		.byte	0x77
 4255 0ba7 00       		.sleb128 0
 4256 0ba8 4F       		.byte	0x4f
 4257 0ba9 1A       		.byte	0x1a
 4258 0baa 74       		.byte	0x74
ARM GAS  C:\Users\young\AppData\Local\Temp\ccZHlxL6.s 			page 106


 4259 0bab 00       		.sleb128 0
 4260 0bac 22       		.byte	0x22
 4261 0bad 23       		.byte	0x23
 4262 0bae 20       		.uleb128 0x20
 4263 0baf 1D       		.uleb128 0x1d
 4264 0bb0 01       		.uleb128 0x1
 4265 0bb1 52       		.byte	0x52
 4266 0bb2 02       		.uleb128 0x2
 4267 0bb3 75       		.byte	0x75
 4268 0bb4 00       		.sleb128 0
 4269 0bb5 00       		.byte	0
 4270 0bb6 1C       		.uleb128 0x1c
 4271 0bb7 FC010000 		.4byte	.LVL155
 4272 0bbb D8030000 		.4byte	0x3d8
 4273 0bbf 1D       		.uleb128 0x1d
 4274 0bc0 01       		.uleb128 0x1
 4275 0bc1 50       		.byte	0x50
 4276 0bc2 02       		.uleb128 0x2
 4277 0bc3 74       		.byte	0x74
 4278 0bc4 00       		.sleb128 0
 4279 0bc5 1D       		.uleb128 0x1d
 4280 0bc6 01       		.uleb128 0x1
 4281 0bc7 51       		.byte	0x51
 4282 0bc8 02       		.uleb128 0x2
 4283 0bc9 7B       		.byte	0x7b
 4284 0bca 00       		.sleb128 0
 4285 0bcb 1D       		.uleb128 0x1d
 4286 0bcc 01       		.uleb128 0x1
 4287 0bcd 53       		.byte	0x53
 4288 0bce 02       		.uleb128 0x2
 4289 0bcf 75       		.byte	0x75
 4290 0bd0 00       		.sleb128 0
 4291 0bd1 2D       		.uleb128 0x2d
 4292 0bd2 F9020000 		.4byte	0x2f9
 4293 0bd6 02       		.uleb128 0x2
 4294 0bd7 78       		.byte	0x78
 4295 0bd8 00       		.sleb128 0
 4296 0bd9 00       		.byte	0
 4297 0bda 00       		.byte	0
 4298 0bdb 00       		.byte	0
 4299 0bdc 0C       		.uleb128 0xc
 4300 0bdd 65020000 		.4byte	.LASF83
 4301 0be1 01       		.byte	0x1
 4302 0be2 1105     		.2byte	0x511
 4303 0be4 83000000 		.4byte	0x83
 4304 0be8 01       		.byte	0x1
 4305 0be9 420C0000 		.4byte	0xc42
 4306 0bed 0D       		.uleb128 0xd
 4307 0bee 2E050000 		.4byte	.LASF44
 4308 0bf2 01       		.byte	0x1
 4309 0bf3 1105     		.2byte	0x511
 4310 0bf5 60020000 		.4byte	0x260
 4311 0bf9 0D       		.uleb128 0xd
 4312 0bfa 62040000 		.4byte	.LASF52
 4313 0bfe 01       		.byte	0x1
 4314 0bff 1205     		.2byte	0x512
 4315 0c01 60020000 		.4byte	0x260
ARM GAS  C:\Users\young\AppData\Local\Temp\ccZHlxL6.s 			page 107


 4316 0c05 0D       		.uleb128 0xd
 4317 0c06 3D050000 		.4byte	.LASF84
 4318 0c0a 01       		.byte	0x1
 4319 0c0b 1305     		.2byte	0x513
 4320 0c0d 60020000 		.4byte	0x260
 4321 0c11 0D       		.uleb128 0xd
 4322 0c12 40000000 		.4byte	.LASF41
 4323 0c16 01       		.byte	0x1
 4324 0c17 1405     		.2byte	0x514
 4325 0c19 83000000 		.4byte	0x83
 4326 0c1d 0D       		.uleb128 0xd
 4327 0c1e 75000000 		.4byte	.LASF66
 4328 0c22 01       		.byte	0x1
 4329 0c23 1505     		.2byte	0x515
 4330 0c25 83000000 		.4byte	0x83
 4331 0c29 11       		.uleb128 0x11
 4332 0c2a 6C656E00 		.ascii	"len\000"
 4333 0c2e 01       		.byte	0x1
 4334 0c2f 1605     		.2byte	0x516
 4335 0c31 83000000 		.4byte	0x83
 4336 0c35 0E       		.uleb128 0xe
 4337 0c36 38050000 		.4byte	.LASF85
 4338 0c3a 01       		.byte	0x1
 4339 0c3b 1805     		.2byte	0x518
 4340 0c3d 83000000 		.4byte	0x83
 4341 0c41 00       		.byte	0
 4342 0c42 2E       		.uleb128 0x2e
 4343 0c43 F2030000 		.4byte	.LASF86
 4344 0c47 01       		.byte	0x1
 4345 0c48 9B01     		.2byte	0x19b
 4346 0c4a BF010000 		.4byte	0x1bf
 4347 0c4e 00000000 		.4byte	.LFB2
 4348 0c52 98030000 		.4byte	.LFE2-.LFB2
 4349 0c56 01       		.uleb128 0x1
 4350 0c57 9C       		.byte	0x9c
 4351 0c58 50100000 		.4byte	0x1050
 4352 0c5c 2F       		.uleb128 0x2f
 4353 0c5d 75000000 		.4byte	.LASF66
 4354 0c61 01       		.byte	0x1
 4355 0c62 9B01     		.2byte	0x19b
 4356 0c64 83000000 		.4byte	0x83
 4357 0c68 77130000 		.4byte	.LLST90
 4358 0c6c 2F       		.uleb128 0x2f
 4359 0c6d E0020000 		.4byte	.LASF67
 4360 0c71 01       		.byte	0x1
 4361 0c72 9C01     		.2byte	0x19c
 4362 0c74 BE000000 		.4byte	0xbe
 4363 0c78 BA130000 		.4byte	.LLST91
 4364 0c7c 2F       		.uleb128 0x2f
 4365 0c7d 99020000 		.4byte	.LASF68
 4366 0c81 01       		.byte	0x1
 4367 0c82 9D01     		.2byte	0x19d
 4368 0c84 83000000 		.4byte	0x83
 4369 0c88 DB130000 		.4byte	.LLST92
 4370 0c8c 2F       		.uleb128 0x2f
 4371 0c8d 44050000 		.4byte	.LASF35
 4372 0c91 01       		.byte	0x1
ARM GAS  C:\Users\young\AppData\Local\Temp\ccZHlxL6.s 			page 108


 4373 0c92 9E01     		.2byte	0x19e
 4374 0c94 01020000 		.4byte	0x201
 4375 0c98 2B140000 		.4byte	.LLST93
 4376 0c9c 30       		.uleb128 0x30
 4377 0c9d 72657400 		.ascii	"ret\000"
 4378 0ca1 01       		.byte	0x1
 4379 0ca2 A001     		.2byte	0x1a0
 4380 0ca4 BF010000 		.4byte	0x1bf
 4381 0ca8 A4140000 		.4byte	.LLST94
 4382 0cac 30       		.uleb128 0x30
 4383 0cad 6900     		.ascii	"i\000"
 4384 0caf 01       		.byte	0x1
 4385 0cb0 A101     		.2byte	0x1a1
 4386 0cb2 83000000 		.4byte	0x83
 4387 0cb6 F3140000 		.4byte	.LLST95
 4388 0cba 2C       		.uleb128 0x2c
 4389 0cbb 56040000 		.4byte	.LASF87
 4390 0cbf 01       		.byte	0x1
 4391 0cc0 A201     		.2byte	0x1a2
 4392 0cc2 83000000 		.4byte	0x83
 4393 0cc6 34150000 		.4byte	.LLST96
 4394 0cca 2C       		.uleb128 0x2c
 4395 0ccb B1020000 		.4byte	.LASF88
 4396 0ccf 01       		.byte	0x1
 4397 0cd0 A301     		.2byte	0x1a3
 4398 0cd2 83000000 		.4byte	0x83
 4399 0cd6 6D150000 		.4byte	.LLST97
 4400 0cda 31       		.uleb128 0x31
 4401 0cdb EB040000 		.4byte	.LASF48
 4402 0cdf 01       		.byte	0x1
 4403 0ce0 A401     		.2byte	0x1a4
 4404 0ce2 2A030000 		.4byte	0x32a
 4405 0ce6 03       		.uleb128 0x3
 4406 0ce7 91       		.byte	0x91
 4407 0ce8 987F     		.sleb128 -104
 4408 0cea 2C       		.uleb128 0x2c
 4409 0ceb 2E050000 		.4byte	.LASF44
 4410 0cef 01       		.byte	0x1
 4411 0cf0 A501     		.2byte	0x1a5
 4412 0cf2 83000000 		.4byte	0x83
 4413 0cf6 B8150000 		.4byte	.LLST98
 4414 0cfa 2C       		.uleb128 0x2c
 4415 0cfb 62040000 		.4byte	.LASF52
 4416 0cff 01       		.byte	0x1
 4417 0d00 A601     		.2byte	0x1a6
 4418 0d02 83000000 		.4byte	0x83
 4419 0d06 25160000 		.4byte	.LLST99
 4420 0d0a 2C       		.uleb128 0x2c
 4421 0d0b 0F020000 		.4byte	.LASF59
 4422 0d0f 01       		.byte	0x1
 4423 0d10 A701     		.2byte	0x1a7
 4424 0d12 83000000 		.4byte	0x83
 4425 0d16 90160000 		.4byte	.LLST100
 4426 0d1a 2C       		.uleb128 0x2c
 4427 0d1b 49060000 		.4byte	.LASF89
 4428 0d1f 01       		.byte	0x1
 4429 0d20 A801     		.2byte	0x1a8
ARM GAS  C:\Users\young\AppData\Local\Temp\ccZHlxL6.s 			page 109


 4430 0d22 83000000 		.4byte	0x83
 4431 0d26 30170000 		.4byte	.LLST101
 4432 0d2a 2C       		.uleb128 0x2c
 4433 0d2b CE020000 		.4byte	.LASF90
 4434 0d2f 01       		.byte	0x1
 4435 0d30 A901     		.2byte	0x1a9
 4436 0d32 83000000 		.4byte	0x83
 4437 0d36 77170000 		.4byte	.LLST102
 4438 0d3a 2C       		.uleb128 0x2c
 4439 0d3b 12000000 		.4byte	.LASF91
 4440 0d3f 01       		.byte	0x1
 4441 0d40 AA01     		.2byte	0x1aa
 4442 0d42 BE000000 		.4byte	0xbe
 4443 0d46 C5170000 		.4byte	.LLST103
 4444 0d4a 2C       		.uleb128 0x2c
 4445 0d4b 59060000 		.4byte	.LASF76
 4446 0d4f 01       		.byte	0x1
 4447 0d50 AB01     		.2byte	0x1ab
 4448 0d52 83000000 		.4byte	0x83
 4449 0d56 FB170000 		.4byte	.LLST104
 4450 0d5a 24       		.uleb128 0x24
 4451 0d5b 30010000 		.4byte	.Ldebug_ranges0+0x130
 4452 0d5f 2C       		.uleb128 0x2c
 4453 0d60 54000000 		.4byte	.LASF92
 4454 0d64 01       		.byte	0x1
 4455 0d65 B001     		.2byte	0x1b0
 4456 0d67 83000000 		.4byte	0x83
 4457 0d6b 28180000 		.4byte	.LLST105
 4458 0d6f 2C       		.uleb128 0x2c
 4459 0d70 E5010000 		.4byte	.LASF93
 4460 0d74 01       		.byte	0x1
 4461 0d75 B101     		.2byte	0x1b1
 4462 0d77 83000000 		.4byte	0x83
 4463 0d7b 55180000 		.4byte	.LLST106
 4464 0d7f 24       		.uleb128 0x24
 4465 0d80 60010000 		.4byte	.Ldebug_ranges0+0x160
 4466 0d84 2C       		.uleb128 0x2c
 4467 0d85 B5040000 		.4byte	.LASF94
 4468 0d89 01       		.byte	0x1
 4469 0d8a B501     		.2byte	0x1b5
 4470 0d8c 83000000 		.4byte	0x83
 4471 0d90 E5180000 		.4byte	.LLST107
 4472 0d94 2C       		.uleb128 0x2c
 4473 0d95 05040000 		.4byte	.LASF34
 4474 0d99 01       		.byte	0x1
 4475 0d9a B701     		.2byte	0x1b7
 4476 0d9c 83000000 		.4byte	0x83
 4477 0da0 6C190000 		.4byte	.LLST108
 4478 0da4 27       		.uleb128 0x27
 4479 0da5 1C060000 		.4byte	0x61c
 4480 0da9 52000000 		.4byte	.LBB134
 4481 0dad 80010000 		.4byte	.Ldebug_ranges0+0x180
 4482 0db1 01       		.byte	0x1
 4483 0db2 BE01     		.2byte	0x1be
 4484 0db4 DD0D0000 		.4byte	0xddd
 4485 0db8 16       		.uleb128 0x16
 4486 0db9 4D060000 		.4byte	0x64d
ARM GAS  C:\Users\young\AppData\Local\Temp\ccZHlxL6.s 			page 110


 4487 0dbd D7190000 		.4byte	.LLST109
 4488 0dc1 16       		.uleb128 0x16
 4489 0dc2 41060000 		.4byte	0x641
 4490 0dc6 0B1A0000 		.4byte	.LLST110
 4491 0dca 16       		.uleb128 0x16
 4492 0dcb 35060000 		.4byte	0x635
 4493 0dcf 331A0000 		.4byte	.LLST111
 4494 0dd3 16       		.uleb128 0x16
 4495 0dd4 29060000 		.4byte	0x629
 4496 0dd8 5B1A0000 		.4byte	.LLST112
 4497 0ddc 00       		.byte	0
 4498 0ddd 27       		.uleb128 0x27
 4499 0dde 66020000 		.4byte	0x266
 4500 0de2 EA000000 		.4byte	.LBB138
 4501 0de6 A0010000 		.4byte	.Ldebug_ranges0+0x1a0
 4502 0dea 01       		.byte	0x1
 4503 0deb 2402     		.2byte	0x224
 4504 0ded 1D0E0000 		.4byte	0xe1d
 4505 0df1 23       		.uleb128 0x23
 4506 0df2 83020000 		.4byte	0x283
 4507 0df6 23       		.uleb128 0x23
 4508 0df7 77020000 		.4byte	0x277
 4509 0dfb 24       		.uleb128 0x24
 4510 0dfc A0010000 		.4byte	.Ldebug_ranges0+0x1a0
 4511 0e00 18       		.uleb128 0x18
 4512 0e01 8F020000 		.4byte	0x28f
 4513 0e05 791A0000 		.4byte	.LLST113
 4514 0e09 18       		.uleb128 0x18
 4515 0e0a 9B020000 		.4byte	0x29b
 4516 0e0e 991A0000 		.4byte	.LLST114
 4517 0e12 18       		.uleb128 0x18
 4518 0e13 A5020000 		.4byte	0x2a5
 4519 0e17 B91A0000 		.4byte	.LLST115
 4520 0e1b 00       		.byte	0
 4521 0e1c 00       		.byte	0
 4522 0e1d 1A       		.uleb128 0x1a
 4523 0e1e CB010000 		.4byte	0x1cb
 4524 0e22 FC000000 		.4byte	.LBB141
 4525 0e26 12000000 		.4byte	.LBE141-.LBB141
 4526 0e2a 01       		.byte	0x1
 4527 0e2b FD01     		.2byte	0x1fd
 4528 0e2d 600E0000 		.4byte	0xe60
 4529 0e31 16       		.uleb128 0x16
 4530 0e32 E8010000 		.4byte	0x1e8
 4531 0e36 CD1A0000 		.4byte	.LLST116
 4532 0e3a 16       		.uleb128 0x16
 4533 0e3b E8010000 		.4byte	0x1e8
 4534 0e3f CD1A0000 		.4byte	.LLST116
 4535 0e43 16       		.uleb128 0x16
 4536 0e44 DC010000 		.4byte	0x1dc
 4537 0e48 E01A0000 		.4byte	.LLST118
 4538 0e4c 1B       		.uleb128 0x1b
 4539 0e4d FC000000 		.4byte	.LBB142
 4540 0e51 12000000 		.4byte	.LBE142-.LBB142
 4541 0e55 18       		.uleb128 0x18
 4542 0e56 F4010000 		.4byte	0x1f4
 4543 0e5a F31A0000 		.4byte	.LLST119
ARM GAS  C:\Users\young\AppData\Local\Temp\ccZHlxL6.s 			page 111


 4544 0e5e 00       		.byte	0
 4545 0e5f 00       		.byte	0
 4546 0e60 27       		.uleb128 0x27
 4547 0e61 DC0B0000 		.4byte	0xbdc
 4548 0e65 1C010000 		.4byte	.LBB143
 4549 0e69 B8010000 		.4byte	.Ldebug_ranges0+0x1b8
 4550 0e6d 01       		.byte	0x1
 4551 0e6e 0602     		.2byte	0x206
 4552 0e70 BA0E0000 		.4byte	0xeba
 4553 0e74 16       		.uleb128 0x16
 4554 0e75 290C0000 		.4byte	0xc29
 4555 0e79 111B0000 		.4byte	.LLST120
 4556 0e7d 16       		.uleb128 0x16
 4557 0e7e 1D0C0000 		.4byte	0xc1d
 4558 0e82 501B0000 		.4byte	.LLST121
 4559 0e86 16       		.uleb128 0x16
 4560 0e87 110C0000 		.4byte	0xc11
 4561 0e8b 841B0000 		.4byte	.LLST122
 4562 0e8f 16       		.uleb128 0x16
 4563 0e90 050C0000 		.4byte	0xc05
 4564 0e94 CF1B0000 		.4byte	.LLST123
 4565 0e98 16       		.uleb128 0x16
 4566 0e99 F90B0000 		.4byte	0xbf9
 4567 0e9d F71B0000 		.4byte	.LLST124
 4568 0ea1 16       		.uleb128 0x16
 4569 0ea2 ED0B0000 		.4byte	0xbed
 4570 0ea6 1F1C0000 		.4byte	.LLST125
 4571 0eaa 24       		.uleb128 0x24
 4572 0eab B8010000 		.4byte	.Ldebug_ranges0+0x1b8
 4573 0eaf 18       		.uleb128 0x18
 4574 0eb0 350C0000 		.4byte	0xc35
 4575 0eb4 471C0000 		.4byte	.LLST126
 4576 0eb8 00       		.byte	0
 4577 0eb9 00       		.byte	0
 4578 0eba 32       		.uleb128 0x32
 4579 0ebb 68010000 		.4byte	.LBB147
 4580 0ebf 16000000 		.4byte	.LBE147-.LBB147
 4581 0ec3 E80E0000 		.4byte	0xee8
 4582 0ec7 2C       		.uleb128 0x2c
 4583 0ec8 34020000 		.4byte	.LASF95
 4584 0ecc 01       		.byte	0x1
 4585 0ecd 1702     		.2byte	0x217
 4586 0ecf 83000000 		.4byte	0x83
 4587 0ed3 671C0000 		.4byte	.LLST127
 4588 0ed7 1C       		.uleb128 0x1c
 4589 0ed8 7C010000 		.4byte	.LVL244
 4590 0edc 18130000 		.4byte	0x1318
 4591 0ee0 1D       		.uleb128 0x1d
 4592 0ee1 01       		.uleb128 0x1
 4593 0ee2 51       		.byte	0x51
 4594 0ee3 02       		.uleb128 0x2
 4595 0ee4 74       		.byte	0x74
 4596 0ee5 0C       		.sleb128 12
 4597 0ee6 00       		.byte	0
 4598 0ee7 00       		.byte	0
 4599 0ee8 1A       		.uleb128 0x1a
 4600 0ee9 07020000 		.4byte	0x207
ARM GAS  C:\Users\young\AppData\Local\Temp\ccZHlxL6.s 			page 112


 4601 0eed 92020000 		.4byte	.LBB149
 4602 0ef1 0E000000 		.4byte	.LBE149-.LBB149
 4603 0ef5 01       		.byte	0x1
 4604 0ef6 2A02     		.2byte	0x22a
 4605 0ef8 580F0000 		.4byte	0xf58
 4606 0efc 16       		.uleb128 0x16
 4607 0efd 30020000 		.4byte	0x230
 4608 0f01 841C0000 		.4byte	.LLST128
 4609 0f05 16       		.uleb128 0x16
 4610 0f06 24020000 		.4byte	0x224
 4611 0f0a A21C0000 		.4byte	.LLST129
 4612 0f0e 16       		.uleb128 0x16
 4613 0f0f 18020000 		.4byte	0x218
 4614 0f13 D11C0000 		.4byte	.LLST130
 4615 0f17 1B       		.uleb128 0x1b
 4616 0f18 92020000 		.4byte	.LBB150
 4617 0f1c 0E000000 		.4byte	.LBE150-.LBB150
 4618 0f20 18       		.uleb128 0x18
 4619 0f21 3C020000 		.4byte	0x23c
 4620 0f25 E61C0000 		.4byte	.LLST131
 4621 0f29 18       		.uleb128 0x18
 4622 0f2a 48020000 		.4byte	0x248
 4623 0f2e FA1C0000 		.4byte	.LLST132
 4624 0f32 18       		.uleb128 0x18
 4625 0f33 53020000 		.4byte	0x253
 4626 0f37 0D1D0000 		.4byte	.LLST133
 4627 0f3b 1C       		.uleb128 0x1c
 4628 0f3c 9C020000 		.4byte	.LVL256
 4629 0f40 0D130000 		.4byte	0x130d
 4630 0f44 1D       		.uleb128 0x1d
 4631 0f45 01       		.uleb128 0x1
 4632 0f46 50       		.byte	0x50
 4633 0f47 06       		.uleb128 0x6
 4634 0f48 91       		.byte	0x91
 4635 0f49 F47E     		.sleb128 -140
 4636 0f4b 06       		.byte	0x6
 4637 0f4c 36       		.byte	0x36
 4638 0f4d 25       		.byte	0x25
 4639 0f4e 1D       		.uleb128 0x1d
 4640 0f4f 01       		.uleb128 0x1
 4641 0f50 51       		.byte	0x51
 4642 0f51 03       		.uleb128 0x3
 4643 0f52 91       		.byte	0x91
 4644 0f53 987F     		.sleb128 -104
 4645 0f55 00       		.byte	0
 4646 0f56 00       		.byte	0
 4647 0f57 00       		.byte	0
 4648 0f58 1A       		.uleb128 0x1a
 4649 0f59 07020000 		.4byte	0x207
 4650 0f5d 28030000 		.4byte	.LBB153
 4651 0f61 1A000000 		.4byte	.LBE153-.LBB153
 4652 0f65 01       		.byte	0x1
 4653 0f66 3402     		.2byte	0x234
 4654 0f68 BE0F0000 		.4byte	0xfbe
 4655 0f6c 16       		.uleb128 0x16
 4656 0f6d 30020000 		.4byte	0x230
 4657 0f71 421D0000 		.4byte	.LLST134
ARM GAS  C:\Users\young\AppData\Local\Temp\ccZHlxL6.s 			page 113


 4658 0f75 16       		.uleb128 0x16
 4659 0f76 24020000 		.4byte	0x224
 4660 0f7a 551D0000 		.4byte	.LLST135
 4661 0f7e 16       		.uleb128 0x16
 4662 0f7f 18020000 		.4byte	0x218
 4663 0f83 841D0000 		.4byte	.LLST136
 4664 0f87 1B       		.uleb128 0x1b
 4665 0f88 28030000 		.4byte	.LBB154
 4666 0f8c 1A000000 		.4byte	.LBE154-.LBB154
 4667 0f90 18       		.uleb128 0x18
 4668 0f91 3C020000 		.4byte	0x23c
 4669 0f95 C51D0000 		.4byte	.LLST137
 4670 0f99 18       		.uleb128 0x18
 4671 0f9a 48020000 		.4byte	0x248
 4672 0f9e D91D0000 		.4byte	.LLST138
 4673 0fa2 18       		.uleb128 0x18
 4674 0fa3 53020000 		.4byte	0x253
 4675 0fa7 EC1D0000 		.4byte	.LLST139
 4676 0fab 1C       		.uleb128 0x1c
 4677 0fac 3E030000 		.4byte	.LVL281
 4678 0fb0 0D130000 		.4byte	0x130d
 4679 0fb4 1D       		.uleb128 0x1d
 4680 0fb5 01       		.uleb128 0x1
 4681 0fb6 51       		.byte	0x51
 4682 0fb7 03       		.uleb128 0x3
 4683 0fb8 91       		.byte	0x91
 4684 0fb9 987F     		.sleb128 -104
 4685 0fbb 00       		.byte	0
 4686 0fbc 00       		.byte	0
 4687 0fbd 00       		.byte	0
 4688 0fbe 1E       		.uleb128 0x1e
 4689 0fbf 9E000000 		.4byte	.LVL213
 4690 0fc3 21130000 		.4byte	0x1321
 4691 0fc7 DE0F0000 		.4byte	0xfde
 4692 0fcb 1D       		.uleb128 0x1d
 4693 0fcc 01       		.uleb128 0x1
 4694 0fcd 50       		.byte	0x50
 4695 0fce 03       		.uleb128 0x3
 4696 0fcf 91       		.byte	0x91
 4697 0fd0 987F     		.sleb128 -104
 4698 0fd2 1D       		.uleb128 0x1d
 4699 0fd3 01       		.uleb128 0x1
 4700 0fd4 51       		.byte	0x51
 4701 0fd5 01       		.uleb128 0x1
 4702 0fd6 30       		.byte	0x30
 4703 0fd7 1D       		.uleb128 0x1d
 4704 0fd8 01       		.uleb128 0x1
 4705 0fd9 52       		.byte	0x52
 4706 0fda 02       		.uleb128 0x2
 4707 0fdb 08       		.byte	0x8
 4708 0fdc 40       		.byte	0x40
 4709 0fdd 00       		.byte	0
 4710 0fde 1E       		.uleb128 0x1e
 4711 0fdf D0000000 		.4byte	.LVL223
 4712 0fe3 18130000 		.4byte	0x1318
 4713 0fe7 F30F0000 		.4byte	0xff3
 4714 0feb 1D       		.uleb128 0x1d
ARM GAS  C:\Users\young\AppData\Local\Temp\ccZHlxL6.s 			page 114


 4715 0fec 01       		.uleb128 0x1
 4716 0fed 50       		.byte	0x50
 4717 0fee 03       		.uleb128 0x3
 4718 0fef 91       		.byte	0x91
 4719 0ff0 A47F     		.sleb128 -92
 4720 0ff2 00       		.byte	0
 4721 0ff3 1E       		.uleb128 0x1e
 4722 0ff4 50030000 		.4byte	.LVL285
 4723 0ff8 21130000 		.4byte	0x1321
 4724 0ffc 13100000 		.4byte	0x1013
 4725 1000 1D       		.uleb128 0x1d
 4726 1001 01       		.uleb128 0x1
 4727 1002 50       		.byte	0x50
 4728 1003 03       		.uleb128 0x3
 4729 1004 91       		.byte	0x91
 4730 1005 987F     		.sleb128 -104
 4731 1007 1D       		.uleb128 0x1d
 4732 1008 01       		.uleb128 0x1
 4733 1009 51       		.byte	0x51
 4734 100a 01       		.uleb128 0x1
 4735 100b 30       		.byte	0x30
 4736 100c 1D       		.uleb128 0x1d
 4737 100d 01       		.uleb128 0x1
 4738 100e 52       		.byte	0x52
 4739 100f 02       		.uleb128 0x2
 4740 1010 08       		.byte	0x8
 4741 1011 40       		.byte	0x40
 4742 1012 00       		.byte	0
 4743 1013 1E       		.uleb128 0x1e
 4744 1014 74030000 		.4byte	.LVL290
 4745 1018 18130000 		.4byte	0x1318
 4746 101c 34100000 		.4byte	0x1034
 4747 1020 1D       		.uleb128 0x1d
 4748 1021 01       		.uleb128 0x1
 4749 1022 50       		.byte	0x50
 4750 1023 03       		.uleb128 0x3
 4751 1024 91       		.byte	0x91
 4752 1025 B87F     		.sleb128 -72
 4753 1027 1D       		.uleb128 0x1d
 4754 1028 01       		.uleb128 0x1
 4755 1029 51       		.byte	0x51
 4756 102a 02       		.uleb128 0x2
 4757 102b 75       		.byte	0x75
 4758 102c 20       		.sleb128 32
 4759 102d 1D       		.uleb128 0x1d
 4760 102e 01       		.uleb128 0x1
 4761 102f 52       		.byte	0x52
 4762 1030 02       		.uleb128 0x2
 4763 1031 08       		.byte	0x8
 4764 1032 20       		.byte	0x20
 4765 1033 00       		.byte	0
 4766 1034 1C       		.uleb128 0x1c
 4767 1035 8A030000 		.4byte	.LVL295
 4768 1039 18130000 		.4byte	0x1318
 4769 103d 1D       		.uleb128 0x1d
 4770 103e 01       		.uleb128 0x1
 4771 103f 50       		.byte	0x50
ARM GAS  C:\Users\young\AppData\Local\Temp\ccZHlxL6.s 			page 115


 4772 1040 03       		.uleb128 0x3
 4773 1041 91       		.byte	0x91
 4774 1042 A47F     		.sleb128 -92
 4775 1044 1D       		.uleb128 0x1d
 4776 1045 01       		.uleb128 0x1
 4777 1046 52       		.byte	0x52
 4778 1047 04       		.uleb128 0x4
 4779 1048 91       		.byte	0x91
 4780 1049 8C7F     		.sleb128 -116
 4781 104b 06       		.byte	0x6
 4782 104c 00       		.byte	0
 4783 104d 00       		.byte	0
 4784 104e 00       		.byte	0
 4785 104f 00       		.byte	0
 4786 1050 0C       		.uleb128 0xc
 4787 1051 24030000 		.4byte	.LASF96
 4788 1055 01       		.byte	0x1
 4789 1056 4904     		.2byte	0x449
 4790 1058 BF010000 		.4byte	0x1bf
 4791 105c 01       		.byte	0x1
 4792 105d 9E100000 		.4byte	0x109e
 4793 1061 0D       		.uleb128 0xd
 4794 1062 98040000 		.4byte	.LASF38
 4795 1066 01       		.byte	0x1
 4796 1067 4904     		.2byte	0x449
 4797 1069 83000000 		.4byte	0x83
 4798 106d 0D       		.uleb128 0xd
 4799 106e 1A020000 		.4byte	.LASF97
 4800 1072 01       		.byte	0x1
 4801 1073 4A04     		.2byte	0x44a
 4802 1075 83000000 		.4byte	0x83
 4803 1079 0D       		.uleb128 0xd
 4804 107a 44050000 		.4byte	.LASF35
 4805 107e 01       		.byte	0x1
 4806 107f 4B04     		.2byte	0x44b
 4807 1081 01020000 		.4byte	0x201
 4808 1085 0E       		.uleb128 0xe
 4809 1086 49060000 		.4byte	.LASF89
 4810 108a 01       		.byte	0x1
 4811 108b 4D04     		.2byte	0x44d
 4812 108d 83000000 		.4byte	0x83
 4813 1091 10       		.uleb128 0x10
 4814 1092 72657400 		.ascii	"ret\000"
 4815 1096 01       		.byte	0x1
 4816 1097 4E04     		.2byte	0x44e
 4817 1099 BF010000 		.4byte	0x1bf
 4818 109d 00       		.byte	0
 4819 109e 33       		.uleb128 0x33
 4820 109f DF030000 		.4byte	.LASF98
 4821 10a3 01       		.byte	0x1
 4822 10a4 7502     		.2byte	0x275
 4823 10a6 BF010000 		.4byte	0x1bf
 4824 10aa 00000000 		.4byte	.LFB3
 4825 10ae 56010000 		.4byte	.LFE3-.LFB3
 4826 10b2 01       		.uleb128 0x1
 4827 10b3 9C       		.byte	0x9c
 4828 10b4 E2120000 		.4byte	0x12e2
ARM GAS  C:\Users\young\AppData\Local\Temp\ccZHlxL6.s 			page 116


 4829 10b8 2F       		.uleb128 0x2f
 4830 10b9 44050000 		.4byte	.LASF35
 4831 10bd 01       		.byte	0x1
 4832 10be 7502     		.2byte	0x275
 4833 10c0 01020000 		.4byte	0x201
 4834 10c4 181E0000 		.4byte	.LLST140
 4835 10c8 30       		.uleb128 0x30
 4836 10c9 6900     		.ascii	"i\000"
 4837 10cb 01       		.byte	0x1
 4838 10cc 7702     		.2byte	0x277
 4839 10ce 83000000 		.4byte	0x83
 4840 10d2 4F1E0000 		.4byte	.LLST141
 4841 10d6 2C       		.uleb128 0x2c
 4842 10d7 05040000 		.4byte	.LASF34
 4843 10db 01       		.byte	0x1
 4844 10dc 7802     		.2byte	0x278
 4845 10de 83000000 		.4byte	0x83
 4846 10e2 6E1E0000 		.4byte	.LLST142
 4847 10e6 2C       		.uleb128 0x2c
 4848 10e7 49060000 		.4byte	.LASF89
 4849 10eb 01       		.byte	0x1
 4850 10ec 7902     		.2byte	0x279
 4851 10ee 83000000 		.4byte	0x83
 4852 10f2 BC1E0000 		.4byte	.LLST143
 4853 10f6 2C       		.uleb128 0x2c
 4854 10f7 CE020000 		.4byte	.LASF90
 4855 10fb 01       		.byte	0x1
 4856 10fc 7A02     		.2byte	0x27a
 4857 10fe 83000000 		.4byte	0x83
 4858 1102 DA1E0000 		.4byte	.LLST144
 4859 1106 30       		.uleb128 0x30
 4860 1107 72657400 		.ascii	"ret\000"
 4861 110b 01       		.byte	0x1
 4862 110c 7B02     		.2byte	0x27b
 4863 110e BF010000 		.4byte	0x1bf
 4864 1112 FA1E0000 		.4byte	.LLST145
 4865 1116 31       		.uleb128 0x31
 4866 1117 EB040000 		.4byte	.LASF48
 4867 111b 01       		.byte	0x1
 4868 111c 7C02     		.2byte	0x27c
 4869 111e 2A030000 		.4byte	0x32a
 4870 1122 03       		.uleb128 0x3
 4871 1123 91       		.byte	0x91
 4872 1124 A87F     		.sleb128 -88
 4873 1126 32       		.uleb128 0x32
 4874 1127 1E000000 		.4byte	.LBB174
 4875 112b 38010000 		.4byte	.LBE174-.LBB174
 4876 112f C6120000 		.4byte	0x12c6
 4877 1133 31       		.uleb128 0x31
 4878 1134 54000000 		.4byte	.LASF92
 4879 1138 01       		.byte	0x1
 4880 1139 8902     		.2byte	0x289
 4881 113b 83000000 		.4byte	0x83
 4882 113f 01       		.uleb128 0x1
 4883 1140 56       		.byte	0x56
 4884 1141 1A       		.uleb128 0x1a
 4885 1142 66020000 		.4byte	0x266
ARM GAS  C:\Users\young\AppData\Local\Temp\ccZHlxL6.s 			page 117


 4886 1146 34000000 		.4byte	.LBB175
 4887 114a C8000000 		.4byte	.LBE175-.LBB175
 4888 114e 01       		.byte	0x1
 4889 114f 9302     		.2byte	0x293
 4890 1151 85110000 		.4byte	0x1185
 4891 1155 23       		.uleb128 0x23
 4892 1156 83020000 		.4byte	0x283
 4893 115a 23       		.uleb128 0x23
 4894 115b 77020000 		.4byte	0x277
 4895 115f 1B       		.uleb128 0x1b
 4896 1160 34000000 		.4byte	.LBB176
 4897 1164 C8000000 		.4byte	.LBE176-.LBB176
 4898 1168 18       		.uleb128 0x18
 4899 1169 8F020000 		.4byte	0x28f
 4900 116d 311F0000 		.4byte	.LLST146
 4901 1171 18       		.uleb128 0x18
 4902 1172 9B020000 		.4byte	0x29b
 4903 1176 99200000 		.4byte	.LLST147
 4904 117a 18       		.uleb128 0x18
 4905 117b A5020000 		.4byte	0x2a5
 4906 117f 6D210000 		.4byte	.LLST148
 4907 1183 00       		.byte	0
 4908 1184 00       		.byte	0
 4909 1185 27       		.uleb128 0x27
 4910 1186 50100000 		.4byte	0x1050
 4911 118a 08010000 		.4byte	.LBB177
 4912 118e D8010000 		.4byte	.Ldebug_ranges0+0x1d8
 4913 1192 01       		.byte	0x1
 4914 1193 B402     		.2byte	0x2b4
 4915 1195 90120000 		.4byte	0x1290
 4916 1199 16       		.uleb128 0x16
 4917 119a 79100000 		.4byte	0x1079
 4918 119e B9210000 		.4byte	.LLST149
 4919 11a2 16       		.uleb128 0x16
 4920 11a3 6D100000 		.4byte	0x106d
 4921 11a7 D7210000 		.4byte	.LLST150
 4922 11ab 16       		.uleb128 0x16
 4923 11ac 61100000 		.4byte	0x1061
 4924 11b0 F5210000 		.4byte	.LLST151
 4925 11b4 24       		.uleb128 0x24
 4926 11b5 D8010000 		.4byte	.Ldebug_ranges0+0x1d8
 4927 11b9 18       		.uleb128 0x18
 4928 11ba 85100000 		.4byte	0x1085
 4929 11be 13220000 		.4byte	.LLST152
 4930 11c2 18       		.uleb128 0x18
 4931 11c3 91100000 		.4byte	0x1091
 4932 11c7 46220000 		.4byte	.LLST153
 4933 11cb 27       		.uleb128 0x27
 4934 11cc 07020000 		.4byte	0x207
 4935 11d0 2C010000 		.4byte	.LBB179
 4936 11d4 00020000 		.4byte	.Ldebug_ranges0+0x200
 4937 11d8 01       		.byte	0x1
 4938 11d9 8704     		.2byte	0x487
 4939 11db 34120000 		.4byte	0x1234
 4940 11df 16       		.uleb128 0x16
 4941 11e0 30020000 		.4byte	0x230
 4942 11e4 72220000 		.4byte	.LLST154
ARM GAS  C:\Users\young\AppData\Local\Temp\ccZHlxL6.s 			page 118


 4943 11e8 16       		.uleb128 0x16
 4944 11e9 24020000 		.4byte	0x224
 4945 11ed 90220000 		.4byte	.LLST155
 4946 11f1 16       		.uleb128 0x16
 4947 11f2 18020000 		.4byte	0x218
 4948 11f6 A3220000 		.4byte	.LLST156
 4949 11fa 24       		.uleb128 0x24
 4950 11fb 00020000 		.4byte	.Ldebug_ranges0+0x200
 4951 11ff 18       		.uleb128 0x18
 4952 1200 3C020000 		.4byte	0x23c
 4953 1204 B6220000 		.4byte	.LLST157
 4954 1208 18       		.uleb128 0x18
 4955 1209 48020000 		.4byte	0x248
 4956 120d CA220000 		.4byte	.LLST158
 4957 1211 18       		.uleb128 0x18
 4958 1212 53020000 		.4byte	0x253
 4959 1216 DD220000 		.4byte	.LLST159
 4960 121a 1C       		.uleb128 0x1c
 4961 121b 36010000 		.4byte	.LVL364
 4962 121f 0D130000 		.4byte	0x130d
 4963 1223 1D       		.uleb128 0x1d
 4964 1224 01       		.uleb128 0x1
 4965 1225 50       		.byte	0x50
 4966 1226 04       		.uleb128 0x4
 4967 1227 74       		.byte	0x74
 4968 1228 00       		.sleb128 0
 4969 1229 36       		.byte	0x36
 4970 122a 25       		.byte	0x25
 4971 122b 1D       		.uleb128 0x1d
 4972 122c 01       		.uleb128 0x1
 4973 122d 51       		.byte	0x51
 4974 122e 02       		.uleb128 0x2
 4975 122f 7D       		.byte	0x7d
 4976 1230 00       		.sleb128 0
 4977 1231 00       		.byte	0
 4978 1232 00       		.byte	0
 4979 1233 00       		.byte	0
 4980 1234 34       		.uleb128 0x34
 4981 1235 07020000 		.4byte	0x207
 4982 1239 3E010000 		.4byte	.LBB183
 4983 123d 14000000 		.4byte	.LBE183-.LBB183
 4984 1241 01       		.byte	0x1
 4985 1242 8D04     		.2byte	0x48d
 4986 1244 17       		.uleb128 0x17
 4987 1245 30020000 		.4byte	0x230
 4988 1249 01       		.uleb128 0x1
 4989 124a 55       		.byte	0x55
 4990 124b 17       		.uleb128 0x17
 4991 124c 24020000 		.4byte	0x224
 4992 1250 01       		.uleb128 0x1
 4993 1251 5D       		.byte	0x5d
 4994 1252 16       		.uleb128 0x16
 4995 1253 18020000 		.4byte	0x218
 4996 1257 FF220000 		.4byte	.LLST160
 4997 125b 1B       		.uleb128 0x1b
 4998 125c 3E010000 		.4byte	.LBB184
 4999 1260 14000000 		.4byte	.LBE184-.LBB184
ARM GAS  C:\Users\young\AppData\Local\Temp\ccZHlxL6.s 			page 119


 5000 1264 35       		.uleb128 0x35
 5001 1265 3C020000 		.4byte	0x23c
 5002 1269 04       		.byte	0x4
 5003 126a 18       		.uleb128 0x18
 5004 126b 48020000 		.4byte	0x248
 5005 126f 1C230000 		.4byte	.LLST161
 5006 1273 18       		.uleb128 0x18
 5007 1274 53020000 		.4byte	0x253
 5008 1278 2F230000 		.4byte	.LLST162
 5009 127c 1C       		.uleb128 0x1c
 5010 127d 4E010000 		.4byte	.LVL367
 5011 1281 0D130000 		.4byte	0x130d
 5012 1285 1D       		.uleb128 0x1d
 5013 1286 01       		.uleb128 0x1
 5014 1287 51       		.byte	0x51
 5015 1288 02       		.uleb128 0x2
 5016 1289 7D       		.byte	0x7d
 5017 128a 00       		.sleb128 0
 5018 128b 00       		.byte	0
 5019 128c 00       		.byte	0
 5020 128d 00       		.byte	0
 5021 128e 00       		.byte	0
 5022 128f 00       		.byte	0
 5023 1290 34       		.uleb128 0x34
 5024 1291 1C060000 		.4byte	0x61c
 5025 1295 1C010000 		.4byte	.LBB188
 5026 1299 0E000000 		.4byte	.LBE188-.LBB188
 5027 129d 01       		.byte	0x1
 5028 129e B102     		.2byte	0x2b1
 5029 12a0 16       		.uleb128 0x16
 5030 12a1 4D060000 		.4byte	0x64d
 5031 12a5 4E230000 		.4byte	.LLST163
 5032 12a9 16       		.uleb128 0x16
 5033 12aa 41060000 		.4byte	0x641
 5034 12ae 61230000 		.4byte	.LLST164
 5035 12b2 16       		.uleb128 0x16
 5036 12b3 35060000 		.4byte	0x635
 5037 12b7 79230000 		.4byte	.LLST165
 5038 12bb 16       		.uleb128 0x16
 5039 12bc 29060000 		.4byte	0x629
 5040 12c0 91230000 		.4byte	.LLST166
 5041 12c4 00       		.byte	0
 5042 12c5 00       		.byte	0
 5043 12c6 1C       		.uleb128 0x1c
 5044 12c7 12000000 		.4byte	.LVL301
 5045 12cb 21130000 		.4byte	0x1321
 5046 12cf 1D       		.uleb128 0x1d
 5047 12d0 01       		.uleb128 0x1
 5048 12d1 50       		.byte	0x50
 5049 12d2 02       		.uleb128 0x2
 5050 12d3 7D       		.byte	0x7d
 5051 12d4 00       		.sleb128 0
 5052 12d5 1D       		.uleb128 0x1d
 5053 12d6 01       		.uleb128 0x1
 5054 12d7 51       		.byte	0x51
 5055 12d8 01       		.uleb128 0x1
 5056 12d9 30       		.byte	0x30
ARM GAS  C:\Users\young\AppData\Local\Temp\ccZHlxL6.s 			page 120


 5057 12da 1D       		.uleb128 0x1d
 5058 12db 01       		.uleb128 0x1
 5059 12dc 52       		.byte	0x52
 5060 12dd 02       		.uleb128 0x2
 5061 12de 08       		.byte	0x8
 5062 12df 40       		.byte	0x40
 5063 12e0 00       		.byte	0
 5064 12e1 00       		.byte	0
 5065 12e2 33       		.uleb128 0x33
 5066 12e3 87010000 		.4byte	.LASF99
 5067 12e7 01       		.byte	0x1
 5068 12e8 DC02     		.2byte	0x2dc
 5069 12ea 83000000 		.4byte	0x83
 5070 12ee 00000000 		.4byte	.LFB4
 5071 12f2 06000000 		.4byte	.LFE4-.LFB4
 5072 12f6 01       		.uleb128 0x1
 5073 12f7 9C       		.byte	0x9c
 5074 12f8 0D130000 		.4byte	0x130d
 5075 12fc 2F       		.uleb128 0x2f
 5076 12fd 44050000 		.4byte	.LASF35
 5077 1301 01       		.byte	0x1
 5078 1302 DC02     		.2byte	0x2dc
 5079 1304 01020000 		.4byte	0x201
 5080 1308 A4230000 		.4byte	.LLST167
 5081 130c 00       		.byte	0
 5082 130d 36       		.uleb128 0x36
 5083 130e B0050000 		.4byte	.LASF105
 5084 1312 B0050000 		.4byte	.LASF105
 5085 1316 04       		.byte	0x4
 5086 1317 4E       		.byte	0x4e
 5087 1318 37       		.uleb128 0x37
 5088 1319 BA010000 		.4byte	.LASF100
 5089 131d BA010000 		.4byte	.LASF100
 5090 1321 37       		.uleb128 0x37
 5091 1322 98050000 		.4byte	.LASF101
 5092 1326 98050000 		.4byte	.LASF101
 5093 132a 00       		.byte	0
 5094              		.section	.debug_abbrev,"",%progbits
 5095              	.Ldebug_abbrev0:
 5096 0000 01       		.uleb128 0x1
 5097 0001 11       		.uleb128 0x11
 5098 0002 01       		.byte	0x1
 5099 0003 25       		.uleb128 0x25
 5100 0004 0E       		.uleb128 0xe
 5101 0005 13       		.uleb128 0x13
 5102 0006 0B       		.uleb128 0xb
 5103 0007 03       		.uleb128 0x3
 5104 0008 0E       		.uleb128 0xe
 5105 0009 1B       		.uleb128 0x1b
 5106 000a 0E       		.uleb128 0xe
 5107 000b 55       		.uleb128 0x55
 5108 000c 17       		.uleb128 0x17
 5109 000d 11       		.uleb128 0x11
 5110 000e 01       		.uleb128 0x1
 5111 000f 10       		.uleb128 0x10
 5112 0010 17       		.uleb128 0x17
 5113 0011 00       		.byte	0
ARM GAS  C:\Users\young\AppData\Local\Temp\ccZHlxL6.s 			page 121


 5114 0012 00       		.byte	0
 5115 0013 02       		.uleb128 0x2
 5116 0014 24       		.uleb128 0x24
 5117 0015 00       		.byte	0
 5118 0016 0B       		.uleb128 0xb
 5119 0017 0B       		.uleb128 0xb
 5120 0018 3E       		.uleb128 0x3e
 5121 0019 0B       		.uleb128 0xb
 5122 001a 03       		.uleb128 0x3
 5123 001b 0E       		.uleb128 0xe
 5124 001c 00       		.byte	0
 5125 001d 00       		.byte	0
 5126 001e 03       		.uleb128 0x3
 5127 001f 24       		.uleb128 0x24
 5128 0020 00       		.byte	0
 5129 0021 0B       		.uleb128 0xb
 5130 0022 0B       		.uleb128 0xb
 5131 0023 3E       		.uleb128 0x3e
 5132 0024 0B       		.uleb128 0xb
 5133 0025 03       		.uleb128 0x3
 5134 0026 08       		.uleb128 0x8
 5135 0027 00       		.byte	0
 5136 0028 00       		.byte	0
 5137 0029 04       		.uleb128 0x4
 5138 002a 16       		.uleb128 0x16
 5139 002b 00       		.byte	0
 5140 002c 03       		.uleb128 0x3
 5141 002d 0E       		.uleb128 0xe
 5142 002e 3A       		.uleb128 0x3a
 5143 002f 0B       		.uleb128 0xb
 5144 0030 3B       		.uleb128 0x3b
 5145 0031 05       		.uleb128 0x5
 5146 0032 49       		.uleb128 0x49
 5147 0033 13       		.uleb128 0x13
 5148 0034 00       		.byte	0
 5149 0035 00       		.byte	0
 5150 0036 05       		.uleb128 0x5
 5151 0037 0F       		.uleb128 0xf
 5152 0038 00       		.byte	0
 5153 0039 0B       		.uleb128 0xb
 5154 003a 0B       		.uleb128 0xb
 5155 003b 00       		.byte	0
 5156 003c 00       		.byte	0
 5157 003d 06       		.uleb128 0x6
 5158 003e 13       		.uleb128 0x13
 5159 003f 01       		.byte	0x1
 5160 0040 0B       		.uleb128 0xb
 5161 0041 0B       		.uleb128 0xb
 5162 0042 3A       		.uleb128 0x3a
 5163 0043 0B       		.uleb128 0xb
 5164 0044 3B       		.uleb128 0x3b
 5165 0045 0B       		.uleb128 0xb
 5166 0046 01       		.uleb128 0x1
 5167 0047 13       		.uleb128 0x13
 5168 0048 00       		.byte	0
 5169 0049 00       		.byte	0
 5170 004a 07       		.uleb128 0x7
ARM GAS  C:\Users\young\AppData\Local\Temp\ccZHlxL6.s 			page 122


 5171 004b 0D       		.uleb128 0xd
 5172 004c 00       		.byte	0
 5173 004d 03       		.uleb128 0x3
 5174 004e 0E       		.uleb128 0xe
 5175 004f 3A       		.uleb128 0x3a
 5176 0050 0B       		.uleb128 0xb
 5177 0051 3B       		.uleb128 0x3b
 5178 0052 0B       		.uleb128 0xb
 5179 0053 49       		.uleb128 0x49
 5180 0054 13       		.uleb128 0x13
 5181 0055 38       		.uleb128 0x38
 5182 0056 0B       		.uleb128 0xb
 5183 0057 00       		.byte	0
 5184 0058 00       		.byte	0
 5185 0059 08       		.uleb128 0x8
 5186 005a 0D       		.uleb128 0xd
 5187 005b 00       		.byte	0
 5188 005c 03       		.uleb128 0x3
 5189 005d 0E       		.uleb128 0xe
 5190 005e 3A       		.uleb128 0x3a
 5191 005f 0B       		.uleb128 0xb
 5192 0060 3B       		.uleb128 0x3b
 5193 0061 05       		.uleb128 0x5
 5194 0062 49       		.uleb128 0x49
 5195 0063 13       		.uleb128 0x13
 5196 0064 38       		.uleb128 0x38
 5197 0065 0B       		.uleb128 0xb
 5198 0066 00       		.byte	0
 5199 0067 00       		.byte	0
 5200 0068 09       		.uleb128 0x9
 5201 0069 13       		.uleb128 0x13
 5202 006a 01       		.byte	0x1
 5203 006b 0B       		.uleb128 0xb
 5204 006c 0B       		.uleb128 0xb
 5205 006d 3A       		.uleb128 0x3a
 5206 006e 0B       		.uleb128 0xb
 5207 006f 3B       		.uleb128 0x3b
 5208 0070 05       		.uleb128 0x5
 5209 0071 01       		.uleb128 0x1
 5210 0072 13       		.uleb128 0x13
 5211 0073 00       		.byte	0
 5212 0074 00       		.byte	0
 5213 0075 0A       		.uleb128 0xa
 5214 0076 04       		.uleb128 0x4
 5215 0077 01       		.byte	0x1
 5216 0078 0B       		.uleb128 0xb
 5217 0079 0B       		.uleb128 0xb
 5218 007a 49       		.uleb128 0x49
 5219 007b 13       		.uleb128 0x13
 5220 007c 3A       		.uleb128 0x3a
 5221 007d 0B       		.uleb128 0xb
 5222 007e 3B       		.uleb128 0x3b
 5223 007f 05       		.uleb128 0x5
 5224 0080 01       		.uleb128 0x1
 5225 0081 13       		.uleb128 0x13
 5226 0082 00       		.byte	0
 5227 0083 00       		.byte	0
ARM GAS  C:\Users\young\AppData\Local\Temp\ccZHlxL6.s 			page 123


 5228 0084 0B       		.uleb128 0xb
 5229 0085 28       		.uleb128 0x28
 5230 0086 00       		.byte	0
 5231 0087 03       		.uleb128 0x3
 5232 0088 0E       		.uleb128 0xe
 5233 0089 1C       		.uleb128 0x1c
 5234 008a 0B       		.uleb128 0xb
 5235 008b 00       		.byte	0
 5236 008c 00       		.byte	0
 5237 008d 0C       		.uleb128 0xc
 5238 008e 2E       		.uleb128 0x2e
 5239 008f 01       		.byte	0x1
 5240 0090 03       		.uleb128 0x3
 5241 0091 0E       		.uleb128 0xe
 5242 0092 3A       		.uleb128 0x3a
 5243 0093 0B       		.uleb128 0xb
 5244 0094 3B       		.uleb128 0x3b
 5245 0095 05       		.uleb128 0x5
 5246 0096 27       		.uleb128 0x27
 5247 0097 19       		.uleb128 0x19
 5248 0098 49       		.uleb128 0x49
 5249 0099 13       		.uleb128 0x13
 5250 009a 20       		.uleb128 0x20
 5251 009b 0B       		.uleb128 0xb
 5252 009c 01       		.uleb128 0x1
 5253 009d 13       		.uleb128 0x13
 5254 009e 00       		.byte	0
 5255 009f 00       		.byte	0
 5256 00a0 0D       		.uleb128 0xd
 5257 00a1 05       		.uleb128 0x5
 5258 00a2 00       		.byte	0
 5259 00a3 03       		.uleb128 0x3
 5260 00a4 0E       		.uleb128 0xe
 5261 00a5 3A       		.uleb128 0x3a
 5262 00a6 0B       		.uleb128 0xb
 5263 00a7 3B       		.uleb128 0x3b
 5264 00a8 05       		.uleb128 0x5
 5265 00a9 49       		.uleb128 0x49
 5266 00aa 13       		.uleb128 0x13
 5267 00ab 00       		.byte	0
 5268 00ac 00       		.byte	0
 5269 00ad 0E       		.uleb128 0xe
 5270 00ae 34       		.uleb128 0x34
 5271 00af 00       		.byte	0
 5272 00b0 03       		.uleb128 0x3
 5273 00b1 0E       		.uleb128 0xe
 5274 00b2 3A       		.uleb128 0x3a
 5275 00b3 0B       		.uleb128 0xb
 5276 00b4 3B       		.uleb128 0x3b
 5277 00b5 05       		.uleb128 0x5
 5278 00b6 49       		.uleb128 0x49
 5279 00b7 13       		.uleb128 0x13
 5280 00b8 00       		.byte	0
 5281 00b9 00       		.byte	0
 5282 00ba 0F       		.uleb128 0xf
 5283 00bb 0F       		.uleb128 0xf
 5284 00bc 00       		.byte	0
ARM GAS  C:\Users\young\AppData\Local\Temp\ccZHlxL6.s 			page 124


 5285 00bd 0B       		.uleb128 0xb
 5286 00be 0B       		.uleb128 0xb
 5287 00bf 49       		.uleb128 0x49
 5288 00c0 13       		.uleb128 0x13
 5289 00c1 00       		.byte	0
 5290 00c2 00       		.byte	0
 5291 00c3 10       		.uleb128 0x10
 5292 00c4 34       		.uleb128 0x34
 5293 00c5 00       		.byte	0
 5294 00c6 03       		.uleb128 0x3
 5295 00c7 08       		.uleb128 0x8
 5296 00c8 3A       		.uleb128 0x3a
 5297 00c9 0B       		.uleb128 0xb
 5298 00ca 3B       		.uleb128 0x3b
 5299 00cb 05       		.uleb128 0x5
 5300 00cc 49       		.uleb128 0x49
 5301 00cd 13       		.uleb128 0x13
 5302 00ce 00       		.byte	0
 5303 00cf 00       		.byte	0
 5304 00d0 11       		.uleb128 0x11
 5305 00d1 05       		.uleb128 0x5
 5306 00d2 00       		.byte	0
 5307 00d3 03       		.uleb128 0x3
 5308 00d4 08       		.uleb128 0x8
 5309 00d5 3A       		.uleb128 0x3a
 5310 00d6 0B       		.uleb128 0xb
 5311 00d7 3B       		.uleb128 0x3b
 5312 00d8 05       		.uleb128 0x5
 5313 00d9 49       		.uleb128 0x49
 5314 00da 13       		.uleb128 0x13
 5315 00db 00       		.byte	0
 5316 00dc 00       		.byte	0
 5317 00dd 12       		.uleb128 0x12
 5318 00de 01       		.uleb128 0x1
 5319 00df 01       		.byte	0x1
 5320 00e0 49       		.uleb128 0x49
 5321 00e1 13       		.uleb128 0x13
 5322 00e2 01       		.uleb128 0x1
 5323 00e3 13       		.uleb128 0x13
 5324 00e4 00       		.byte	0
 5325 00e5 00       		.byte	0
 5326 00e6 13       		.uleb128 0x13
 5327 00e7 21       		.uleb128 0x21
 5328 00e8 00       		.byte	0
 5329 00e9 49       		.uleb128 0x49
 5330 00ea 13       		.uleb128 0x13
 5331 00eb 2F       		.uleb128 0x2f
 5332 00ec 0B       		.uleb128 0xb
 5333 00ed 00       		.byte	0
 5334 00ee 00       		.byte	0
 5335 00ef 14       		.uleb128 0x14
 5336 00f0 2E       		.uleb128 0x2e
 5337 00f1 01       		.byte	0x1
 5338 00f2 03       		.uleb128 0x3
 5339 00f3 0E       		.uleb128 0xe
 5340 00f4 3A       		.uleb128 0x3a
 5341 00f5 0B       		.uleb128 0xb
ARM GAS  C:\Users\young\AppData\Local\Temp\ccZHlxL6.s 			page 125


 5342 00f6 3B       		.uleb128 0x3b
 5343 00f7 05       		.uleb128 0x5
 5344 00f8 27       		.uleb128 0x27
 5345 00f9 19       		.uleb128 0x19
 5346 00fa 20       		.uleb128 0x20
 5347 00fb 0B       		.uleb128 0xb
 5348 00fc 01       		.uleb128 0x1
 5349 00fd 13       		.uleb128 0x13
 5350 00fe 00       		.byte	0
 5351 00ff 00       		.byte	0
 5352 0100 15       		.uleb128 0x15
 5353 0101 2E       		.uleb128 0x2e
 5354 0102 01       		.byte	0x1
 5355 0103 31       		.uleb128 0x31
 5356 0104 13       		.uleb128 0x13
 5357 0105 11       		.uleb128 0x11
 5358 0106 01       		.uleb128 0x1
 5359 0107 12       		.uleb128 0x12
 5360 0108 06       		.uleb128 0x6
 5361 0109 40       		.uleb128 0x40
 5362 010a 18       		.uleb128 0x18
 5363 010b 9742     		.uleb128 0x2117
 5364 010d 19       		.uleb128 0x19
 5365 010e 01       		.uleb128 0x1
 5366 010f 13       		.uleb128 0x13
 5367 0110 00       		.byte	0
 5368 0111 00       		.byte	0
 5369 0112 16       		.uleb128 0x16
 5370 0113 05       		.uleb128 0x5
 5371 0114 00       		.byte	0
 5372 0115 31       		.uleb128 0x31
 5373 0116 13       		.uleb128 0x13
 5374 0117 02       		.uleb128 0x2
 5375 0118 17       		.uleb128 0x17
 5376 0119 00       		.byte	0
 5377 011a 00       		.byte	0
 5378 011b 17       		.uleb128 0x17
 5379 011c 05       		.uleb128 0x5
 5380 011d 00       		.byte	0
 5381 011e 31       		.uleb128 0x31
 5382 011f 13       		.uleb128 0x13
 5383 0120 02       		.uleb128 0x2
 5384 0121 18       		.uleb128 0x18
 5385 0122 00       		.byte	0
 5386 0123 00       		.byte	0
 5387 0124 18       		.uleb128 0x18
 5388 0125 34       		.uleb128 0x34
 5389 0126 00       		.byte	0
 5390 0127 31       		.uleb128 0x31
 5391 0128 13       		.uleb128 0x13
 5392 0129 02       		.uleb128 0x2
 5393 012a 17       		.uleb128 0x17
 5394 012b 00       		.byte	0
 5395 012c 00       		.byte	0
 5396 012d 19       		.uleb128 0x19
 5397 012e 34       		.uleb128 0x34
 5398 012f 00       		.byte	0
ARM GAS  C:\Users\young\AppData\Local\Temp\ccZHlxL6.s 			page 126


 5399 0130 31       		.uleb128 0x31
 5400 0131 13       		.uleb128 0x13
 5401 0132 02       		.uleb128 0x2
 5402 0133 18       		.uleb128 0x18
 5403 0134 00       		.byte	0
 5404 0135 00       		.byte	0
 5405 0136 1A       		.uleb128 0x1a
 5406 0137 1D       		.uleb128 0x1d
 5407 0138 01       		.byte	0x1
 5408 0139 31       		.uleb128 0x31
 5409 013a 13       		.uleb128 0x13
 5410 013b 11       		.uleb128 0x11
 5411 013c 01       		.uleb128 0x1
 5412 013d 12       		.uleb128 0x12
 5413 013e 06       		.uleb128 0x6
 5414 013f 58       		.uleb128 0x58
 5415 0140 0B       		.uleb128 0xb
 5416 0141 59       		.uleb128 0x59
 5417 0142 05       		.uleb128 0x5
 5418 0143 01       		.uleb128 0x1
 5419 0144 13       		.uleb128 0x13
 5420 0145 00       		.byte	0
 5421 0146 00       		.byte	0
 5422 0147 1B       		.uleb128 0x1b
 5423 0148 0B       		.uleb128 0xb
 5424 0149 01       		.byte	0x1
 5425 014a 11       		.uleb128 0x11
 5426 014b 01       		.uleb128 0x1
 5427 014c 12       		.uleb128 0x12
 5428 014d 06       		.uleb128 0x6
 5429 014e 00       		.byte	0
 5430 014f 00       		.byte	0
 5431 0150 1C       		.uleb128 0x1c
 5432 0151 898201   		.uleb128 0x4109
 5433 0154 01       		.byte	0x1
 5434 0155 11       		.uleb128 0x11
 5435 0156 01       		.uleb128 0x1
 5436 0157 31       		.uleb128 0x31
 5437 0158 13       		.uleb128 0x13
 5438 0159 00       		.byte	0
 5439 015a 00       		.byte	0
 5440 015b 1D       		.uleb128 0x1d
 5441 015c 8A8201   		.uleb128 0x410a
 5442 015f 00       		.byte	0
 5443 0160 02       		.uleb128 0x2
 5444 0161 18       		.uleb128 0x18
 5445 0162 9142     		.uleb128 0x2111
 5446 0164 18       		.uleb128 0x18
 5447 0165 00       		.byte	0
 5448 0166 00       		.byte	0
 5449 0167 1E       		.uleb128 0x1e
 5450 0168 898201   		.uleb128 0x4109
 5451 016b 01       		.byte	0x1
 5452 016c 11       		.uleb128 0x11
 5453 016d 01       		.uleb128 0x1
 5454 016e 31       		.uleb128 0x31
 5455 016f 13       		.uleb128 0x13
ARM GAS  C:\Users\young\AppData\Local\Temp\ccZHlxL6.s 			page 127


 5456 0170 01       		.uleb128 0x1
 5457 0171 13       		.uleb128 0x13
 5458 0172 00       		.byte	0
 5459 0173 00       		.byte	0
 5460 0174 1F       		.uleb128 0x1f
 5461 0175 2E       		.uleb128 0x2e
 5462 0176 01       		.byte	0x1
 5463 0177 3F       		.uleb128 0x3f
 5464 0178 19       		.uleb128 0x19
 5465 0179 03       		.uleb128 0x3
 5466 017a 0E       		.uleb128 0xe
 5467 017b 3A       		.uleb128 0x3a
 5468 017c 0B       		.uleb128 0xb
 5469 017d 3B       		.uleb128 0x3b
 5470 017e 0B       		.uleb128 0xb
 5471 017f 27       		.uleb128 0x27
 5472 0180 19       		.uleb128 0x19
 5473 0181 49       		.uleb128 0x49
 5474 0182 13       		.uleb128 0x13
 5475 0183 11       		.uleb128 0x11
 5476 0184 01       		.uleb128 0x1
 5477 0185 12       		.uleb128 0x12
 5478 0186 06       		.uleb128 0x6
 5479 0187 40       		.uleb128 0x40
 5480 0188 18       		.uleb128 0x18
 5481 0189 9742     		.uleb128 0x2117
 5482 018b 19       		.uleb128 0x19
 5483 018c 01       		.uleb128 0x1
 5484 018d 13       		.uleb128 0x13
 5485 018e 00       		.byte	0
 5486 018f 00       		.byte	0
 5487 0190 20       		.uleb128 0x20
 5488 0191 05       		.uleb128 0x5
 5489 0192 00       		.byte	0
 5490 0193 03       		.uleb128 0x3
 5491 0194 0E       		.uleb128 0xe
 5492 0195 3A       		.uleb128 0x3a
 5493 0196 0B       		.uleb128 0xb
 5494 0197 3B       		.uleb128 0x3b
 5495 0198 0B       		.uleb128 0xb
 5496 0199 49       		.uleb128 0x49
 5497 019a 13       		.uleb128 0x13
 5498 019b 02       		.uleb128 0x2
 5499 019c 17       		.uleb128 0x17
 5500 019d 00       		.byte	0
 5501 019e 00       		.byte	0
 5502 019f 21       		.uleb128 0x21
 5503 01a0 34       		.uleb128 0x34
 5504 01a1 00       		.byte	0
 5505 01a2 03       		.uleb128 0x3
 5506 01a3 08       		.uleb128 0x8
 5507 01a4 3A       		.uleb128 0x3a
 5508 01a5 0B       		.uleb128 0xb
 5509 01a6 3B       		.uleb128 0x3b
 5510 01a7 0B       		.uleb128 0xb
 5511 01a8 49       		.uleb128 0x49
 5512 01a9 13       		.uleb128 0x13
ARM GAS  C:\Users\young\AppData\Local\Temp\ccZHlxL6.s 			page 128


 5513 01aa 02       		.uleb128 0x2
 5514 01ab 17       		.uleb128 0x17
 5515 01ac 00       		.byte	0
 5516 01ad 00       		.byte	0
 5517 01ae 22       		.uleb128 0x22
 5518 01af 1D       		.uleb128 0x1d
 5519 01b0 01       		.byte	0x1
 5520 01b1 31       		.uleb128 0x31
 5521 01b2 13       		.uleb128 0x13
 5522 01b3 52       		.uleb128 0x52
 5523 01b4 01       		.uleb128 0x1
 5524 01b5 55       		.uleb128 0x55
 5525 01b6 17       		.uleb128 0x17
 5526 01b7 58       		.uleb128 0x58
 5527 01b8 0B       		.uleb128 0xb
 5528 01b9 59       		.uleb128 0x59
 5529 01ba 0B       		.uleb128 0xb
 5530 01bb 01       		.uleb128 0x1
 5531 01bc 13       		.uleb128 0x13
 5532 01bd 00       		.byte	0
 5533 01be 00       		.byte	0
 5534 01bf 23       		.uleb128 0x23
 5535 01c0 05       		.uleb128 0x5
 5536 01c1 00       		.byte	0
 5537 01c2 31       		.uleb128 0x31
 5538 01c3 13       		.uleb128 0x13
 5539 01c4 00       		.byte	0
 5540 01c5 00       		.byte	0
 5541 01c6 24       		.uleb128 0x24
 5542 01c7 0B       		.uleb128 0xb
 5543 01c8 01       		.byte	0x1
 5544 01c9 55       		.uleb128 0x55
 5545 01ca 17       		.uleb128 0x17
 5546 01cb 00       		.byte	0
 5547 01cc 00       		.byte	0
 5548 01cd 25       		.uleb128 0x25
 5549 01ce 34       		.uleb128 0x34
 5550 01cf 00       		.byte	0
 5551 01d0 31       		.uleb128 0x31
 5552 01d1 13       		.uleb128 0x13
 5553 01d2 00       		.byte	0
 5554 01d3 00       		.byte	0
 5555 01d4 26       		.uleb128 0x26
 5556 01d5 1D       		.uleb128 0x1d
 5557 01d6 01       		.byte	0x1
 5558 01d7 31       		.uleb128 0x31
 5559 01d8 13       		.uleb128 0x13
 5560 01d9 11       		.uleb128 0x11
 5561 01da 01       		.uleb128 0x1
 5562 01db 12       		.uleb128 0x12
 5563 01dc 06       		.uleb128 0x6
 5564 01dd 58       		.uleb128 0x58
 5565 01de 0B       		.uleb128 0xb
 5566 01df 59       		.uleb128 0x59
 5567 01e0 0B       		.uleb128 0xb
 5568 01e1 01       		.uleb128 0x1
 5569 01e2 13       		.uleb128 0x13
ARM GAS  C:\Users\young\AppData\Local\Temp\ccZHlxL6.s 			page 129


 5570 01e3 00       		.byte	0
 5571 01e4 00       		.byte	0
 5572 01e5 27       		.uleb128 0x27
 5573 01e6 1D       		.uleb128 0x1d
 5574 01e7 01       		.byte	0x1
 5575 01e8 31       		.uleb128 0x31
 5576 01e9 13       		.uleb128 0x13
 5577 01ea 52       		.uleb128 0x52
 5578 01eb 01       		.uleb128 0x1
 5579 01ec 55       		.uleb128 0x55
 5580 01ed 17       		.uleb128 0x17
 5581 01ee 58       		.uleb128 0x58
 5582 01ef 0B       		.uleb128 0xb
 5583 01f0 59       		.uleb128 0x59
 5584 01f1 05       		.uleb128 0x5
 5585 01f2 01       		.uleb128 0x1
 5586 01f3 13       		.uleb128 0x13
 5587 01f4 00       		.byte	0
 5588 01f5 00       		.byte	0
 5589 01f6 28       		.uleb128 0x28
 5590 01f7 1D       		.uleb128 0x1d
 5591 01f8 01       		.byte	0x1
 5592 01f9 31       		.uleb128 0x31
 5593 01fa 13       		.uleb128 0x13
 5594 01fb 52       		.uleb128 0x52
 5595 01fc 01       		.uleb128 0x1
 5596 01fd 55       		.uleb128 0x55
 5597 01fe 17       		.uleb128 0x17
 5598 01ff 58       		.uleb128 0x58
 5599 0200 0B       		.uleb128 0xb
 5600 0201 59       		.uleb128 0x59
 5601 0202 0B       		.uleb128 0xb
 5602 0203 00       		.byte	0
 5603 0204 00       		.byte	0
 5604 0205 29       		.uleb128 0x29
 5605 0206 2E       		.uleb128 0x2e
 5606 0207 01       		.byte	0x1
 5607 0208 3F       		.uleb128 0x3f
 5608 0209 19       		.uleb128 0x19
 5609 020a 03       		.uleb128 0x3
 5610 020b 0E       		.uleb128 0xe
 5611 020c 3A       		.uleb128 0x3a
 5612 020d 0B       		.uleb128 0xb
 5613 020e 3B       		.uleb128 0x3b
 5614 020f 0B       		.uleb128 0xb
 5615 0210 27       		.uleb128 0x27
 5616 0211 19       		.uleb128 0x19
 5617 0212 49       		.uleb128 0x49
 5618 0213 13       		.uleb128 0x13
 5619 0214 11       		.uleb128 0x11
 5620 0215 01       		.uleb128 0x1
 5621 0216 12       		.uleb128 0x12
 5622 0217 06       		.uleb128 0x6
 5623 0218 40       		.uleb128 0x40
 5624 0219 18       		.uleb128 0x18
 5625 021a 9642     		.uleb128 0x2116
 5626 021c 19       		.uleb128 0x19
ARM GAS  C:\Users\young\AppData\Local\Temp\ccZHlxL6.s 			page 130


 5627 021d 01       		.uleb128 0x1
 5628 021e 13       		.uleb128 0x13
 5629 021f 00       		.byte	0
 5630 0220 00       		.byte	0
 5631 0221 2A       		.uleb128 0x2a
 5632 0222 34       		.uleb128 0x34
 5633 0223 00       		.byte	0
 5634 0224 03       		.uleb128 0x3
 5635 0225 0E       		.uleb128 0xe
 5636 0226 3A       		.uleb128 0x3a
 5637 0227 0B       		.uleb128 0xb
 5638 0228 3B       		.uleb128 0x3b
 5639 0229 0B       		.uleb128 0xb
 5640 022a 49       		.uleb128 0x49
 5641 022b 13       		.uleb128 0x13
 5642 022c 02       		.uleb128 0x2
 5643 022d 17       		.uleb128 0x17
 5644 022e 00       		.byte	0
 5645 022f 00       		.byte	0
 5646 0230 2B       		.uleb128 0x2b
 5647 0231 0B       		.uleb128 0xb
 5648 0232 01       		.byte	0x1
 5649 0233 55       		.uleb128 0x55
 5650 0234 17       		.uleb128 0x17
 5651 0235 01       		.uleb128 0x1
 5652 0236 13       		.uleb128 0x13
 5653 0237 00       		.byte	0
 5654 0238 00       		.byte	0
 5655 0239 2C       		.uleb128 0x2c
 5656 023a 34       		.uleb128 0x34
 5657 023b 00       		.byte	0
 5658 023c 03       		.uleb128 0x3
 5659 023d 0E       		.uleb128 0xe
 5660 023e 3A       		.uleb128 0x3a
 5661 023f 0B       		.uleb128 0xb
 5662 0240 3B       		.uleb128 0x3b
 5663 0241 05       		.uleb128 0x5
 5664 0242 49       		.uleb128 0x49
 5665 0243 13       		.uleb128 0x13
 5666 0244 02       		.uleb128 0x2
 5667 0245 17       		.uleb128 0x17
 5668 0246 00       		.byte	0
 5669 0247 00       		.byte	0
 5670 0248 2D       		.uleb128 0x2d
 5671 0249 8A8201   		.uleb128 0x410a
 5672 024c 00       		.byte	0
 5673 024d 31       		.uleb128 0x31
 5674 024e 13       		.uleb128 0x13
 5675 024f 9142     		.uleb128 0x2111
 5676 0251 18       		.uleb128 0x18
 5677 0252 00       		.byte	0
 5678 0253 00       		.byte	0
 5679 0254 2E       		.uleb128 0x2e
 5680 0255 2E       		.uleb128 0x2e
 5681 0256 01       		.byte	0x1
 5682 0257 3F       		.uleb128 0x3f
 5683 0258 19       		.uleb128 0x19
ARM GAS  C:\Users\young\AppData\Local\Temp\ccZHlxL6.s 			page 131


 5684 0259 03       		.uleb128 0x3
 5685 025a 0E       		.uleb128 0xe
 5686 025b 3A       		.uleb128 0x3a
 5687 025c 0B       		.uleb128 0xb
 5688 025d 3B       		.uleb128 0x3b
 5689 025e 05       		.uleb128 0x5
 5690 025f 27       		.uleb128 0x27
 5691 0260 19       		.uleb128 0x19
 5692 0261 49       		.uleb128 0x49
 5693 0262 13       		.uleb128 0x13
 5694 0263 11       		.uleb128 0x11
 5695 0264 01       		.uleb128 0x1
 5696 0265 12       		.uleb128 0x12
 5697 0266 06       		.uleb128 0x6
 5698 0267 40       		.uleb128 0x40
 5699 0268 18       		.uleb128 0x18
 5700 0269 9642     		.uleb128 0x2116
 5701 026b 19       		.uleb128 0x19
 5702 026c 01       		.uleb128 0x1
 5703 026d 13       		.uleb128 0x13
 5704 026e 00       		.byte	0
 5705 026f 00       		.byte	0
 5706 0270 2F       		.uleb128 0x2f
 5707 0271 05       		.uleb128 0x5
 5708 0272 00       		.byte	0
 5709 0273 03       		.uleb128 0x3
 5710 0274 0E       		.uleb128 0xe
 5711 0275 3A       		.uleb128 0x3a
 5712 0276 0B       		.uleb128 0xb
 5713 0277 3B       		.uleb128 0x3b
 5714 0278 05       		.uleb128 0x5
 5715 0279 49       		.uleb128 0x49
 5716 027a 13       		.uleb128 0x13
 5717 027b 02       		.uleb128 0x2
 5718 027c 17       		.uleb128 0x17
 5719 027d 00       		.byte	0
 5720 027e 00       		.byte	0
 5721 027f 30       		.uleb128 0x30
 5722 0280 34       		.uleb128 0x34
 5723 0281 00       		.byte	0
 5724 0282 03       		.uleb128 0x3
 5725 0283 08       		.uleb128 0x8
 5726 0284 3A       		.uleb128 0x3a
 5727 0285 0B       		.uleb128 0xb
 5728 0286 3B       		.uleb128 0x3b
 5729 0287 05       		.uleb128 0x5
 5730 0288 49       		.uleb128 0x49
 5731 0289 13       		.uleb128 0x13
 5732 028a 02       		.uleb128 0x2
 5733 028b 17       		.uleb128 0x17
 5734 028c 00       		.byte	0
 5735 028d 00       		.byte	0
 5736 028e 31       		.uleb128 0x31
 5737 028f 34       		.uleb128 0x34
 5738 0290 00       		.byte	0
 5739 0291 03       		.uleb128 0x3
 5740 0292 0E       		.uleb128 0xe
ARM GAS  C:\Users\young\AppData\Local\Temp\ccZHlxL6.s 			page 132


 5741 0293 3A       		.uleb128 0x3a
 5742 0294 0B       		.uleb128 0xb
 5743 0295 3B       		.uleb128 0x3b
 5744 0296 05       		.uleb128 0x5
 5745 0297 49       		.uleb128 0x49
 5746 0298 13       		.uleb128 0x13
 5747 0299 02       		.uleb128 0x2
 5748 029a 18       		.uleb128 0x18
 5749 029b 00       		.byte	0
 5750 029c 00       		.byte	0
 5751 029d 32       		.uleb128 0x32
 5752 029e 0B       		.uleb128 0xb
 5753 029f 01       		.byte	0x1
 5754 02a0 11       		.uleb128 0x11
 5755 02a1 01       		.uleb128 0x1
 5756 02a2 12       		.uleb128 0x12
 5757 02a3 06       		.uleb128 0x6
 5758 02a4 01       		.uleb128 0x1
 5759 02a5 13       		.uleb128 0x13
 5760 02a6 00       		.byte	0
 5761 02a7 00       		.byte	0
 5762 02a8 33       		.uleb128 0x33
 5763 02a9 2E       		.uleb128 0x2e
 5764 02aa 01       		.byte	0x1
 5765 02ab 3F       		.uleb128 0x3f
 5766 02ac 19       		.uleb128 0x19
 5767 02ad 03       		.uleb128 0x3
 5768 02ae 0E       		.uleb128 0xe
 5769 02af 3A       		.uleb128 0x3a
 5770 02b0 0B       		.uleb128 0xb
 5771 02b1 3B       		.uleb128 0x3b
 5772 02b2 05       		.uleb128 0x5
 5773 02b3 27       		.uleb128 0x27
 5774 02b4 19       		.uleb128 0x19
 5775 02b5 49       		.uleb128 0x49
 5776 02b6 13       		.uleb128 0x13
 5777 02b7 11       		.uleb128 0x11
 5778 02b8 01       		.uleb128 0x1
 5779 02b9 12       		.uleb128 0x12
 5780 02ba 06       		.uleb128 0x6
 5781 02bb 40       		.uleb128 0x40
 5782 02bc 18       		.uleb128 0x18
 5783 02bd 9742     		.uleb128 0x2117
 5784 02bf 19       		.uleb128 0x19
 5785 02c0 01       		.uleb128 0x1
 5786 02c1 13       		.uleb128 0x13
 5787 02c2 00       		.byte	0
 5788 02c3 00       		.byte	0
 5789 02c4 34       		.uleb128 0x34
 5790 02c5 1D       		.uleb128 0x1d
 5791 02c6 01       		.byte	0x1
 5792 02c7 31       		.uleb128 0x31
 5793 02c8 13       		.uleb128 0x13
 5794 02c9 11       		.uleb128 0x11
 5795 02ca 01       		.uleb128 0x1
 5796 02cb 12       		.uleb128 0x12
 5797 02cc 06       		.uleb128 0x6
ARM GAS  C:\Users\young\AppData\Local\Temp\ccZHlxL6.s 			page 133


 5798 02cd 58       		.uleb128 0x58
 5799 02ce 0B       		.uleb128 0xb
 5800 02cf 59       		.uleb128 0x59
 5801 02d0 05       		.uleb128 0x5
 5802 02d1 00       		.byte	0
 5803 02d2 00       		.byte	0
 5804 02d3 35       		.uleb128 0x35
 5805 02d4 34       		.uleb128 0x34
 5806 02d5 00       		.byte	0
 5807 02d6 31       		.uleb128 0x31
 5808 02d7 13       		.uleb128 0x13
 5809 02d8 1C       		.uleb128 0x1c
 5810 02d9 0B       		.uleb128 0xb
 5811 02da 00       		.byte	0
 5812 02db 00       		.byte	0
 5813 02dc 36       		.uleb128 0x36
 5814 02dd 2E       		.uleb128 0x2e
 5815 02de 00       		.byte	0
 5816 02df 3F       		.uleb128 0x3f
 5817 02e0 19       		.uleb128 0x19
 5818 02e1 3C       		.uleb128 0x3c
 5819 02e2 19       		.uleb128 0x19
 5820 02e3 6E       		.uleb128 0x6e
 5821 02e4 0E       		.uleb128 0xe
 5822 02e5 03       		.uleb128 0x3
 5823 02e6 0E       		.uleb128 0xe
 5824 02e7 3A       		.uleb128 0x3a
 5825 02e8 0B       		.uleb128 0xb
 5826 02e9 3B       		.uleb128 0x3b
 5827 02ea 0B       		.uleb128 0xb
 5828 02eb 00       		.byte	0
 5829 02ec 00       		.byte	0
 5830 02ed 37       		.uleb128 0x37
 5831 02ee 2E       		.uleb128 0x2e
 5832 02ef 00       		.byte	0
 5833 02f0 3F       		.uleb128 0x3f
 5834 02f1 19       		.uleb128 0x19
 5835 02f2 3C       		.uleb128 0x3c
 5836 02f3 19       		.uleb128 0x19
 5837 02f4 6E       		.uleb128 0x6e
 5838 02f5 0E       		.uleb128 0xe
 5839 02f6 03       		.uleb128 0x3
 5840 02f7 0E       		.uleb128 0xe
 5841 02f8 00       		.byte	0
 5842 02f9 00       		.byte	0
 5843 02fa 00       		.byte	0
 5844              		.section	.debug_loc,"",%progbits
 5845              	.Ldebug_loc0:
 5846              	.LLST0:
 5847 0000 00000000 		.4byte	.LVL0
 5848 0004 28000000 		.4byte	.LVL5
 5849 0008 0100     		.2byte	0x1
 5850 000a 50       		.byte	0x50
 5851 000b 28000000 		.4byte	.LVL5
 5852 000f 52020000 		.4byte	.LVL19
 5853 0013 0100     		.2byte	0x1
 5854 0015 54       		.byte	0x54
ARM GAS  C:\Users\young\AppData\Local\Temp\ccZHlxL6.s 			page 134


 5855 0016 52020000 		.4byte	.LVL19
 5856 001a 5E020000 		.4byte	.LVL23
 5857 001e 0400     		.2byte	0x4
 5858 0020 F3       		.byte	0xf3
 5859 0021 01       		.uleb128 0x1
 5860 0022 50       		.byte	0x50
 5861 0023 9F       		.byte	0x9f
 5862 0024 5E020000 		.4byte	.LVL23
 5863 0028 98020000 		.4byte	.LFE17
 5864 002c 0100     		.2byte	0x1
 5865 002e 54       		.byte	0x54
 5866 002f 00000000 		.4byte	0
 5867 0033 00000000 		.4byte	0
 5868              	.LLST1:
 5869 0037 00000000 		.4byte	.LVL0
 5870 003b 1C000000 		.4byte	.LVL3
 5871 003f 0100     		.2byte	0x1
 5872 0041 51       		.byte	0x51
 5873 0042 1C000000 		.4byte	.LVL3
 5874 0046 52020000 		.4byte	.LVL21
 5875 004a 0100     		.2byte	0x1
 5876 004c 5A       		.byte	0x5a
 5877 004d 52020000 		.4byte	.LVL21
 5878 0051 5E020000 		.4byte	.LVL23
 5879 0055 0400     		.2byte	0x4
 5880 0057 F3       		.byte	0xf3
 5881 0058 01       		.uleb128 0x1
 5882 0059 51       		.byte	0x51
 5883 005a 9F       		.byte	0x9f
 5884 005b 5E020000 		.4byte	.LVL23
 5885 005f 98020000 		.4byte	.LFE17
 5886 0063 0100     		.2byte	0x1
 5887 0065 5A       		.byte	0x5a
 5888 0066 00000000 		.4byte	0
 5889 006a 00000000 		.4byte	0
 5890              	.LLST2:
 5891 006e 00000000 		.4byte	.LVL0
 5892 0072 16000000 		.4byte	.LVL1
 5893 0076 0100     		.2byte	0x1
 5894 0078 52       		.byte	0x52
 5895 0079 16000000 		.4byte	.LVL1
 5896 007d 52020000 		.4byte	.LVL22
 5897 0081 0100     		.2byte	0x1
 5898 0083 5B       		.byte	0x5b
 5899 0084 52020000 		.4byte	.LVL22
 5900 0088 5E020000 		.4byte	.LVL23
 5901 008c 0400     		.2byte	0x4
 5902 008e F3       		.byte	0xf3
 5903 008f 01       		.uleb128 0x1
 5904 0090 52       		.byte	0x52
 5905 0091 9F       		.byte	0x9f
 5906 0092 5E020000 		.4byte	.LVL23
 5907 0096 98020000 		.4byte	.LFE17
 5908 009a 0100     		.2byte	0x1
 5909 009c 5B       		.byte	0x5b
 5910 009d 00000000 		.4byte	0
 5911 00a1 00000000 		.4byte	0
ARM GAS  C:\Users\young\AppData\Local\Temp\ccZHlxL6.s 			page 135


 5912              	.LLST3:
 5913 00a5 00000000 		.4byte	.LVL0
 5914 00a9 18000000 		.4byte	.LVL2
 5915 00ad 0100     		.2byte	0x1
 5916 00af 53       		.byte	0x53
 5917 00b0 18000000 		.4byte	.LVL2
 5918 00b4 52020000 		.4byte	.LVL20
 5919 00b8 0100     		.2byte	0x1
 5920 00ba 59       		.byte	0x59
 5921 00bb 52020000 		.4byte	.LVL20
 5922 00bf 5E020000 		.4byte	.LVL23
 5923 00c3 0400     		.2byte	0x4
 5924 00c5 F3       		.byte	0xf3
 5925 00c6 01       		.uleb128 0x1
 5926 00c7 53       		.byte	0x53
 5927 00c8 9F       		.byte	0x9f
 5928 00c9 5E020000 		.4byte	.LVL23
 5929 00cd 98020000 		.4byte	.LFE17
 5930 00d1 0100     		.2byte	0x1
 5931 00d3 59       		.byte	0x59
 5932 00d4 00000000 		.4byte	0
 5933 00d8 00000000 		.4byte	0
 5934              	.LLST4:
 5935 00dc 6A020000 		.4byte	.LVL25
 5936 00e0 6E020000 		.4byte	.LVL26
 5937 00e4 0200     		.2byte	0x2
 5938 00e6 30       		.byte	0x30
 5939 00e7 9F       		.byte	0x9f
 5940 00e8 96020000 		.4byte	.LVL33
 5941 00ec 98020000 		.4byte	.LFE17
 5942 00f0 0100     		.2byte	0x1
 5943 00f2 50       		.byte	0x50
 5944 00f3 00000000 		.4byte	0
 5945 00f7 00000000 		.4byte	0
 5946              	.LLST5:
 5947 00fb 22000000 		.4byte	.LVL4
 5948 00ff 50020000 		.4byte	.LVL18
 5949 0103 0100     		.2byte	0x1
 5950 0105 51       		.byte	0x51
 5951 0106 50020000 		.4byte	.LVL18
 5952 010a 52020000 		.4byte	.LVL19
 5953 010e 0B00     		.2byte	0xb
 5954 0110 91       		.byte	0x91
 5955 0111 00       		.sleb128 0
 5956 0112 06       		.byte	0x6
 5957 0113 74       		.byte	0x74
 5958 0114 00       		.sleb128 0
 5959 0115 22       		.byte	0x22
 5960 0116 91       		.byte	0x91
 5961 0117 04       		.sleb128 4
 5962 0118 06       		.byte	0x6
 5963 0119 1C       		.byte	0x1c
 5964 011a 9F       		.byte	0x9f
 5965 011b 52020000 		.4byte	.LVL19
 5966 011f 5E020000 		.4byte	.LVL23
 5967 0123 0C00     		.2byte	0xc
 5968 0125 91       		.byte	0x91
ARM GAS  C:\Users\young\AppData\Local\Temp\ccZHlxL6.s 			page 136


 5969 0126 00       		.sleb128 0
 5970 0127 06       		.byte	0x6
 5971 0128 F3       		.byte	0xf3
 5972 0129 01       		.uleb128 0x1
 5973 012a 50       		.byte	0x50
 5974 012b 22       		.byte	0x22
 5975 012c 91       		.byte	0x91
 5976 012d 04       		.sleb128 4
 5977 012e 06       		.byte	0x6
 5978 012f 1C       		.byte	0x1c
 5979 0130 9F       		.byte	0x9f
 5980 0131 5E020000 		.4byte	.LVL23
 5981 0135 60020000 		.4byte	.LVL24
 5982 0139 0100     		.2byte	0x1
 5983 013b 51       		.byte	0x51
 5984 013c 60020000 		.4byte	.LVL24
 5985 0140 6E020000 		.4byte	.LVL26
 5986 0144 0B00     		.2byte	0xb
 5987 0146 91       		.byte	0x91
 5988 0147 00       		.sleb128 0
 5989 0148 06       		.byte	0x6
 5990 0149 74       		.byte	0x74
 5991 014a 00       		.sleb128 0
 5992 014b 22       		.byte	0x22
 5993 014c 91       		.byte	0x91
 5994 014d 04       		.sleb128 4
 5995 014e 06       		.byte	0x6
 5996 014f 1C       		.byte	0x1c
 5997 0150 9F       		.byte	0x9f
 5998 0151 6E020000 		.4byte	.LVL26
 5999 0155 75020000 		.4byte	.LVL27-1
 6000 0159 0100     		.2byte	0x1
 6001 015b 51       		.byte	0x51
 6002 015c 75020000 		.4byte	.LVL27-1
 6003 0160 98020000 		.4byte	.LFE17
 6004 0164 0300     		.2byte	0x3
 6005 0166 76       		.byte	0x76
 6006 0167 40       		.sleb128 -64
 6007 0168 9F       		.byte	0x9f
 6008 0169 00000000 		.4byte	0
 6009 016d 00000000 		.4byte	0
 6010              	.LLST6:
 6011 0171 22000000 		.4byte	.LVL4
 6012 0175 30010000 		.4byte	.LVL10
 6013 0179 0300     		.2byte	0x3
 6014 017b 08       		.byte	0x8
 6015 017c 20       		.byte	0x20
 6016 017d 9F       		.byte	0x9f
 6017 017e 00000000 		.4byte	0
 6018 0182 00000000 		.4byte	0
 6019              	.LLST7:
 6020 0186 22000000 		.4byte	.LVL4
 6021 018a 28000000 		.4byte	.LVL5
 6022 018e 0300     		.2byte	0x3
 6023 0190 70       		.byte	0x70
 6024 0191 20       		.sleb128 32
 6025 0192 9F       		.byte	0x9f
ARM GAS  C:\Users\young\AppData\Local\Temp\ccZHlxL6.s 			page 137


 6026 0193 28000000 		.4byte	.LVL5
 6027 0197 2E000000 		.4byte	.LVL6
 6028 019b 0100     		.2byte	0x1
 6029 019d 50       		.byte	0x50
 6030 019e 2E000000 		.4byte	.LVL6
 6031 01a2 30010000 		.4byte	.LVL10
 6032 01a6 0300     		.2byte	0x3
 6033 01a8 74       		.byte	0x74
 6034 01a9 20       		.sleb128 32
 6035 01aa 9F       		.byte	0x9f
 6036 01ab 00000000 		.4byte	0
 6037 01af 00000000 		.4byte	0
 6038              	.LLST8:
 6039 01b3 22000000 		.4byte	.LVL4
 6040 01b7 2E000000 		.4byte	.LVL6
 6041 01bb 0300     		.2byte	0x3
 6042 01bd 09       		.byte	0x9
 6043 01be FF       		.byte	0xff
 6044 01bf 9F       		.byte	0x9f
 6045 01c0 2C010000 		.4byte	.LVL9
 6046 01c4 30010000 		.4byte	.LVL10
 6047 01c8 0100     		.2byte	0x1
 6048 01ca 53       		.byte	0x53
 6049 01cb 00000000 		.4byte	0
 6050 01cf 00000000 		.4byte	0
 6051              	.LLST9:
 6052 01d3 9E000000 		.4byte	.LVL7
 6053 01d7 A2000000 		.4byte	.LVL8
 6054 01db 0200     		.2byte	0x2
 6055 01dd 38       		.byte	0x38
 6056 01de 9F       		.byte	0x9f
 6057 01df 2C010000 		.4byte	.LVL9
 6058 01e3 30010000 		.4byte	.LVL10
 6059 01e7 0200     		.2byte	0x2
 6060 01e9 38       		.byte	0x38
 6061 01ea 9F       		.byte	0x9f
 6062 01eb 00000000 		.4byte	0
 6063 01ef 00000000 		.4byte	0
 6064              	.LLST10:
 6065 01f3 22000000 		.4byte	.LVL4
 6066 01f7 2E000000 		.4byte	.LVL6
 6067 01fb 0200     		.2byte	0x2
 6068 01fd 30       		.byte	0x30
 6069 01fe 9F       		.byte	0x9f
 6070 01ff 00000000 		.4byte	0
 6071 0203 00000000 		.4byte	0
 6072              	.LLST11:
 6073 0207 36010000 		.4byte	.LVL11
 6074 020b 4A020000 		.4byte	.LVL17
 6075 020f 0300     		.2byte	0x3
 6076 0211 08       		.byte	0x8
 6077 0212 20       		.byte	0x20
 6078 0213 9F       		.byte	0x9f
 6079 0214 00000000 		.4byte	0
 6080 0218 00000000 		.4byte	0
 6081              	.LLST12:
 6082 021c 36010000 		.4byte	.LVL11
ARM GAS  C:\Users\young\AppData\Local\Temp\ccZHlxL6.s 			page 138


 6083 0220 42010000 		.4byte	.LVL12
 6084 0224 0300     		.2byte	0x3
 6085 0226 71       		.byte	0x71
 6086 0227 20       		.sleb128 32
 6087 0228 9F       		.byte	0x9f
 6088 0229 42010000 		.4byte	.LVL12
 6089 022d 48010000 		.4byte	.LVL13
 6090 0231 0100     		.2byte	0x1
 6091 0233 50       		.byte	0x50
 6092 0234 48010000 		.4byte	.LVL13
 6093 0238 4A020000 		.4byte	.LVL17
 6094 023c 0300     		.2byte	0x3
 6095 023e 71       		.byte	0x71
 6096 023f 20       		.sleb128 32
 6097 0240 9F       		.byte	0x9f
 6098 0241 00000000 		.4byte	0
 6099 0245 00000000 		.4byte	0
 6100              	.LLST13:
 6101 0249 36010000 		.4byte	.LVL11
 6102 024d 48010000 		.4byte	.LVL13
 6103 0251 0300     		.2byte	0x3
 6104 0253 09       		.byte	0x9
 6105 0254 FF       		.byte	0xff
 6106 0255 9F       		.byte	0x9f
 6107 0256 46020000 		.4byte	.LVL16
 6108 025a 4A020000 		.4byte	.LVL17
 6109 025e 0100     		.2byte	0x1
 6110 0260 53       		.byte	0x53
 6111 0261 00000000 		.4byte	0
 6112 0265 00000000 		.4byte	0
 6113              	.LLST14:
 6114 0269 B8010000 		.4byte	.LVL14
 6115 026d BC010000 		.4byte	.LVL15
 6116 0271 0200     		.2byte	0x2
 6117 0273 38       		.byte	0x38
 6118 0274 9F       		.byte	0x9f
 6119 0275 46020000 		.4byte	.LVL16
 6120 0279 4A020000 		.4byte	.LVL17
 6121 027d 0200     		.2byte	0x2
 6122 027f 38       		.byte	0x38
 6123 0280 9F       		.byte	0x9f
 6124 0281 00000000 		.4byte	0
 6125 0285 00000000 		.4byte	0
 6126              	.LLST15:
 6127 0289 36010000 		.4byte	.LVL11
 6128 028d 48010000 		.4byte	.LVL13
 6129 0291 0200     		.2byte	0x2
 6130 0293 30       		.byte	0x30
 6131 0294 9F       		.byte	0x9f
 6132 0295 00000000 		.4byte	0
 6133 0299 00000000 		.4byte	0
 6134              	.LLST16:
 6135 029d 76020000 		.4byte	.LVL27
 6136 02a1 86020000 		.4byte	.LVL31
 6137 02a5 0100     		.2byte	0x1
 6138 02a7 5D       		.byte	0x5d
 6139 02a8 00000000 		.4byte	0
ARM GAS  C:\Users\young\AppData\Local\Temp\ccZHlxL6.s 			page 139


 6140 02ac 00000000 		.4byte	0
 6141              	.LLST17:
 6142 02b0 76020000 		.4byte	.LVL27
 6143 02b4 86020000 		.4byte	.LVL31
 6144 02b8 0100     		.2byte	0x1
 6145 02ba 54       		.byte	0x54
 6146 02bb 00000000 		.4byte	0
 6147 02bf 00000000 		.4byte	0
 6148              	.LLST18:
 6149 02c3 76020000 		.4byte	.LVL27
 6150 02c7 86020000 		.4byte	.LVL31
 6151 02cb 0200     		.2byte	0x2
 6152 02cd 34       		.byte	0x34
 6153 02ce 9F       		.byte	0x9f
 6154 02cf 00000000 		.4byte	0
 6155 02d3 00000000 		.4byte	0
 6156              	.LLST19:
 6157 02d7 7E020000 		.4byte	.LVL29
 6158 02db 84020000 		.4byte	.LVL30
 6159 02df 0100     		.2byte	0x1
 6160 02e1 50       		.byte	0x50
 6161 02e2 00000000 		.4byte	0
 6162 02e6 00000000 		.4byte	0
 6163              	.LLST20:
 6164 02ea 76020000 		.4byte	.LVL27
 6165 02ee 78020000 		.4byte	.LVL28
 6166 02f2 0500     		.2byte	0x5
 6167 02f4 74       		.byte	0x74
 6168 02f5 00       		.sleb128 0
 6169 02f6 36       		.byte	0x36
 6170 02f7 25       		.byte	0x25
 6171 02f8 9F       		.byte	0x9f
 6172 02f9 78020000 		.4byte	.LVL28
 6173 02fd 7D020000 		.4byte	.LVL29-1
 6174 0301 0100     		.2byte	0x1
 6175 0303 50       		.byte	0x50
 6176 0304 7D020000 		.4byte	.LVL29-1
 6177 0308 86020000 		.4byte	.LVL31
 6178 030c 0500     		.2byte	0x5
 6179 030e 74       		.byte	0x74
 6180 030f 00       		.sleb128 0
 6181 0310 36       		.byte	0x36
 6182 0311 25       		.byte	0x25
 6183 0312 9F       		.byte	0x9f
 6184 0313 00000000 		.4byte	0
 6185 0317 00000000 		.4byte	0
 6186              	.LLST21:
 6187 031b 00000000 		.4byte	.LVL34
 6188 031f 22000000 		.4byte	.LVL35
 6189 0323 0100     		.2byte	0x1
 6190 0325 50       		.byte	0x50
 6191 0326 22000000 		.4byte	.LVL35
 6192 032a 74000000 		.4byte	.LVL38
 6193 032e 0100     		.2byte	0x1
 6194 0330 53       		.byte	0x53
 6195 0331 74000000 		.4byte	.LVL38
 6196 0335 4A020000 		.4byte	.LVL79
ARM GAS  C:\Users\young\AppData\Local\Temp\ccZHlxL6.s 			page 140


 6197 0339 0400     		.2byte	0x4
 6198 033b F3       		.byte	0xf3
 6199 033c 01       		.uleb128 0x1
 6200 033d 50       		.byte	0x50
 6201 033e 9F       		.byte	0x9f
 6202 033f 4A020000 		.4byte	.LVL79
 6203 0343 4E020000 		.4byte	.LFE0
 6204 0347 0100     		.2byte	0x1
 6205 0349 53       		.byte	0x53
 6206 034a 00000000 		.4byte	0
 6207 034e 00000000 		.4byte	0
 6208              	.LLST22:
 6209 0352 00000000 		.4byte	.LVL34
 6210 0356 2A000000 		.4byte	.LVL36
 6211 035a 0100     		.2byte	0x1
 6212 035c 51       		.byte	0x51
 6213 035d 2A000000 		.4byte	.LVL36
 6214 0361 3E020000 		.4byte	.LVL75
 6215 0365 0100     		.2byte	0x1
 6216 0367 56       		.byte	0x56
 6217 0368 3E020000 		.4byte	.LVL75
 6218 036c 44020000 		.4byte	.LVL76
 6219 0370 0400     		.2byte	0x4
 6220 0372 F3       		.byte	0xf3
 6221 0373 01       		.uleb128 0x1
 6222 0374 51       		.byte	0x51
 6223 0375 9F       		.byte	0x9f
 6224 0376 44020000 		.4byte	.LVL76
 6225 037a 4E020000 		.4byte	.LFE0
 6226 037e 0100     		.2byte	0x1
 6227 0380 56       		.byte	0x56
 6228 0381 00000000 		.4byte	0
 6229 0385 00000000 		.4byte	0
 6230              	.LLST23:
 6231 0389 00000000 		.4byte	.LVL34
 6232 038d 58000000 		.4byte	.LVL37
 6233 0391 0200     		.2byte	0x2
 6234 0393 31       		.byte	0x31
 6235 0394 9F       		.byte	0x9f
 6236 0395 48020000 		.4byte	.LVL78
 6237 0399 4E020000 		.4byte	.LFE0
 6238 039d 0200     		.2byte	0x2
 6239 039f 31       		.byte	0x31
 6240 03a0 9F       		.byte	0x9f
 6241 03a1 00000000 		.4byte	0
 6242 03a5 00000000 		.4byte	0
 6243              	.LLST24:
 6244 03a9 86000000 		.4byte	.LVL39
 6245 03ad AE000000 		.4byte	.LVL47
 6246 03b1 0100     		.2byte	0x1
 6247 03b3 56       		.byte	0x56
 6248 03b4 00000000 		.4byte	0
 6249 03b8 00000000 		.4byte	0
 6250              	.LLST25:
 6251 03bc 86000000 		.4byte	.LVL39
 6252 03c0 AE000000 		.4byte	.LVL47
 6253 03c4 0300     		.2byte	0x3
ARM GAS  C:\Users\young\AppData\Local\Temp\ccZHlxL6.s 			page 141


 6254 03c6 76       		.byte	0x76
 6255 03c7 08       		.sleb128 8
 6256 03c8 9F       		.byte	0x9f
 6257 03c9 00000000 		.4byte	0
 6258 03cd 00000000 		.4byte	0
 6259              	.LLST26:
 6260 03d1 86000000 		.4byte	.LVL39
 6261 03d5 96000000 		.4byte	.LVL41
 6262 03d9 0200     		.2byte	0x2
 6263 03db 30       		.byte	0x30
 6264 03dc 9F       		.byte	0x9f
 6265 03dd 98000000 		.4byte	.LVL42
 6266 03e1 AE000000 		.4byte	.LVL47
 6267 03e5 0100     		.2byte	0x1
 6268 03e7 51       		.byte	0x51
 6269 03e8 00000000 		.4byte	0
 6270 03ec 00000000 		.4byte	0
 6271              	.LLST27:
 6272 03f0 86000000 		.4byte	.LVL39
 6273 03f4 96000000 		.4byte	.LVL41
 6274 03f8 0200     		.2byte	0x2
 6275 03fa 30       		.byte	0x30
 6276 03fb 9F       		.byte	0x9f
 6277 03fc 96000000 		.4byte	.LVL41
 6278 0400 A0000000 		.4byte	.LVL43
 6279 0404 0100     		.2byte	0x1
 6280 0406 50       		.byte	0x50
 6281 0407 A0000000 		.4byte	.LVL43
 6282 040b A4000000 		.4byte	.LVL44
 6283 040f 0100     		.2byte	0x1
 6284 0411 51       		.byte	0x51
 6285 0412 A4000000 		.4byte	.LVL44
 6286 0416 AE000000 		.4byte	.LVL47
 6287 041a 0100     		.2byte	0x1
 6288 041c 50       		.byte	0x50
 6289 041d 00000000 		.4byte	0
 6290 0421 00000000 		.4byte	0
 6291              	.LLST28:
 6292 0425 88000000 		.4byte	.LVL40
 6293 0429 96000000 		.4byte	.LVL41
 6294 042d 0200     		.2byte	0x2
 6295 042f 30       		.byte	0x30
 6296 0430 9F       		.byte	0x9f
 6297 0431 96000000 		.4byte	.LVL41
 6298 0435 A6000000 		.4byte	.LVL45
 6299 0439 0100     		.2byte	0x1
 6300 043b 52       		.byte	0x52
 6301 043c A6000000 		.4byte	.LVL45
 6302 0440 A8000000 		.4byte	.LVL46
 6303 0444 0300     		.2byte	0x3
 6304 0446 72       		.byte	0x72
 6305 0447 7F       		.sleb128 -1
 6306 0448 9F       		.byte	0x9f
 6307 0449 A8000000 		.4byte	.LVL46
 6308 044d AE000000 		.4byte	.LVL47
 6309 0451 0100     		.2byte	0x1
 6310 0453 52       		.byte	0x52
ARM GAS  C:\Users\young\AppData\Local\Temp\ccZHlxL6.s 			page 142


 6311 0454 00000000 		.4byte	0
 6312 0458 00000000 		.4byte	0
 6313              	.LLST29:
 6314 045c 86000000 		.4byte	.LVL39
 6315 0460 96000000 		.4byte	.LVL41
 6316 0464 0100     		.2byte	0x1
 6317 0466 55       		.byte	0x55
 6318 0467 96000000 		.4byte	.LVL41
 6319 046b AE000000 		.4byte	.LVL47
 6320 046f 0100     		.2byte	0x1
 6321 0471 53       		.byte	0x53
 6322 0472 00000000 		.4byte	0
 6323 0476 00000000 		.4byte	0
 6324              	.LLST30:
 6325 047a C2000000 		.4byte	.LVL48
 6326 047e D0000000 		.4byte	.LVL49
 6327 0482 0200     		.2byte	0x2
 6328 0484 30       		.byte	0x30
 6329 0485 9F       		.byte	0x9f
 6330 0486 D0000000 		.4byte	.LVL49
 6331 048a E0000000 		.4byte	.LVL51
 6332 048e 0100     		.2byte	0x1
 6333 0490 58       		.byte	0x58
 6334 0491 E0000000 		.4byte	.LVL51
 6335 0495 0E020000 		.4byte	.LVL64
 6336 0499 0300     		.2byte	0x3
 6337 049b 78       		.byte	0x78
 6338 049c 7F       		.sleb128 -1
 6339 049d 9F       		.byte	0x9f
 6340 049e 0E020000 		.4byte	.LVL64
 6341 04a2 1A020000 		.4byte	.LVL65
 6342 04a6 0100     		.2byte	0x1
 6343 04a8 58       		.byte	0x58
 6344 04a9 00000000 		.4byte	0
 6345 04ad 00000000 		.4byte	0
 6346              	.LLST31:
 6347 04b1 0E020000 		.4byte	.LVL64
 6348 04b5 1A020000 		.4byte	.LVL65
 6349 04b9 0200     		.2byte	0x2
 6350 04bb 30       		.byte	0x30
 6351 04bc 9F       		.byte	0x9f
 6352 04bd 00000000 		.4byte	0
 6353 04c1 00000000 		.4byte	0
 6354              	.LLST32:
 6355 04c5 C2000000 		.4byte	.LVL48
 6356 04c9 D0000000 		.4byte	.LVL49
 6357 04cd 0200     		.2byte	0x2
 6358 04cf 76       		.byte	0x76
 6359 04d0 08       		.sleb128 8
 6360 04d1 D0000000 		.4byte	.LVL49
 6361 04d5 06020000 		.4byte	.LVL62
 6362 04d9 0100     		.2byte	0x1
 6363 04db 57       		.byte	0x57
 6364 04dc 06020000 		.4byte	.LVL62
 6365 04e0 08020000 		.4byte	.LVL63
 6366 04e4 0300     		.2byte	0x3
 6367 04e6 77       		.byte	0x77
ARM GAS  C:\Users\young\AppData\Local\Temp\ccZHlxL6.s 			page 143


 6368 04e7 40       		.sleb128 -64
 6369 04e8 9F       		.byte	0x9f
 6370 04e9 08020000 		.4byte	.LVL63
 6371 04ed 1A020000 		.4byte	.LVL65
 6372 04f1 0100     		.2byte	0x1
 6373 04f3 57       		.byte	0x57
 6374 04f4 00000000 		.4byte	0
 6375 04f8 00000000 		.4byte	0
 6376              	.LLST33:
 6377 04fc EE010000 		.4byte	.LVL59
 6378 0500 FD010000 		.4byte	.LVL60-1
 6379 0504 0B00     		.2byte	0xb
 6380 0506 76       		.byte	0x76
 6381 0507 00       		.sleb128 0
 6382 0508 06       		.byte	0x6
 6383 0509 76       		.byte	0x76
 6384 050a 18       		.sleb128 24
 6385 050b 06       		.byte	0x6
 6386 050c 1C       		.byte	0x1c
 6387 050d 77       		.byte	0x77
 6388 050e 00       		.sleb128 0
 6389 050f 22       		.byte	0x22
 6390 0510 9F       		.byte	0x9f
 6391 0511 00000000 		.4byte	0
 6392 0515 00000000 		.4byte	0
 6393              	.LLST34:
 6394 0519 C2000000 		.4byte	.LVL48
 6395 051d D0000000 		.4byte	.LVL49
 6396 0521 0200     		.2byte	0x2
 6397 0523 30       		.byte	0x30
 6398 0524 9F       		.byte	0x9f
 6399 0525 D0000000 		.4byte	.LVL49
 6400 0529 1A020000 		.4byte	.LVL65
 6401 052d 0100     		.2byte	0x1
 6402 052f 58       		.byte	0x58
 6403 0530 00000000 		.4byte	0
 6404 0534 00000000 		.4byte	0
 6405              	.LLST35:
 6406 0538 C2000000 		.4byte	.LVL48
 6407 053c EE010000 		.4byte	.LVL59
 6408 0540 0200     		.2byte	0x2
 6409 0542 31       		.byte	0x31
 6410 0543 9F       		.byte	0x9f
 6411 0544 0E020000 		.4byte	.LVL64
 6412 0548 1A020000 		.4byte	.LVL65
 6413 054c 0100     		.2byte	0x1
 6414 054e 50       		.byte	0x50
 6415 054f 00000000 		.4byte	0
 6416 0553 00000000 		.4byte	0
 6417              	.LLST36:
 6418 0557 E6000000 		.4byte	.LVL52
 6419 055b E4010000 		.4byte	.LVL57
 6420 055f 0300     		.2byte	0x3
 6421 0561 08       		.byte	0x8
 6422 0562 20       		.byte	0x20
 6423 0563 9F       		.byte	0x9f
 6424 0564 00000000 		.4byte	0
ARM GAS  C:\Users\young\AppData\Local\Temp\ccZHlxL6.s 			page 144


 6425 0568 00000000 		.4byte	0
 6426              	.LLST37:
 6427 056c E6000000 		.4byte	.LVL52
 6428 0570 EA000000 		.4byte	.LVL53
 6429 0574 0100     		.2byte	0x1
 6430 0576 51       		.byte	0x51
 6431 0577 EA000000 		.4byte	.LVL53
 6432 057b E4010000 		.4byte	.LVL57
 6433 057f 0300     		.2byte	0x3
 6434 0581 91       		.byte	0x91
 6435 0582 48       		.sleb128 -56
 6436 0583 9F       		.byte	0x9f
 6437 0584 00000000 		.4byte	0
 6438 0588 00000000 		.4byte	0
 6439              	.LLST38:
 6440 058c E6000000 		.4byte	.LVL52
 6441 0590 EA000000 		.4byte	.LVL53
 6442 0594 0300     		.2byte	0x3
 6443 0596 09       		.byte	0x9
 6444 0597 FF       		.byte	0xff
 6445 0598 9F       		.byte	0x9f
 6446 0599 E0010000 		.4byte	.LVL56
 6447 059d E4010000 		.4byte	.LVL57
 6448 05a1 0100     		.2byte	0x1
 6449 05a3 53       		.byte	0x53
 6450 05a4 00000000 		.4byte	0
 6451 05a8 00000000 		.4byte	0
 6452              	.LLST39:
 6453 05ac 52010000 		.4byte	.LVL54
 6454 05b0 56010000 		.4byte	.LVL55
 6455 05b4 0200     		.2byte	0x2
 6456 05b6 38       		.byte	0x38
 6457 05b7 9F       		.byte	0x9f
 6458 05b8 E0010000 		.4byte	.LVL56
 6459 05bc E4010000 		.4byte	.LVL57
 6460 05c0 0200     		.2byte	0x2
 6461 05c2 38       		.byte	0x38
 6462 05c3 9F       		.byte	0x9f
 6463 05c4 00000000 		.4byte	0
 6464 05c8 00000000 		.4byte	0
 6465              	.LLST40:
 6466 05cc E6000000 		.4byte	.LVL52
 6467 05d0 EA000000 		.4byte	.LVL53
 6468 05d4 0200     		.2byte	0x2
 6469 05d6 30       		.byte	0x30
 6470 05d7 9F       		.byte	0x9f
 6471 05d8 00000000 		.4byte	0
 6472 05dc 00000000 		.4byte	0
 6473              	.LLST41:
 6474 05e0 EA010000 		.4byte	.LVL58
 6475 05e4 3C020000 		.4byte	.LVL74
 6476 05e8 0100     		.2byte	0x1
 6477 05ea 56       		.byte	0x56
 6478 05eb 00000000 		.4byte	0
 6479 05ef 00000000 		.4byte	0
 6480              	.LLST42:
 6481 05f3 EA010000 		.4byte	.LVL58
ARM GAS  C:\Users\young\AppData\Local\Temp\ccZHlxL6.s 			page 145


 6482 05f7 EE010000 		.4byte	.LVL59
 6483 05fb 0100     		.2byte	0x1
 6484 05fd 5D       		.byte	0x5d
 6485 05fe 00000000 		.4byte	0
 6486 0602 00000000 		.4byte	0
 6487              	.LLST43:
 6488 0606 EA010000 		.4byte	.LVL58
 6489 060a EE010000 		.4byte	.LVL59
 6490 060e 0100     		.2byte	0x1
 6491 0610 57       		.byte	0x57
 6492 0611 00000000 		.4byte	0
 6493 0615 00000000 		.4byte	0
 6494              	.LLST44:
 6495 0619 EA010000 		.4byte	.LVL58
 6496 061d EE010000 		.4byte	.LVL59
 6497 0621 0200     		.2byte	0x2
 6498 0623 34       		.byte	0x34
 6499 0624 9F       		.byte	0x9f
 6500 0625 00000000 		.4byte	0
 6501 0629 00000000 		.4byte	0
 6502              	.LLST45:
 6503 062d EA010000 		.4byte	.LVL58
 6504 0631 ED010000 		.4byte	.LVL59-1
 6505 0635 0100     		.2byte	0x1
 6506 0637 50       		.byte	0x50
 6507 0638 ED010000 		.4byte	.LVL59-1
 6508 063c EE010000 		.4byte	.LVL59
 6509 0640 0500     		.2byte	0x5
 6510 0642 77       		.byte	0x77
 6511 0643 00       		.sleb128 0
 6512 0644 36       		.byte	0x36
 6513 0645 25       		.byte	0x25
 6514 0646 9F       		.byte	0x9f
 6515 0647 00000000 		.4byte	0
 6516 064b 00000000 		.4byte	0
 6517              	.LLST46:
 6518 064f EE010000 		.4byte	.LVL59
 6519 0653 3C020000 		.4byte	.LVL74
 6520 0657 0100     		.2byte	0x1
 6521 0659 56       		.byte	0x56
 6522 065a 00000000 		.4byte	0
 6523 065e 00000000 		.4byte	0
 6524              	.LLST47:
 6525 0662 EE010000 		.4byte	.LVL59
 6526 0666 08020000 		.4byte	.LVL63
 6527 066a 0100     		.2byte	0x1
 6528 066c 5D       		.byte	0x5d
 6529 066d 00000000 		.4byte	0
 6530 0671 00000000 		.4byte	0
 6531              	.LLST49:
 6532 0675 EE010000 		.4byte	.LVL59
 6533 0679 08020000 		.4byte	.LVL63
 6534 067d 0200     		.2byte	0x2
 6535 067f 34       		.byte	0x34
 6536 0680 9F       		.byte	0x9f
 6537 0681 00000000 		.4byte	0
 6538 0685 00000000 		.4byte	0
ARM GAS  C:\Users\young\AppData\Local\Temp\ccZHlxL6.s 			page 146


 6539              	.LLST50:
 6540 0689 FE010000 		.4byte	.LVL60
 6541 068d 02020000 		.4byte	.LVL61
 6542 0691 0100     		.2byte	0x1
 6543 0693 50       		.byte	0x50
 6544 0694 00000000 		.4byte	0
 6545 0698 00000000 		.4byte	0
 6546              	.LLST51:
 6547 069c EE010000 		.4byte	.LVL59
 6548 06a0 FD010000 		.4byte	.LVL60-1
 6549 06a4 0D00     		.2byte	0xd
 6550 06a6 76       		.byte	0x76
 6551 06a7 00       		.sleb128 0
 6552 06a8 06       		.byte	0x6
 6553 06a9 76       		.byte	0x76
 6554 06aa 18       		.sleb128 24
 6555 06ab 06       		.byte	0x6
 6556 06ac 1C       		.byte	0x1c
 6557 06ad 77       		.byte	0x77
 6558 06ae 00       		.sleb128 0
 6559 06af 22       		.byte	0x22
 6560 06b0 36       		.byte	0x36
 6561 06b1 25       		.byte	0x25
 6562 06b2 9F       		.byte	0x9f
 6563 06b3 00000000 		.4byte	0
 6564 06b7 00000000 		.4byte	0
 6565              	.LLST52:
 6566 06bb 08020000 		.4byte	.LVL63
 6567 06bf 0E020000 		.4byte	.LVL64
 6568 06c3 0100     		.2byte	0x1
 6569 06c5 56       		.byte	0x56
 6570 06c6 00000000 		.4byte	0
 6571 06ca 00000000 		.4byte	0
 6572              	.LLST53:
 6573 06ce 08020000 		.4byte	.LVL63
 6574 06d2 0E020000 		.4byte	.LVL64
 6575 06d6 0600     		.2byte	0x6
 6576 06d8 F2       		.byte	0xf2
 6577 06d9 48070000 		.4byte	.Ldebug_info0+1864
 6578 06dd 00       		.sleb128 0
 6579 06de 00000000 		.4byte	0
 6580 06e2 00000000 		.4byte	0
 6581              	.LLST54:
 6582 06e6 08020000 		.4byte	.LVL63
 6583 06ea 0E020000 		.4byte	.LVL64
 6584 06ee 0600     		.2byte	0x6
 6585 06f0 F2       		.byte	0xf2
 6586 06f1 5A070000 		.4byte	.Ldebug_info0+1882
 6587 06f5 00       		.sleb128 0
 6588 06f6 00000000 		.4byte	0
 6589 06fa 00000000 		.4byte	0
 6590              	.LLST55:
 6591 06fe 08020000 		.4byte	.LVL63
 6592 0702 0E020000 		.4byte	.LVL64
 6593 0706 0100     		.2byte	0x1
 6594 0708 58       		.byte	0x58
 6595 0709 00000000 		.4byte	0
ARM GAS  C:\Users\young\AppData\Local\Temp\ccZHlxL6.s 			page 147


 6596 070d 00000000 		.4byte	0
 6597              	.LLST56:
 6598 0711 1A020000 		.4byte	.LVL65
 6599 0715 3C020000 		.4byte	.LVL74
 6600 0719 0100     		.2byte	0x1
 6601 071b 56       		.byte	0x56
 6602 071c 44020000 		.4byte	.LVL76
 6603 0720 46020000 		.4byte	.LVL77
 6604 0724 0100     		.2byte	0x1
 6605 0726 56       		.byte	0x56
 6606 0727 00000000 		.4byte	0
 6607 072b 00000000 		.4byte	0
 6608              	.LLST57:
 6609 072f 1A020000 		.4byte	.LVL65
 6610 0733 3C020000 		.4byte	.LVL74
 6611 0737 0300     		.2byte	0x3
 6612 0739 76       		.byte	0x76
 6613 073a 08       		.sleb128 8
 6614 073b 9F       		.byte	0x9f
 6615 073c 44020000 		.4byte	.LVL76
 6616 0740 46020000 		.4byte	.LVL77
 6617 0744 0300     		.2byte	0x3
 6618 0746 76       		.byte	0x76
 6619 0747 08       		.sleb128 8
 6620 0748 9F       		.byte	0x9f
 6621 0749 00000000 		.4byte	0
 6622 074d 00000000 		.4byte	0
 6623              	.LLST58:
 6624 0751 1A020000 		.4byte	.LVL65
 6625 0755 26020000 		.4byte	.LVL68
 6626 0759 0200     		.2byte	0x2
 6627 075b 30       		.byte	0x30
 6628 075c 9F       		.byte	0x9f
 6629 075d 28020000 		.4byte	.LVL69
 6630 0761 3C020000 		.4byte	.LVL74
 6631 0765 0100     		.2byte	0x1
 6632 0767 54       		.byte	0x54
 6633 0768 44020000 		.4byte	.LVL76
 6634 076c 46020000 		.4byte	.LVL77
 6635 0770 0200     		.2byte	0x2
 6636 0772 30       		.byte	0x30
 6637 0773 9F       		.byte	0x9f
 6638 0774 00000000 		.4byte	0
 6639 0778 00000000 		.4byte	0
 6640              	.LLST59:
 6641 077c 1A020000 		.4byte	.LVL65
 6642 0780 26020000 		.4byte	.LVL68
 6643 0784 0200     		.2byte	0x2
 6644 0786 30       		.byte	0x30
 6645 0787 9F       		.byte	0x9f
 6646 0788 26020000 		.4byte	.LVL68
 6647 078c 30020000 		.4byte	.LVL70
 6648 0790 0100     		.2byte	0x1
 6649 0792 55       		.byte	0x55
 6650 0793 30020000 		.4byte	.LVL70
 6651 0797 34020000 		.4byte	.LVL71
 6652 079b 0100     		.2byte	0x1
ARM GAS  C:\Users\young\AppData\Local\Temp\ccZHlxL6.s 			page 148


 6653 079d 54       		.byte	0x54
 6654 079e 34020000 		.4byte	.LVL71
 6655 07a2 3C020000 		.4byte	.LVL74
 6656 07a6 0100     		.2byte	0x1
 6657 07a8 55       		.byte	0x55
 6658 07a9 44020000 		.4byte	.LVL76
 6659 07ad 4A020000 		.4byte	.LVL79
 6660 07b1 0200     		.2byte	0x2
 6661 07b3 30       		.byte	0x30
 6662 07b4 9F       		.byte	0x9f
 6663 07b5 00000000 		.4byte	0
 6664 07b9 00000000 		.4byte	0
 6665              	.LLST60:
 6666 07bd 1E020000 		.4byte	.LVL67
 6667 07c1 26020000 		.4byte	.LVL68
 6668 07c5 0200     		.2byte	0x2
 6669 07c7 30       		.byte	0x30
 6670 07c8 9F       		.byte	0x9f
 6671 07c9 26020000 		.4byte	.LVL68
 6672 07cd 36020000 		.4byte	.LVL72
 6673 07d1 0100     		.2byte	0x1
 6674 07d3 51       		.byte	0x51
 6675 07d4 36020000 		.4byte	.LVL72
 6676 07d8 38020000 		.4byte	.LVL73
 6677 07dc 0300     		.2byte	0x3
 6678 07de 71       		.byte	0x71
 6679 07df 7F       		.sleb128 -1
 6680 07e0 9F       		.byte	0x9f
 6681 07e1 38020000 		.4byte	.LVL73
 6682 07e5 3C020000 		.4byte	.LVL74
 6683 07e9 0100     		.2byte	0x1
 6684 07eb 51       		.byte	0x51
 6685 07ec 46020000 		.4byte	.LVL77
 6686 07f0 4A020000 		.4byte	.LVL79
 6687 07f4 0200     		.2byte	0x2
 6688 07f6 30       		.byte	0x30
 6689 07f7 9F       		.byte	0x9f
 6690 07f8 00000000 		.4byte	0
 6691 07fc 00000000 		.4byte	0
 6692              	.LLST61:
 6693 0800 1C020000 		.4byte	.LVL66
 6694 0804 3C020000 		.4byte	.LVL74
 6695 0808 0100     		.2byte	0x1
 6696 080a 52       		.byte	0x52
 6697 080b 44020000 		.4byte	.LVL76
 6698 080f 46020000 		.4byte	.LVL77
 6699 0813 0100     		.2byte	0x1
 6700 0815 55       		.byte	0x55
 6701 0816 00000000 		.4byte	0
 6702 081a 00000000 		.4byte	0
 6703              	.LLST62:
 6704 081e 00000000 		.4byte	.LVL80
 6705 0822 18000000 		.4byte	.LVL81
 6706 0826 0100     		.2byte	0x1
 6707 0828 50       		.byte	0x50
 6708 0829 18000000 		.4byte	.LVL81
 6709 082d 9A000000 		.4byte	.LVL99
ARM GAS  C:\Users\young\AppData\Local\Temp\ccZHlxL6.s 			page 149


 6710 0831 0100     		.2byte	0x1
 6711 0833 59       		.byte	0x59
 6712 0834 9A000000 		.4byte	.LVL99
 6713 0838 AC000000 		.4byte	.LVL104
 6714 083c 0100     		.2byte	0x1
 6715 083e 50       		.byte	0x50
 6716 083f AC000000 		.4byte	.LVL104
 6717 0843 C4000000 		.4byte	.LVL107
 6718 0847 0100     		.2byte	0x1
 6719 0849 59       		.byte	0x59
 6720 084a C4000000 		.4byte	.LVL107
 6721 084e CE000000 		.4byte	.LVL109
 6722 0852 0100     		.2byte	0x1
 6723 0854 5B       		.byte	0x5b
 6724 0855 CE000000 		.4byte	.LVL109
 6725 0859 4A010000 		.4byte	.LVL129
 6726 085d 0200     		.2byte	0x2
 6727 085f 91       		.byte	0x91
 6728 0860 54       		.sleb128 -44
 6729 0861 4A010000 		.4byte	.LVL129
 6730 0865 56010000 		.4byte	.LVL132
 6731 0869 0100     		.2byte	0x1
 6732 086b 59       		.byte	0x59
 6733 086c 56010000 		.4byte	.LVL132
 6734 0870 64010000 		.4byte	.LVL133
 6735 0874 0400     		.2byte	0x4
 6736 0876 F3       		.byte	0xf3
 6737 0877 01       		.uleb128 0x1
 6738 0878 50       		.byte	0x50
 6739 0879 9F       		.byte	0x9f
 6740 087a 64010000 		.4byte	.LVL133
 6741 087e 68010000 		.4byte	.LVL134
 6742 0882 0100     		.2byte	0x1
 6743 0884 50       		.byte	0x50
 6744 0885 68010000 		.4byte	.LVL134
 6745 0889 A4010000 		.4byte	.LVL140
 6746 088d 0100     		.2byte	0x1
 6747 088f 59       		.byte	0x59
 6748 0890 A4010000 		.4byte	.LVL140
 6749 0894 AC010000 		.4byte	.LVL143
 6750 0898 0100     		.2byte	0x1
 6751 089a 5A       		.byte	0x5a
 6752 089b AC010000 		.4byte	.LVL143
 6753 089f B2010000 		.4byte	.LVL144
 6754 08a3 0100     		.2byte	0x1
 6755 08a5 57       		.byte	0x57
 6756 08a6 B2010000 		.4byte	.LVL144
 6757 08aa 16020000 		.4byte	.LVL163
 6758 08ae 0200     		.2byte	0x2
 6759 08b0 91       		.byte	0x91
 6760 08b1 44       		.sleb128 -60
 6761 08b2 16020000 		.4byte	.LVL163
 6762 08b6 C8020000 		.4byte	.LVL193
 6763 08ba 0400     		.2byte	0x4
 6764 08bc F3       		.byte	0xf3
 6765 08bd 01       		.uleb128 0x1
 6766 08be 50       		.byte	0x50
ARM GAS  C:\Users\young\AppData\Local\Temp\ccZHlxL6.s 			page 150


 6767 08bf 9F       		.byte	0x9f
 6768 08c0 C8020000 		.4byte	.LVL193
 6769 08c4 D0020000 		.4byte	.LVL196
 6770 08c8 0200     		.2byte	0x2
 6771 08ca 91       		.byte	0x91
 6772 08cb 54       		.sleb128 -44
 6773 08cc D0020000 		.4byte	.LVL196
 6774 08d0 D8020000 		.4byte	.LVL198
 6775 08d4 0100     		.2byte	0x1
 6776 08d6 50       		.byte	0x50
 6777 08d7 D8020000 		.4byte	.LVL198
 6778 08db DC020000 		.4byte	.LVL199
 6779 08df 0200     		.2byte	0x2
 6780 08e1 91       		.byte	0x91
 6781 08e2 44       		.sleb128 -60
 6782 08e3 DC020000 		.4byte	.LVL199
 6783 08e7 E0020000 		.4byte	.LFE1
 6784 08eb 0200     		.2byte	0x2
 6785 08ed 91       		.byte	0x91
 6786 08ee 54       		.sleb128 -44
 6787 08ef 00000000 		.4byte	0
 6788 08f3 00000000 		.4byte	0
 6789              	.LLST63:
 6790 08f7 00000000 		.4byte	.LVL80
 6791 08fb 56000000 		.4byte	.LVL89
 6792 08ff 0100     		.2byte	0x1
 6793 0901 51       		.byte	0x51
 6794 0902 56000000 		.4byte	.LVL89
 6795 0906 E0020000 		.4byte	.LFE1
 6796 090a 0200     		.2byte	0x2
 6797 090c 91       		.byte	0x91
 6798 090d 48       		.sleb128 -56
 6799 090e 00000000 		.4byte	0
 6800 0912 00000000 		.4byte	0
 6801              	.LLST64:
 6802 0916 00000000 		.4byte	.LVL80
 6803 091a 34000000 		.4byte	.LVL84
 6804 091e 0100     		.2byte	0x1
 6805 0920 52       		.byte	0x52
 6806 0921 34000000 		.4byte	.LVL84
 6807 0925 C2000000 		.4byte	.LVL106
 6808 0929 0100     		.2byte	0x1
 6809 092b 57       		.byte	0x57
 6810 092c C2000000 		.4byte	.LVL106
 6811 0930 CE000000 		.4byte	.LVL109
 6812 0934 0100     		.2byte	0x1
 6813 0936 52       		.byte	0x52
 6814 0937 CE000000 		.4byte	.LVL109
 6815 093b 4A010000 		.4byte	.LVL129
 6816 093f 0400     		.2byte	0x4
 6817 0941 F3       		.byte	0xf3
 6818 0942 01       		.uleb128 0x1
 6819 0943 52       		.byte	0x52
 6820 0944 9F       		.byte	0x9f
 6821 0945 4A010000 		.4byte	.LVL129
 6822 0949 56010000 		.4byte	.LVL132
 6823 094d 0100     		.2byte	0x1
ARM GAS  C:\Users\young\AppData\Local\Temp\ccZHlxL6.s 			page 151


 6824 094f 57       		.byte	0x57
 6825 0950 56010000 		.4byte	.LVL132
 6826 0954 64010000 		.4byte	.LVL133
 6827 0958 0400     		.2byte	0x4
 6828 095a F3       		.byte	0xf3
 6829 095b 01       		.uleb128 0x1
 6830 095c 52       		.byte	0x52
 6831 095d 9F       		.byte	0x9f
 6832 095e 64010000 		.4byte	.LVL133
 6833 0962 A8010000 		.4byte	.LVL141
 6834 0966 0100     		.2byte	0x1
 6835 0968 57       		.byte	0x57
 6836 0969 A8010000 		.4byte	.LVL141
 6837 096d B2010000 		.4byte	.LVL144
 6838 0971 0100     		.2byte	0x1
 6839 0973 52       		.byte	0x52
 6840 0974 B2010000 		.4byte	.LVL144
 6841 0978 D0020000 		.4byte	.LVL196
 6842 097c 0400     		.2byte	0x4
 6843 097e F3       		.byte	0xf3
 6844 097f 01       		.uleb128 0x1
 6845 0980 52       		.byte	0x52
 6846 0981 9F       		.byte	0x9f
 6847 0982 D0020000 		.4byte	.LVL196
 6848 0986 D8020000 		.4byte	.LVL198
 6849 098a 0100     		.2byte	0x1
 6850 098c 57       		.byte	0x57
 6851 098d D8020000 		.4byte	.LVL198
 6852 0991 E0020000 		.4byte	.LFE1
 6853 0995 0400     		.2byte	0x4
 6854 0997 F3       		.byte	0xf3
 6855 0998 01       		.uleb128 0x1
 6856 0999 52       		.byte	0x52
 6857 099a 9F       		.byte	0x9f
 6858 099b 00000000 		.4byte	0
 6859 099f 00000000 		.4byte	0
 6860              	.LLST65:
 6861 09a3 00000000 		.4byte	.LVL80
 6862 09a7 20000000 		.4byte	.LVL82
 6863 09ab 0100     		.2byte	0x1
 6864 09ad 53       		.byte	0x53
 6865 09ae 20000000 		.4byte	.LVL82
 6866 09b2 70000000 		.4byte	.LVL92
 6867 09b6 0100     		.2byte	0x1
 6868 09b8 54       		.byte	0x54
 6869 09b9 70000000 		.4byte	.LVL92
 6870 09bd A0000000 		.4byte	.LVL101
 6871 09c1 0100     		.2byte	0x1
 6872 09c3 5C       		.byte	0x5c
 6873 09c4 A0000000 		.4byte	.LVL101
 6874 09c8 C8000000 		.4byte	.LVL108
 6875 09cc 0100     		.2byte	0x1
 6876 09ce 54       		.byte	0x54
 6877 09cf C8000000 		.4byte	.LVL108
 6878 09d3 4A010000 		.4byte	.LVL129
 6879 09d7 0100     		.2byte	0x1
 6880 09d9 59       		.byte	0x59
ARM GAS  C:\Users\young\AppData\Local\Temp\ccZHlxL6.s 			page 152


 6881 09da 4A010000 		.4byte	.LVL129
 6882 09de 56010000 		.4byte	.LVL132
 6883 09e2 0100     		.2byte	0x1
 6884 09e4 54       		.byte	0x54
 6885 09e5 56010000 		.4byte	.LVL132
 6886 09e9 64010000 		.4byte	.LVL133
 6887 09ed 0400     		.2byte	0x4
 6888 09ef F3       		.byte	0xf3
 6889 09f0 01       		.uleb128 0x1
 6890 09f1 53       		.byte	0x53
 6891 09f2 9F       		.byte	0x9f
 6892 09f3 64010000 		.4byte	.LVL133
 6893 09f7 68010000 		.4byte	.LVL134
 6894 09fb 0100     		.2byte	0x1
 6895 09fd 5C       		.byte	0x5c
 6896 09fe 68010000 		.4byte	.LVL134
 6897 0a02 AA010000 		.4byte	.LVL142
 6898 0a06 0100     		.2byte	0x1
 6899 0a08 54       		.byte	0x54
 6900 0a09 AA010000 		.4byte	.LVL142
 6901 0a0d B2010000 		.4byte	.LVL144
 6902 0a11 0100     		.2byte	0x1
 6903 0a13 53       		.byte	0x53
 6904 0a14 B2010000 		.4byte	.LVL144
 6905 0a18 16020000 		.4byte	.LVL163
 6906 0a1c 0100     		.2byte	0x1
 6907 0a1e 58       		.byte	0x58
 6908 0a1f 16020000 		.4byte	.LVL163
 6909 0a23 C8020000 		.4byte	.LVL193
 6910 0a27 0100     		.2byte	0x1
 6911 0a29 54       		.byte	0x54
 6912 0a2a C8020000 		.4byte	.LVL193
 6913 0a2e CE020000 		.4byte	.LVL195
 6914 0a32 0100     		.2byte	0x1
 6915 0a34 59       		.byte	0x59
 6916 0a35 CE020000 		.4byte	.LVL195
 6917 0a39 D8020000 		.4byte	.LVL198
 6918 0a3d 0100     		.2byte	0x1
 6919 0a3f 54       		.byte	0x54
 6920 0a40 D8020000 		.4byte	.LVL198
 6921 0a44 DC020000 		.4byte	.LVL199
 6922 0a48 0100     		.2byte	0x1
 6923 0a4a 58       		.byte	0x58
 6924 0a4b DC020000 		.4byte	.LVL199
 6925 0a4f E0020000 		.4byte	.LFE1
 6926 0a53 0100     		.2byte	0x1
 6927 0a55 59       		.byte	0x59
 6928 0a56 00000000 		.4byte	0
 6929 0a5a 00000000 		.4byte	0
 6930              	.LLST66:
 6931 0a5e 00000000 		.4byte	.LVL80
 6932 0a62 E2000000 		.4byte	.LVL110
 6933 0a66 0200     		.2byte	0x2
 6934 0a68 31       		.byte	0x31
 6935 0a69 9F       		.byte	0x9f
 6936 0a6a E2000000 		.4byte	.LVL110
 6937 0a6e E6000000 		.4byte	.LVL111
ARM GAS  C:\Users\young\AppData\Local\Temp\ccZHlxL6.s 			page 153


 6938 0a72 0100     		.2byte	0x1
 6939 0a74 50       		.byte	0x50
 6940 0a75 E6000000 		.4byte	.LVL111
 6941 0a79 FC000000 		.4byte	.LVL116
 6942 0a7d 0200     		.2byte	0x2
 6943 0a7f 30       		.byte	0x30
 6944 0a80 9F       		.byte	0x9f
 6945 0a81 FC000000 		.4byte	.LVL116
 6946 0a85 48010000 		.4byte	.LVL128
 6947 0a89 0200     		.2byte	0x2
 6948 0a8b 31       		.byte	0x31
 6949 0a8c 9F       		.byte	0x9f
 6950 0a8d 48010000 		.4byte	.LVL128
 6951 0a91 4A010000 		.4byte	.LVL129
 6952 0a95 0200     		.2byte	0x2
 6953 0a97 30       		.byte	0x30
 6954 0a98 9F       		.byte	0x9f
 6955 0a99 4A010000 		.4byte	.LVL129
 6956 0a9d 56010000 		.4byte	.LVL132
 6957 0aa1 0200     		.2byte	0x2
 6958 0aa3 31       		.byte	0x31
 6959 0aa4 9F       		.byte	0x9f
 6960 0aa5 64010000 		.4byte	.LVL133
 6961 0aa9 BC010000 		.4byte	.LVL146
 6962 0aad 0200     		.2byte	0x2
 6963 0aaf 31       		.byte	0x31
 6964 0ab0 9F       		.byte	0x9f
 6965 0ab1 BC010000 		.4byte	.LVL146
 6966 0ab5 CC010000 		.4byte	.LVL151
 6967 0ab9 0200     		.2byte	0x2
 6968 0abb 30       		.byte	0x30
 6969 0abc 9F       		.byte	0x9f
 6970 0abd CC010000 		.4byte	.LVL151
 6971 0ac1 FC010000 		.4byte	.LVL155
 6972 0ac5 0200     		.2byte	0x2
 6973 0ac7 31       		.byte	0x31
 6974 0ac8 9F       		.byte	0x9f
 6975 0ac9 FC010000 		.4byte	.LVL155
 6976 0acd 00020000 		.4byte	.LVL156
 6977 0ad1 0100     		.2byte	0x1
 6978 0ad3 50       		.byte	0x50
 6979 0ad4 00020000 		.4byte	.LVL156
 6980 0ad8 9C020000 		.4byte	.LVL185
 6981 0adc 0200     		.2byte	0x2
 6982 0ade 30       		.byte	0x30
 6983 0adf 9F       		.byte	0x9f
 6984 0ae0 9C020000 		.4byte	.LVL185
 6985 0ae4 A2020000 		.4byte	.LVL186
 6986 0ae8 0100     		.2byte	0x1
 6987 0aea 50       		.byte	0x50
 6988 0aeb A2020000 		.4byte	.LVL186
 6989 0aef D0020000 		.4byte	.LVL196
 6990 0af3 0200     		.2byte	0x2
 6991 0af5 30       		.byte	0x30
 6992 0af6 9F       		.byte	0x9f
 6993 0af7 D0020000 		.4byte	.LVL196
 6994 0afb E0020000 		.4byte	.LFE1
ARM GAS  C:\Users\young\AppData\Local\Temp\ccZHlxL6.s 			page 154


 6995 0aff 0200     		.2byte	0x2
 6996 0b01 31       		.byte	0x31
 6997 0b02 9F       		.byte	0x9f
 6998 0b03 00000000 		.4byte	0
 6999 0b07 00000000 		.4byte	0
 7000              	.LLST67:
 7001 0b0b 60000000 		.4byte	.LVL91
 7002 0b0f 72000000 		.4byte	.LVL93
 7003 0b13 0200     		.2byte	0x2
 7004 0b15 30       		.byte	0x30
 7005 0b16 9F       		.byte	0x9f
 7006 0b17 72000000 		.4byte	.LVL93
 7007 0b1b 74000000 		.4byte	.LVL94
 7008 0b1f 0100     		.2byte	0x1
 7009 0b21 51       		.byte	0x51
 7010 0b22 74000000 		.4byte	.LVL94
 7011 0b26 78000000 		.4byte	.LVL95
 7012 0b2a 0100     		.2byte	0x1
 7013 0b2c 53       		.byte	0x53
 7014 0b2d 78000000 		.4byte	.LVL95
 7015 0b31 7E000000 		.4byte	.LVL96
 7016 0b35 0100     		.2byte	0x1
 7017 0b37 51       		.byte	0x51
 7018 0b38 80000000 		.4byte	.LVL97
 7019 0b3c A6000000 		.4byte	.LVL102
 7020 0b40 0100     		.2byte	0x1
 7021 0b42 51       		.byte	0x51
 7022 0b43 A6000000 		.4byte	.LVL102
 7023 0b47 CE000000 		.4byte	.LVL109
 7024 0b4b 0200     		.2byte	0x2
 7025 0b4d 30       		.byte	0x30
 7026 0b4e 9F       		.byte	0x9f
 7027 0b4f CE000000 		.4byte	.LVL109
 7028 0b53 F4000000 		.4byte	.LVL115
 7029 0b57 0300     		.2byte	0x3
 7030 0b59 76       		.byte	0x76
 7031 0b5a 7F       		.sleb128 -1
 7032 0b5b 9F       		.byte	0x9f
 7033 0b5c F4000000 		.4byte	.LVL115
 7034 0b60 08010000 		.4byte	.LVL117
 7035 0b64 0100     		.2byte	0x1
 7036 0b66 56       		.byte	0x56
 7037 0b67 08010000 		.4byte	.LVL117
 7038 0b6b 4A010000 		.4byte	.LVL129
 7039 0b6f 0300     		.2byte	0x3
 7040 0b71 76       		.byte	0x76
 7041 0b72 7F       		.sleb128 -1
 7042 0b73 9F       		.byte	0x9f
 7043 0b74 4E010000 		.4byte	.LVL130
 7044 0b78 56010000 		.4byte	.LVL132
 7045 0b7c 0200     		.2byte	0x2
 7046 0b7e 30       		.byte	0x30
 7047 0b7f 9F       		.byte	0x9f
 7048 0b80 64010000 		.4byte	.LVL133
 7049 0b84 68010000 		.4byte	.LVL134
 7050 0b88 0100     		.2byte	0x1
 7051 0b8a 51       		.byte	0x51
ARM GAS  C:\Users\young\AppData\Local\Temp\ccZHlxL6.s 			page 155


 7052 0b8b 7E010000 		.4byte	.LVL137
 7053 0b8f B2010000 		.4byte	.LVL144
 7054 0b93 0200     		.2byte	0x2
 7055 0b95 30       		.byte	0x30
 7056 0b96 9F       		.byte	0x9f
 7057 0b97 B2010000 		.4byte	.LVL144
 7058 0b9b C6010000 		.4byte	.LVL149
 7059 0b9f 0300     		.2byte	0x3
 7060 0ba1 76       		.byte	0x76
 7061 0ba2 7F       		.sleb128 -1
 7062 0ba3 9F       		.byte	0x9f
 7063 0ba4 C6010000 		.4byte	.LVL149
 7064 0ba8 D4010000 		.4byte	.LVL152
 7065 0bac 0100     		.2byte	0x1
 7066 0bae 56       		.byte	0x56
 7067 0baf D4010000 		.4byte	.LVL152
 7068 0bb3 0A020000 		.4byte	.LVL159
 7069 0bb7 0300     		.2byte	0x3
 7070 0bb9 76       		.byte	0x76
 7071 0bba 7F       		.sleb128 -1
 7072 0bbb 9F       		.byte	0x9f
 7073 0bbc 0A020000 		.4byte	.LVL159
 7074 0bc0 20020000 		.4byte	.LVL165
 7075 0bc4 0100     		.2byte	0x1
 7076 0bc6 56       		.byte	0x56
 7077 0bc7 2A020000 		.4byte	.LVL166
 7078 0bcb D0020000 		.4byte	.LVL196
 7079 0bcf 0100     		.2byte	0x1
 7080 0bd1 56       		.byte	0x56
 7081 0bd2 D0020000 		.4byte	.LVL196
 7082 0bd6 D8020000 		.4byte	.LVL198
 7083 0bda 0100     		.2byte	0x1
 7084 0bdc 51       		.byte	0x51
 7085 0bdd D8020000 		.4byte	.LVL198
 7086 0be1 E0020000 		.4byte	.LFE1
 7087 0be5 0300     		.2byte	0x3
 7088 0be7 76       		.byte	0x76
 7089 0be8 7F       		.sleb128 -1
 7090 0be9 9F       		.byte	0x9f
 7091 0bea 00000000 		.4byte	0
 7092 0bee 00000000 		.4byte	0
 7093              	.LLST68:
 7094 0bf2 CE000000 		.4byte	.LVL109
 7095 0bf6 FC000000 		.4byte	.LVL116
 7096 0bfa 0100     		.2byte	0x1
 7097 0bfc 55       		.byte	0x55
 7098 0bfd 14010000 		.4byte	.LVL119
 7099 0c01 4A010000 		.4byte	.LVL129
 7100 0c05 0100     		.2byte	0x1
 7101 0c07 55       		.byte	0x55
 7102 0c08 B2010000 		.4byte	.LVL144
 7103 0c0c CC010000 		.4byte	.LVL151
 7104 0c10 0100     		.2byte	0x1
 7105 0c12 55       		.byte	0x55
 7106 0c13 DE010000 		.4byte	.LVL154
 7107 0c17 40020000 		.4byte	.LVL168
 7108 0c1b 0100     		.2byte	0x1
ARM GAS  C:\Users\young\AppData\Local\Temp\ccZHlxL6.s 			page 156


 7109 0c1d 55       		.byte	0x55
 7110 0c1e 86020000 		.4byte	.LVL181
 7111 0c22 9B020000 		.4byte	.LVL185-1
 7112 0c26 0100     		.2byte	0x1
 7113 0c28 53       		.byte	0x53
 7114 0c29 BC020000 		.4byte	.LVL191
 7115 0c2d C5020000 		.4byte	.LVL192-1
 7116 0c31 0100     		.2byte	0x1
 7117 0c33 53       		.byte	0x53
 7118 0c34 C8020000 		.4byte	.LVL193
 7119 0c38 D0020000 		.4byte	.LVL196
 7120 0c3c 0100     		.2byte	0x1
 7121 0c3e 55       		.byte	0x55
 7122 0c3f 00000000 		.4byte	0
 7123 0c43 00000000 		.4byte	0
 7124              	.LLST69:
 7125 0c47 60000000 		.4byte	.LVL91
 7126 0c4b BC000000 		.4byte	.LVL105
 7127 0c4f 0100     		.2byte	0x1
 7128 0c51 56       		.byte	0x56
 7129 0c52 4A010000 		.4byte	.LVL129
 7130 0c56 56010000 		.4byte	.LVL132
 7131 0c5a 0100     		.2byte	0x1
 7132 0c5c 56       		.byte	0x56
 7133 0c5d 64010000 		.4byte	.LVL133
 7134 0c61 90010000 		.4byte	.LVL139
 7135 0c65 0100     		.2byte	0x1
 7136 0c67 56       		.byte	0x56
 7137 0c68 D0020000 		.4byte	.LVL196
 7138 0c6c D8020000 		.4byte	.LVL198
 7139 0c70 0100     		.2byte	0x1
 7140 0c72 56       		.byte	0x56
 7141 0c73 00000000 		.4byte	0
 7142 0c77 00000000 		.4byte	0
 7143              	.LLST70:
 7144 0c7b CE000000 		.4byte	.LVL109
 7145 0c7f E1000000 		.4byte	.LVL110-1
 7146 0c83 0100     		.2byte	0x1
 7147 0c85 52       		.byte	0x52
 7148 0c86 E1000000 		.4byte	.LVL110-1
 7149 0c8a F0000000 		.4byte	.LVL113
 7150 0c8e 0700     		.2byte	0x7
 7151 0c90 7B       		.byte	0x7b
 7152 0c91 00       		.sleb128 0
 7153 0c92 4F       		.byte	0x4f
 7154 0c93 1A       		.byte	0x1a
 7155 0c94 23       		.byte	0x23
 7156 0c95 20       		.uleb128 0x20
 7157 0c96 9F       		.byte	0x9f
 7158 0c97 0A010000 		.4byte	.LVL118
 7159 0c9b 42010000 		.4byte	.LVL126
 7160 0c9f 0100     		.2byte	0x1
 7161 0ca1 52       		.byte	0x52
 7162 0ca2 42010000 		.4byte	.LVL126
 7163 0ca6 4A010000 		.4byte	.LVL129
 7164 0caa 0700     		.2byte	0x7
 7165 0cac 7B       		.byte	0x7b
ARM GAS  C:\Users\young\AppData\Local\Temp\ccZHlxL6.s 			page 157


 7166 0cad 00       		.sleb128 0
 7167 0cae 4F       		.byte	0x4f
 7168 0caf 1A       		.byte	0x1a
 7169 0cb0 23       		.byte	0x23
 7170 0cb1 20       		.uleb128 0x20
 7171 0cb2 9F       		.byte	0x9f
 7172 0cb3 B2010000 		.4byte	.LVL144
 7173 0cb7 B8010000 		.4byte	.LVL145
 7174 0cbb 0100     		.2byte	0x1
 7175 0cbd 52       		.byte	0x52
 7176 0cbe B8010000 		.4byte	.LVL145
 7177 0cc2 C2010000 		.4byte	.LVL147
 7178 0cc6 0700     		.2byte	0x7
 7179 0cc8 77       		.byte	0x77
 7180 0cc9 00       		.sleb128 0
 7181 0cca 4F       		.byte	0x4f
 7182 0ccb 1A       		.byte	0x1a
 7183 0ccc 23       		.byte	0x23
 7184 0ccd 20       		.uleb128 0x20
 7185 0cce 9F       		.byte	0x9f
 7186 0ccf D6010000 		.4byte	.LVL153
 7187 0cd3 FB010000 		.4byte	.LVL155-1
 7188 0cd7 0100     		.2byte	0x1
 7189 0cd9 52       		.byte	0x52
 7190 0cda FB010000 		.4byte	.LVL155-1
 7191 0cde 06020000 		.4byte	.LVL157
 7192 0ce2 0700     		.2byte	0x7
 7193 0ce4 77       		.byte	0x77
 7194 0ce5 00       		.sleb128 0
 7195 0ce6 4F       		.byte	0x4f
 7196 0ce7 1A       		.byte	0x1a
 7197 0ce8 23       		.byte	0x23
 7198 0ce9 20       		.uleb128 0x20
 7199 0cea 9F       		.byte	0x9f
 7200 0ceb D8020000 		.4byte	.LVL198
 7201 0cef E0020000 		.4byte	.LFE1
 7202 0cf3 0100     		.2byte	0x1
 7203 0cf5 52       		.byte	0x52
 7204 0cf6 00000000 		.4byte	0
 7205 0cfa 00000000 		.4byte	0
 7206              	.LLST71:
 7207 0cfe CE000000 		.4byte	.LVL109
 7208 0d02 E1000000 		.4byte	.LVL110-1
 7209 0d06 0100     		.2byte	0x1
 7210 0d08 50       		.byte	0x50
 7211 0d09 FC000000 		.4byte	.LVL116
 7212 0d0d 1C010000 		.4byte	.LVL120
 7213 0d11 0100     		.2byte	0x1
 7214 0d13 57       		.byte	0x57
 7215 0d14 1C010000 		.4byte	.LVL120
 7216 0d18 26010000 		.4byte	.LVL121
 7217 0d1c 0100     		.2byte	0x1
 7218 0d1e 50       		.byte	0x50
 7219 0d1f 26010000 		.4byte	.LVL121
 7220 0d23 28010000 		.4byte	.LVL122
 7221 0d27 0100     		.2byte	0x1
 7222 0d29 57       		.byte	0x57
ARM GAS  C:\Users\young\AppData\Local\Temp\ccZHlxL6.s 			page 158


 7223 0d2a 28010000 		.4byte	.LVL122
 7224 0d2e 30010000 		.4byte	.LVL123
 7225 0d32 0100     		.2byte	0x1
 7226 0d34 50       		.byte	0x50
 7227 0d35 30010000 		.4byte	.LVL123
 7228 0d39 34010000 		.4byte	.LVL124
 7229 0d3d 0800     		.2byte	0x8
 7230 0d3f 77       		.byte	0x77
 7231 0d40 00       		.sleb128 0
 7232 0d41 73       		.byte	0x73
 7233 0d42 00       		.sleb128 0
 7234 0d43 36       		.byte	0x36
 7235 0d44 24       		.byte	0x24
 7236 0d45 1C       		.byte	0x1c
 7237 0d46 9F       		.byte	0x9f
 7238 0d47 34010000 		.4byte	.LVL124
 7239 0d4b 36010000 		.4byte	.LVL125
 7240 0d4f 0900     		.2byte	0x9
 7241 0d51 77       		.byte	0x77
 7242 0d52 00       		.sleb128 0
 7243 0d53 79       		.byte	0x79
 7244 0d54 04       		.sleb128 4
 7245 0d55 06       		.byte	0x6
 7246 0d56 36       		.byte	0x36
 7247 0d57 24       		.byte	0x24
 7248 0d58 1C       		.byte	0x1c
 7249 0d59 9F       		.byte	0x9f
 7250 0d5a 36010000 		.4byte	.LVL125
 7251 0d5e 44010000 		.4byte	.LVL127
 7252 0d62 0100     		.2byte	0x1
 7253 0d64 50       		.byte	0x50
 7254 0d65 B2010000 		.4byte	.LVL144
 7255 0d69 C8010000 		.4byte	.LVL150
 7256 0d6d 0100     		.2byte	0x1
 7257 0d6f 54       		.byte	0x54
 7258 0d70 C8010000 		.4byte	.LVL150
 7259 0d74 CC010000 		.4byte	.LVL151
 7260 0d78 0300     		.2byte	0x3
 7261 0d7a 74       		.byte	0x74
 7262 0d7b 40       		.sleb128 -64
 7263 0d7c 9F       		.byte	0x9f
 7264 0d7d CC010000 		.4byte	.LVL151
 7265 0d81 0C020000 		.4byte	.LVL160
 7266 0d85 0100     		.2byte	0x1
 7267 0d87 54       		.byte	0x54
 7268 0d88 0C020000 		.4byte	.LVL160
 7269 0d8c 10020000 		.4byte	.LVL161
 7270 0d90 0300     		.2byte	0x3
 7271 0d92 74       		.byte	0x74
 7272 0d93 40       		.sleb128 -64
 7273 0d94 9F       		.byte	0x9f
 7274 0d95 D8020000 		.4byte	.LVL198
 7275 0d99 DC020000 		.4byte	.LVL199
 7276 0d9d 0100     		.2byte	0x1
 7277 0d9f 54       		.byte	0x54
 7278 0da0 DC020000 		.4byte	.LVL199
 7279 0da4 E0020000 		.4byte	.LFE1
ARM GAS  C:\Users\young\AppData\Local\Temp\ccZHlxL6.s 			page 159


 7280 0da8 0100     		.2byte	0x1
 7281 0daa 57       		.byte	0x57
 7282 0dab 00000000 		.4byte	0
 7283 0daf 00000000 		.4byte	0
 7284              	.LLST72:
 7285 0db3 9C000000 		.4byte	.LVL100
 7286 0db7 A8000000 		.4byte	.LVL103
 7287 0dbb 0100     		.2byte	0x1
 7288 0dbd 53       		.byte	0x53
 7289 0dbe A8000000 		.4byte	.LVL103
 7290 0dc2 56010000 		.4byte	.LVL132
 7291 0dc6 0200     		.2byte	0x2
 7292 0dc8 91       		.byte	0x91
 7293 0dc9 44       		.sleb128 -60
 7294 0dca 70010000 		.4byte	.LVL135
 7295 0dce 72010000 		.4byte	.LVL136
 7296 0dd2 0100     		.2byte	0x1
 7297 0dd4 53       		.byte	0x53
 7298 0dd5 72010000 		.4byte	.LVL136
 7299 0dd9 D0020000 		.4byte	.LVL196
 7300 0ddd 0200     		.2byte	0x2
 7301 0ddf 91       		.byte	0x91
 7302 0de0 44       		.sleb128 -60
 7303 0de1 D0020000 		.4byte	.LVL196
 7304 0de5 D2020000 		.4byte	.LVL197
 7305 0de9 0100     		.2byte	0x1
 7306 0deb 53       		.byte	0x53
 7307 0dec D2020000 		.4byte	.LVL197
 7308 0df0 E0020000 		.4byte	.LFE1
 7309 0df4 0200     		.2byte	0x2
 7310 0df6 91       		.byte	0x91
 7311 0df7 44       		.sleb128 -60
 7312 0df8 00000000 		.4byte	0
 7313 0dfc 00000000 		.4byte	0
 7314              	.LLST73:
 7315 0e00 00000000 		.4byte	.LVL80
 7316 0e04 8E000000 		.4byte	.LVL98
 7317 0e08 0200     		.2byte	0x2
 7318 0e0a 30       		.byte	0x30
 7319 0e0b 9F       		.byte	0x9f
 7320 0e0c 8E000000 		.4byte	.LVL98
 7321 0e10 AC000000 		.4byte	.LVL104
 7322 0e14 0100     		.2byte	0x1
 7323 0e16 51       		.byte	0x51
 7324 0e17 F2000000 		.4byte	.LVL114
 7325 0e1b F4000000 		.4byte	.LVL115
 7326 0e1f 0300     		.2byte	0x3
 7327 0e21 74       		.byte	0x74
 7328 0e22 01       		.sleb128 1
 7329 0e23 9F       		.byte	0x9f
 7330 0e24 F4000000 		.4byte	.LVL115
 7331 0e28 FC000000 		.4byte	.LVL116
 7332 0e2c 0100     		.2byte	0x1
 7333 0e2e 54       		.byte	0x54
 7334 0e2f 4A010000 		.4byte	.LVL129
 7335 0e33 4E010000 		.4byte	.LVL130
 7336 0e37 0200     		.2byte	0x2
ARM GAS  C:\Users\young\AppData\Local\Temp\ccZHlxL6.s 			page 160


 7337 0e39 30       		.byte	0x30
 7338 0e3a 9F       		.byte	0x9f
 7339 0e3b 64010000 		.4byte	.LVL133
 7340 0e3f 7E010000 		.4byte	.LVL137
 7341 0e43 0200     		.2byte	0x2
 7342 0e45 30       		.byte	0x30
 7343 0e46 9F       		.byte	0x9f
 7344 0e47 C8020000 		.4byte	.LVL193
 7345 0e4b CC020000 		.4byte	.LVL194
 7346 0e4f 0100     		.2byte	0x1
 7347 0e51 54       		.byte	0x54
 7348 0e52 D0020000 		.4byte	.LVL196
 7349 0e56 D8020000 		.4byte	.LVL198
 7350 0e5a 0100     		.2byte	0x1
 7351 0e5c 51       		.byte	0x51
 7352 0e5d 00000000 		.4byte	0
 7353 0e61 00000000 		.4byte	0
 7354              	.LLST74:
 7355 0e65 00000000 		.4byte	.LVL80
 7356 0e69 8E000000 		.4byte	.LVL98
 7357 0e6d 0200     		.2byte	0x2
 7358 0e6f 30       		.byte	0x30
 7359 0e70 9F       		.byte	0x9f
 7360 0e71 8E000000 		.4byte	.LVL98
 7361 0e75 AC000000 		.4byte	.LVL104
 7362 0e79 0100     		.2byte	0x1
 7363 0e7b 51       		.byte	0x51
 7364 0e7c 4A010000 		.4byte	.LVL129
 7365 0e80 4E010000 		.4byte	.LVL130
 7366 0e84 0200     		.2byte	0x2
 7367 0e86 30       		.byte	0x30
 7368 0e87 9F       		.byte	0x9f
 7369 0e88 64010000 		.4byte	.LVL133
 7370 0e8c 7E010000 		.4byte	.LVL137
 7371 0e90 0200     		.2byte	0x2
 7372 0e92 30       		.byte	0x30
 7373 0e93 9F       		.byte	0x9f
 7374 0e94 D0020000 		.4byte	.LVL196
 7375 0e98 D8020000 		.4byte	.LVL198
 7376 0e9c 0100     		.2byte	0x1
 7377 0e9e 51       		.byte	0x51
 7378 0e9f 00000000 		.4byte	0
 7379 0ea3 00000000 		.4byte	0
 7380              	.LLST75:
 7381 0ea7 00000000 		.4byte	.LVL80
 7382 0eab 56000000 		.4byte	.LVL89
 7383 0eaf 0100     		.2byte	0x1
 7384 0eb1 51       		.byte	0x51
 7385 0eb2 56000000 		.4byte	.LVL89
 7386 0eb6 CE000000 		.4byte	.LVL109
 7387 0eba 0200     		.2byte	0x2
 7388 0ebc 91       		.byte	0x91
 7389 0ebd 48       		.sleb128 -56
 7390 0ebe CE000000 		.4byte	.LVL109
 7391 0ec2 4A010000 		.4byte	.LVL129
 7392 0ec6 0100     		.2byte	0x1
 7393 0ec8 58       		.byte	0x58
ARM GAS  C:\Users\young\AppData\Local\Temp\ccZHlxL6.s 			page 161


 7394 0ec9 4A010000 		.4byte	.LVL129
 7395 0ecd 56010000 		.4byte	.LVL132
 7396 0ed1 0200     		.2byte	0x2
 7397 0ed3 91       		.byte	0x91
 7398 0ed4 48       		.sleb128 -56
 7399 0ed5 64010000 		.4byte	.LVL133
 7400 0ed9 B2010000 		.4byte	.LVL144
 7401 0edd 0200     		.2byte	0x2
 7402 0edf 91       		.byte	0x91
 7403 0ee0 48       		.sleb128 -56
 7404 0ee1 B2010000 		.4byte	.LVL144
 7405 0ee5 16020000 		.4byte	.LVL163
 7406 0ee9 0100     		.2byte	0x1
 7407 0eeb 5B       		.byte	0x5b
 7408 0eec 8A020000 		.4byte	.LVL182
 7409 0ef0 98020000 		.4byte	.LVL184
 7410 0ef4 0100     		.2byte	0x1
 7411 0ef6 50       		.byte	0x50
 7412 0ef7 98020000 		.4byte	.LVL184
 7413 0efb 9B020000 		.4byte	.LVL185-1
 7414 0eff 0100     		.2byte	0x1
 7415 0f01 51       		.byte	0x51
 7416 0f02 BC020000 		.4byte	.LVL191
 7417 0f06 C5020000 		.4byte	.LVL192-1
 7418 0f0a 0100     		.2byte	0x1
 7419 0f0c 50       		.byte	0x50
 7420 0f0d C8020000 		.4byte	.LVL193
 7421 0f11 D0020000 		.4byte	.LVL196
 7422 0f15 0100     		.2byte	0x1
 7423 0f17 58       		.byte	0x58
 7424 0f18 D0020000 		.4byte	.LVL196
 7425 0f1c D8020000 		.4byte	.LVL198
 7426 0f20 0200     		.2byte	0x2
 7427 0f22 91       		.byte	0x91
 7428 0f23 48       		.sleb128 -56
 7429 0f24 D8020000 		.4byte	.LVL198
 7430 0f28 DC020000 		.4byte	.LVL199
 7431 0f2c 0100     		.2byte	0x1
 7432 0f2e 5B       		.byte	0x5b
 7433 0f2f DC020000 		.4byte	.LVL199
 7434 0f33 E0020000 		.4byte	.LFE1
 7435 0f37 0100     		.2byte	0x1
 7436 0f39 58       		.byte	0x58
 7437 0f3a 00000000 		.4byte	0
 7438 0f3e 00000000 		.4byte	0
 7439              	.LLST76:
 7440 0f42 32000000 		.4byte	.LVL83
 7441 0f46 9A000000 		.4byte	.LVL99
 7442 0f4a 0100     		.2byte	0x1
 7443 0f4c 59       		.byte	0x59
 7444 0f4d 9A000000 		.4byte	.LVL99
 7445 0f51 AC000000 		.4byte	.LVL104
 7446 0f55 0100     		.2byte	0x1
 7447 0f57 50       		.byte	0x50
 7448 0f58 AC000000 		.4byte	.LVL104
 7449 0f5c C4000000 		.4byte	.LVL107
 7450 0f60 0100     		.2byte	0x1
ARM GAS  C:\Users\young\AppData\Local\Temp\ccZHlxL6.s 			page 162


 7451 0f62 59       		.byte	0x59
 7452 0f63 C4000000 		.4byte	.LVL107
 7453 0f67 4A010000 		.4byte	.LVL129
 7454 0f6b 0100     		.2byte	0x1
 7455 0f6d 5B       		.byte	0x5b
 7456 0f6e 4A010000 		.4byte	.LVL129
 7457 0f72 56010000 		.4byte	.LVL132
 7458 0f76 0100     		.2byte	0x1
 7459 0f78 59       		.byte	0x59
 7460 0f79 64010000 		.4byte	.LVL133
 7461 0f7d 68010000 		.4byte	.LVL134
 7462 0f81 0100     		.2byte	0x1
 7463 0f83 50       		.byte	0x50
 7464 0f84 68010000 		.4byte	.LVL134
 7465 0f88 A4010000 		.4byte	.LVL140
 7466 0f8c 0100     		.2byte	0x1
 7467 0f8e 59       		.byte	0x59
 7468 0f8f A4010000 		.4byte	.LVL140
 7469 0f93 AC010000 		.4byte	.LVL143
 7470 0f97 0100     		.2byte	0x1
 7471 0f99 5A       		.byte	0x5a
 7472 0f9a AC010000 		.4byte	.LVL143
 7473 0f9e 16020000 		.4byte	.LVL163
 7474 0fa2 0100     		.2byte	0x1
 7475 0fa4 57       		.byte	0x57
 7476 0fa5 70020000 		.4byte	.LVL176
 7477 0fa9 7E020000 		.4byte	.LVL178
 7478 0fad 1600     		.2byte	0x16
 7479 0faf 79       		.byte	0x79
 7480 0fb0 00       		.sleb128 0
 7481 0fb1 12       		.byte	0x12
 7482 0fb2 40       		.byte	0x40
 7483 0fb3 4B       		.byte	0x4b
 7484 0fb4 24       		.byte	0x24
 7485 0fb5 22       		.byte	0x22
 7486 0fb6 73       		.byte	0x73
 7487 0fb7 00       		.sleb128 0
 7488 0fb8 16       		.byte	0x16
 7489 0fb9 14       		.byte	0x14
 7490 0fba 40       		.byte	0x40
 7491 0fbb 4B       		.byte	0x4b
 7492 0fbc 24       		.byte	0x24
 7493 0fbd 22       		.byte	0x22
 7494 0fbe 2B       		.byte	0x2b
 7495 0fbf 28       		.byte	0x28
 7496 0fc0 0100     		.2byte	0x1
 7497 0fc2 16       		.byte	0x16
 7498 0fc3 13       		.byte	0x13
 7499 0fc4 9F       		.byte	0x9f
 7500 0fc5 7E020000 		.4byte	.LVL178
 7501 0fc9 80020000 		.4byte	.LVL179
 7502 0fcd 1600     		.2byte	0x16
 7503 0fcf 70       		.byte	0x70
 7504 0fd0 00       		.sleb128 0
 7505 0fd1 12       		.byte	0x12
 7506 0fd2 40       		.byte	0x40
 7507 0fd3 4B       		.byte	0x4b
ARM GAS  C:\Users\young\AppData\Local\Temp\ccZHlxL6.s 			page 163


 7508 0fd4 24       		.byte	0x24
 7509 0fd5 22       		.byte	0x22
 7510 0fd6 73       		.byte	0x73
 7511 0fd7 00       		.sleb128 0
 7512 0fd8 16       		.byte	0x16
 7513 0fd9 14       		.byte	0x14
 7514 0fda 40       		.byte	0x40
 7515 0fdb 4B       		.byte	0x4b
 7516 0fdc 24       		.byte	0x24
 7517 0fdd 22       		.byte	0x22
 7518 0fde 2B       		.byte	0x2b
 7519 0fdf 28       		.byte	0x28
 7520 0fe0 0100     		.2byte	0x1
 7521 0fe2 16       		.byte	0x16
 7522 0fe3 13       		.byte	0x13
 7523 0fe4 9F       		.byte	0x9f
 7524 0fe5 80020000 		.4byte	.LVL179
 7525 0fe9 82020000 		.4byte	.LVL180
 7526 0fed 1600     		.2byte	0x16
 7527 0fef 79       		.byte	0x79
 7528 0ff0 00       		.sleb128 0
 7529 0ff1 12       		.byte	0x12
 7530 0ff2 40       		.byte	0x40
 7531 0ff3 4B       		.byte	0x4b
 7532 0ff4 24       		.byte	0x24
 7533 0ff5 22       		.byte	0x22
 7534 0ff6 73       		.byte	0x73
 7535 0ff7 00       		.sleb128 0
 7536 0ff8 16       		.byte	0x16
 7537 0ff9 14       		.byte	0x14
 7538 0ffa 40       		.byte	0x40
 7539 0ffb 4B       		.byte	0x4b
 7540 0ffc 24       		.byte	0x24
 7541 0ffd 22       		.byte	0x22
 7542 0ffe 2B       		.byte	0x2b
 7543 0fff 28       		.byte	0x28
 7544 1000 0100     		.2byte	0x1
 7545 1002 16       		.byte	0x16
 7546 1003 13       		.byte	0x13
 7547 1004 9F       		.byte	0x9f
 7548 1005 82020000 		.4byte	.LVL180
 7549 1009 90020000 		.4byte	.LVL183
 7550 100d 1700     		.2byte	0x17
 7551 100f 79       		.byte	0x79
 7552 1010 00       		.sleb128 0
 7553 1011 12       		.byte	0x12
 7554 1012 40       		.byte	0x40
 7555 1013 4B       		.byte	0x4b
 7556 1014 24       		.byte	0x24
 7557 1015 22       		.byte	0x22
 7558 1016 75       		.byte	0x75
 7559 1017 04       		.sleb128 4
 7560 1018 06       		.byte	0x6
 7561 1019 16       		.byte	0x16
 7562 101a 14       		.byte	0x14
 7563 101b 40       		.byte	0x40
 7564 101c 4B       		.byte	0x4b
ARM GAS  C:\Users\young\AppData\Local\Temp\ccZHlxL6.s 			page 164


 7565 101d 24       		.byte	0x24
 7566 101e 22       		.byte	0x22
 7567 101f 2B       		.byte	0x2b
 7568 1020 28       		.byte	0x28
 7569 1021 0100     		.2byte	0x1
 7570 1023 16       		.byte	0x16
 7571 1024 13       		.byte	0x13
 7572 1025 9F       		.byte	0x9f
 7573 1026 BC020000 		.4byte	.LVL191
 7574 102a C5020000 		.4byte	.LVL192-1
 7575 102e 1700     		.2byte	0x17
 7576 1030 79       		.byte	0x79
 7577 1031 00       		.sleb128 0
 7578 1032 12       		.byte	0x12
 7579 1033 40       		.byte	0x40
 7580 1034 4B       		.byte	0x4b
 7581 1035 24       		.byte	0x24
 7582 1036 22       		.byte	0x22
 7583 1037 75       		.byte	0x75
 7584 1038 04       		.sleb128 4
 7585 1039 06       		.byte	0x6
 7586 103a 16       		.byte	0x16
 7587 103b 14       		.byte	0x14
 7588 103c 40       		.byte	0x40
 7589 103d 4B       		.byte	0x4b
 7590 103e 24       		.byte	0x24
 7591 103f 22       		.byte	0x22
 7592 1040 2B       		.byte	0x2b
 7593 1041 28       		.byte	0x28
 7594 1042 0100     		.2byte	0x1
 7595 1044 16       		.byte	0x16
 7596 1045 13       		.byte	0x13
 7597 1046 9F       		.byte	0x9f
 7598 1047 C8020000 		.4byte	.LVL193
 7599 104b D0020000 		.4byte	.LVL196
 7600 104f 0100     		.2byte	0x1
 7601 1051 5B       		.byte	0x5b
 7602 1052 D0020000 		.4byte	.LVL196
 7603 1056 D8020000 		.4byte	.LVL198
 7604 105a 0100     		.2byte	0x1
 7605 105c 50       		.byte	0x50
 7606 105d D8020000 		.4byte	.LVL198
 7607 1061 DC020000 		.4byte	.LVL199
 7608 1065 0100     		.2byte	0x1
 7609 1067 57       		.byte	0x57
 7610 1068 DC020000 		.4byte	.LVL199
 7611 106c E0020000 		.4byte	.LFE1
 7612 1070 0100     		.2byte	0x1
 7613 1072 5B       		.byte	0x5b
 7614 1073 00000000 		.4byte	0
 7615 1077 00000000 		.4byte	0
 7616              	.LLST77:
 7617 107b 32000000 		.4byte	.LVL83
 7618 107f 34000000 		.4byte	.LVL84
 7619 1083 0100     		.2byte	0x1
 7620 1085 52       		.byte	0x52
 7621 1086 34000000 		.4byte	.LVL84
ARM GAS  C:\Users\young\AppData\Local\Temp\ccZHlxL6.s 			page 165


 7622 108a C2000000 		.4byte	.LVL106
 7623 108e 0100     		.2byte	0x1
 7624 1090 57       		.byte	0x57
 7625 1091 C2000000 		.4byte	.LVL106
 7626 1095 CE000000 		.4byte	.LVL109
 7627 1099 0100     		.2byte	0x1
 7628 109b 52       		.byte	0x52
 7629 109c CE000000 		.4byte	.LVL109
 7630 10a0 EC000000 		.4byte	.LVL112
 7631 10a4 0100     		.2byte	0x1
 7632 10a6 5A       		.byte	0x5a
 7633 10a7 F0000000 		.4byte	.LVL113
 7634 10ab 4A010000 		.4byte	.LVL129
 7635 10af 0100     		.2byte	0x1
 7636 10b1 5A       		.byte	0x5a
 7637 10b2 4A010000 		.4byte	.LVL129
 7638 10b6 56010000 		.4byte	.LVL132
 7639 10ba 0100     		.2byte	0x1
 7640 10bc 57       		.byte	0x57
 7641 10bd 64010000 		.4byte	.LVL133
 7642 10c1 A8010000 		.4byte	.LVL141
 7643 10c5 0100     		.2byte	0x1
 7644 10c7 57       		.byte	0x57
 7645 10c8 A8010000 		.4byte	.LVL141
 7646 10cc B2010000 		.4byte	.LVL144
 7647 10d0 0100     		.2byte	0x1
 7648 10d2 52       		.byte	0x52
 7649 10d3 B2010000 		.4byte	.LVL144
 7650 10d7 C4010000 		.4byte	.LVL148
 7651 10db 0100     		.2byte	0x1
 7652 10dd 5A       		.byte	0x5a
 7653 10de C4010000 		.4byte	.LVL148
 7654 10e2 CC010000 		.4byte	.LVL151
 7655 10e6 0100     		.2byte	0x1
 7656 10e8 53       		.byte	0x53
 7657 10e9 CC010000 		.4byte	.LVL151
 7658 10ed 08020000 		.4byte	.LVL158
 7659 10f1 0100     		.2byte	0x1
 7660 10f3 5A       		.byte	0x5a
 7661 10f4 08020000 		.4byte	.LVL158
 7662 10f8 12020000 		.4byte	.LVL162
 7663 10fc 0100     		.2byte	0x1
 7664 10fe 53       		.byte	0x53
 7665 10ff 12020000 		.4byte	.LVL162
 7666 1103 30020000 		.4byte	.LVL167
 7667 1107 0100     		.2byte	0x1
 7668 1109 5A       		.byte	0x5a
 7669 110a C8020000 		.4byte	.LVL193
 7670 110e D0020000 		.4byte	.LVL196
 7671 1112 0100     		.2byte	0x1
 7672 1114 5A       		.byte	0x5a
 7673 1115 D0020000 		.4byte	.LVL196
 7674 1119 D8020000 		.4byte	.LVL198
 7675 111d 0100     		.2byte	0x1
 7676 111f 57       		.byte	0x57
 7677 1120 D8020000 		.4byte	.LVL198
 7678 1124 E0020000 		.4byte	.LFE1
ARM GAS  C:\Users\young\AppData\Local\Temp\ccZHlxL6.s 			page 166


 7679 1128 0100     		.2byte	0x1
 7680 112a 5A       		.byte	0x5a
 7681 112b 00000000 		.4byte	0
 7682 112f 00000000 		.4byte	0
 7683              	.LLST78:
 7684 1133 3E000000 		.4byte	.LVL85
 7685 1137 40000000 		.4byte	.LVL86
 7686 113b 0100     		.2byte	0x1
 7687 113d 52       		.byte	0x52
 7688 113e 40000000 		.4byte	.LVL86
 7689 1142 5B000000 		.4byte	.LVL90-1
 7690 1146 0200     		.2byte	0x2
 7691 1148 7A       		.byte	0x7a
 7692 1149 00       		.sleb128 0
 7693 114a 5B000000 		.4byte	.LVL90-1
 7694 114e 56010000 		.4byte	.LVL132
 7695 1152 0200     		.2byte	0x2
 7696 1154 91       		.byte	0x91
 7697 1155 4C       		.sleb128 -52
 7698 1156 64010000 		.4byte	.LVL133
 7699 115a E0020000 		.4byte	.LFE1
 7700 115e 0200     		.2byte	0x2
 7701 1160 91       		.byte	0x91
 7702 1161 4C       		.sleb128 -52
 7703 1162 00000000 		.4byte	0
 7704 1166 00000000 		.4byte	0
 7705              	.LLST79:
 7706 116a 3E000000 		.4byte	.LVL85
 7707 116e A6000000 		.4byte	.LVL102
 7708 1172 0200     		.2byte	0x2
 7709 1174 30       		.byte	0x30
 7710 1175 9F       		.byte	0x9f
 7711 1176 A6000000 		.4byte	.LVL102
 7712 117a AC000000 		.4byte	.LVL104
 7713 117e 0200     		.2byte	0x2
 7714 1180 31       		.byte	0x31
 7715 1181 9F       		.byte	0x9f
 7716 1182 4A010000 		.4byte	.LVL129
 7717 1186 54010000 		.4byte	.LVL131
 7718 118a 0200     		.2byte	0x2
 7719 118c 30       		.byte	0x30
 7720 118d 9F       		.byte	0x9f
 7721 118e 64010000 		.4byte	.LVL133
 7722 1192 7E010000 		.4byte	.LVL137
 7723 1196 0200     		.2byte	0x2
 7724 1198 30       		.byte	0x30
 7725 1199 9F       		.byte	0x9f
 7726 119a 7E010000 		.4byte	.LVL137
 7727 119e 8A010000 		.4byte	.LVL138
 7728 11a2 1200     		.2byte	0x12
 7729 11a4 91       		.byte	0x91
 7730 11a5 44       		.sleb128 -60
 7731 11a6 06       		.byte	0x6
 7732 11a7 40       		.byte	0x40
 7733 11a8 4B       		.byte	0x4b
 7734 11a9 24       		.byte	0x24
 7735 11aa 22       		.byte	0x22
ARM GAS  C:\Users\young\AppData\Local\Temp\ccZHlxL6.s 			page 167


 7736 11ab 73       		.byte	0x73
 7737 11ac 00       		.sleb128 0
 7738 11ad 40       		.byte	0x40
 7739 11ae 4B       		.byte	0x4b
 7740 11af 24       		.byte	0x24
 7741 11b0 22       		.byte	0x22
 7742 11b1 2D       		.byte	0x2d
 7743 11b2 08       		.byte	0x8
 7744 11b3 FF       		.byte	0xff
 7745 11b4 1A       		.byte	0x1a
 7746 11b5 9F       		.byte	0x9f
 7747 11b6 D0020000 		.4byte	.LVL196
 7748 11ba D8020000 		.4byte	.LVL198
 7749 11be 0200     		.2byte	0x2
 7750 11c0 30       		.byte	0x30
 7751 11c1 9F       		.byte	0x9f
 7752 11c2 00000000 		.4byte	0
 7753 11c6 00000000 		.4byte	0
 7754              	.LLST80:
 7755 11ca 48000000 		.4byte	.LVL87
 7756 11ce 4A000000 		.4byte	.LVL88
 7757 11d2 0100     		.2byte	0x1
 7758 11d4 53       		.byte	0x53
 7759 11d5 4A000000 		.4byte	.LVL88
 7760 11d9 56010000 		.4byte	.LVL132
 7761 11dd 0200     		.2byte	0x2
 7762 11df 91       		.byte	0x91
 7763 11e0 40       		.sleb128 -64
 7764 11e1 64010000 		.4byte	.LVL133
 7765 11e5 1E020000 		.4byte	.LVL164
 7766 11e9 0200     		.2byte	0x2
 7767 11eb 91       		.byte	0x91
 7768 11ec 40       		.sleb128 -64
 7769 11ed 1E020000 		.4byte	.LVL164
 7770 11f1 40020000 		.4byte	.LVL168
 7771 11f5 1900     		.2byte	0x19
 7772 11f7 74       		.byte	0x74
 7773 11f8 04       		.sleb128 4
 7774 11f9 06       		.byte	0x6
 7775 11fa 12       		.byte	0x12
 7776 11fb 40       		.byte	0x40
 7777 11fc 4B       		.byte	0x4b
 7778 11fd 24       		.byte	0x24
 7779 11fe 22       		.byte	0x22
 7780 11ff 71       		.byte	0x71
 7781 1200 00       		.sleb128 0
 7782 1201 16       		.byte	0x16
 7783 1202 14       		.byte	0x14
 7784 1203 40       		.byte	0x40
 7785 1204 4B       		.byte	0x4b
 7786 1205 24       		.byte	0x24
 7787 1206 22       		.byte	0x22
 7788 1207 2D       		.byte	0x2d
 7789 1208 28       		.byte	0x28
 7790 1209 0100     		.2byte	0x1
 7791 120b 16       		.byte	0x16
 7792 120c 13       		.byte	0x13
ARM GAS  C:\Users\young\AppData\Local\Temp\ccZHlxL6.s 			page 168


 7793 120d 31       		.byte	0x31
 7794 120e 1C       		.byte	0x1c
 7795 120f 9F       		.byte	0x9f
 7796 1210 C8020000 		.4byte	.LVL193
 7797 1214 E0020000 		.4byte	.LFE1
 7798 1218 0200     		.2byte	0x2
 7799 121a 91       		.byte	0x91
 7800 121b 40       		.sleb128 -64
 7801 121c 00000000 		.4byte	0
 7802 1220 00000000 		.4byte	0
 7803              	.LLST81:
 7804 1224 A0000000 		.4byte	.LVL101
 7805 1228 AC000000 		.4byte	.LVL104
 7806 122c 0900     		.2byte	0x9
 7807 122e 91       		.byte	0x91
 7808 122f 40       		.sleb128 -64
 7809 1230 06       		.byte	0x6
 7810 1231 71       		.byte	0x71
 7811 1232 00       		.sleb128 0
 7812 1233 22       		.byte	0x22
 7813 1234 31       		.byte	0x31
 7814 1235 1C       		.byte	0x1c
 7815 1236 9F       		.byte	0x9f
 7816 1237 7E010000 		.4byte	.LVL137
 7817 123b 8A010000 		.4byte	.LVL138
 7818 123f 0100     		.2byte	0x1
 7819 1241 53       		.byte	0x53
 7820 1242 D0020000 		.4byte	.LVL196
 7821 1246 D8020000 		.4byte	.LVL198
 7822 124a 0900     		.2byte	0x9
 7823 124c 91       		.byte	0x91
 7824 124d 40       		.sleb128 -64
 7825 124e 06       		.byte	0x6
 7826 124f 71       		.byte	0x71
 7827 1250 00       		.sleb128 0
 7828 1251 22       		.byte	0x22
 7829 1252 31       		.byte	0x31
 7830 1253 1C       		.byte	0x1c
 7831 1254 9F       		.byte	0x9f
 7832 1255 00000000 		.4byte	0
 7833 1259 00000000 		.4byte	0
 7834              	.LLST82:
 7835 125d 44020000 		.4byte	.LVL169
 7836 1261 A8020000 		.4byte	.LVL188
 7837 1265 0100     		.2byte	0x1
 7838 1267 54       		.byte	0x54
 7839 1268 AC020000 		.4byte	.LVL189
 7840 126c C8020000 		.4byte	.LVL193
 7841 1270 0100     		.2byte	0x1
 7842 1272 54       		.byte	0x54
 7843 1273 00000000 		.4byte	0
 7844 1277 00000000 		.4byte	0
 7845              	.LLST84:
 7846 127b 44020000 		.4byte	.LVL169
 7847 127f 54020000 		.4byte	.LVL172
 7848 1283 0100     		.2byte	0x1
 7849 1285 56       		.byte	0x56
ARM GAS  C:\Users\young\AppData\Local\Temp\ccZHlxL6.s 			page 169


 7850 1286 00000000 		.4byte	0
 7851 128a 00000000 		.4byte	0
 7852              	.LLST85:
 7853 128e 44020000 		.4byte	.LVL169
 7854 1292 48020000 		.4byte	.LVL170
 7855 1296 0100     		.2byte	0x1
 7856 1298 51       		.byte	0x51
 7857 1299 48020000 		.4byte	.LVL170
 7858 129d 54020000 		.4byte	.LVL172
 7859 12a1 0100     		.2byte	0x1
 7860 12a3 55       		.byte	0x55
 7861 12a4 00000000 		.4byte	0
 7862 12a8 00000000 		.4byte	0
 7863              	.LLST86:
 7864 12ac 5A020000 		.4byte	.LVL173
 7865 12b0 82020000 		.4byte	.LVL180
 7866 12b4 0100     		.2byte	0x1
 7867 12b6 53       		.byte	0x53
 7868 12b7 82020000 		.4byte	.LVL180
 7869 12bb 90020000 		.4byte	.LVL183
 7870 12bf 0200     		.2byte	0x2
 7871 12c1 75       		.byte	0x75
 7872 12c2 04       		.sleb128 4
 7873 12c3 AC020000 		.4byte	.LVL189
 7874 12c7 BC020000 		.4byte	.LVL191
 7875 12cb 0100     		.2byte	0x1
 7876 12cd 53       		.byte	0x53
 7877 12ce BC020000 		.4byte	.LVL191
 7878 12d2 C5020000 		.4byte	.LVL192-1
 7879 12d6 0200     		.2byte	0x2
 7880 12d8 75       		.byte	0x75
 7881 12d9 04       		.sleb128 4
 7882 12da 00000000 		.4byte	0
 7883 12de 00000000 		.4byte	0
 7884              	.LLST87:
 7885 12e2 5E020000 		.4byte	.LVL174
 7886 12e6 7A020000 		.4byte	.LVL177
 7887 12ea 0100     		.2byte	0x1
 7888 12ec 50       		.byte	0x50
 7889 12ed 7A020000 		.4byte	.LVL177
 7890 12f1 82020000 		.4byte	.LVL180
 7891 12f5 0700     		.2byte	0x7
 7892 12f7 73       		.byte	0x73
 7893 12f8 00       		.sleb128 0
 7894 12f9 75       		.byte	0x75
 7895 12fa 08       		.sleb128 8
 7896 12fb 06       		.byte	0x6
 7897 12fc 22       		.byte	0x22
 7898 12fd 9F       		.byte	0x9f
 7899 12fe 82020000 		.4byte	.LVL180
 7900 1302 90020000 		.4byte	.LVL183
 7901 1306 0800     		.2byte	0x8
 7902 1308 75       		.byte	0x75
 7903 1309 04       		.sleb128 4
 7904 130a 06       		.byte	0x6
 7905 130b 75       		.byte	0x75
 7906 130c 08       		.sleb128 8
ARM GAS  C:\Users\young\AppData\Local\Temp\ccZHlxL6.s 			page 170


 7907 130d 06       		.byte	0x6
 7908 130e 22       		.byte	0x22
 7909 130f 9F       		.byte	0x9f
 7910 1310 AC020000 		.4byte	.LVL189
 7911 1314 BC020000 		.4byte	.LVL191
 7912 1318 0100     		.2byte	0x1
 7913 131a 50       		.byte	0x50
 7914 131b BC020000 		.4byte	.LVL191
 7915 131f C5020000 		.4byte	.LVL192-1
 7916 1323 0800     		.2byte	0x8
 7917 1325 75       		.byte	0x75
 7918 1326 04       		.sleb128 4
 7919 1327 06       		.byte	0x6
 7920 1328 75       		.byte	0x75
 7921 1329 08       		.sleb128 8
 7922 132a 06       		.byte	0x6
 7923 132b 22       		.byte	0x22
 7924 132c 9F       		.byte	0x9f
 7925 132d 00000000 		.4byte	0
 7926 1331 00000000 		.4byte	0
 7927              	.LLST88:
 7928 1335 66020000 		.4byte	.LVL175
 7929 1339 70020000 		.4byte	.LVL176
 7930 133d 0200     		.2byte	0x2
 7931 133f 30       		.byte	0x30
 7932 1340 9F       		.byte	0x9f
 7933 1341 B0020000 		.4byte	.LVL190
 7934 1345 BC020000 		.4byte	.LVL191
 7935 1349 0600     		.2byte	0x6
 7936 134b 79       		.byte	0x79
 7937 134c 00       		.sleb128 0
 7938 134d 73       		.byte	0x73
 7939 134e 00       		.sleb128 0
 7940 134f 1C       		.byte	0x1c
 7941 1350 9F       		.byte	0x9f
 7942 1351 00000000 		.4byte	0
 7943 1355 00000000 		.4byte	0
 7944              	.LLST89:
 7945 1359 70020000 		.4byte	.LVL176
 7946 135d 9B020000 		.4byte	.LVL185-1
 7947 1361 0100     		.2byte	0x1
 7948 1363 5C       		.byte	0x5c
 7949 1364 BC020000 		.4byte	.LVL191
 7950 1368 C5020000 		.4byte	.LVL192-1
 7951 136c 0100     		.2byte	0x1
 7952 136e 5C       		.byte	0x5c
 7953 136f 00000000 		.4byte	0
 7954 1373 00000000 		.4byte	0
 7955              	.LLST90:
 7956 1377 00000000 		.4byte	.LVL200
 7957 137b 18000000 		.4byte	.LVL202
 7958 137f 0100     		.2byte	0x1
 7959 1381 50       		.byte	0x50
 7960 1382 18000000 		.4byte	.LVL202
 7961 1386 4E000000 		.4byte	.LVL206
 7962 138a 0100     		.2byte	0x1
 7963 138c 5C       		.byte	0x5c
ARM GAS  C:\Users\young\AppData\Local\Temp\ccZHlxL6.s 			page 171


 7964 138d 4E000000 		.4byte	.LVL206
 7965 1391 C2000000 		.4byte	.LVL220
 7966 1395 0300     		.2byte	0x3
 7967 1397 91       		.byte	0x91
 7968 1398 887F     		.sleb128 -120
 7969 139a C2000000 		.4byte	.LVL220
 7970 139e C4000000 		.4byte	.LVL221
 7971 13a2 0100     		.2byte	0x1
 7972 13a4 53       		.byte	0x53
 7973 13a5 C4000000 		.4byte	.LVL221
 7974 13a9 98030000 		.4byte	.LFE2
 7975 13ad 0300     		.2byte	0x3
 7976 13af 91       		.byte	0x91
 7977 13b0 887F     		.sleb128 -120
 7978 13b2 00000000 		.4byte	0
 7979 13b6 00000000 		.4byte	0
 7980              	.LLST91:
 7981 13ba 00000000 		.4byte	.LVL200
 7982 13be 4E000000 		.4byte	.LVL206
 7983 13c2 0100     		.2byte	0x1
 7984 13c4 51       		.byte	0x51
 7985 13c5 4E000000 		.4byte	.LVL206
 7986 13c9 98030000 		.4byte	.LFE2
 7987 13cd 0400     		.2byte	0x4
 7988 13cf F3       		.byte	0xf3
 7989 13d0 01       		.uleb128 0x1
 7990 13d1 51       		.byte	0x51
 7991 13d2 9F       		.byte	0x9f
 7992 13d3 00000000 		.4byte	0
 7993 13d7 00000000 		.4byte	0
 7994              	.LLST92:
 7995 13db 00000000 		.4byte	.LVL200
 7996 13df 4E000000 		.4byte	.LVL206
 7997 13e3 0100     		.2byte	0x1
 7998 13e5 52       		.byte	0x52
 7999 13e6 4E000000 		.4byte	.LVL206
 8000 13ea BC000000 		.4byte	.LVL218
 8001 13ee 0300     		.2byte	0x3
 8002 13f0 91       		.byte	0x91
 8003 13f1 8C7F     		.sleb128 -116
 8004 13f3 BC000000 		.4byte	.LVL218
 8005 13f7 BE000000 		.4byte	.LVL219
 8006 13fb 0100     		.2byte	0x1
 8007 13fd 53       		.byte	0x53
 8008 13fe BE000000 		.4byte	.LVL219
 8009 1402 86030000 		.4byte	.LVL294
 8010 1406 0300     		.2byte	0x3
 8011 1408 91       		.byte	0x91
 8012 1409 8C7F     		.sleb128 -116
 8013 140b 86030000 		.4byte	.LVL294
 8014 140f 89030000 		.4byte	.LVL295-1
 8015 1413 0100     		.2byte	0x1
 8016 1415 52       		.byte	0x52
 8017 1416 89030000 		.4byte	.LVL295-1
 8018 141a 98030000 		.4byte	.LFE2
 8019 141e 0300     		.2byte	0x3
 8020 1420 91       		.byte	0x91
ARM GAS  C:\Users\young\AppData\Local\Temp\ccZHlxL6.s 			page 172


 8021 1421 8C7F     		.sleb128 -116
 8022 1423 00000000 		.4byte	0
 8023 1427 00000000 		.4byte	0
 8024              	.LLST93:
 8025 142b 00000000 		.4byte	.LVL200
 8026 142f 1A000000 		.4byte	.LVL203
 8027 1433 0100     		.2byte	0x1
 8028 1435 53       		.byte	0x53
 8029 1436 1A000000 		.4byte	.LVL203
 8030 143a 74000000 		.4byte	.LVL210
 8031 143e 0100     		.2byte	0x1
 8032 1440 58       		.byte	0x58
 8033 1441 74000000 		.4byte	.LVL210
 8034 1445 84000000 		.4byte	.LVL211
 8035 1449 0100     		.2byte	0x1
 8036 144b 53       		.byte	0x53
 8037 144c 84000000 		.4byte	.LVL211
 8038 1450 C0020000 		.4byte	.LVL261
 8039 1454 0100     		.2byte	0x1
 8040 1456 58       		.byte	0x58
 8041 1457 C0020000 		.4byte	.LVL261
 8042 145b CC020000 		.4byte	.LVL262
 8043 145f 0400     		.2byte	0x4
 8044 1461 F3       		.byte	0xf3
 8045 1462 01       		.uleb128 0x1
 8046 1463 53       		.byte	0x53
 8047 1464 9F       		.byte	0x9f
 8048 1465 CC020000 		.4byte	.LVL262
 8049 1469 46030000 		.4byte	.LVL284
 8050 146d 0100     		.2byte	0x1
 8051 146f 58       		.byte	0x58
 8052 1470 46030000 		.4byte	.LVL284
 8053 1474 4F030000 		.4byte	.LVL285-1
 8054 1478 0100     		.2byte	0x1
 8055 147a 53       		.byte	0x53
 8056 147b 4F030000 		.4byte	.LVL285-1
 8057 147f 76030000 		.4byte	.LVL291
 8058 1483 0100     		.2byte	0x1
 8059 1485 58       		.byte	0x58
 8060 1486 76030000 		.4byte	.LVL291
 8061 148a 7A030000 		.4byte	.LVL292
 8062 148e 0100     		.2byte	0x1
 8063 1490 53       		.byte	0x53
 8064 1491 7A030000 		.4byte	.LVL292
 8065 1495 98030000 		.4byte	.LFE2
 8066 1499 0100     		.2byte	0x1
 8067 149b 58       		.byte	0x58
 8068 149c 00000000 		.4byte	0
 8069 14a0 00000000 		.4byte	0
 8070              	.LLST94:
 8071 14a4 00000000 		.4byte	.LVL200
 8072 14a8 A0020000 		.4byte	.LVL257
 8073 14ac 0200     		.2byte	0x2
 8074 14ae 31       		.byte	0x31
 8075 14af 9F       		.byte	0x9f
 8076 14b0 A8020000 		.4byte	.LVL258
 8077 14b4 BE020000 		.4byte	.LVL260
ARM GAS  C:\Users\young\AppData\Local\Temp\ccZHlxL6.s 			page 173


 8078 14b8 0200     		.2byte	0x2
 8079 14ba 30       		.byte	0x30
 8080 14bb 9F       		.byte	0x9f
 8081 14bc CC020000 		.4byte	.LVL262
 8082 14c0 28030000 		.4byte	.LVL277
 8083 14c4 0200     		.2byte	0x2
 8084 14c6 31       		.byte	0x31
 8085 14c7 9F       		.byte	0x9f
 8086 14c8 42030000 		.4byte	.LVL282
 8087 14cc 44030000 		.4byte	.LVL283
 8088 14d0 0200     		.2byte	0x2
 8089 14d2 34       		.byte	0x34
 8090 14d3 9F       		.byte	0x9f
 8091 14d4 44030000 		.4byte	.LVL283
 8092 14d8 46030000 		.4byte	.LVL284
 8093 14dc 0100     		.2byte	0x1
 8094 14de 50       		.byte	0x50
 8095 14df 46030000 		.4byte	.LVL284
 8096 14e3 98030000 		.4byte	.LFE2
 8097 14e7 0200     		.2byte	0x2
 8098 14e9 31       		.byte	0x31
 8099 14ea 9F       		.byte	0x9f
 8100 14eb 00000000 		.4byte	0
 8101 14ef 00000000 		.4byte	0
 8102              	.LLST95:
 8103 14f3 E2000000 		.4byte	.LVL224
 8104 14f7 BE020000 		.4byte	.LVL260
 8105 14fb 0100     		.2byte	0x1
 8106 14fd 56       		.byte	0x56
 8107 14fe CC020000 		.4byte	.LVL262
 8108 1502 1C030000 		.4byte	.LVL274
 8109 1506 0100     		.2byte	0x1
 8110 1508 56       		.byte	0x56
 8111 1509 1C030000 		.4byte	.LVL274
 8112 150d 20030000 		.4byte	.LVL276
 8113 1511 0300     		.2byte	0x3
 8114 1513 76       		.byte	0x76
 8115 1514 7F       		.sleb128 -1
 8116 1515 9F       		.byte	0x9f
 8117 1516 20030000 		.4byte	.LVL276
 8118 151a 46030000 		.4byte	.LVL284
 8119 151e 0100     		.2byte	0x1
 8120 1520 56       		.byte	0x56
 8121 1521 8C030000 		.4byte	.LVL296
 8122 1525 98030000 		.4byte	.LFE2
 8123 1529 0100     		.2byte	0x1
 8124 152b 56       		.byte	0x56
 8125 152c 00000000 		.4byte	0
 8126 1530 00000000 		.4byte	0
 8127              	.LLST96:
 8128 1534 44000000 		.4byte	.LVL204
 8129 1538 4E000000 		.4byte	.LVL206
 8130 153c 0200     		.2byte	0x2
 8131 153e 30       		.byte	0x30
 8132 153f 9F       		.byte	0x9f
 8133 1540 4E000000 		.4byte	.LVL206
 8134 1544 B6020000 		.4byte	.LVL259
ARM GAS  C:\Users\young\AppData\Local\Temp\ccZHlxL6.s 			page 174


 8135 1548 0300     		.2byte	0x3
 8136 154a 91       		.byte	0x91
 8137 154b 847F     		.sleb128 -124
 8138 154d B6020000 		.4byte	.LVL259
 8139 1551 BE020000 		.4byte	.LVL260
 8140 1555 0100     		.2byte	0x1
 8141 1557 53       		.byte	0x53
 8142 1558 CC020000 		.4byte	.LVL262
 8143 155c 98030000 		.4byte	.LFE2
 8144 1560 0300     		.2byte	0x3
 8145 1562 91       		.byte	0x91
 8146 1563 847F     		.sleb128 -124
 8147 1565 00000000 		.4byte	0
 8148 1569 00000000 		.4byte	0
 8149              	.LLST97:
 8150 156d 0E010000 		.4byte	.LVL229
 8151 1571 20010000 		.4byte	.LVL232
 8152 1575 0E00     		.2byte	0xe
 8153 1577 91       		.byte	0x91
 8154 1578 F47E     		.sleb128 -140
 8155 157a 06       		.byte	0x6
 8156 157b 72       		.byte	0x72
 8157 157c 00       		.sleb128 0
 8158 157d 1C       		.byte	0x1c
 8159 157e 36       		.byte	0x36
 8160 157f 25       		.byte	0x25
 8161 1580 78       		.byte	0x78
 8162 1581 04       		.sleb128 4
 8163 1582 06       		.byte	0x6
 8164 1583 1D       		.byte	0x1d
 8165 1584 9F       		.byte	0x9f
 8166 1585 20010000 		.4byte	.LVL232
 8167 1589 24010000 		.4byte	.LVL233
 8168 158d 0900     		.2byte	0x9
 8169 158f 70       		.byte	0x70
 8170 1590 00       		.sleb128 0
 8171 1591 36       		.byte	0x36
 8172 1592 25       		.byte	0x25
 8173 1593 78       		.byte	0x78
 8174 1594 04       		.sleb128 4
 8175 1595 06       		.byte	0x6
 8176 1596 1D       		.byte	0x1d
 8177 1597 9F       		.byte	0x9f
 8178 1598 24010000 		.4byte	.LVL233
 8179 159c 29010000 		.4byte	.LVL235-1
 8180 15a0 0E00     		.2byte	0xe
 8181 15a2 91       		.byte	0x91
 8182 15a3 F47E     		.sleb128 -140
 8183 15a5 06       		.byte	0x6
 8184 15a6 72       		.byte	0x72
 8185 15a7 00       		.sleb128 0
 8186 15a8 1C       		.byte	0x1c
 8187 15a9 36       		.byte	0x36
 8188 15aa 25       		.byte	0x25
 8189 15ab 78       		.byte	0x78
 8190 15ac 04       		.sleb128 4
 8191 15ad 06       		.byte	0x6
ARM GAS  C:\Users\young\AppData\Local\Temp\ccZHlxL6.s 			page 175


 8192 15ae 1D       		.byte	0x1d
 8193 15af 9F       		.byte	0x9f
 8194 15b0 00000000 		.4byte	0
 8195 15b4 00000000 		.4byte	0
 8196              	.LLST98:
 8197 15b8 00000000 		.4byte	.LVL200
 8198 15bc 4E000000 		.4byte	.LVL206
 8199 15c0 0200     		.2byte	0x2
 8200 15c2 30       		.byte	0x30
 8201 15c3 9F       		.byte	0x9f
 8202 15c4 4E000000 		.4byte	.LVL206
 8203 15c8 46010000 		.4byte	.LVL236
 8204 15cc 0300     		.2byte	0x3
 8205 15ce 91       		.byte	0x91
 8206 15cf F87E     		.sleb128 -136
 8207 15d1 46010000 		.4byte	.LVL236
 8208 15d5 48010000 		.4byte	.LVL237
 8209 15d9 0100     		.2byte	0x1
 8210 15db 53       		.byte	0x53
 8211 15dc 48010000 		.4byte	.LVL237
 8212 15e0 BE020000 		.4byte	.LVL260
 8213 15e4 0300     		.2byte	0x3
 8214 15e6 91       		.byte	0x91
 8215 15e7 F87E     		.sleb128 -136
 8216 15e9 CC020000 		.4byte	.LVL262
 8217 15ed EA020000 		.4byte	.LVL265
 8218 15f1 0300     		.2byte	0x3
 8219 15f3 91       		.byte	0x91
 8220 15f4 F87E     		.sleb128 -136
 8221 15f6 EA020000 		.4byte	.LVL265
 8222 15fa 04030000 		.4byte	.LVL270
 8223 15fe 0300     		.2byte	0x3
 8224 1600 08       		.byte	0x8
 8225 1601 20       		.byte	0x20
 8226 1602 9F       		.byte	0x9f
 8227 1603 04030000 		.4byte	.LVL270
 8228 1607 44030000 		.4byte	.LVL283
 8229 160b 0300     		.2byte	0x3
 8230 160d 91       		.byte	0x91
 8231 160e F87E     		.sleb128 -136
 8232 1610 46030000 		.4byte	.LVL284
 8233 1614 98030000 		.4byte	.LFE2
 8234 1618 0300     		.2byte	0x3
 8235 161a 91       		.byte	0x91
 8236 161b F87E     		.sleb128 -136
 8237 161d 00000000 		.4byte	0
 8238 1621 00000000 		.4byte	0
 8239              	.LLST99:
 8240 1625 00000000 		.4byte	.LVL200
 8241 1629 4E000000 		.4byte	.LVL206
 8242 162d 0200     		.2byte	0x2
 8243 162f 30       		.byte	0x30
 8244 1630 9F       		.byte	0x9f
 8245 1631 4E000000 		.4byte	.LVL206
 8246 1635 60010000 		.4byte	.LVL238
 8247 1639 0300     		.2byte	0x3
 8248 163b 91       		.byte	0x91
ARM GAS  C:\Users\young\AppData\Local\Temp\ccZHlxL6.s 			page 176


 8249 163c FC7E     		.sleb128 -132
 8250 163e 60010000 		.4byte	.LVL238
 8251 1642 62010000 		.4byte	.LVL239
 8252 1646 0100     		.2byte	0x1
 8253 1648 53       		.byte	0x53
 8254 1649 62010000 		.4byte	.LVL239
 8255 164d BE020000 		.4byte	.LVL260
 8256 1651 0300     		.2byte	0x3
 8257 1653 91       		.byte	0x91
 8258 1654 FC7E     		.sleb128 -132
 8259 1656 CC020000 		.4byte	.LVL262
 8260 165a F6020000 		.4byte	.LVL266
 8261 165e 0300     		.2byte	0x3
 8262 1660 91       		.byte	0x91
 8263 1661 FC7E     		.sleb128 -132
 8264 1663 F6020000 		.4byte	.LVL266
 8265 1667 04030000 		.4byte	.LVL270
 8266 166b 0100     		.2byte	0x1
 8267 166d 52       		.byte	0x52
 8268 166e 04030000 		.4byte	.LVL270
 8269 1672 44030000 		.4byte	.LVL283
 8270 1676 0300     		.2byte	0x3
 8271 1678 91       		.byte	0x91
 8272 1679 FC7E     		.sleb128 -132
 8273 167b 46030000 		.4byte	.LVL284
 8274 167f 98030000 		.4byte	.LFE2
 8275 1683 0300     		.2byte	0x3
 8276 1685 91       		.byte	0x91
 8277 1686 FC7E     		.sleb128 -132
 8278 1688 00000000 		.4byte	0
 8279 168c 00000000 		.4byte	0
 8280              	.LLST100:
 8281 1690 0E010000 		.4byte	.LVL229
 8282 1694 68010000 		.4byte	.LVL241
 8283 1698 0100     		.2byte	0x1
 8284 169a 54       		.byte	0x54
 8285 169b 6E010000 		.4byte	.LVL242
 8286 169f 76010000 		.4byte	.LVL243
 8287 16a3 0300     		.2byte	0x3
 8288 16a5 74       		.byte	0x74
 8289 16a6 0C       		.sleb128 12
 8290 16a7 9F       		.byte	0x9f
 8291 16a8 76010000 		.4byte	.LVL243
 8292 16ac 7B010000 		.4byte	.LVL244-1
 8293 16b0 0100     		.2byte	0x1
 8294 16b2 51       		.byte	0x51
 8295 16b3 7B010000 		.4byte	.LVL244-1
 8296 16b7 7E010000 		.4byte	.LVL245
 8297 16bb 0300     		.2byte	0x3
 8298 16bd 74       		.byte	0x74
 8299 16be 0C       		.sleb128 12
 8300 16bf 9F       		.byte	0x9f
 8301 16c0 A0020000 		.4byte	.LVL257
 8302 16c4 A8020000 		.4byte	.LVL258
 8303 16c8 0300     		.2byte	0x3
 8304 16ca 91       		.byte	0x91
 8305 16cb F47E     		.sleb128 -140
ARM GAS  C:\Users\young\AppData\Local\Temp\ccZHlxL6.s 			page 177


 8306 16cd CC020000 		.4byte	.LVL262
 8307 16d1 DC020000 		.4byte	.LVL264
 8308 16d5 0200     		.2byte	0x2
 8309 16d7 30       		.byte	0x30
 8310 16d8 9F       		.byte	0x9f
 8311 16d9 DC020000 		.4byte	.LVL264
 8312 16dd 28030000 		.4byte	.LVL277
 8313 16e1 0100     		.2byte	0x1
 8314 16e3 54       		.byte	0x54
 8315 16e4 28030000 		.4byte	.LVL277
 8316 16e8 38030000 		.4byte	.LVL279
 8317 16ec 0D00     		.2byte	0xd
 8318 16ee 78       		.byte	0x78
 8319 16ef 00       		.sleb128 0
 8320 16f0 06       		.byte	0x6
 8321 16f1 91       		.byte	0x91
 8322 16f2 F47E     		.sleb128 -140
 8323 16f4 06       		.byte	0x6
 8324 16f5 22       		.byte	0x22
 8325 16f6 78       		.byte	0x78
 8326 16f7 18       		.sleb128 24
 8327 16f8 06       		.byte	0x6
 8328 16f9 1C       		.byte	0x1c
 8329 16fa 9F       		.byte	0x9f
 8330 16fb 38030000 		.4byte	.LVL279
 8331 16ff 3A030000 		.4byte	.LVL280
 8332 1703 0100     		.2byte	0x1
 8333 1705 50       		.byte	0x50
 8334 1706 3A030000 		.4byte	.LVL280
 8335 170a 3D030000 		.4byte	.LVL281-1
 8336 170e 0D00     		.2byte	0xd
 8337 1710 78       		.byte	0x78
 8338 1711 00       		.sleb128 0
 8339 1712 06       		.byte	0x6
 8340 1713 91       		.byte	0x91
 8341 1714 F47E     		.sleb128 -140
 8342 1716 06       		.byte	0x6
 8343 1717 22       		.byte	0x22
 8344 1718 78       		.byte	0x78
 8345 1719 18       		.sleb128 24
 8346 171a 06       		.byte	0x6
 8347 171b 1C       		.byte	0x1c
 8348 171c 9F       		.byte	0x9f
 8349 171d 90030000 		.4byte	.LVL297
 8350 1721 98030000 		.4byte	.LFE2
 8351 1725 0100     		.2byte	0x1
 8352 1727 54       		.byte	0x54
 8353 1728 00000000 		.4byte	0
 8354 172c 00000000 		.4byte	0
 8355              	.LLST101:
 8356 1730 14000000 		.4byte	.LVL201
 8357 1734 1A000000 		.4byte	.LVL203
 8358 1738 0200     		.2byte	0x2
 8359 173a 73       		.byte	0x73
 8360 173b 08       		.sleb128 8
 8361 173c 1A000000 		.4byte	.LVL203
 8362 1740 4E000000 		.4byte	.LVL206
ARM GAS  C:\Users\young\AppData\Local\Temp\ccZHlxL6.s 			page 178


 8363 1744 0200     		.2byte	0x2
 8364 1746 78       		.byte	0x78
 8365 1747 08       		.sleb128 8
 8366 1748 4E000000 		.4byte	.LVL206
 8367 174c BE020000 		.4byte	.LVL260
 8368 1750 0300     		.2byte	0x3
 8369 1752 91       		.byte	0x91
 8370 1753 F47E     		.sleb128 -140
 8371 1755 CC020000 		.4byte	.LVL262
 8372 1759 44030000 		.4byte	.LVL283
 8373 175d 0300     		.2byte	0x3
 8374 175f 91       		.byte	0x91
 8375 1760 F47E     		.sleb128 -140
 8376 1762 46030000 		.4byte	.LVL284
 8377 1766 98030000 		.4byte	.LFE2
 8378 176a 0300     		.2byte	0x3
 8379 176c 91       		.byte	0x91
 8380 176d F47E     		.sleb128 -140
 8381 176f 00000000 		.4byte	0
 8382 1773 00000000 		.4byte	0
 8383              	.LLST102:
 8384 1777 6A000000 		.4byte	.LVL209
 8385 177b 94000000 		.4byte	.LVL212
 8386 177f 0200     		.2byte	0x2
 8387 1781 30       		.byte	0x30
 8388 1782 9F       		.byte	0x9f
 8389 1783 94000000 		.4byte	.LVL212
 8390 1787 B4000000 		.4byte	.LVL217
 8391 178b 0100     		.2byte	0x1
 8392 178d 55       		.byte	0x55
 8393 178e 46030000 		.4byte	.LVL284
 8394 1792 68030000 		.4byte	.LVL289
 8395 1796 0200     		.2byte	0x2
 8396 1798 30       		.byte	0x30
 8397 1799 9F       		.byte	0x9f
 8398 179a 76030000 		.4byte	.LVL291
 8399 179e 7A030000 		.4byte	.LVL292
 8400 17a2 0200     		.2byte	0x2
 8401 17a4 30       		.byte	0x30
 8402 17a5 9F       		.byte	0x9f
 8403 17a6 7A030000 		.4byte	.LVL292
 8404 17aa 7E030000 		.4byte	.LVL293
 8405 17ae 0100     		.2byte	0x1
 8406 17b0 55       		.byte	0x55
 8407 17b1 7E030000 		.4byte	.LVL293
 8408 17b5 8C030000 		.4byte	.LVL296
 8409 17b9 0200     		.2byte	0x2
 8410 17bb 30       		.byte	0x30
 8411 17bc 9F       		.byte	0x9f
 8412 17bd 00000000 		.4byte	0
 8413 17c1 00000000 		.4byte	0
 8414              	.LLST103:
 8415 17c5 AE000000 		.4byte	.LVL216
 8416 17c9 CF000000 		.4byte	.LVL223-1
 8417 17cd 0100     		.2byte	0x1
 8418 17cf 51       		.byte	0x51
 8419 17d0 60030000 		.4byte	.LVL288
ARM GAS  C:\Users\young\AppData\Local\Temp\ccZHlxL6.s 			page 179


 8420 17d4 68030000 		.4byte	.LVL289
 8421 17d8 0100     		.2byte	0x1
 8422 17da 51       		.byte	0x51
 8423 17db 7A030000 		.4byte	.LVL292
 8424 17df 89030000 		.4byte	.LVL295-1
 8425 17e3 0100     		.2byte	0x1
 8426 17e5 51       		.byte	0x51
 8427 17e6 89030000 		.4byte	.LVL295-1
 8428 17ea 8C030000 		.4byte	.LVL296
 8429 17ee 0300     		.2byte	0x3
 8430 17f0 91       		.byte	0x91
 8431 17f1 807F     		.sleb128 -128
 8432 17f3 00000000 		.4byte	0
 8433 17f7 00000000 		.4byte	0
 8434              	.LLST104:
 8435 17fb 14000000 		.4byte	.LVL201
 8436 17ff 4E000000 		.4byte	.LVL206
 8437 1803 0100     		.2byte	0x1
 8438 1805 51       		.byte	0x51
 8439 1806 4E000000 		.4byte	.LVL206
 8440 180a BE020000 		.4byte	.LVL260
 8441 180e 0300     		.2byte	0x3
 8442 1810 91       		.byte	0x91
 8443 1811 807F     		.sleb128 -128
 8444 1813 CC020000 		.4byte	.LVL262
 8445 1817 98030000 		.4byte	.LFE2
 8446 181b 0300     		.2byte	0x3
 8447 181d 91       		.byte	0x91
 8448 181e 807F     		.sleb128 -128
 8449 1820 00000000 		.4byte	0
 8450 1824 00000000 		.4byte	0
 8451              	.LLST105:
 8452 1828 44000000 		.4byte	.LVL204
 8453 182c 46000000 		.4byte	.LVL205
 8454 1830 0100     		.2byte	0x1
 8455 1832 53       		.byte	0x53
 8456 1833 46000000 		.4byte	.LVL205
 8457 1837 BE020000 		.4byte	.LVL260
 8458 183b 0300     		.2byte	0x3
 8459 183d 91       		.byte	0x91
 8460 183e 947F     		.sleb128 -108
 8461 1840 CC020000 		.4byte	.LVL262
 8462 1844 98030000 		.4byte	.LFE2
 8463 1848 0300     		.2byte	0x3
 8464 184a 91       		.byte	0x91
 8465 184b 947F     		.sleb128 -108
 8466 184d 00000000 		.4byte	0
 8467 1851 00000000 		.4byte	0
 8468              	.LLST106:
 8469 1855 44000000 		.4byte	.LVL204
 8470 1859 4E000000 		.4byte	.LVL206
 8471 185d 0200     		.2byte	0x2
 8472 185f 30       		.byte	0x30
 8473 1860 9F       		.byte	0x9f
 8474 1861 4E000000 		.4byte	.LVL206
 8475 1865 1C010000 		.4byte	.LVL230
 8476 1869 0100     		.2byte	0x1
ARM GAS  C:\Users\young\AppData\Local\Temp\ccZHlxL6.s 			page 180


 8477 186b 5B       		.byte	0x5b
 8478 186c 1C010000 		.4byte	.LVL230
 8479 1870 68010000 		.4byte	.LVL241
 8480 1874 0200     		.2byte	0x2
 8481 1876 30       		.byte	0x30
 8482 1877 9F       		.byte	0x9f
 8483 1878 68010000 		.4byte	.LVL241
 8484 187c 88010000 		.4byte	.LVL246
 8485 1880 0100     		.2byte	0x1
 8486 1882 5B       		.byte	0x5b
 8487 1883 8C020000 		.4byte	.LVL252
 8488 1887 BE020000 		.4byte	.LVL260
 8489 188b 0100     		.2byte	0x1
 8490 188d 5B       		.byte	0x5b
 8491 188e CC020000 		.4byte	.LVL262
 8492 1892 DC020000 		.4byte	.LVL264
 8493 1896 0100     		.2byte	0x1
 8494 1898 5B       		.byte	0x5b
 8495 1899 DC020000 		.4byte	.LVL264
 8496 189d FE020000 		.4byte	.LVL267
 8497 18a1 0200     		.2byte	0x2
 8498 18a3 30       		.byte	0x30
 8499 18a4 9F       		.byte	0x9f
 8500 18a5 FE020000 		.4byte	.LVL267
 8501 18a9 00030000 		.4byte	.LVL268
 8502 18ad 0100     		.2byte	0x1
 8503 18af 53       		.byte	0x53
 8504 18b0 00030000 		.4byte	.LVL268
 8505 18b4 04030000 		.4byte	.LVL270
 8506 18b8 0100     		.2byte	0x1
 8507 18ba 5B       		.byte	0x5b
 8508 18bb 04030000 		.4byte	.LVL270
 8509 18bf 1E030000 		.4byte	.LVL275
 8510 18c3 0200     		.2byte	0x2
 8511 18c5 30       		.byte	0x30
 8512 18c6 9F       		.byte	0x9f
 8513 18c7 1E030000 		.4byte	.LVL275
 8514 18cb 28030000 		.4byte	.LVL277
 8515 18cf 0100     		.2byte	0x1
 8516 18d1 53       		.byte	0x53
 8517 18d2 28030000 		.4byte	.LVL277
 8518 18d6 98030000 		.4byte	.LFE2
 8519 18da 0100     		.2byte	0x1
 8520 18dc 5B       		.byte	0x5b
 8521 18dd 00000000 		.4byte	0
 8522 18e1 00000000 		.4byte	0
 8523              	.LLST107:
 8524 18e5 4E000000 		.4byte	.LVL206
 8525 18e9 EE000000 		.4byte	.LVL225
 8526 18ed 0200     		.2byte	0x2
 8527 18ef 30       		.byte	0x30
 8528 18f0 9F       		.byte	0x9f
 8529 18f1 EE000000 		.4byte	.LVL225
 8530 18f5 26010000 		.4byte	.LVL234
 8531 18f9 0100     		.2byte	0x1
 8532 18fb 51       		.byte	0x51
 8533 18fc 68010000 		.4byte	.LVL241
ARM GAS  C:\Users\young\AppData\Local\Temp\ccZHlxL6.s 			page 181


 8534 1900 7E010000 		.4byte	.LVL245
 8535 1904 0200     		.2byte	0x2
 8536 1906 30       		.byte	0x30
 8537 1907 9F       		.byte	0x9f
 8538 1908 8C020000 		.4byte	.LVL252
 8539 190c 92020000 		.4byte	.LVL253
 8540 1910 0100     		.2byte	0x1
 8541 1912 51       		.byte	0x51
 8542 1913 CC020000 		.4byte	.LVL262
 8543 1917 DC020000 		.4byte	.LVL264
 8544 191b 0100     		.2byte	0x1
 8545 191d 51       		.byte	0x51
 8546 191e 02030000 		.4byte	.LVL269
 8547 1922 04030000 		.4byte	.LVL270
 8548 1926 0200     		.2byte	0x2
 8549 1928 30       		.byte	0x30
 8550 1929 9F       		.byte	0x9f
 8551 192a 04030000 		.4byte	.LVL270
 8552 192e 14030000 		.4byte	.LVL272
 8553 1932 0200     		.2byte	0x2
 8554 1934 31       		.byte	0x31
 8555 1935 9F       		.byte	0x9f
 8556 1936 18030000 		.4byte	.LVL273
 8557 193a 20030000 		.4byte	.LVL276
 8558 193e 0200     		.2byte	0x2
 8559 1940 31       		.byte	0x31
 8560 1941 9F       		.byte	0x9f
 8561 1942 20030000 		.4byte	.LVL276
 8562 1946 28030000 		.4byte	.LVL277
 8563 194a 0100     		.2byte	0x1
 8564 194c 51       		.byte	0x51
 8565 194d 46030000 		.4byte	.LVL284
 8566 1951 8C030000 		.4byte	.LVL296
 8567 1955 0200     		.2byte	0x2
 8568 1957 30       		.byte	0x30
 8569 1958 9F       		.byte	0x9f
 8570 1959 8C030000 		.4byte	.LVL296
 8571 195d 98030000 		.4byte	.LFE2
 8572 1961 0100     		.2byte	0x1
 8573 1963 51       		.byte	0x51
 8574 1964 00000000 		.4byte	0
 8575 1968 00000000 		.4byte	0
 8576              	.LLST108:
 8577 196c 52000000 		.4byte	.LVL207
 8578 1970 A2000000 		.4byte	.LVL214
 8579 1974 0100     		.2byte	0x1
 8580 1976 56       		.byte	0x56
 8581 1977 A2000000 		.4byte	.LVL214
 8582 197b A6000000 		.4byte	.LVL215
 8583 197f 0100     		.2byte	0x1
 8584 1981 53       		.byte	0x53
 8585 1982 A6000000 		.4byte	.LVL215
 8586 1986 BE020000 		.4byte	.LVL260
 8587 198a 0100     		.2byte	0x1
 8588 198c 59       		.byte	0x59
 8589 198d CC020000 		.4byte	.LVL262
 8590 1991 46030000 		.4byte	.LVL284
ARM GAS  C:\Users\young\AppData\Local\Temp\ccZHlxL6.s 			page 182


 8591 1995 0100     		.2byte	0x1
 8592 1997 59       		.byte	0x59
 8593 1998 46030000 		.4byte	.LVL284
 8594 199c 54030000 		.4byte	.LVL286
 8595 19a0 0100     		.2byte	0x1
 8596 19a2 56       		.byte	0x56
 8597 19a3 54030000 		.4byte	.LVL286
 8598 19a7 58030000 		.4byte	.LVL287
 8599 19ab 0100     		.2byte	0x1
 8600 19ad 53       		.byte	0x53
 8601 19ae 58030000 		.4byte	.LVL287
 8602 19b2 76030000 		.4byte	.LVL291
 8603 19b6 0100     		.2byte	0x1
 8604 19b8 59       		.byte	0x59
 8605 19b9 76030000 		.4byte	.LVL291
 8606 19bd 7A030000 		.4byte	.LVL292
 8607 19c1 0100     		.2byte	0x1
 8608 19c3 56       		.byte	0x56
 8609 19c4 7A030000 		.4byte	.LVL292
 8610 19c8 98030000 		.4byte	.LFE2
 8611 19cc 0100     		.2byte	0x1
 8612 19ce 59       		.byte	0x59
 8613 19cf 00000000 		.4byte	0
 8614 19d3 00000000 		.4byte	0
 8615              	.LLST109:
 8616 19d7 52000000 		.4byte	.LVL207
 8617 19db 74000000 		.4byte	.LVL210
 8618 19df 0100     		.2byte	0x1
 8619 19e1 58       		.byte	0x58
 8620 19e2 74000000 		.4byte	.LVL210
 8621 19e6 84000000 		.4byte	.LVL211
 8622 19ea 0100     		.2byte	0x1
 8623 19ec 53       		.byte	0x53
 8624 19ed 84000000 		.4byte	.LVL211
 8625 19f1 94000000 		.4byte	.LVL212
 8626 19f5 0100     		.2byte	0x1
 8627 19f7 58       		.byte	0x58
 8628 19f8 76030000 		.4byte	.LVL291
 8629 19fc 7A030000 		.4byte	.LVL292
 8630 1a00 0100     		.2byte	0x1
 8631 1a02 53       		.byte	0x53
 8632 1a03 00000000 		.4byte	0
 8633 1a07 00000000 		.4byte	0
 8634              	.LLST110:
 8635 1a0b 52000000 		.4byte	.LVL207
 8636 1a0f 94000000 		.4byte	.LVL212
 8637 1a13 0600     		.2byte	0x6
 8638 1a15 F2       		.byte	0xf2
 8639 1a16 2A0D0000 		.4byte	.Ldebug_info0+3370
 8640 1a1a 00       		.sleb128 0
 8641 1a1b 76030000 		.4byte	.LVL291
 8642 1a1f 7A030000 		.4byte	.LVL292
 8643 1a23 0600     		.2byte	0x6
 8644 1a25 F2       		.byte	0xf2
 8645 1a26 2A0D0000 		.4byte	.Ldebug_info0+3370
 8646 1a2a 00       		.sleb128 0
 8647 1a2b 00000000 		.4byte	0
ARM GAS  C:\Users\young\AppData\Local\Temp\ccZHlxL6.s 			page 183


 8648 1a2f 00000000 		.4byte	0
 8649              	.LLST111:
 8650 1a33 52000000 		.4byte	.LVL207
 8651 1a37 94000000 		.4byte	.LVL212
 8652 1a3b 0600     		.2byte	0x6
 8653 1a3d F2       		.byte	0xf2
 8654 1a3e 1A0D0000 		.4byte	.Ldebug_info0+3354
 8655 1a42 00       		.sleb128 0
 8656 1a43 76030000 		.4byte	.LVL291
 8657 1a47 7A030000 		.4byte	.LVL292
 8658 1a4b 0600     		.2byte	0x6
 8659 1a4d F2       		.byte	0xf2
 8660 1a4e 1A0D0000 		.4byte	.Ldebug_info0+3354
 8661 1a52 00       		.sleb128 0
 8662 1a53 00000000 		.4byte	0
 8663 1a57 00000000 		.4byte	0
 8664              	.LLST112:
 8665 1a5b 52000000 		.4byte	.LVL207
 8666 1a5f 94000000 		.4byte	.LVL212
 8667 1a63 0100     		.2byte	0x1
 8668 1a65 56       		.byte	0x56
 8669 1a66 76030000 		.4byte	.LVL291
 8670 1a6a 7A030000 		.4byte	.LVL292
 8671 1a6e 0100     		.2byte	0x1
 8672 1a70 56       		.byte	0x56
 8673 1a71 00000000 		.4byte	0
 8674 1a75 00000000 		.4byte	0
 8675              	.LLST113:
 8676 1a79 88010000 		.4byte	.LVL246
 8677 1a7d 8E010000 		.4byte	.LVL247
 8678 1a81 0300     		.2byte	0x3
 8679 1a83 09       		.byte	0x9
 8680 1a84 FF       		.byte	0xff
 8681 1a85 9F       		.byte	0x9f
 8682 1a86 84020000 		.4byte	.LVL250
 8683 1a8a 88020000 		.4byte	.LVL251
 8684 1a8e 0100     		.2byte	0x1
 8685 1a90 54       		.byte	0x54
 8686 1a91 00000000 		.4byte	0
 8687 1a95 00000000 		.4byte	0
 8688              	.LLST114:
 8689 1a99 F6010000 		.4byte	.LVL248
 8690 1a9d FA010000 		.4byte	.LVL249
 8691 1aa1 0200     		.2byte	0x2
 8692 1aa3 38       		.byte	0x38
 8693 1aa4 9F       		.byte	0x9f
 8694 1aa5 84020000 		.4byte	.LVL250
 8695 1aa9 88020000 		.4byte	.LVL251
 8696 1aad 0200     		.2byte	0x2
 8697 1aaf 38       		.byte	0x38
 8698 1ab0 9F       		.byte	0x9f
 8699 1ab1 00000000 		.4byte	0
 8700 1ab5 00000000 		.4byte	0
 8701              	.LLST115:
 8702 1ab9 88010000 		.4byte	.LVL246
 8703 1abd 8E010000 		.4byte	.LVL247
 8704 1ac1 0200     		.2byte	0x2
ARM GAS  C:\Users\young\AppData\Local\Temp\ccZHlxL6.s 			page 184


 8705 1ac3 30       		.byte	0x30
 8706 1ac4 9F       		.byte	0x9f
 8707 1ac5 00000000 		.4byte	0
 8708 1ac9 00000000 		.4byte	0
 8709              	.LLST116:
 8710 1acd FC000000 		.4byte	.LVL226
 8711 1ad1 0E010000 		.4byte	.LVL229
 8712 1ad5 0100     		.2byte	0x1
 8713 1ad7 58       		.byte	0x58
 8714 1ad8 00000000 		.4byte	0
 8715 1adc 00000000 		.4byte	0
 8716              	.LLST118:
 8717 1ae0 FC000000 		.4byte	.LVL226
 8718 1ae4 0E010000 		.4byte	.LVL229
 8719 1ae8 0100     		.2byte	0x1
 8720 1aea 56       		.byte	0x56
 8721 1aeb 00000000 		.4byte	0
 8722 1aef 00000000 		.4byte	0
 8723              	.LLST119:
 8724 1af3 FC000000 		.4byte	.LVL226
 8725 1af7 00010000 		.4byte	.LVL227
 8726 1afb 0100     		.2byte	0x1
 8727 1afd 52       		.byte	0x52
 8728 1afe 00010000 		.4byte	.LVL227
 8729 1b02 0E010000 		.4byte	.LVL229
 8730 1b06 0100     		.2byte	0x1
 8731 1b08 54       		.byte	0x54
 8732 1b09 00000000 		.4byte	0
 8733 1b0d 00000000 		.4byte	0
 8734              	.LLST120:
 8735 1b11 1C010000 		.4byte	.LVL230
 8736 1b15 1E010000 		.4byte	.LVL231
 8737 1b19 0100     		.2byte	0x1
 8738 1b1b 53       		.byte	0x53
 8739 1b1c 1E010000 		.4byte	.LVL231
 8740 1b20 66010000 		.4byte	.LVL240
 8741 1b24 0100     		.2byte	0x1
 8742 1b26 5B       		.byte	0x5b
 8743 1b27 DC020000 		.4byte	.LVL264
 8744 1b2b FE020000 		.4byte	.LVL267
 8745 1b2f 0100     		.2byte	0x1
 8746 1b31 5B       		.byte	0x5b
 8747 1b32 04030000 		.4byte	.LVL270
 8748 1b36 12030000 		.4byte	.LVL271
 8749 1b3a 0100     		.2byte	0x1
 8750 1b3c 5B       		.byte	0x5b
 8751 1b3d 14030000 		.4byte	.LVL272
 8752 1b41 1E030000 		.4byte	.LVL275
 8753 1b45 0100     		.2byte	0x1
 8754 1b47 5B       		.byte	0x5b
 8755 1b48 00000000 		.4byte	0
 8756 1b4c 00000000 		.4byte	0
 8757              	.LLST121:
 8758 1b50 1C010000 		.4byte	.LVL230
 8759 1b54 68010000 		.4byte	.LVL241
 8760 1b58 0100     		.2byte	0x1
 8761 1b5a 5A       		.byte	0x5a
ARM GAS  C:\Users\young\AppData\Local\Temp\ccZHlxL6.s 			page 185


 8762 1b5b DC020000 		.4byte	.LVL264
 8763 1b5f 14030000 		.4byte	.LVL272
 8764 1b63 0100     		.2byte	0x1
 8765 1b65 5A       		.byte	0x5a
 8766 1b66 14030000 		.4byte	.LVL272
 8767 1b6a 18030000 		.4byte	.LVL273
 8768 1b6e 0100     		.2byte	0x1
 8769 1b70 50       		.byte	0x50
 8770 1b71 18030000 		.4byte	.LVL273
 8771 1b75 28030000 		.4byte	.LVL277
 8772 1b79 0100     		.2byte	0x1
 8773 1b7b 5A       		.byte	0x5a
 8774 1b7c 00000000 		.4byte	0
 8775 1b80 00000000 		.4byte	0
 8776              	.LLST122:
 8777 1b84 1C010000 		.4byte	.LVL230
 8778 1b88 20010000 		.4byte	.LVL232
 8779 1b8c 0E00     		.2byte	0xe
 8780 1b8e 91       		.byte	0x91
 8781 1b8f F47E     		.sleb128 -140
 8782 1b91 06       		.byte	0x6
 8783 1b92 72       		.byte	0x72
 8784 1b93 00       		.sleb128 0
 8785 1b94 1C       		.byte	0x1c
 8786 1b95 36       		.byte	0x36
 8787 1b96 25       		.byte	0x25
 8788 1b97 78       		.byte	0x78
 8789 1b98 04       		.sleb128 4
 8790 1b99 06       		.byte	0x6
 8791 1b9a 1D       		.byte	0x1d
 8792 1b9b 9F       		.byte	0x9f
 8793 1b9c 20010000 		.4byte	.LVL232
 8794 1ba0 24010000 		.4byte	.LVL233
 8795 1ba4 0900     		.2byte	0x9
 8796 1ba6 70       		.byte	0x70
 8797 1ba7 00       		.sleb128 0
 8798 1ba8 36       		.byte	0x36
 8799 1ba9 25       		.byte	0x25
 8800 1baa 78       		.byte	0x78
 8801 1bab 04       		.sleb128 4
 8802 1bac 06       		.byte	0x6
 8803 1bad 1D       		.byte	0x1d
 8804 1bae 9F       		.byte	0x9f
 8805 1baf 24010000 		.4byte	.LVL233
 8806 1bb3 29010000 		.4byte	.LVL235-1
 8807 1bb7 0E00     		.2byte	0xe
 8808 1bb9 91       		.byte	0x91
 8809 1bba F47E     		.sleb128 -140
 8810 1bbc 06       		.byte	0x6
 8811 1bbd 72       		.byte	0x72
 8812 1bbe 00       		.sleb128 0
 8813 1bbf 1C       		.byte	0x1c
 8814 1bc0 36       		.byte	0x36
 8815 1bc1 25       		.byte	0x25
 8816 1bc2 78       		.byte	0x78
 8817 1bc3 04       		.sleb128 4
 8818 1bc4 06       		.byte	0x6
ARM GAS  C:\Users\young\AppData\Local\Temp\ccZHlxL6.s 			page 186


 8819 1bc5 1D       		.byte	0x1d
 8820 1bc6 9F       		.byte	0x9f
 8821 1bc7 00000000 		.4byte	0
 8822 1bcb 00000000 		.4byte	0
 8823              	.LLST123:
 8824 1bcf 1C010000 		.4byte	.LVL230
 8825 1bd3 68010000 		.4byte	.LVL241
 8826 1bd7 0600     		.2byte	0x6
 8827 1bd9 F2       		.byte	0xf2
 8828 1bda 6F0D0000 		.4byte	.Ldebug_info0+3439
 8829 1bde 00       		.sleb128 0
 8830 1bdf DC020000 		.4byte	.LVL264
 8831 1be3 28030000 		.4byte	.LVL277
 8832 1be7 0600     		.2byte	0x6
 8833 1be9 F2       		.byte	0xf2
 8834 1bea 6F0D0000 		.4byte	.Ldebug_info0+3439
 8835 1bee 00       		.sleb128 0
 8836 1bef 00000000 		.4byte	0
 8837 1bf3 00000000 		.4byte	0
 8838              	.LLST124:
 8839 1bf7 1C010000 		.4byte	.LVL230
 8840 1bfb 68010000 		.4byte	.LVL241
 8841 1bff 0600     		.2byte	0x6
 8842 1c01 F2       		.byte	0xf2
 8843 1c02 FA0C0000 		.4byte	.Ldebug_info0+3322
 8844 1c06 00       		.sleb128 0
 8845 1c07 DC020000 		.4byte	.LVL264
 8846 1c0b 28030000 		.4byte	.LVL277
 8847 1c0f 0600     		.2byte	0x6
 8848 1c11 F2       		.byte	0xf2
 8849 1c12 FA0C0000 		.4byte	.Ldebug_info0+3322
 8850 1c16 00       		.sleb128 0
 8851 1c17 00000000 		.4byte	0
 8852 1c1b 00000000 		.4byte	0
 8853              	.LLST125:
 8854 1c1f 1C010000 		.4byte	.LVL230
 8855 1c23 68010000 		.4byte	.LVL241
 8856 1c27 0600     		.2byte	0x6
 8857 1c29 F2       		.byte	0xf2
 8858 1c2a EA0C0000 		.4byte	.Ldebug_info0+3306
 8859 1c2e 00       		.sleb128 0
 8860 1c2f DC020000 		.4byte	.LVL264
 8861 1c33 28030000 		.4byte	.LVL277
 8862 1c37 0600     		.2byte	0x6
 8863 1c39 F2       		.byte	0xf2
 8864 1c3a EA0C0000 		.4byte	.Ldebug_info0+3306
 8865 1c3e 00       		.sleb128 0
 8866 1c3f 00000000 		.4byte	0
 8867 1c43 00000000 		.4byte	0
 8868              	.LLST126:
 8869 1c47 1C010000 		.4byte	.LVL230
 8870 1c4b 68010000 		.4byte	.LVL241
 8871 1c4f 0200     		.2byte	0x2
 8872 1c51 30       		.byte	0x30
 8873 1c52 9F       		.byte	0x9f
 8874 1c53 DC020000 		.4byte	.LVL264
 8875 1c57 28030000 		.4byte	.LVL277
ARM GAS  C:\Users\young\AppData\Local\Temp\ccZHlxL6.s 			page 187


 8876 1c5b 0200     		.2byte	0x2
 8877 1c5d 30       		.byte	0x30
 8878 1c5e 9F       		.byte	0x9f
 8879 1c5f 00000000 		.4byte	0
 8880 1c63 00000000 		.4byte	0
 8881              	.LLST127:
 8882 1c67 68010000 		.4byte	.LVL241
 8883 1c6b 7E010000 		.4byte	.LVL245
 8884 1c6f 0B00     		.2byte	0xb
 8885 1c71 91       		.byte	0x91
 8886 1c72 00       		.sleb128 0
 8887 1c73 91       		.byte	0x91
 8888 1c74 F87E     		.sleb128 -136
 8889 1c76 06       		.byte	0x6
 8890 1c77 22       		.byte	0x22
 8891 1c78 08       		.byte	0x8
 8892 1c79 68       		.byte	0x68
 8893 1c7a 1C       		.byte	0x1c
 8894 1c7b 9F       		.byte	0x9f
 8895 1c7c 00000000 		.4byte	0
 8896 1c80 00000000 		.4byte	0
 8897              	.LLST128:
 8898 1c84 92020000 		.4byte	.LVL253
 8899 1c88 BE020000 		.4byte	.LVL260
 8900 1c8c 0100     		.2byte	0x1
 8901 1c8e 58       		.byte	0x58
 8902 1c8f 28030000 		.4byte	.LVL277
 8903 1c93 46030000 		.4byte	.LVL284
 8904 1c97 0100     		.2byte	0x1
 8905 1c99 58       		.byte	0x58
 8906 1c9a 00000000 		.4byte	0
 8907 1c9e 00000000 		.4byte	0
 8908              	.LLST129:
 8909 1ca2 92020000 		.4byte	.LVL253
 8910 1ca6 96020000 		.4byte	.LVL254
 8911 1caa 0400     		.2byte	0x4
 8912 1cac 91       		.byte	0x91
 8913 1cad 987F     		.sleb128 -104
 8914 1caf 9F       		.byte	0x9f
 8915 1cb0 96020000 		.4byte	.LVL254
 8916 1cb4 9B020000 		.4byte	.LVL256-1
 8917 1cb8 0100     		.2byte	0x1
 8918 1cba 51       		.byte	0x51
 8919 1cbb 9B020000 		.4byte	.LVL256-1
 8920 1cbf A0020000 		.4byte	.LVL257
 8921 1cc3 0400     		.2byte	0x4
 8922 1cc5 91       		.byte	0x91
 8923 1cc6 987F     		.sleb128 -104
 8924 1cc8 9F       		.byte	0x9f
 8925 1cc9 00000000 		.4byte	0
 8926 1ccd 00000000 		.4byte	0
 8927              	.LLST130:
 8928 1cd1 92020000 		.4byte	.LVL253
 8929 1cd5 A0020000 		.4byte	.LVL257
 8930 1cd9 0300     		.2byte	0x3
 8931 1cdb 91       		.byte	0x91
 8932 1cdc F47E     		.sleb128 -140
ARM GAS  C:\Users\young\AppData\Local\Temp\ccZHlxL6.s 			page 188


 8933 1cde 00000000 		.4byte	0
 8934 1ce2 00000000 		.4byte	0
 8935              	.LLST131:
 8936 1ce6 92020000 		.4byte	.LVL253
 8937 1cea A0020000 		.4byte	.LVL257
 8938 1cee 0200     		.2byte	0x2
 8939 1cf0 34       		.byte	0x34
 8940 1cf1 9F       		.byte	0x9f
 8941 1cf2 00000000 		.4byte	0
 8942 1cf6 00000000 		.4byte	0
 8943              	.LLST132:
 8944 1cfa 9C020000 		.4byte	.LVL256
 8945 1cfe A0020000 		.4byte	.LVL257
 8946 1d02 0100     		.2byte	0x1
 8947 1d04 50       		.byte	0x50
 8948 1d05 00000000 		.4byte	0
 8949 1d09 00000000 		.4byte	0
 8950              	.LLST133:
 8951 1d0d 92020000 		.4byte	.LVL253
 8952 1d11 98020000 		.4byte	.LVL255
 8953 1d15 0700     		.2byte	0x7
 8954 1d17 91       		.byte	0x91
 8955 1d18 F47E     		.sleb128 -140
 8956 1d1a 06       		.byte	0x6
 8957 1d1b 36       		.byte	0x36
 8958 1d1c 25       		.byte	0x25
 8959 1d1d 9F       		.byte	0x9f
 8960 1d1e 98020000 		.4byte	.LVL255
 8961 1d22 9B020000 		.4byte	.LVL256-1
 8962 1d26 0100     		.2byte	0x1
 8963 1d28 50       		.byte	0x50
 8964 1d29 9B020000 		.4byte	.LVL256-1
 8965 1d2d A0020000 		.4byte	.LVL257
 8966 1d31 0700     		.2byte	0x7
 8967 1d33 91       		.byte	0x91
 8968 1d34 F47E     		.sleb128 -140
 8969 1d36 06       		.byte	0x6
 8970 1d37 36       		.byte	0x36
 8971 1d38 25       		.byte	0x25
 8972 1d39 9F       		.byte	0x9f
 8973 1d3a 00000000 		.4byte	0
 8974 1d3e 00000000 		.4byte	0
 8975              	.LLST134:
 8976 1d42 28030000 		.4byte	.LVL277
 8977 1d46 42030000 		.4byte	.LVL282
 8978 1d4a 0100     		.2byte	0x1
 8979 1d4c 58       		.byte	0x58
 8980 1d4d 00000000 		.4byte	0
 8981 1d51 00000000 		.4byte	0
 8982              	.LLST135:
 8983 1d55 28030000 		.4byte	.LVL277
 8984 1d59 30030000 		.4byte	.LVL278
 8985 1d5d 0400     		.2byte	0x4
 8986 1d5f 91       		.byte	0x91
 8987 1d60 987F     		.sleb128 -104
 8988 1d62 9F       		.byte	0x9f
 8989 1d63 30030000 		.4byte	.LVL278
ARM GAS  C:\Users\young\AppData\Local\Temp\ccZHlxL6.s 			page 189


 8990 1d67 3D030000 		.4byte	.LVL281-1
 8991 1d6b 0100     		.2byte	0x1
 8992 1d6d 51       		.byte	0x51
 8993 1d6e 3D030000 		.4byte	.LVL281-1
 8994 1d72 42030000 		.4byte	.LVL282
 8995 1d76 0400     		.2byte	0x4
 8996 1d78 91       		.byte	0x91
 8997 1d79 987F     		.sleb128 -104
 8998 1d7b 9F       		.byte	0x9f
 8999 1d7c 00000000 		.4byte	0
 9000 1d80 00000000 		.4byte	0
 9001              	.LLST136:
 9002 1d84 28030000 		.4byte	.LVL277
 9003 1d88 38030000 		.4byte	.LVL279
 9004 1d8c 0D00     		.2byte	0xd
 9005 1d8e 78       		.byte	0x78
 9006 1d8f 00       		.sleb128 0
 9007 1d90 06       		.byte	0x6
 9008 1d91 91       		.byte	0x91
 9009 1d92 F47E     		.sleb128 -140
 9010 1d94 06       		.byte	0x6
 9011 1d95 22       		.byte	0x22
 9012 1d96 78       		.byte	0x78
 9013 1d97 18       		.sleb128 24
 9014 1d98 06       		.byte	0x6
 9015 1d99 1C       		.byte	0x1c
 9016 1d9a 9F       		.byte	0x9f
 9017 1d9b 38030000 		.4byte	.LVL279
 9018 1d9f 3A030000 		.4byte	.LVL280
 9019 1da3 0100     		.2byte	0x1
 9020 1da5 50       		.byte	0x50
 9021 1da6 3A030000 		.4byte	.LVL280
 9022 1daa 3D030000 		.4byte	.LVL281-1
 9023 1dae 0D00     		.2byte	0xd
 9024 1db0 78       		.byte	0x78
 9025 1db1 00       		.sleb128 0
 9026 1db2 06       		.byte	0x6
 9027 1db3 91       		.byte	0x91
 9028 1db4 F47E     		.sleb128 -140
 9029 1db6 06       		.byte	0x6
 9030 1db7 22       		.byte	0x22
 9031 1db8 78       		.byte	0x78
 9032 1db9 18       		.sleb128 24
 9033 1dba 06       		.byte	0x6
 9034 1dbb 1C       		.byte	0x1c
 9035 1dbc 9F       		.byte	0x9f
 9036 1dbd 00000000 		.4byte	0
 9037 1dc1 00000000 		.4byte	0
 9038              	.LLST137:
 9039 1dc5 28030000 		.4byte	.LVL277
 9040 1dc9 42030000 		.4byte	.LVL282
 9041 1dcd 0200     		.2byte	0x2
 9042 1dcf 34       		.byte	0x34
 9043 1dd0 9F       		.byte	0x9f
 9044 1dd1 00000000 		.4byte	0
 9045 1dd5 00000000 		.4byte	0
 9046              	.LLST138:
ARM GAS  C:\Users\young\AppData\Local\Temp\ccZHlxL6.s 			page 190


 9047 1dd9 3E030000 		.4byte	.LVL281
 9048 1ddd 42030000 		.4byte	.LVL282
 9049 1de1 0100     		.2byte	0x1
 9050 1de3 50       		.byte	0x50
 9051 1de4 00000000 		.4byte	0
 9052 1de8 00000000 		.4byte	0
 9053              	.LLST139:
 9054 1dec 28030000 		.4byte	.LVL277
 9055 1df0 3A030000 		.4byte	.LVL280
 9056 1df4 0F00     		.2byte	0xf
 9057 1df6 78       		.byte	0x78
 9058 1df7 00       		.sleb128 0
 9059 1df8 06       		.byte	0x6
 9060 1df9 91       		.byte	0x91
 9061 1dfa F47E     		.sleb128 -140
 9062 1dfc 06       		.byte	0x6
 9063 1dfd 22       		.byte	0x22
 9064 1dfe 78       		.byte	0x78
 9065 1dff 18       		.sleb128 24
 9066 1e00 06       		.byte	0x6
 9067 1e01 1C       		.byte	0x1c
 9068 1e02 36       		.byte	0x36
 9069 1e03 25       		.byte	0x25
 9070 1e04 9F       		.byte	0x9f
 9071 1e05 3A030000 		.4byte	.LVL280
 9072 1e09 3D030000 		.4byte	.LVL281-1
 9073 1e0d 0100     		.2byte	0x1
 9074 1e0f 50       		.byte	0x50
 9075 1e10 00000000 		.4byte	0
 9076 1e14 00000000 		.4byte	0
 9077              	.LLST140:
 9078 1e18 00000000 		.4byte	.LVL298
 9079 1e1c 0E000000 		.4byte	.LVL300
 9080 1e20 0100     		.2byte	0x1
 9081 1e22 50       		.byte	0x50
 9082 1e23 0E000000 		.4byte	.LVL300
 9083 1e27 1C000000 		.4byte	.LVL305
 9084 1e2b 0100     		.2byte	0x1
 9085 1e2d 55       		.byte	0x55
 9086 1e2e 1C000000 		.4byte	.LVL305
 9087 1e32 1E000000 		.4byte	.LVL306
 9088 1e36 0400     		.2byte	0x4
 9089 1e38 F3       		.byte	0xf3
 9090 1e39 01       		.uleb128 0x1
 9091 1e3a 50       		.byte	0x50
 9092 1e3b 9F       		.byte	0x9f
 9093 1e3c 1E000000 		.4byte	.LVL306
 9094 1e40 56010000 		.4byte	.LFE3
 9095 1e44 0100     		.2byte	0x1
 9096 1e46 55       		.byte	0x55
 9097 1e47 00000000 		.4byte	0
 9098 1e4b 00000000 		.4byte	0
 9099              	.LLST141:
 9100 1e4f FE000000 		.4byte	.LVL353
 9101 1e53 08010000 		.4byte	.LVL354
 9102 1e57 0200     		.2byte	0x2
 9103 1e59 30       		.byte	0x30
ARM GAS  C:\Users\young\AppData\Local\Temp\ccZHlxL6.s 			page 191


 9104 1e5a 9F       		.byte	0x9f
 9105 1e5b 08010000 		.4byte	.LVL354
 9106 1e5f 56010000 		.4byte	.LFE3
 9107 1e63 0100     		.2byte	0x1
 9108 1e65 57       		.byte	0x57
 9109 1e66 00000000 		.4byte	0
 9110 1e6a 00000000 		.4byte	0
 9111              	.LLST142:
 9112 1e6e 12000000 		.4byte	.LVL301
 9113 1e72 18000000 		.4byte	.LVL302
 9114 1e76 0200     		.2byte	0x2
 9115 1e78 74       		.byte	0x74
 9116 1e79 00       		.sleb128 0
 9117 1e7a 1E000000 		.4byte	.LVL306
 9118 1e7e 20000000 		.4byte	.LVL307
 9119 1e82 0100     		.2byte	0x1
 9120 1e84 53       		.byte	0x53
 9121 1e85 20000000 		.4byte	.LVL307
 9122 1e89 FE000000 		.4byte	.LVL353
 9123 1e8d 0200     		.2byte	0x2
 9124 1e8f 74       		.byte	0x74
 9125 1e90 00       		.sleb128 0
 9126 1e91 1C010000 		.4byte	.LVL359
 9127 1e95 2A010000 		.4byte	.LVL361
 9128 1e99 0100     		.2byte	0x1
 9129 1e9b 53       		.byte	0x53
 9130 1e9c 2A010000 		.4byte	.LVL361
 9131 1ea0 2C010000 		.4byte	.LVL362
 9132 1ea4 0300     		.2byte	0x3
 9133 1ea6 73       		.byte	0x73
 9134 1ea7 01       		.sleb128 1
 9135 1ea8 9F       		.byte	0x9f
 9136 1ea9 2C010000 		.4byte	.LVL362
 9137 1ead 35010000 		.4byte	.LVL364-1
 9138 1eb1 0100     		.2byte	0x1
 9139 1eb3 53       		.byte	0x53
 9140 1eb4 00000000 		.4byte	0
 9141 1eb8 00000000 		.4byte	0
 9142              	.LLST143:
 9143 1ebc 04000000 		.4byte	.LVL299
 9144 1ec0 1C000000 		.4byte	.LVL304
 9145 1ec4 0100     		.2byte	0x1
 9146 1ec6 54       		.byte	0x54
 9147 1ec7 1E000000 		.4byte	.LVL306
 9148 1ecb 56010000 		.4byte	.LFE3
 9149 1ecf 0100     		.2byte	0x1
 9150 1ed1 54       		.byte	0x54
 9151 1ed2 00000000 		.4byte	0
 9152 1ed6 00000000 		.4byte	0
 9153              	.LLST144:
 9154 1eda 08010000 		.4byte	.LVL354
 9155 1ede 1A010000 		.4byte	.LVL358
 9156 1ee2 0200     		.2byte	0x2
 9157 1ee4 30       		.byte	0x30
 9158 1ee5 9F       		.byte	0x9f
 9159 1ee6 2A010000 		.4byte	.LVL361
 9160 1eea 56010000 		.4byte	.LFE3
ARM GAS  C:\Users\young\AppData\Local\Temp\ccZHlxL6.s 			page 192


 9161 1eee 0200     		.2byte	0x2
 9162 1ef0 30       		.byte	0x30
 9163 1ef1 9F       		.byte	0x9f
 9164 1ef2 00000000 		.4byte	0
 9165 1ef6 00000000 		.4byte	0
 9166              	.LLST145:
 9167 1efa 04000000 		.4byte	.LVL299
 9168 1efe 1A000000 		.4byte	.LVL303
 9169 1f02 0200     		.2byte	0x2
 9170 1f04 34       		.byte	0x34
 9171 1f05 9F       		.byte	0x9f
 9172 1f06 1E000000 		.4byte	.LVL306
 9173 1f0a 12010000 		.4byte	.LVL356
 9174 1f0e 0200     		.2byte	0x2
 9175 1f10 34       		.byte	0x34
 9176 1f11 9F       		.byte	0x9f
 9177 1f12 14010000 		.4byte	.LVL357
 9178 1f16 1A010000 		.4byte	.LVL358
 9179 1f1a 0100     		.2byte	0x1
 9180 1f1c 50       		.byte	0x50
 9181 1f1d 1A010000 		.4byte	.LVL358
 9182 1f21 56010000 		.4byte	.LFE3
 9183 1f25 0200     		.2byte	0x2
 9184 1f27 34       		.byte	0x34
 9185 1f28 9F       		.byte	0x9f
 9186 1f29 00000000 		.4byte	0
 9187 1f2d 00000000 		.4byte	0
 9188              	.LLST146:
 9189 1f31 38000000 		.4byte	.LVL309
 9190 1f35 3C000000 		.4byte	.LVL310
 9191 1f39 0100     		.2byte	0x1
 9192 1f3b 53       		.byte	0x53
 9193 1f3c 3C000000 		.4byte	.LVL310
 9194 1f40 42000000 		.4byte	.LVL311
 9195 1f44 0100     		.2byte	0x1
 9196 1f46 57       		.byte	0x57
 9197 1f47 42000000 		.4byte	.LVL311
 9198 1f4b 46000000 		.4byte	.LVL312
 9199 1f4f 0100     		.2byte	0x1
 9200 1f51 53       		.byte	0x53
 9201 1f52 46000000 		.4byte	.LVL312
 9202 1f56 4C000000 		.4byte	.LVL313
 9203 1f5a 0100     		.2byte	0x1
 9204 1f5c 57       		.byte	0x57
 9205 1f5d 4C000000 		.4byte	.LVL313
 9206 1f61 50000000 		.4byte	.LVL314
 9207 1f65 0100     		.2byte	0x1
 9208 1f67 53       		.byte	0x53
 9209 1f68 50000000 		.4byte	.LVL314
 9210 1f6c 56000000 		.4byte	.LVL315
 9211 1f70 0100     		.2byte	0x1
 9212 1f72 57       		.byte	0x57
 9213 1f73 56000000 		.4byte	.LVL315
 9214 1f77 5A000000 		.4byte	.LVL316
 9215 1f7b 0100     		.2byte	0x1
 9216 1f7d 53       		.byte	0x53
 9217 1f7e 5A000000 		.4byte	.LVL316
ARM GAS  C:\Users\young\AppData\Local\Temp\ccZHlxL6.s 			page 193


 9218 1f82 60000000 		.4byte	.LVL317
 9219 1f86 0100     		.2byte	0x1
 9220 1f88 57       		.byte	0x57
 9221 1f89 60000000 		.4byte	.LVL317
 9222 1f8d 64000000 		.4byte	.LVL318
 9223 1f91 0100     		.2byte	0x1
 9224 1f93 53       		.byte	0x53
 9225 1f94 64000000 		.4byte	.LVL318
 9226 1f98 6A000000 		.4byte	.LVL319
 9227 1f9c 0100     		.2byte	0x1
 9228 1f9e 57       		.byte	0x57
 9229 1f9f 6A000000 		.4byte	.LVL319
 9230 1fa3 6E000000 		.4byte	.LVL320
 9231 1fa7 0100     		.2byte	0x1
 9232 1fa9 53       		.byte	0x53
 9233 1faa 6E000000 		.4byte	.LVL320
 9234 1fae 74000000 		.4byte	.LVL321
 9235 1fb2 0100     		.2byte	0x1
 9236 1fb4 57       		.byte	0x57
 9237 1fb5 74000000 		.4byte	.LVL321
 9238 1fb9 78000000 		.4byte	.LVL322
 9239 1fbd 0100     		.2byte	0x1
 9240 1fbf 53       		.byte	0x53
 9241 1fc0 78000000 		.4byte	.LVL322
 9242 1fc4 7E000000 		.4byte	.LVL323
 9243 1fc8 0100     		.2byte	0x1
 9244 1fca 57       		.byte	0x57
 9245 1fcb 7E000000 		.4byte	.LVL323
 9246 1fcf 8C000000 		.4byte	.LVL327
 9247 1fd3 0100     		.2byte	0x1
 9248 1fd5 53       		.byte	0x53
 9249 1fd6 8C000000 		.4byte	.LVL327
 9250 1fda 92000000 		.4byte	.LVL328
 9251 1fde 0100     		.2byte	0x1
 9252 1fe0 57       		.byte	0x57
 9253 1fe1 92000000 		.4byte	.LVL328
 9254 1fe5 94000000 		.4byte	.LVL329
 9255 1fe9 0100     		.2byte	0x1
 9256 1feb 53       		.byte	0x53
 9257 1fec 96000000 		.4byte	.LVL330
 9258 1ff0 9A000000 		.4byte	.LVL331
 9259 1ff4 0100     		.2byte	0x1
 9260 1ff6 53       		.byte	0x53
 9261 1ff7 9A000000 		.4byte	.LVL331
 9262 1ffb A0000000 		.4byte	.LVL332
 9263 1fff 0100     		.2byte	0x1
 9264 2001 57       		.byte	0x57
 9265 2002 A4000000 		.4byte	.LVL333
 9266 2006 A8000000 		.4byte	.LVL334
 9267 200a 0100     		.2byte	0x1
 9268 200c 53       		.byte	0x53
 9269 200d A8000000 		.4byte	.LVL334
 9270 2011 AE000000 		.4byte	.LVL335
 9271 2015 0100     		.2byte	0x1
 9272 2017 57       		.byte	0x57
 9273 2018 B2000000 		.4byte	.LVL336
 9274 201c B6000000 		.4byte	.LVL337
ARM GAS  C:\Users\young\AppData\Local\Temp\ccZHlxL6.s 			page 194


 9275 2020 0100     		.2byte	0x1
 9276 2022 53       		.byte	0x53
 9277 2023 B6000000 		.4byte	.LVL337
 9278 2027 BC000000 		.4byte	.LVL338
 9279 202b 0100     		.2byte	0x1
 9280 202d 57       		.byte	0x57
 9281 202e C0000000 		.4byte	.LVL339
 9282 2032 C4000000 		.4byte	.LVL340
 9283 2036 0100     		.2byte	0x1
 9284 2038 53       		.byte	0x53
 9285 2039 C4000000 		.4byte	.LVL340
 9286 203d CA000000 		.4byte	.LVL341
 9287 2041 0100     		.2byte	0x1
 9288 2043 57       		.byte	0x57
 9289 2044 CE000000 		.4byte	.LVL342
 9290 2048 D2000000 		.4byte	.LVL343
 9291 204c 0100     		.2byte	0x1
 9292 204e 53       		.byte	0x53
 9293 204f D2000000 		.4byte	.LVL343
 9294 2053 D8000000 		.4byte	.LVL344
 9295 2057 0100     		.2byte	0x1
 9296 2059 57       		.byte	0x57
 9297 205a DC000000 		.4byte	.LVL345
 9298 205e E0000000 		.4byte	.LVL346
 9299 2062 0100     		.2byte	0x1
 9300 2064 53       		.byte	0x53
 9301 2065 E0000000 		.4byte	.LVL346
 9302 2069 E6000000 		.4byte	.LVL347
 9303 206d 0100     		.2byte	0x1
 9304 206f 57       		.byte	0x57
 9305 2070 EA000000 		.4byte	.LVL348
 9306 2074 EE000000 		.4byte	.LVL349
 9307 2078 0100     		.2byte	0x1
 9308 207a 53       		.byte	0x53
 9309 207b EE000000 		.4byte	.LVL349
 9310 207f F4000000 		.4byte	.LVL350
 9311 2083 0100     		.2byte	0x1
 9312 2085 57       		.byte	0x57
 9313 2086 F8000000 		.4byte	.LVL351
 9314 208a FC000000 		.4byte	.LVL352
 9315 208e 0100     		.2byte	0x1
 9316 2090 53       		.byte	0x53
 9317 2091 00000000 		.4byte	0
 9318 2095 00000000 		.4byte	0
 9319              	.LLST147:
 9320 2099 38000000 		.4byte	.LVL309
 9321 209d 42000000 		.4byte	.LVL311
 9322 20a1 0200     		.2byte	0x2
 9323 20a3 31       		.byte	0x31
 9324 20a4 9F       		.byte	0x9f
 9325 20a5 42000000 		.4byte	.LVL311
 9326 20a9 4C000000 		.4byte	.LVL313
 9327 20ad 0200     		.2byte	0x2
 9328 20af 32       		.byte	0x32
 9329 20b0 9F       		.byte	0x9f
 9330 20b1 4C000000 		.4byte	.LVL313
 9331 20b5 56000000 		.4byte	.LVL315
ARM GAS  C:\Users\young\AppData\Local\Temp\ccZHlxL6.s 			page 195


 9332 20b9 0200     		.2byte	0x2
 9333 20bb 33       		.byte	0x33
 9334 20bc 9F       		.byte	0x9f
 9335 20bd 56000000 		.4byte	.LVL315
 9336 20c1 60000000 		.4byte	.LVL317
 9337 20c5 0200     		.2byte	0x2
 9338 20c7 34       		.byte	0x34
 9339 20c8 9F       		.byte	0x9f
 9340 20c9 60000000 		.4byte	.LVL317
 9341 20cd 6A000000 		.4byte	.LVL319
 9342 20d1 0200     		.2byte	0x2
 9343 20d3 35       		.byte	0x35
 9344 20d4 9F       		.byte	0x9f
 9345 20d5 6A000000 		.4byte	.LVL319
 9346 20d9 74000000 		.4byte	.LVL321
 9347 20dd 0200     		.2byte	0x2
 9348 20df 36       		.byte	0x36
 9349 20e0 9F       		.byte	0x9f
 9350 20e1 74000000 		.4byte	.LVL321
 9351 20e5 7E000000 		.4byte	.LVL323
 9352 20e9 0200     		.2byte	0x2
 9353 20eb 37       		.byte	0x37
 9354 20ec 9F       		.byte	0x9f
 9355 20ed 7E000000 		.4byte	.LVL323
 9356 20f1 86000000 		.4byte	.LVL325
 9357 20f5 0200     		.2byte	0x2
 9358 20f7 38       		.byte	0x38
 9359 20f8 9F       		.byte	0x9f
 9360 20f9 88000000 		.4byte	.LVL326
 9361 20fd 96000000 		.4byte	.LVL330
 9362 2101 0200     		.2byte	0x2
 9363 2103 30       		.byte	0x30
 9364 2104 9F       		.byte	0x9f
 9365 2105 96000000 		.4byte	.LVL330
 9366 2109 A4000000 		.4byte	.LVL333
 9367 210d 0200     		.2byte	0x2
 9368 210f 31       		.byte	0x31
 9369 2110 9F       		.byte	0x9f
 9370 2111 A4000000 		.4byte	.LVL333
 9371 2115 B2000000 		.4byte	.LVL336
 9372 2119 0200     		.2byte	0x2
 9373 211b 32       		.byte	0x32
 9374 211c 9F       		.byte	0x9f
 9375 211d B2000000 		.4byte	.LVL336
 9376 2121 C0000000 		.4byte	.LVL339
 9377 2125 0200     		.2byte	0x2
 9378 2127 33       		.byte	0x33
 9379 2128 9F       		.byte	0x9f
 9380 2129 C0000000 		.4byte	.LVL339
 9381 212d CE000000 		.4byte	.LVL342
 9382 2131 0200     		.2byte	0x2
 9383 2133 34       		.byte	0x34
 9384 2134 9F       		.byte	0x9f
 9385 2135 CE000000 		.4byte	.LVL342
 9386 2139 DC000000 		.4byte	.LVL345
 9387 213d 0200     		.2byte	0x2
 9388 213f 35       		.byte	0x35
ARM GAS  C:\Users\young\AppData\Local\Temp\ccZHlxL6.s 			page 196


 9389 2140 9F       		.byte	0x9f
 9390 2141 DC000000 		.4byte	.LVL345
 9391 2145 EA000000 		.4byte	.LVL348
 9392 2149 0200     		.2byte	0x2
 9393 214b 36       		.byte	0x36
 9394 214c 9F       		.byte	0x9f
 9395 214d EA000000 		.4byte	.LVL348
 9396 2151 F8000000 		.4byte	.LVL351
 9397 2155 0200     		.2byte	0x2
 9398 2157 37       		.byte	0x37
 9399 2158 9F       		.byte	0x9f
 9400 2159 F8000000 		.4byte	.LVL351
 9401 215d FC000000 		.4byte	.LVL352
 9402 2161 0200     		.2byte	0x2
 9403 2163 38       		.byte	0x38
 9404 2164 9F       		.byte	0x9f
 9405 2165 00000000 		.4byte	0
 9406 2169 00000000 		.4byte	0
 9407              	.LLST148:
 9408 216d 38000000 		.4byte	.LVL309
 9409 2171 7E000000 		.4byte	.LVL323
 9410 2175 0600     		.2byte	0x6
 9411 2177 72       		.byte	0x72
 9412 2178 00       		.sleb128 0
 9413 2179 91       		.byte	0x91
 9414 217a 49       		.sleb128 -55
 9415 217b 1C       		.byte	0x1c
 9416 217c 9F       		.byte	0x9f
 9417 217d 7E000000 		.4byte	.LVL323
 9418 2181 82000000 		.4byte	.LVL324
 9419 2185 0800     		.2byte	0x8
 9420 2187 72       		.byte	0x72
 9421 2188 00       		.sleb128 0
 9422 2189 91       		.byte	0x91
 9423 218a 49       		.sleb128 -55
 9424 218b 1C       		.byte	0x1c
 9425 218c 23       		.byte	0x23
 9426 218d 01       		.uleb128 0x1
 9427 218e 9F       		.byte	0x9f
 9428 218f 86000000 		.4byte	.LVL325
 9429 2193 F8000000 		.4byte	.LVL351
 9430 2197 0600     		.2byte	0x6
 9431 2199 72       		.byte	0x72
 9432 219a 00       		.sleb128 0
 9433 219b 91       		.byte	0x91
 9434 219c 49       		.sleb128 -55
 9435 219d 1C       		.byte	0x1c
 9436 219e 9F       		.byte	0x9f
 9437 219f F8000000 		.4byte	.LVL351
 9438 21a3 FC000000 		.4byte	.LVL352
 9439 21a7 0800     		.2byte	0x8
 9440 21a9 72       		.byte	0x72
 9441 21aa 00       		.sleb128 0
 9442 21ab 91       		.byte	0x91
 9443 21ac 49       		.sleb128 -55
 9444 21ad 1C       		.byte	0x1c
 9445 21ae 23       		.byte	0x23
ARM GAS  C:\Users\young\AppData\Local\Temp\ccZHlxL6.s 			page 197


 9446 21af 01       		.uleb128 0x1
 9447 21b0 9F       		.byte	0x9f
 9448 21b1 00000000 		.4byte	0
 9449 21b5 00000000 		.4byte	0
 9450              	.LLST149:
 9451 21b9 08010000 		.4byte	.LVL354
 9452 21bd 12010000 		.4byte	.LVL356
 9453 21c1 0100     		.2byte	0x1
 9454 21c3 55       		.byte	0x55
 9455 21c4 32010000 		.4byte	.LVL363
 9456 21c8 56010000 		.4byte	.LFE3
 9457 21cc 0100     		.2byte	0x1
 9458 21ce 55       		.byte	0x55
 9459 21cf 00000000 		.4byte	0
 9460 21d3 00000000 		.4byte	0
 9461              	.LLST150:
 9462 21d7 08010000 		.4byte	.LVL354
 9463 21db 12010000 		.4byte	.LVL356
 9464 21df 0100     		.2byte	0x1
 9465 21e1 5D       		.byte	0x5d
 9466 21e2 32010000 		.4byte	.LVL363
 9467 21e6 56010000 		.4byte	.LFE3
 9468 21ea 0100     		.2byte	0x1
 9469 21ec 5D       		.byte	0x5d
 9470 21ed 00000000 		.4byte	0
 9471 21f1 00000000 		.4byte	0
 9472              	.LLST151:
 9473 21f5 08010000 		.4byte	.LVL354
 9474 21f9 12010000 		.4byte	.LVL356
 9475 21fd 0100     		.2byte	0x1
 9476 21ff 54       		.byte	0x54
 9477 2200 32010000 		.4byte	.LVL363
 9478 2204 56010000 		.4byte	.LFE3
 9479 2208 0100     		.2byte	0x1
 9480 220a 54       		.byte	0x54
 9481 220b 00000000 		.4byte	0
 9482 220f 00000000 		.4byte	0
 9483              	.LLST152:
 9484 2213 08010000 		.4byte	.LVL354
 9485 2217 0E010000 		.4byte	.LVL355
 9486 221b 0100     		.2byte	0x1
 9487 221d 54       		.byte	0x54
 9488 221e 32010000 		.4byte	.LVL363
 9489 2222 3E010000 		.4byte	.LVL366
 9490 2226 0100     		.2byte	0x1
 9491 2228 54       		.byte	0x54
 9492 2229 3E010000 		.4byte	.LVL366
 9493 222d 4D010000 		.4byte	.LVL367-1
 9494 2231 0B00     		.2byte	0xb
 9495 2233 75       		.byte	0x75
 9496 2234 00       		.sleb128 0
 9497 2235 06       		.byte	0x6
 9498 2236 75       		.byte	0x75
 9499 2237 18       		.sleb128 24
 9500 2238 06       		.byte	0x6
 9501 2239 1C       		.byte	0x1c
 9502 223a 74       		.byte	0x74
ARM GAS  C:\Users\young\AppData\Local\Temp\ccZHlxL6.s 			page 198


 9503 223b 00       		.sleb128 0
 9504 223c 22       		.byte	0x22
 9505 223d 9F       		.byte	0x9f
 9506 223e 00000000 		.4byte	0
 9507 2242 00000000 		.4byte	0
 9508              	.LLST153:
 9509 2246 0E010000 		.4byte	.LVL355
 9510 224a 12010000 		.4byte	.LVL356
 9511 224e 0200     		.2byte	0x2
 9512 2250 30       		.byte	0x30
 9513 2251 9F       		.byte	0x9f
 9514 2252 32010000 		.4byte	.LVL363
 9515 2256 3E010000 		.4byte	.LVL366
 9516 225a 0200     		.2byte	0x2
 9517 225c 34       		.byte	0x34
 9518 225d 9F       		.byte	0x9f
 9519 225e 52010000 		.4byte	.LVL368
 9520 2262 56010000 		.4byte	.LFE3
 9521 2266 0200     		.2byte	0x2
 9522 2268 34       		.byte	0x34
 9523 2269 9F       		.byte	0x9f
 9524 226a 00000000 		.4byte	0
 9525 226e 00000000 		.4byte	0
 9526              	.LLST154:
 9527 2272 08010000 		.4byte	.LVL354
 9528 2276 1A010000 		.4byte	.LVL358
 9529 227a 0100     		.2byte	0x1
 9530 227c 55       		.byte	0x55
 9531 227d 32010000 		.4byte	.LVL363
 9532 2281 56010000 		.4byte	.LFE3
 9533 2285 0100     		.2byte	0x1
 9534 2287 55       		.byte	0x55
 9535 2288 00000000 		.4byte	0
 9536 228c 00000000 		.4byte	0
 9537              	.LLST155:
 9538 2290 32010000 		.4byte	.LVL363
 9539 2294 3E010000 		.4byte	.LVL366
 9540 2298 0100     		.2byte	0x1
 9541 229a 5D       		.byte	0x5d
 9542 229b 00000000 		.4byte	0
 9543 229f 00000000 		.4byte	0
 9544              	.LLST156:
 9545 22a3 32010000 		.4byte	.LVL363
 9546 22a7 3E010000 		.4byte	.LVL366
 9547 22ab 0100     		.2byte	0x1
 9548 22ad 54       		.byte	0x54
 9549 22ae 00000000 		.4byte	0
 9550 22b2 00000000 		.4byte	0
 9551              	.LLST157:
 9552 22b6 32010000 		.4byte	.LVL363
 9553 22ba 3E010000 		.4byte	.LVL366
 9554 22be 0200     		.2byte	0x2
 9555 22c0 34       		.byte	0x34
 9556 22c1 9F       		.byte	0x9f
 9557 22c2 00000000 		.4byte	0
 9558 22c6 00000000 		.4byte	0
 9559              	.LLST158:
ARM GAS  C:\Users\young\AppData\Local\Temp\ccZHlxL6.s 			page 199


 9560 22ca 36010000 		.4byte	.LVL364
 9561 22ce 3C010000 		.4byte	.LVL365
 9562 22d2 0100     		.2byte	0x1
 9563 22d4 50       		.byte	0x50
 9564 22d5 00000000 		.4byte	0
 9565 22d9 00000000 		.4byte	0
 9566              	.LLST159:
 9567 22dd 32010000 		.4byte	.LVL363
 9568 22e1 35010000 		.4byte	.LVL364-1
 9569 22e5 0100     		.2byte	0x1
 9570 22e7 50       		.byte	0x50
 9571 22e8 35010000 		.4byte	.LVL364-1
 9572 22ec 3E010000 		.4byte	.LVL366
 9573 22f0 0500     		.2byte	0x5
 9574 22f2 74       		.byte	0x74
 9575 22f3 00       		.sleb128 0
 9576 22f4 36       		.byte	0x36
 9577 22f5 25       		.byte	0x25
 9578 22f6 9F       		.byte	0x9f
 9579 22f7 00000000 		.4byte	0
 9580 22fb 00000000 		.4byte	0
 9581              	.LLST160:
 9582 22ff 3E010000 		.4byte	.LVL366
 9583 2303 4D010000 		.4byte	.LVL367-1
 9584 2307 0B00     		.2byte	0xb
 9585 2309 75       		.byte	0x75
 9586 230a 00       		.sleb128 0
 9587 230b 06       		.byte	0x6
 9588 230c 75       		.byte	0x75
 9589 230d 18       		.sleb128 24
 9590 230e 06       		.byte	0x6
 9591 230f 1C       		.byte	0x1c
 9592 2310 74       		.byte	0x74
 9593 2311 00       		.sleb128 0
 9594 2312 22       		.byte	0x22
 9595 2313 9F       		.byte	0x9f
 9596 2314 00000000 		.4byte	0
 9597 2318 00000000 		.4byte	0
 9598              	.LLST161:
 9599 231c 4E010000 		.4byte	.LVL367
 9600 2320 54010000 		.4byte	.LVL369
 9601 2324 0100     		.2byte	0x1
 9602 2326 50       		.byte	0x50
 9603 2327 00000000 		.4byte	0
 9604 232b 00000000 		.4byte	0
 9605              	.LLST162:
 9606 232f 3E010000 		.4byte	.LVL366
 9607 2333 4D010000 		.4byte	.LVL367-1
 9608 2337 0D00     		.2byte	0xd
 9609 2339 75       		.byte	0x75
 9610 233a 00       		.sleb128 0
 9611 233b 06       		.byte	0x6
 9612 233c 75       		.byte	0x75
 9613 233d 18       		.sleb128 24
 9614 233e 06       		.byte	0x6
 9615 233f 1C       		.byte	0x1c
 9616 2340 74       		.byte	0x74
ARM GAS  C:\Users\young\AppData\Local\Temp\ccZHlxL6.s 			page 200


 9617 2341 00       		.sleb128 0
 9618 2342 22       		.byte	0x22
 9619 2343 36       		.byte	0x36
 9620 2344 25       		.byte	0x25
 9621 2345 9F       		.byte	0x9f
 9622 2346 00000000 		.4byte	0
 9623 234a 00000000 		.4byte	0
 9624              	.LLST163:
 9625 234e 1C010000 		.4byte	.LVL359
 9626 2352 2A010000 		.4byte	.LVL361
 9627 2356 0100     		.2byte	0x1
 9628 2358 55       		.byte	0x55
 9629 2359 00000000 		.4byte	0
 9630 235d 00000000 		.4byte	0
 9631              	.LLST164:
 9632 2361 1C010000 		.4byte	.LVL359
 9633 2365 2A010000 		.4byte	.LVL361
 9634 2369 0600     		.2byte	0x6
 9635 236b F2       		.byte	0xf2
 9636 236c F6100000 		.4byte	.Ldebug_info0+4342
 9637 2370 00       		.sleb128 0
 9638 2371 00000000 		.4byte	0
 9639 2375 00000000 		.4byte	0
 9640              	.LLST165:
 9641 2379 1C010000 		.4byte	.LVL359
 9642 237d 2A010000 		.4byte	.LVL361
 9643 2381 0600     		.2byte	0x6
 9644 2383 F2       		.byte	0xf2
 9645 2384 E6100000 		.4byte	.Ldebug_info0+4326
 9646 2388 00       		.sleb128 0
 9647 2389 00000000 		.4byte	0
 9648 238d 00000000 		.4byte	0
 9649              	.LLST166:
 9650 2391 1C010000 		.4byte	.LVL359
 9651 2395 2A010000 		.4byte	.LVL361
 9652 2399 0100     		.2byte	0x1
 9653 239b 53       		.byte	0x53
 9654 239c 00000000 		.4byte	0
 9655 23a0 00000000 		.4byte	0
 9656              	.LLST167:
 9657 23a4 00000000 		.4byte	.LVL370
 9658 23a8 04000000 		.4byte	.LVL371
 9659 23ac 0100     		.2byte	0x1
 9660 23ae 50       		.byte	0x50
 9661 23af 04000000 		.4byte	.LVL371
 9662 23b3 06000000 		.4byte	.LFE4
 9663 23b7 0400     		.2byte	0x4
 9664 23b9 F3       		.byte	0xf3
 9665 23ba 01       		.uleb128 0x1
 9666 23bb 50       		.byte	0x50
 9667 23bc 9F       		.byte	0x9f
 9668 23bd 00000000 		.4byte	0
 9669 23c1 00000000 		.4byte	0
 9670              		.section	.debug_aranges,"",%progbits
 9671 0000 44000000 		.4byte	0x44
 9672 0004 0200     		.2byte	0x2
 9673 0006 00000000 		.4byte	.Ldebug_info0
ARM GAS  C:\Users\young\AppData\Local\Temp\ccZHlxL6.s 			page 201


 9674 000a 04       		.byte	0x4
 9675 000b 00       		.byte	0
 9676 000c 0000     		.2byte	0
 9677 000e 0000     		.2byte	0
 9678 0010 00000000 		.4byte	.LFB17
 9679 0014 98020000 		.4byte	.LFE17-.LFB17
 9680 0018 00000000 		.4byte	.LFB0
 9681 001c 4E020000 		.4byte	.LFE0-.LFB0
 9682 0020 00000000 		.4byte	.LFB1
 9683 0024 E0020000 		.4byte	.LFE1-.LFB1
 9684 0028 00000000 		.4byte	.LFB2
 9685 002c 98030000 		.4byte	.LFE2-.LFB2
 9686 0030 00000000 		.4byte	.LFB3
 9687 0034 56010000 		.4byte	.LFE3-.LFB3
 9688 0038 00000000 		.4byte	.LFB4
 9689 003c 06000000 		.4byte	.LFE4-.LFB4
 9690 0040 00000000 		.4byte	0
 9691 0044 00000000 		.4byte	0
 9692              		.section	.debug_ranges,"",%progbits
 9693              	.Ldebug_ranges0:
 9694 0000 30000000 		.4byte	.LBB72
 9695 0004 58000000 		.4byte	.LBE72
 9696 0008 4A020000 		.4byte	.LBB101
 9697 000c 4E020000 		.4byte	.LBE101
 9698 0010 00000000 		.4byte	0
 9699 0014 00000000 		.4byte	0
 9700 0018 7E000000 		.4byte	.LBB75
 9701 001c 80000000 		.4byte	.LBE75
 9702 0020 86000000 		.4byte	.LBB78
 9703 0024 AE000000 		.4byte	.LBE78
 9704 0028 00000000 		.4byte	0
 9705 002c 00000000 		.4byte	0
 9706 0030 CA000000 		.4byte	.LBB81
 9707 0034 CC000000 		.4byte	.LBE81
 9708 0038 EA000000 		.4byte	.LBB84
 9709 003c E4010000 		.4byte	.LBE84
 9710 0040 00000000 		.4byte	0
 9711 0044 00000000 		.4byte	0
 9712 0048 E4010000 		.4byte	.LBB85
 9713 004c E8010000 		.4byte	.LBE85
 9714 0050 EA010000 		.4byte	.LBB88
 9715 0054 EE010000 		.4byte	.LBE88
 9716 0058 00000000 		.4byte	0
 9717 005c 00000000 		.4byte	0
 9718 0060 EE010000 		.4byte	.LBB89
 9719 0064 02020000 		.4byte	.LBE89
 9720 0068 06020000 		.4byte	.LBB95
 9721 006c 08020000 		.4byte	.LBE95
 9722 0070 00000000 		.4byte	0
 9723 0074 00000000 		.4byte	0
 9724 0078 02020000 		.4byte	.LBB92
 9725 007c 06020000 		.4byte	.LBE92
 9726 0080 08020000 		.4byte	.LBB96
 9727 0084 0E020000 		.4byte	.LBE96
 9728 0088 00000000 		.4byte	0
 9729 008c 00000000 		.4byte	0
 9730 0090 1A020000 		.4byte	.LBB97
ARM GAS  C:\Users\young\AppData\Local\Temp\ccZHlxL6.s 			page 202


 9731 0094 3C020000 		.4byte	.LBE97
 9732 0098 44020000 		.4byte	.LBB100
 9733 009c 48020000 		.4byte	.LBE100
 9734 00a0 00000000 		.4byte	0
 9735 00a4 00000000 		.4byte	0
 9736 00a8 32000000 		.4byte	.LBB102
 9737 00ac 4A010000 		.4byte	.LBE102
 9738 00b0 4E010000 		.4byte	.LBB112
 9739 00b4 54010000 		.4byte	.LBE112
 9740 00b8 68010000 		.4byte	.LBB113
 9741 00bc 76010000 		.4byte	.LBE113
 9742 00c0 7A010000 		.4byte	.LBB114
 9743 00c4 90010000 		.4byte	.LBE114
 9744 00c8 9A010000 		.4byte	.LBB115
 9745 00cc A8020000 		.4byte	.LBE115
 9746 00d0 AC020000 		.4byte	.LBB116
 9747 00d4 E0020000 		.4byte	.LBE116
 9748 00d8 00000000 		.4byte	0
 9749 00dc 00000000 		.4byte	0
 9750 00e0 A0000000 		.4byte	.LBB103
 9751 00e4 A6000000 		.4byte	.LBE103
 9752 00e8 7A010000 		.4byte	.LBB104
 9753 00ec 7E010000 		.4byte	.LBE104
 9754 00f0 D0020000 		.4byte	.LBB111
 9755 00f4 D8020000 		.4byte	.LBE111
 9756 00f8 00000000 		.4byte	0
 9757 00fc 00000000 		.4byte	0
 9758 0100 58020000 		.4byte	.LBB107
 9759 0104 A2020000 		.4byte	.LBE107
 9760 0108 AC020000 		.4byte	.LBB110
 9761 010c CE020000 		.4byte	.LBE110
 9762 0110 00000000 		.4byte	0
 9763 0114 00000000 		.4byte	0
 9764 0118 66020000 		.4byte	.LBB108
 9765 011c A2020000 		.4byte	.LBE108
 9766 0120 B6020000 		.4byte	.LBB109
 9767 0124 CE020000 		.4byte	.LBE109
 9768 0128 00000000 		.4byte	0
 9769 012c 00000000 		.4byte	0
 9770 0130 38000000 		.4byte	.LBB132
 9771 0134 44000000 		.4byte	.LBE132
 9772 0138 46000000 		.4byte	.LBB159
 9773 013c 48000000 		.4byte	.LBE159
 9774 0140 4C000000 		.4byte	.LBB160
 9775 0144 BE020000 		.4byte	.LBE160
 9776 0148 CC020000 		.4byte	.LBB161
 9777 014c 42030000 		.4byte	.LBE161
 9778 0150 46030000 		.4byte	.LBB162
 9779 0154 98030000 		.4byte	.LBE162
 9780 0158 00000000 		.4byte	0
 9781 015c 00000000 		.4byte	0
 9782 0160 4E000000 		.4byte	.LBB133
 9783 0164 AE020000 		.4byte	.LBE133
 9784 0168 CC020000 		.4byte	.LBB157
 9785 016c 42030000 		.4byte	.LBE157
 9786 0170 46030000 		.4byte	.LBB158
 9787 0174 98030000 		.4byte	.LBE158
ARM GAS  C:\Users\young\AppData\Local\Temp\ccZHlxL6.s 			page 203


 9788 0178 00000000 		.4byte	0
 9789 017c 00000000 		.4byte	0
 9790 0180 52000000 		.4byte	.LBB134
 9791 0184 94000000 		.4byte	.LBE134
 9792 0188 64030000 		.4byte	.LBB155
 9793 018c 68030000 		.4byte	.LBE155
 9794 0190 76030000 		.4byte	.LBB156
 9795 0194 7A030000 		.4byte	.LBE156
 9796 0198 00000000 		.4byte	0
 9797 019c 00000000 		.4byte	0
 9798 01a0 EA000000 		.4byte	.LBB138
 9799 01a4 EE000000 		.4byte	.LBE138
 9800 01a8 8E010000 		.4byte	.LBB148
 9801 01ac 88020000 		.4byte	.LBE148
 9802 01b0 00000000 		.4byte	0
 9803 01b4 00000000 		.4byte	0
 9804 01b8 1C010000 		.4byte	.LBB143
 9805 01bc 68010000 		.4byte	.LBE143
 9806 01c0 DC020000 		.4byte	.LBB151
 9807 01c4 04030000 		.4byte	.LBE151
 9808 01c8 14030000 		.4byte	.LBB152
 9809 01cc 18030000 		.4byte	.LBE152
 9810 01d0 00000000 		.4byte	0
 9811 01d4 00000000 		.4byte	0
 9812 01d8 08010000 		.4byte	.LBB177
 9813 01dc 12010000 		.4byte	.LBE177
 9814 01e0 2C010000 		.4byte	.LBB190
 9815 01e4 30010000 		.4byte	.LBE190
 9816 01e8 32010000 		.4byte	.LBB191
 9817 01ec 3A010000 		.4byte	.LBE191
 9818 01f0 3E010000 		.4byte	.LBB192
 9819 01f4 52010000 		.4byte	.LBE192
 9820 01f8 00000000 		.4byte	0
 9821 01fc 00000000 		.4byte	0
 9822 0200 2C010000 		.4byte	.LBB179
 9823 0204 30010000 		.4byte	.LBE179
 9824 0208 32010000 		.4byte	.LBB182
 9825 020c 3A010000 		.4byte	.LBE182
 9826 0210 00000000 		.4byte	0
 9827 0214 00000000 		.4byte	0
 9828 0218 00000000 		.4byte	.LFB17
 9829 021c 98020000 		.4byte	.LFE17
 9830 0220 00000000 		.4byte	.LFB0
 9831 0224 4E020000 		.4byte	.LFE0
 9832 0228 00000000 		.4byte	.LFB1
 9833 022c E0020000 		.4byte	.LFE1
 9834 0230 00000000 		.4byte	.LFB2
 9835 0234 98030000 		.4byte	.LFE2
 9836 0238 00000000 		.4byte	.LFB3
 9837 023c 56010000 		.4byte	.LFE3
 9838 0240 00000000 		.4byte	.LFB4
 9839 0244 06000000 		.4byte	.LFE4
 9840 0248 00000000 		.4byte	0
 9841 024c 00000000 		.4byte	0
 9842              		.section	.debug_line,"",%progbits
 9843              	.Ldebug_line0:
 9844 0000 58040000 		.section	.debug_str,"MS",%progbits,1
ARM GAS  C:\Users\young\AppData\Local\Temp\ccZHlxL6.s 			page 204


 9844      02006800 
 9844      00000201 
 9844      FB0E0D00 
 9844      01010101 
 9845              	.LASF10:
 9846 0000 75696E74 		.ascii	"uint16\000"
 9846      313600
 9847              	.LASF62:
 9848 0007 726F7754 		.ascii	"rowToWrPtr\000"
 9848      6F577250 
 9848      747200
 9849              	.LASF91:
 9850 0012 746D7044 		.ascii	"tmpData\000"
 9850      61746100 
 9851              	.LASF33:
 9852 001a 63795F65 		.ascii	"cy_en_em_eeprom_status_t\000"
 9852      6E5F656D 
 9852      5F656570 
 9852      726F6D5F 
 9852      73746174 
 9853              	.LASF40:
 9854 0033 656D4565 		.ascii	"emEepromAddr\000"
 9854      70726F6D 
 9854      41646472 
 9854      00
 9855              	.LASF41:
 9856 0040 726F774E 		.ascii	"rowNum\000"
 9856      756D00
 9857              	.LASF25:
 9858 0047 6E756D62 		.ascii	"numberOfRows\000"
 9858      65724F66 
 9858      526F7773 
 9858      00
 9859              	.LASF92:
 9860 0054 6E756D57 		.ascii	"numWrites\000"
 9860      72697465 
 9860      7300
 9861              	.LASF7:
 9862 005e 6C6F6E67 		.ascii	"long long unsigned int\000"
 9862      206C6F6E 
 9862      6720756E 
 9862      7369676E 
 9862      65642069 
 9863              	.LASF66:
 9864 0075 61646472 		.ascii	"addr\000"
 9864      00
 9865              	.LASF18:
 9866 007a 65657072 		.ascii	"eepromSize\000"
 9866      6F6D5369 
 9866      7A6500
 9867              	.LASF102:
 9868 0085 474E5520 		.ascii	"GNU C11 5.4.1 20160609 (release) [ARM/embedded-5-br"
 9868      43313120 
 9868      352E342E 
 9868      31203230 
 9868      31363036 
 9869 00b8 616E6368 		.ascii	"anch revision 237715] -mcpu=cortex-m0 -mthumb -g -O"
ARM GAS  C:\Users\young\AppData\Local\Temp\ccZHlxL6.s 			page 205


 9869      20726576 
 9869      6973696F 
 9869      6E203233 
 9869      37373135 
 9870 00eb 33202D66 		.ascii	"3 -ffunction-sections -ffat-lto-objects\000"
 9870      66756E63 
 9870      74696F6E 
 9870      2D736563 
 9870      74696F6E 
 9871              	.LASF6:
 9872 0113 6C6F6E67 		.ascii	"long long int\000"
 9872      206C6F6E 
 9872      6720696E 
 9872      7400
 9873              	.LASF0:
 9874 0121 7369676E 		.ascii	"signed char\000"
 9874      65642063 
 9874      68617200 
 9875              	.LASF37:
 9876 012d 57726974 		.ascii	"WriteRow\000"
 9876      65526F77 
 9876      00
 9877              	.LASF60:
 9878 0136 46696E64 		.ascii	"FindLastWrittenRow\000"
 9878      4C617374 
 9878      57726974 
 9878      74656E52 
 9878      6F7700
 9879              	.LASF103:
 9880 0149 47656E65 		.ascii	"Generated_Source\\PSoC4\\cy_em_eeprom.c\000"
 9880      72617465 
 9880      645F536F 
 9880      75726365 
 9880      5C50536F 
 9881              	.LASF32:
 9882 016f 43595F45 		.ascii	"CY_EM_EEPROM_WRITE_FAIL\000"
 9882      4D5F4545 
 9882      50524F4D 
 9882      5F575249 
 9882      54455F46 
 9883              	.LASF99:
 9884 0187 43795F45 		.ascii	"Cy_Em_EEPROM_NumWrites\000"
 9884      6D5F4545 
 9884      50524F4D 
 9884      5F4E756D 
 9884      57726974 
 9885              	.LASF4:
 9886 019e 6C6F6E67 		.ascii	"long int\000"
 9886      20696E74 
 9886      00
 9887              	.LASF22:
 9888 01a7 75736572 		.ascii	"userFlashStartAddr\000"
 9888      466C6173 
 9888      68537461 
 9888      72744164 
 9888      647200
 9889              	.LASF100:
ARM GAS  C:\Users\young\AppData\Local\Temp\ccZHlxL6.s 			page 206


 9890 01ba 6D656D63 		.ascii	"memcpy\000"
 9890      707900
 9891              	.LASF9:
 9892 01c1 75696E74 		.ascii	"uint8\000"
 9892      3800
 9893              	.LASF13:
 9894 01c7 646F7562 		.ascii	"double\000"
 9894      6C6500
 9895              	.LASF11:
 9896 01ce 75696E74 		.ascii	"uint32\000"
 9896      333200
 9897              	.LASF73:
 9898 01d5 61637445 		.ascii	"actEepromRowNum\000"
 9898      6570726F 
 9898      6D526F77 
 9898      4E756D00 
 9899              	.LASF93:
 9900 01e5 65654865 		.ascii	"eeHeaderDataOffset\000"
 9900      61646572 
 9900      44617461 
 9900      4F666673 
 9900      657400
 9901              	.LASF78:
 9902 01f8 75706461 		.ascii	"updateAddrFlag\000"
 9902      74654164 
 9902      6472466C 
 9902      616700
 9903              	.LASF55:
 9904 0207 6E756D52 		.ascii	"numRows\000"
 9904      6F777300 
 9905              	.LASF59:
 9906 020f 746D7052 		.ascii	"tmpRowAddr\000"
 9906      6F774164 
 9906      647200
 9907              	.LASF97:
 9908 021a 72616D42 		.ascii	"ramBuffAddr\000"
 9908      75666641 
 9908      64647200 
 9909              	.LASF20:
 9910 0226 72656475 		.ascii	"redundantCopy\000"
 9910      6E64616E 
 9910      74436F70 
 9910      7900
 9911              	.LASF95:
 9912 0234 64617461 		.ascii	"dataAddr\000"
 9912      41646472 
 9912      00
 9913              	.LASF8:
 9914 023d 756E7369 		.ascii	"unsigned int\000"
 9914      676E6564 
 9914      20696E74 
 9914      00
 9915              	.LASF47:
 9916 024a 6E756D42 		.ascii	"numBytes\000"
 9916      79746573 
 9916      00
 9917              	.LASF5:
ARM GAS  C:\Users\young\AppData\Local\Temp\ccZHlxL6.s 			page 207


 9918 0253 6C6F6E67 		.ascii	"long unsigned int\000"
 9918      20756E73 
 9918      69676E65 
 9918      6420696E 
 9918      7400
 9919              	.LASF83:
 9920 0265 47657441 		.ascii	"GetAddresses\000"
 9920      64647265 
 9920      73736573 
 9920      00
 9921              	.LASF53:
 9922 0272 6C617374 		.ascii	"lastWrRowPtr\000"
 9922      5772526F 
 9922      77507472 
 9922      00
 9923              	.LASF43:
 9924 027f 43686563 		.ascii	"CheckCrcAndCopy\000"
 9924      6B437263 
 9924      416E6443 
 9924      6F707900 
 9925              	.LASF81:
 9926 028f 7372634F 		.ascii	"srcOffset\000"
 9926      66667365 
 9926      7400
 9927              	.LASF68:
 9928 0299 73697A65 		.ascii	"size\000"
 9928      00
 9929              	.LASF3:
 9930 029e 73686F72 		.ascii	"short unsigned int\000"
 9930      7420756E 
 9930      7369676E 
 9930      65642069 
 9930      6E7400
 9931              	.LASF88:
 9932 02b1 61637445 		.ascii	"actEmEepromRowNum\000"
 9932      6D456570 
 9932      726F6D52 
 9932      6F774E75 
 9932      6D00
 9933              	.LASF63:
 9934 02c3 726F7754 		.ascii	"rowToRdPtr\000"
 9934      6F526450 
 9934      747200
 9935              	.LASF90:
 9936 02ce 656D4565 		.ascii	"emEepromRowRdAddr\000"
 9936      70726F6D 
 9936      526F7752 
 9936      64416464 
 9936      7200
 9937              	.LASF67:
 9938 02e0 65657072 		.ascii	"eepromData\000"
 9938      6F6D4461 
 9938      746100
 9939              	.LASF45:
 9940 02eb 64737441 		.ascii	"dstAddr\000"
 9940      64647200 
 9941              	.LASF72:
ARM GAS  C:\Users\young\AppData\Local\Temp\ccZHlxL6.s 			page 208


 9942 02f3 73746172 		.ascii	"startRowAddr\000"
 9942      74526F77 
 9942      41646472 
 9942      00
 9943              	.LASF70:
 9944 0300 63757245 		.ascii	"curEepromBaseAddr\000"
 9944      6570726F 
 9944      6D426173 
 9944      65416464 
 9944      7200
 9945              	.LASF65:
 9946 0312 43795F45 		.ascii	"Cy_Em_EEPROM_Read\000"
 9946      6D5F4545 
 9946      50524F4D 
 9946      5F526561 
 9946      6400
 9947              	.LASF96:
 9948 0324 45726173 		.ascii	"EraseRow\000"
 9948      65526F77 
 9948      00
 9949              	.LASF29:
 9950 032d 43595F45 		.ascii	"CY_EM_EEPROM_BAD_PARAM\000"
 9950      4D5F4545 
 9950      50524F4D 
 9950      5F424144 
 9950      5F504152 
 9951              	.LASF30:
 9952 0344 43595F45 		.ascii	"CY_EM_EEPROM_BAD_CHECKSUM\000"
 9952      4D5F4545 
 9952      50524F4D 
 9952      5F424144 
 9952      5F434845 
 9953              	.LASF17:
 9954 035e 73697A65 		.ascii	"sizetype\000"
 9954      74797065 
 9954      00
 9955              	.LASF16:
 9956 0367 6C6F6E67 		.ascii	"long double\000"
 9956      20646F75 
 9956      626C6500 
 9957              	.LASF104:
 9958 0373 433A5C55 		.ascii	"C:\\Users\\Public\\touch\\(NowC302)A1_Global_Multi_"
 9958      73657273 
 9958      5C507562 
 9958      6C69635C 
 9958      746F7563 
 9959 03a2 43726561 		.ascii	"Creator4.1_hawkeye\\CapSense_CSD_P4_Example_WithTun"
 9959      746F7234 
 9959      2E315F68 
 9959      61776B65 
 9959      79655C43 
 9960 03d4 65723031 		.ascii	"er01.cydsn\000"
 9960      2E637964 
 9960      736E00
 9961              	.LASF98:
 9962 03df 43795F45 		.ascii	"Cy_Em_EEPROM_Erase\000"
 9962      6D5F4545 
ARM GAS  C:\Users\young\AppData\Local\Temp\ccZHlxL6.s 			page 209


 9962      50524F4D 
 9962      5F457261 
 9962      736500
 9963              	.LASF86:
 9964 03f2 43795F45 		.ascii	"Cy_Em_EEPROM_Write\000"
 9964      6D5F4545 
 9964      50524F4D 
 9964      5F577269 
 9964      746500
 9965              	.LASF34:
 9966 0405 7365714E 		.ascii	"seqNum\000"
 9966      756D00
 9967              	.LASF27:
 9968 040c 63795F73 		.ascii	"cy_stc_eeprom_context_t\000"
 9968      74635F65 
 9968      6570726F 
 9968      6D5F636F 
 9968      6E746578 
 9969              	.LASF61:
 9970 0424 4765744E 		.ascii	"GetNextRowToWrite\000"
 9970      65787452 
 9970      6F77546F 
 9970      57726974 
 9970      6500
 9971              	.LASF56:
 9972 0436 46696C6C 		.ascii	"FillChecksum\000"
 9972      43686563 
 9972      6B73756D 
 9972      00
 9973              	.LASF50:
 9974 0443 43686563 		.ascii	"CheckRanges\000"
 9974      6B52616E 
 9974      67657300 
 9975              	.LASF58:
 9976 044f 77724164 		.ascii	"wrAddr\000"
 9976      647200
 9977              	.LASF87:
 9978 0456 7772436E 		.ascii	"wrCnt\000"
 9978      7400
 9979              	.LASF12:
 9980 045c 666C6F61 		.ascii	"float\000"
 9980      7400
 9981              	.LASF52:
 9982 0462 656E6441 		.ascii	"endAddr\000"
 9982      64647200 
 9983              	.LASF31:
 9984 046a 43595F45 		.ascii	"CY_EM_EEPROM_BAD_DATA\000"
 9984      4D5F4545 
 9984      50524F4D 
 9984      5F424144 
 9984      5F444154 
 9985              	.LASF24:
 9986 0480 776C456E 		.ascii	"wlEndAddr\000"
 9986      64416464 
 9986      7200
 9987              	.LASF1:
 9988 048a 756E7369 		.ascii	"unsigned char\000"
ARM GAS  C:\Users\young\AppData\Local\Temp\ccZHlxL6.s 			page 210


 9988      676E6564 
 9988      20636861 
 9988      7200
 9989              	.LASF38:
 9990 0498 726F7741 		.ascii	"rowAddr\000"
 9990      64647200 
 9991              	.LASF2:
 9992 04a0 73686F72 		.ascii	"short int\000"
 9992      7420696E 
 9992      7400
 9993              	.LASF54:
 9994 04aa 70726576 		.ascii	"prevSeqNum\000"
 9994      5365714E 
 9994      756D00
 9995              	.LASF94:
 9996 04b5 736B6970 		.ascii	"skipOperation\000"
 9996      4F706572 
 9996      6174696F 
 9996      6E00
 9997              	.LASF75:
 9998 04c3 64617461 		.ascii	"dataStartEepromRowNum\000"
 9998      53746172 
 9998      74456570 
 9998      726F6D52 
 9998      6F774E75 
 9999              	.LASF64:
 10000 04d9 43795F45 		.ascii	"Cy_Em_EEPROM_Init\000"
 10000      6D5F4545 
 10000      50524F4D 
 10000      5F496E69 
 10000      7400
 10001              	.LASF48:
 10002 04eb 77726974 		.ascii	"writeRamBuffer\000"
 10002      6552616D 
 10002      42756666 
 10002      657200
 10003              	.LASF46:
 10004 04fa 726F774F 		.ascii	"rowOffset\000"
 10004      66667365 
 10004      7400
 10005              	.LASF49:
 10006 0504 72635374 		.ascii	"rcStartRowAddr\000"
 10006      61727452 
 10006      6F774164 
 10006      647200
 10007              	.LASF14:
 10008 0513 63686172 		.ascii	"char\000"
 10008      00
 10009              	.LASF51:
 10010 0518 636F6E66 		.ascii	"config\000"
 10010      696700
 10011              	.LASF69:
 10012 051f 6E756D42 		.ascii	"numBytesToRead\000"
 10012      79746573 
 10012      546F5265 
 10012      616400
 10013              	.LASF44:
ARM GAS  C:\Users\young\AppData\Local\Temp\ccZHlxL6.s 			page 211


 10014 052e 73746172 		.ascii	"startAddr\000"
 10014      74416464 
 10014      7200
 10015              	.LASF85:
 10016 0538 736B6970 		.ascii	"skip\000"
 10016      00
 10017              	.LASF84:
 10018 053d 6F666673 		.ascii	"offset\000"
 10018      657400
 10019              	.LASF35:
 10020 0544 636F6E74 		.ascii	"context\000"
 10020      65787400 
 10021              	.LASF26:
 10022 054c 6C617374 		.ascii	"lastWrRowAddr\000"
 10022      5772526F 
 10022      77416464 
 10022      7200
 10023              	.LASF71:
 10024 055a 63757252 		.ascii	"curRowOffset\000"
 10024      6F774F66 
 10024      66736574 
 10024      00
 10025              	.LASF23:
 10026 0567 63795F73 		.ascii	"cy_stc_eeprom_config_t\000"
 10026      74635F65 
 10026      6570726F 
 10026      6D5F636F 
 10026      6E666967 
 10027              	.LASF77:
 10028 057e 72645369 		.ascii	"rdSize\000"
 10028      7A6500
 10029              	.LASF19:
 10030 0585 77656172 		.ascii	"wearLevelingFactor\000"
 10030      4C657665 
 10030      6C696E67 
 10030      46616374 
 10030      6F7200
 10031              	.LASF101:
 10032 0598 6D656D73 		.ascii	"memset\000"
 10032      657400
 10033              	.LASF57:
 10034 059f 72644164 		.ascii	"rdAddr\000"
 10034      647200
 10035              	.LASF82:
 10036 05a6 6473744F 		.ascii	"dstOffset\000"
 10036      66667365 
 10036      7400
 10037              	.LASF105:
 10038 05b0 43795379 		.ascii	"CySysFlashWriteRow\000"
 10038      73466C61 
 10038      73685772 
 10038      69746552 
 10038      6F7700
 10039              	.LASF36:
 10040 05c3 47657452 		.ascii	"GetRowAddrBySeqNum\000"
 10040      6F774164 
 10040      64724279 
ARM GAS  C:\Users\young\AppData\Local\Temp\ccZHlxL6.s 			page 212


 10040      5365714E 
 10040      756D00
 10041              	.LASF28:
 10042 05d6 43595F45 		.ascii	"CY_EM_EEPROM_SUCCESS\000"
 10042      4D5F4545 
 10042      50524F4D 
 10042      5F535543 
 10042      43455353 
 10043              	.LASF21:
 10044 05eb 626C6F63 		.ascii	"blockingWrite\000"
 10044      6B696E67 
 10044      57726974 
 10044      6500
 10045              	.LASF74:
 10046 05f9 63757252 		.ascii	"curRdEepromRowNum\000"
 10046      64456570 
 10046      726F6D52 
 10046      6F774E75 
 10046      6D00
 10047              	.LASF15:
 10048 060b 63797374 		.ascii	"cystatus\000"
 10048      61747573 
 10048      00
 10049              	.LASF42:
 10050 0614 43616C63 		.ascii	"CalcChecksum\000"
 10050      43686563 
 10050      6B73756D 
 10050      00
 10051              	.LASF39:
 10052 0621 726F7744 		.ascii	"rowData\000"
 10052      61746100 
 10053              	.LASF80:
 10054 0629 64617461 		.ascii	"dataEndEepromRowNum\000"
 10054      456E6445 
 10054      6570726F 
 10054      6D526F77 
 10054      4E756D00 
 10055              	.LASF79:
 10056 063d 6E756D52 		.ascii	"numRowReads\000"
 10056      6F775265 
 10056      61647300 
 10057              	.LASF89:
 10058 0649 656D4565 		.ascii	"emEepromRowAddr\000"
 10058      70726F6D 
 10058      526F7741 
 10058      64647200 
 10059              	.LASF76:
 10060 0659 65654461 		.ascii	"eeData\000"
 10060      746100
 10061              		.ident	"GCC: (GNU Tools for ARM Embedded Processors) 5.4.1 20160609 (release) [ARM/embedded-5-bran
