ARM GAS  C:\Users\young\AppData\Local\Temp\cc1lbVO5.s 			page 1


   1              		.syntax unified
   2              		.cpu cortex-m0
   3              		.fpu softvfp
   4              		.eabi_attribute 20, 1
   5              		.eabi_attribute 21, 1
   6              		.eabi_attribute 23, 3
   7              		.eabi_attribute 24, 1
   8              		.eabi_attribute 25, 1
   9              		.eabi_attribute 26, 1
  10              		.eabi_attribute 30, 2
  11              		.eabi_attribute 34, 0
  12              		.eabi_attribute 18, 4
  13              		.thumb
  14              		.syntax unified
  15              		.file	"CyFlash.c"
  16              		.text
  17              	.Ltext0:
  18              		.cfi_sections	.debug_frame
  19              		.section	.text.CySysFlashWriteRow,"ax",%progbits
  20              		.align	2
  21              		.global	CySysFlashWriteRow
  22              		.code	16
  23              		.thumb_func
  24              		.type	CySysFlashWriteRow, %function
  25              	CySysFlashWriteRow:
  26              	.LFB0:
  27              		.file 1 "Generated_Source\\PSoC4\\CyFlash.c"
   1:Generated_Source\PSoC4/CyFlash.c **** /***************************************************************************//**
   2:Generated_Source\PSoC4/CyFlash.c **** * \file CyFlash.c
   3:Generated_Source\PSoC4/CyFlash.c **** * \version 5.60
   4:Generated_Source\PSoC4/CyFlash.c **** *
   5:Generated_Source\PSoC4/CyFlash.c **** * \brief Provides an API for the FLASH.
   6:Generated_Source\PSoC4/CyFlash.c **** *
   7:Generated_Source\PSoC4/CyFlash.c **** * \note This code is endian agnostic.
   8:Generated_Source\PSoC4/CyFlash.c **** *
   9:Generated_Source\PSoC4/CyFlash.c **** * \note Documentation of the API's in this file is located in the System
  10:Generated_Source\PSoC4/CyFlash.c **** * Reference Guide provided with PSoC Creator.
  11:Generated_Source\PSoC4/CyFlash.c **** *
  12:Generated_Source\PSoC4/CyFlash.c **** ********************************************************************************
  13:Generated_Source\PSoC4/CyFlash.c **** * \copyright
  14:Generated_Source\PSoC4/CyFlash.c **** * Copyright 2010-2017, Cypress Semiconductor Corporation.  All rights reserved.
  15:Generated_Source\PSoC4/CyFlash.c **** * You may use this file only in accordance with the license, terms, conditions,
  16:Generated_Source\PSoC4/CyFlash.c **** * disclaimers, and limitations in the end user license agreement accompanying
  17:Generated_Source\PSoC4/CyFlash.c **** * the software package with which this file was provided.
  18:Generated_Source\PSoC4/CyFlash.c **** *******************************************************************************/
  19:Generated_Source\PSoC4/CyFlash.c **** 
  20:Generated_Source\PSoC4/CyFlash.c **** #include "CyFlash.h"
  21:Generated_Source\PSoC4/CyFlash.c **** 
  22:Generated_Source\PSoC4/CyFlash.c **** 
  23:Generated_Source\PSoC4/CyFlash.c **** /*******************************************************************************
  24:Generated_Source\PSoC4/CyFlash.c **** * Cypress identified a defect with the Flash write functionality of the
  25:Generated_Source\PSoC4/CyFlash.c **** * PSoC 4000, PSoC 4000U, PSoC 4100, and PSoC 4200 devices. The 
  26:Generated_Source\PSoC4/CyFlash.c **** * CySysFlashWriteRow() function now checks the data to be written and, if 
  27:Generated_Source\PSoC4/CyFlash.c **** * necessary, modifies it to have a non-zero checksum. After writing to Flash, 
  28:Generated_Source\PSoC4/CyFlash.c **** * the modified data is replaced (Flash program) with 
  29:Generated_Source\PSoC4/CyFlash.c **** * the correct (original) data.
  30:Generated_Source\PSoC4/CyFlash.c **** *******************************************************************************/
ARM GAS  C:\Users\young\AppData\Local\Temp\cc1lbVO5.s 			page 2


  31:Generated_Source\PSoC4/CyFlash.c **** #define CY_FLASH_CHECKSUM_WORKAROUND    (CY_PSOC4_4000 || CY_PSOC4_4100 || CY_PSOC4_4200 || CY_PSOC
  32:Generated_Source\PSoC4/CyFlash.c **** 
  33:Generated_Source\PSoC4/CyFlash.c **** #if (CY_IP_FM || ((!CY_PSOC4_4000) && CY_IP_SPCIF_SYNCHRONOUS) || (!CY_IP_FM) && CY_PSOC4_4000)
  34:Generated_Source\PSoC4/CyFlash.c ****     static CY_SYS_FLASH_CLOCK_BACKUP_STRUCT cySysFlashBackup;
  35:Generated_Source\PSoC4/CyFlash.c **** #endif /* (CY_IP_FM || ((!CY_PSOC4_4000) && CY_IP_SPCIF_SYNCHRONOUS) || (!CY_IP_FM) && CY_PSOC4_400
  36:Generated_Source\PSoC4/CyFlash.c **** 
  37:Generated_Source\PSoC4/CyFlash.c **** static cystatus CySysFlashClockBackup(void);
  38:Generated_Source\PSoC4/CyFlash.c **** static cystatus CySysFlashClockRestore(void);
  39:Generated_Source\PSoC4/CyFlash.c **** #if(CY_IP_SPCIF_SYNCHRONOUS)
  40:Generated_Source\PSoC4/CyFlash.c ****     static cystatus CySysFlashClockConfig(void);
  41:Generated_Source\PSoC4/CyFlash.c **** #endif  /* (CY_IP_SPCIF_SYNCHRONOUS) */
  42:Generated_Source\PSoC4/CyFlash.c **** 
  43:Generated_Source\PSoC4/CyFlash.c **** 
  44:Generated_Source\PSoC4/CyFlash.c **** /*******************************************************************************
  45:Generated_Source\PSoC4/CyFlash.c **** * Function Name: CySysFlashWriteRow
  46:Generated_Source\PSoC4/CyFlash.c **** ****************************************************************************//**
  47:Generated_Source\PSoC4/CyFlash.c **** *
  48:Generated_Source\PSoC4/CyFlash.c **** * Erases a row of Flash and programs it with the new data.
  49:Generated_Source\PSoC4/CyFlash.c **** *
  50:Generated_Source\PSoC4/CyFlash.c **** * The IMO must be enabled before calling this function. The operation of the
  51:Generated_Source\PSoC4/CyFlash.c **** * flash writing hardware is dependent on the IMO.
  52:Generated_Source\PSoC4/CyFlash.c **** *
  53:Generated_Source\PSoC4/CyFlash.c **** * For PSoC 4000, PSoC 4100 BLE and PSoC 4200 BLE devices (PSoC 4100 BLE and
  54:Generated_Source\PSoC4/CyFlash.c **** * PSoC 4200 BLE devices with 256K of Flash memory are not affected), this API
  55:Generated_Source\PSoC4/CyFlash.c **** * will automatically modify the clock settings for the device. Writing to
  56:Generated_Source\PSoC4/CyFlash.c **** * flash requires that changes be made to the IMO and HFCLK settings. The
  57:Generated_Source\PSoC4/CyFlash.c **** * configuration is restored before returning. This will impact the operation
  58:Generated_Source\PSoC4/CyFlash.c **** * of most of the hardware in the device.
  59:Generated_Source\PSoC4/CyFlash.c **** *
  60:Generated_Source\PSoC4/CyFlash.c **** * For PSoC 4000 devices this API will automatically modify the clock settings
  61:Generated_Source\PSoC4/CyFlash.c **** * for the device. Writing to flash requires that changes be made to the IMO
  62:Generated_Source\PSoC4/CyFlash.c **** * and HFCLK settings. The configuration is restored before returning. HFCLK
  63:Generated_Source\PSoC4/CyFlash.c **** * will have several frequency changes during the operation of this API between
  64:Generated_Source\PSoC4/CyFlash.c **** * a minimum frequency of the current IMO frequency divided by 8 and a maximum
  65:Generated_Source\PSoC4/CyFlash.c **** * frequency of 12 MHz. This will impact the operation of most of the hardware
  66:Generated_Source\PSoC4/CyFlash.c **** * in the device.
  67:Generated_Source\PSoC4/CyFlash.c **** *
  68:Generated_Source\PSoC4/CyFlash.c **** * \param rowNum The flash row number. The number of the flash rows is defined by
  69:Generated_Source\PSoC4/CyFlash.c **** * the \ref CY_FLASH_NUMBER_ROWS macro for the selected device. Refer to the
  70:Generated_Source\PSoC4/CyFlash.c **** * device datasheet for the details.
  71:Generated_Source\PSoC4/CyFlash.c **** * \note The target flash array is calculated based on the specified flash row.
  72:Generated_Source\PSoC4/CyFlash.c **** *
  73:Generated_Source\PSoC4/CyFlash.c **** * \param rowData Array of bytes to write. The size of the array must be equal to
  74:Generated_Source\PSoC4/CyFlash.c **** * the flash row size. The flash row size for the selected device is defined by
  75:Generated_Source\PSoC4/CyFlash.c **** * the \ref CY_FLASH_SIZEOF_ROW macro. Refer to the device datasheet for the
  76:Generated_Source\PSoC4/CyFlash.c **** * details.
  77:Generated_Source\PSoC4/CyFlash.c **** *
  78:Generated_Source\PSoC4/CyFlash.c **** * \return \ref group_flash_status_codes
  79:Generated_Source\PSoC4/CyFlash.c **** *
  80:Generated_Source\PSoC4/CyFlash.c **** *******************************************************************************/
  81:Generated_Source\PSoC4/CyFlash.c **** uint32 CySysFlashWriteRow(uint32 rowNum, const uint8 rowData[])
  82:Generated_Source\PSoC4/CyFlash.c **** {
  28              		.loc 1 82 0
  29              		.cfi_startproc
  30              		@ args = 0, pretend = 0, frame = 80
  31              		@ frame_needed = 0, uses_anonymous_args = 0
  32              	.LVL0:
ARM GAS  C:\Users\young\AppData\Local\Temp\cc1lbVO5.s 			page 3


  33 0000 F0B5     		push	{r4, r5, r6, r7, lr}
  34              		.cfi_def_cfa_offset 20
  35              		.cfi_offset 4, -20
  36              		.cfi_offset 5, -16
  37              		.cfi_offset 6, -12
  38              		.cfi_offset 7, -8
  39              		.cfi_offset 14, -4
  40 0002 5646     		mov	r6, r10
  41 0004 5F46     		mov	r7, fp
  42 0006 4D46     		mov	r5, r9
  43 0008 4446     		mov	r4, r8
  83:Generated_Source\PSoC4/CyFlash.c ****     volatile uint32 retValue = CY_SYS_FLASH_SUCCESS;
  44              		.loc 1 83 0
  45 000a 0023     		movs	r3, #0
  82:Generated_Source\PSoC4/CyFlash.c ****     volatile uint32 retValue = CY_SYS_FLASH_SUCCESS;
  46              		.loc 1 82 0
  47 000c F0B4     		push	{r4, r5, r6, r7}
  48              		.cfi_def_cfa_offset 36
  49              		.cfi_offset 8, -36
  50              		.cfi_offset 9, -32
  51              		.cfi_offset 10, -28
  52              		.cfi_offset 11, -24
  53 000e 95B0     		sub	sp, sp, #84
  54              		.cfi_def_cfa_offset 120
  55              		.loc 1 83 0
  56 0010 0093     		str	r3, [sp]
  82:Generated_Source\PSoC4/CyFlash.c ****     volatile uint32 retValue = CY_SYS_FLASH_SUCCESS;
  57              		.loc 1 82 0
  58 0012 0600     		movs	r6, r0
  84:Generated_Source\PSoC4/CyFlash.c ****     volatile uint32 clkCnfRetValue = CY_SYS_FLASH_SUCCESS;
  59              		.loc 1 84 0
  60 0014 0193     		str	r3, [sp, #4]
  61              	.LVL1:
  85:Generated_Source\PSoC4/CyFlash.c ****     volatile uint32 parameters[(CY_FLASH_SIZEOF_ROW + CY_FLASH_SRAM_ROM_DATA) / sizeof(uint32)];
  86:Generated_Source\PSoC4/CyFlash.c ****     uint8  interruptState;
  87:Generated_Source\PSoC4/CyFlash.c **** 
  88:Generated_Source\PSoC4/CyFlash.c ****     #if (CY_FLASH_CHECKSUM_WORKAROUND)
  89:Generated_Source\PSoC4/CyFlash.c ****         uint32 needChecksumWorkaround = 0u;
  90:Generated_Source\PSoC4/CyFlash.c ****         uint32 savedIndex = 0u;
  91:Generated_Source\PSoC4/CyFlash.c ****         uint32 savedValue = 0u;
  92:Generated_Source\PSoC4/CyFlash.c ****         uint32 checksum = 0u;
  93:Generated_Source\PSoC4/CyFlash.c ****         uint32 bits = 0u;
  94:Generated_Source\PSoC4/CyFlash.c ****         uint32 i;
  95:Generated_Source\PSoC4/CyFlash.c ****     #endif  /* (CY_FLASH_CHECKSUM_WORKAROUND) */
  96:Generated_Source\PSoC4/CyFlash.c **** 
  97:Generated_Source\PSoC4/CyFlash.c ****     if ((rowNum < CY_FLASH_NUMBER_ROWS) && (rowData != 0u))
  62              		.loc 1 97 0
  63 0016 FF28     		cmp	r0, #255
  64 0018 00D9     		bls	.LCB35
  65 001a EDE0     		b	.L2	@long jump
  66              	.LCB35:
  67              		.loc 1 97 0 is_stmt 0 discriminator 1
  68 001c 0029     		cmp	r1, #0
  69 001e 00D1     		bne	.LCB37
  70 0020 EAE0     		b	.L2	@long jump
  71              	.LCB37:
  98:Generated_Source\PSoC4/CyFlash.c ****     {
ARM GAS  C:\Users\young\AppData\Local\Temp\cc1lbVO5.s 			page 4


  99:Generated_Source\PSoC4/CyFlash.c ****         /* Copy data to be written into internal variable */
 100:Generated_Source\PSoC4/CyFlash.c ****         (void)memcpy((void *)&parameters[2u], rowData, CY_FLASH_SIZEOF_ROW);
  72              		.loc 1 100 0 is_stmt 1
  73 0022 4022     		movs	r2, #64
  74 0024 02AD     		add	r5, sp, #8
  75 0026 04A8     		add	r0, sp, #16
  76              	.LVL2:
  77 0028 FFF7FEFF 		bl	memcpy
  78              	.LVL3:
  79              	.LBB12:
 101:Generated_Source\PSoC4/CyFlash.c **** 
 102:Generated_Source\PSoC4/CyFlash.c ****         #if (CY_FLASH_CHECKSUM_WORKAROUND)
 103:Generated_Source\PSoC4/CyFlash.c **** 
 104:Generated_Source\PSoC4/CyFlash.c ****             for (i = 2u; i < ((CY_FLASH_SIZEOF_ROW / sizeof(uint32)) + 2u); i++)
 105:Generated_Source\PSoC4/CyFlash.c ****             {
 106:Generated_Source\PSoC4/CyFlash.c ****                 uint32 tmp = parameters[i];
  80              		.loc 1 106 0
  81 002c A968     		ldr	r1, [r5, #8]
  82 002e 0B00     		movs	r3, r1
 107:Generated_Source\PSoC4/CyFlash.c ****                 if (tmp != 0u)
 108:Generated_Source\PSoC4/CyFlash.c ****                 {
 109:Generated_Source\PSoC4/CyFlash.c ****                     checksum += tmp;
 110:Generated_Source\PSoC4/CyFlash.c ****                     bits |= tmp;
  83              		.loc 1 110 0
  84 0030 0F00     		movs	r7, r1
  85 0032 5A1E     		subs	r2, r3, #1
  86 0034 9341     		sbcs	r3, r3, r2
 106:Generated_Source\PSoC4/CyFlash.c ****                 if (tmp != 0u)
  87              		.loc 1 106 0
  88 0036 EA68     		ldr	r2, [r5, #12]
  89 0038 5B00     		lsls	r3, r3, #1
  90              		.loc 1 110 0
  91 003a 1743     		orrs	r7, r2
  92 003c 002A     		cmp	r2, #0
  93 003e 00D0     		beq	.LCB58
  94 0040 E4E0     		b	.L5	@long jump
  95              	.LCB58:
  96 0042 1C00     		movs	r4, r3
  97 0044 0A00     		movs	r2, r1
  98 0046 0F00     		movs	r7, r1
  99              	.L8:
 100 0048 3B00     		movs	r3, r7
 106:Generated_Source\PSoC4/CyFlash.c ****                 if (tmp != 0u)
 101              		.loc 1 106 0
 102 004a 2969     		ldr	r1, [r5, #16]
 103              		.loc 1 110 0
 104 004c 0B43     		orrs	r3, r1
 105 004e 0029     		cmp	r1, #0
 106 0050 02D0     		beq	.L12
 107 0052 0424     		movs	r4, #4
 108 0054 1F00     		movs	r7, r3
 109 0056 5218     		adds	r2, r2, r1
 110              	.L12:
 111 0058 3B00     		movs	r3, r7
 106:Generated_Source\PSoC4/CyFlash.c ****                 if (tmp != 0u)
 112              		.loc 1 106 0
 113 005a 6969     		ldr	r1, [r5, #20]
ARM GAS  C:\Users\young\AppData\Local\Temp\cc1lbVO5.s 			page 5


 114              		.loc 1 110 0
 115 005c 0B43     		orrs	r3, r1
 116 005e 0029     		cmp	r1, #0
 117 0060 00D0     		beq	.LCB78
 118 0062 F7E0     		b	.L13	@long jump
 119              	.LCB78:
 120 0064 3900     		movs	r1, r7
 121              	.L16:
 122 0066 0800     		movs	r0, r1
 106:Generated_Source\PSoC4/CyFlash.c ****                 if (tmp != 0u)
 123              		.loc 1 106 0
 124 0068 AF69     		ldr	r7, [r5, #24]
 125 006a 1300     		movs	r3, r2
 126              		.loc 1 110 0
 127 006c 3843     		orrs	r0, r7
 128 006e 002F     		cmp	r7, #0
 129 0070 02D0     		beq	.L20
 130 0072 0624     		movs	r4, #6
 131 0074 0100     		movs	r1, r0
 132 0076 D319     		adds	r3, r2, r7
 133              	.L20:
 134 0078 0F00     		movs	r7, r1
 106:Generated_Source\PSoC4/CyFlash.c ****                 if (tmp != 0u)
 135              		.loc 1 106 0
 136 007a E869     		ldr	r0, [r5, #28]
 137              		.loc 1 110 0
 138 007c 0743     		orrs	r7, r0
 139 007e 0028     		cmp	r0, #0
 140 0080 00D0     		beq	.LCB97
 141 0082 E4E0     		b	.L21	@long jump
 142              	.LCB97:
 143 0084 1A00     		movs	r2, r3
 144 0086 0F00     		movs	r7, r1
 145              	.L24:
 146 0088 3800     		movs	r0, r7
 106:Generated_Source\PSoC4/CyFlash.c ****                 if (tmp != 0u)
 147              		.loc 1 106 0
 148 008a 296A     		ldr	r1, [r5, #32]
 149              		.loc 1 110 0
 150 008c 0843     		orrs	r0, r1
 151 008e 0029     		cmp	r1, #0
 152 0090 00D0     		beq	.LCB106
 153 0092 D8E0     		b	.L25	@long jump
 154              	.LCB106:
 155 0094 1300     		movs	r3, r2
 156 0096 3900     		movs	r1, r7
 157              	.L28:
 158 0098 0800     		movs	r0, r1
 106:Generated_Source\PSoC4/CyFlash.c ****                 if (tmp != 0u)
 159              		.loc 1 106 0
 160 009a 6F6A     		ldr	r7, [r5, #36]
 161 009c 1A00     		movs	r2, r3
 162              		.loc 1 110 0
 163 009e 3843     		orrs	r0, r7
 164 00a0 002F     		cmp	r7, #0
 165 00a2 02D0     		beq	.L32
 166 00a4 0924     		movs	r4, #9
ARM GAS  C:\Users\young\AppData\Local\Temp\cc1lbVO5.s 			page 6


 167 00a6 0100     		movs	r1, r0
 168 00a8 DA19     		adds	r2, r3, r7
 169              	.L32:
 170 00aa 0F00     		movs	r7, r1
 106:Generated_Source\PSoC4/CyFlash.c ****                 if (tmp != 0u)
 171              		.loc 1 106 0
 172 00ac A86A     		ldr	r0, [r5, #40]
 173              		.loc 1 110 0
 174 00ae 0743     		orrs	r7, r0
 175 00b0 0028     		cmp	r0, #0
 176 00b2 00D0     		beq	.LCB126
 177 00b4 C4E0     		b	.L33	@long jump
 178              	.LCB126:
 179 00b6 1300     		movs	r3, r2
 180 00b8 0F00     		movs	r7, r1
 181              	.L36:
 182 00ba 3800     		movs	r0, r7
 106:Generated_Source\PSoC4/CyFlash.c ****                 if (tmp != 0u)
 183              		.loc 1 106 0
 184 00bc E96A     		ldr	r1, [r5, #44]
 185              		.loc 1 110 0
 186 00be 0843     		orrs	r0, r1
 187 00c0 0029     		cmp	r1, #0
 188 00c2 00D0     		beq	.LCB135
 189 00c4 B8E0     		b	.L37	@long jump
 190              	.LCB135:
 191 00c6 1A00     		movs	r2, r3
 192 00c8 3900     		movs	r1, r7
 193              	.L40:
 194 00ca 0800     		movs	r0, r1
 106:Generated_Source\PSoC4/CyFlash.c ****                 if (tmp != 0u)
 195              		.loc 1 106 0
 196 00cc 2F6B     		ldr	r7, [r5, #48]
 197 00ce 1300     		movs	r3, r2
 198              		.loc 1 110 0
 199 00d0 3843     		orrs	r0, r7
 200 00d2 002F     		cmp	r7, #0
 201 00d4 02D0     		beq	.L44
 202 00d6 0C24     		movs	r4, #12
 203 00d8 0100     		movs	r1, r0
 204 00da D319     		adds	r3, r2, r7
 205              	.L44:
 206 00dc 0F00     		movs	r7, r1
 106:Generated_Source\PSoC4/CyFlash.c ****                 if (tmp != 0u)
 207              		.loc 1 106 0
 208 00de 686B     		ldr	r0, [r5, #52]
 209              		.loc 1 110 0
 210 00e0 0743     		orrs	r7, r0
 211 00e2 0028     		cmp	r0, #0
 212 00e4 00D0     		beq	.LCB155
 213 00e6 A4E0     		b	.L45	@long jump
 214              	.LCB155:
 215 00e8 1A00     		movs	r2, r3
 216 00ea 0F00     		movs	r7, r1
 217              	.L48:
 218 00ec 3800     		movs	r0, r7
 106:Generated_Source\PSoC4/CyFlash.c ****                 if (tmp != 0u)
ARM GAS  C:\Users\young\AppData\Local\Temp\cc1lbVO5.s 			page 7


 219              		.loc 1 106 0
 220 00ee A96B     		ldr	r1, [r5, #56]
 221              		.loc 1 110 0
 222 00f0 0843     		orrs	r0, r1
 223 00f2 0029     		cmp	r1, #0
 224 00f4 00D0     		beq	.LCB164
 225 00f6 98E0     		b	.L49	@long jump
 226              	.LCB164:
 227 00f8 1300     		movs	r3, r2
 228 00fa 3900     		movs	r1, r7
 229              	.L52:
 230 00fc 0800     		movs	r0, r1
 106:Generated_Source\PSoC4/CyFlash.c ****                 if (tmp != 0u)
 231              		.loc 1 106 0
 232 00fe EA6B     		ldr	r2, [r5, #60]
 233              		.loc 1 110 0
 234 0100 1043     		orrs	r0, r2
 235 0102 002A     		cmp	r2, #0
 236 0104 00D0     		beq	.LCB173
 237 0106 8CE0     		b	.L53	@long jump
 238              	.LCB173:
 239 0108 1A00     		movs	r2, r3
 240              	.L56:
 241 010a 0800     		movs	r0, r1
 106:Generated_Source\PSoC4/CyFlash.c ****                 if (tmp != 0u)
 242              		.loc 1 106 0
 243 010c 2B6C     		ldr	r3, [r5, #64]
 244              		.loc 1 110 0
 245 010e 1843     		orrs	r0, r3
 246 0110 002B     		cmp	r3, #0
 247 0112 00D0     		beq	.LCB181
 248 0114 81E0     		b	.L57	@long jump
 249              	.LCB181:
 250 0116 1300     		movs	r3, r2
 251              	.L60:
 106:Generated_Source\PSoC4/CyFlash.c ****                 if (tmp != 0u)
 252              		.loc 1 106 0
 253 0118 6A6C     		ldr	r2, [r5, #68]
 254              		.loc 1 110 0
 255 011a 1000     		movs	r0, r2
 256 011c 0843     		orrs	r0, r1
 257 011e 002A     		cmp	r2, #0
 258 0120 01D0     		beq	.L64
 259 0122 1124     		movs	r4, #17
 260 0124 0100     		movs	r1, r0
 261              	.L64:
 262              	.LVL4:
 263              	.LBE12:
 111:Generated_Source\PSoC4/CyFlash.c ****                     savedIndex = i;
 112:Generated_Source\PSoC4/CyFlash.c ****                 }
 113:Generated_Source\PSoC4/CyFlash.c ****             }
 114:Generated_Source\PSoC4/CyFlash.c **** 
 115:Generated_Source\PSoC4/CyFlash.c ****             needChecksumWorkaround = ((checksum == 0u) && (bits != 0u)) ? 1u : 0u;
 264              		.loc 1 115 0
 265 0126 D318     		adds	r3, r2, r3
 266              	.LVL5:
 267 0128 002B     		cmp	r3, #0
ARM GAS  C:\Users\young\AppData\Local\Temp\cc1lbVO5.s 			page 8


 268 012a 00D0     		beq	.LCB202
 269 012c 71E0     		b	.L91	@long jump
 270              	.LCB202:
 271              		.loc 1 115 0 is_stmt 0 discriminator 1
 272 012e 0029     		cmp	r1, #0
 273 0130 00D1     		bne	.LCB204
 274 0132 6FE0     		b	.L110	@long jump
 275              	.LCB204:
 276              	.LVL6:
 116:Generated_Source\PSoC4/CyFlash.c ****             if (needChecksumWorkaround != 0u)
 117:Generated_Source\PSoC4/CyFlash.c ****             {
 118:Generated_Source\PSoC4/CyFlash.c ****                 savedValue = parameters[savedIndex];
 277              		.loc 1 118 0 is_stmt 1
 278 0134 A200     		lsls	r2, r4, #2
 279 0136 AF58     		ldr	r7, [r5, r2]
 280              	.LVL7:
 119:Generated_Source\PSoC4/CyFlash.c ****                 parameters[savedIndex] = 0u;
 281              		.loc 1 119 0
 282 0138 AB50     		str	r3, [r5, r2]
 115:Generated_Source\PSoC4/CyFlash.c ****             if (needChecksumWorkaround != 0u)
 283              		.loc 1 115 0
 284 013a 0123     		movs	r3, #1
 285              	.LVL8:
 286 013c 9846     		mov	r8, r3
 287              	.LVL9:
 288              	.L65:
 120:Generated_Source\PSoC4/CyFlash.c ****             }
 121:Generated_Source\PSoC4/CyFlash.c ****         #endif  /* (CY_FLASH_CHECKSUM_WORKAROUND) */
 122:Generated_Source\PSoC4/CyFlash.c **** 
 123:Generated_Source\PSoC4/CyFlash.c ****         /* Load Flash Bytes */
 124:Generated_Source\PSoC4/CyFlash.c ****         parameters[0u] = (uint32) (CY_FLASH_GET_MACRO_FROM_ROW(rowNum)        << CY_FLASH_PARAM_MAC
 289              		.loc 1 124 0
 290 013e 8C4B     		ldr	r3, .L120
 125:Generated_Source\PSoC4/CyFlash.c ****                          (uint32) (CY_FLASH_PAGE_LATCH_START_ADDR             << CY_FLASH_PARAM_ADD
 126:Generated_Source\PSoC4/CyFlash.c ****                          (uint32) (CY_FLASH_KEY_TWO(CY_FLASH_API_OPCODE_LOAD) << CY_FLASH_PARAM_KEY
 127:Generated_Source\PSoC4/CyFlash.c ****                          CY_FLASH_KEY_ONE;
 128:Generated_Source\PSoC4/CyFlash.c ****         parameters[1u] = CY_FLASH_SIZEOF_ROW - 1u;
 129:Generated_Source\PSoC4/CyFlash.c **** 
 130:Generated_Source\PSoC4/CyFlash.c ****         CY_FLASH_CPUSS_SYSARG_REG = (uint32) &parameters[0u];
 131:Generated_Source\PSoC4/CyFlash.c ****         CY_FLASH_CPUSS_SYSREQ_REG = CY_FLASH_CPUSS_REQ_START | CY_FLASH_API_OPCODE_LOAD;
 291              		.loc 1 131 0
 292 0140 8C49     		ldr	r1, .L120+4
 293              	.LVL10:
 124:Generated_Source\PSoC4/CyFlash.c ****                          (uint32) (CY_FLASH_PAGE_LATCH_START_ADDR             << CY_FLASH_PARAM_ADD
 294              		.loc 1 124 0
 295 0142 0293     		str	r3, [sp, #8]
 128:Generated_Source\PSoC4/CyFlash.c **** 
 296              		.loc 1 128 0
 297 0144 3F23     		movs	r3, #63
 298              		.loc 1 131 0
 299 0146 8C4A     		ldr	r2, .L120+8
 128:Generated_Source\PSoC4/CyFlash.c **** 
 300              		.loc 1 128 0
 301 0148 6B60     		str	r3, [r5, #4]
 130:Generated_Source\PSoC4/CyFlash.c ****         CY_FLASH_CPUSS_SYSREQ_REG = CY_FLASH_CPUSS_REQ_START | CY_FLASH_API_OPCODE_LOAD;
 302              		.loc 1 130 0
 303 014a 8C4B     		ldr	r3, .L120+12
ARM GAS  C:\Users\young\AppData\Local\Temp\cc1lbVO5.s 			page 9


 304 014c 1D60     		str	r5, [r3]
 305              		.loc 1 131 0
 306 014e 1160     		str	r1, [r2]
 132:Generated_Source\PSoC4/CyFlash.c ****         CY_NOP;
 307              		.loc 1 132 0
 308              		.syntax divided
 309              	@ 132 "Generated_Source\PSoC4\CyFlash.c" 1
 310 0150 C046     		NOP
 311              	
 312              	@ 0 "" 2
 133:Generated_Source\PSoC4/CyFlash.c ****         retValue = CY_FLASH_API_RETURN;
 313              		.loc 1 133 0
 314              		.thumb
 315              		.syntax unified
 316 0152 1A68     		ldr	r2, [r3]
 317 0154 120F     		lsrs	r2, r2, #28
 318 0156 0F2A     		cmp	r2, #15
 319 0158 04D0     		beq	.L111
 320              		.loc 1 133 0 is_stmt 0 discriminator 2
 321 015a 1A68     		ldr	r2, [r3]
 322 015c 120F     		lsrs	r2, r2, #28
 323 015e 0A2A     		cmp	r2, #10
 324 0160 00D1     		bne	.LCB242
 325 0162 7BE0     		b	.L92	@long jump
 326              	.LCB242:
 327              	.L111:
 328              		.loc 1 133 0 discriminator 4
 329 0164 FF22     		movs	r2, #255
 330 0166 1B68     		ldr	r3, [r3]
 331 0168 1340     		ands	r3, r2
 332              	.L68:
 333              		.loc 1 133 0 discriminator 8
 334 016a 0093     		str	r3, [sp]
 134:Generated_Source\PSoC4/CyFlash.c **** 
 135:Generated_Source\PSoC4/CyFlash.c ****         if(retValue == CY_SYS_FLASH_SUCCESS)
 335              		.loc 1 135 0 is_stmt 1 discriminator 8
 336 016c 009B     		ldr	r3, [sp]
 337 016e 9946     		mov	r9, r3
 338 0170 002B     		cmp	r3, #0
 339 0172 43D1     		bne	.L69
 136:Generated_Source\PSoC4/CyFlash.c ****         {
 137:Generated_Source\PSoC4/CyFlash.c ****             /***************************************************************
 138:Generated_Source\PSoC4/CyFlash.c ****             * Mask all the exceptions to guarantee that Flash write will
 139:Generated_Source\PSoC4/CyFlash.c ****             * occur in the atomic way. It will not affect system call
 140:Generated_Source\PSoC4/CyFlash.c ****             * execution (flash row write) since it is executed in the NMI
 141:Generated_Source\PSoC4/CyFlash.c ****             * context.
 142:Generated_Source\PSoC4/CyFlash.c ****             ***************************************************************/
 143:Generated_Source\PSoC4/CyFlash.c ****             interruptState = CyEnterCriticalSection();
 340              		.loc 1 143 0
 341 0174 FFF7FEFF 		bl	CyEnterCriticalSection
 342              	.LVL11:
 343              	.LBB13:
 344              	.LBB14:
 144:Generated_Source\PSoC4/CyFlash.c **** 
 145:Generated_Source\PSoC4/CyFlash.c ****             clkCnfRetValue = CySysFlashClockBackup();
 146:Generated_Source\PSoC4/CyFlash.c **** 
 147:Generated_Source\PSoC4/CyFlash.c ****         #if(CY_IP_SPCIF_SYNCHRONOUS)
ARM GAS  C:\Users\young\AppData\Local\Temp\cc1lbVO5.s 			page 10


 148:Generated_Source\PSoC4/CyFlash.c ****             if(clkCnfRetValue == CY_SYS_FLASH_SUCCESS)
 149:Generated_Source\PSoC4/CyFlash.c ****             {
 150:Generated_Source\PSoC4/CyFlash.c ****                 retValue = CySysFlashClockConfig();
 151:Generated_Source\PSoC4/CyFlash.c ****             }
 152:Generated_Source\PSoC4/CyFlash.c ****         #endif  /* (CY_IP_SPCIF_SYNCHRONOUS) */
 153:Generated_Source\PSoC4/CyFlash.c **** 
 154:Generated_Source\PSoC4/CyFlash.c ****             if(retValue == CY_SYS_FLASH_SUCCESS)
 155:Generated_Source\PSoC4/CyFlash.c ****             {
 156:Generated_Source\PSoC4/CyFlash.c ****                 /* Write Row */
 157:Generated_Source\PSoC4/CyFlash.c ****                 parameters[0u]  = (uint32) (((uint32) CY_FLASH_KEY_TWO(CY_FLASH_API_OPCODE_WRITE_RO
 158:Generated_Source\PSoC4/CyFlash.c ****                 parameters[0u] |= (uint32)(rowNum << 16u);
 159:Generated_Source\PSoC4/CyFlash.c **** 
 160:Generated_Source\PSoC4/CyFlash.c ****                 CY_FLASH_CPUSS_SYSARG_REG = (uint32) &parameters[0u];
 161:Generated_Source\PSoC4/CyFlash.c ****                 CY_FLASH_CPUSS_SYSREQ_REG = CY_FLASH_CPUSS_REQ_START | CY_FLASH_API_OPCODE_WRITE_RO
 162:Generated_Source\PSoC4/CyFlash.c ****                 CY_NOP;
 163:Generated_Source\PSoC4/CyFlash.c ****                 retValue = CY_FLASH_API_RETURN;
 164:Generated_Source\PSoC4/CyFlash.c ****             }
 165:Generated_Source\PSoC4/CyFlash.c **** 
 166:Generated_Source\PSoC4/CyFlash.c ****             #if (CY_FLASH_CHECKSUM_WORKAROUND)
 167:Generated_Source\PSoC4/CyFlash.c **** 
 168:Generated_Source\PSoC4/CyFlash.c ****                 if ((retValue == CYRET_SUCCESS) && (needChecksumWorkaround != 0u))
 169:Generated_Source\PSoC4/CyFlash.c ****                 {
 170:Generated_Source\PSoC4/CyFlash.c ****                     (void)memset((void *)&parameters[2u], 0, CY_FLASH_SIZEOF_ROW);
 171:Generated_Source\PSoC4/CyFlash.c ****                     parameters[savedIndex] = savedValue;
 172:Generated_Source\PSoC4/CyFlash.c **** 
 173:Generated_Source\PSoC4/CyFlash.c ****                     /* Load Flash Bytes */
 174:Generated_Source\PSoC4/CyFlash.c ****                     parameters[0u] = (uint32) (CY_FLASH_GET_MACRO_FROM_ROW(rowNum)        << CY_FLA
 175:Generated_Source\PSoC4/CyFlash.c ****                                      (uint32) (CY_FLASH_PAGE_LATCH_START_ADDR             << CY_FLA
 176:Generated_Source\PSoC4/CyFlash.c ****                                      (uint32) (CY_FLASH_KEY_TWO(CY_FLASH_API_OPCODE_LOAD) << CY_FLA
 177:Generated_Source\PSoC4/CyFlash.c ****                                      CY_FLASH_KEY_ONE;
 178:Generated_Source\PSoC4/CyFlash.c ****                     parameters[1u] = CY_FLASH_SIZEOF_ROW - 1u;
 179:Generated_Source\PSoC4/CyFlash.c **** 
 180:Generated_Source\PSoC4/CyFlash.c ****                     CY_FLASH_CPUSS_SYSARG_REG = (uint32) &parameters[0u];
 181:Generated_Source\PSoC4/CyFlash.c ****                     CY_FLASH_CPUSS_SYSREQ_REG = CY_FLASH_CPUSS_REQ_START | CY_FLASH_API_OPCODE_LOAD
 182:Generated_Source\PSoC4/CyFlash.c ****                     CY_NOP;
 183:Generated_Source\PSoC4/CyFlash.c ****                     retValue = CY_FLASH_API_RETURN;
 184:Generated_Source\PSoC4/CyFlash.c **** 
 185:Generated_Source\PSoC4/CyFlash.c **** 
 186:Generated_Source\PSoC4/CyFlash.c ****                     if(retValue == CY_SYS_FLASH_SUCCESS)
 187:Generated_Source\PSoC4/CyFlash.c ****                     {
 188:Generated_Source\PSoC4/CyFlash.c ****                         /* Program Row */
 189:Generated_Source\PSoC4/CyFlash.c ****                         parameters[0u]  =
 190:Generated_Source\PSoC4/CyFlash.c ****                             (uint32) (((uint32) CY_FLASH_KEY_TWO(CY_FLASH_API_OPCODE_PROGRAM_ROW) <
 191:Generated_Source\PSoC4/CyFlash.c ****                                                     CY_FLASH_PARAM_KEY_TWO_OFFSET) | CY_FLASH_KEY_O
 192:Generated_Source\PSoC4/CyFlash.c ****                         parameters[0u] |= (uint32)(rowNum << 16u);
 193:Generated_Source\PSoC4/CyFlash.c **** 
 194:Generated_Source\PSoC4/CyFlash.c ****                         CY_FLASH_CPUSS_SYSARG_REG = (uint32) &parameters[0u];
 195:Generated_Source\PSoC4/CyFlash.c ****                         CY_FLASH_CPUSS_SYSREQ_REG = CY_FLASH_CPUSS_REQ_START | CY_FLASH_API_OPCODE_
 196:Generated_Source\PSoC4/CyFlash.c ****                         CY_NOP;
 197:Generated_Source\PSoC4/CyFlash.c ****                         retValue = CY_FLASH_API_RETURN;
 198:Generated_Source\PSoC4/CyFlash.c ****                     }
 199:Generated_Source\PSoC4/CyFlash.c ****                 }
 200:Generated_Source\PSoC4/CyFlash.c ****             #endif  /* (CY_FLASH_CHECKSUM_WORKAROUND) */
 201:Generated_Source\PSoC4/CyFlash.c **** 
 202:Generated_Source\PSoC4/CyFlash.c ****             if(clkCnfRetValue == CY_SYS_FLASH_SUCCESS)
 203:Generated_Source\PSoC4/CyFlash.c ****             {
 204:Generated_Source\PSoC4/CyFlash.c ****                 clkCnfRetValue = CySysFlashClockRestore();
ARM GAS  C:\Users\young\AppData\Local\Temp\cc1lbVO5.s 			page 11


 205:Generated_Source\PSoC4/CyFlash.c **** 
 206:Generated_Source\PSoC4/CyFlash.c ****                 if(clkCnfRetValue != CY_SYS_FLASH_SUCCESS)
 207:Generated_Source\PSoC4/CyFlash.c ****                 {
 208:Generated_Source\PSoC4/CyFlash.c ****                     retValue = clkCnfRetValue;
 209:Generated_Source\PSoC4/CyFlash.c ****                 }
 210:Generated_Source\PSoC4/CyFlash.c ****             }
 211:Generated_Source\PSoC4/CyFlash.c **** 
 212:Generated_Source\PSoC4/CyFlash.c ****             CyExitCriticalSection(interruptState);
 213:Generated_Source\PSoC4/CyFlash.c ****         }
 214:Generated_Source\PSoC4/CyFlash.c ****     }
 215:Generated_Source\PSoC4/CyFlash.c ****     else
 216:Generated_Source\PSoC4/CyFlash.c ****     {
 217:Generated_Source\PSoC4/CyFlash.c ****         retValue = CY_SYS_FLASH_INVALID_ADDR;
 218:Generated_Source\PSoC4/CyFlash.c ****     }
 219:Generated_Source\PSoC4/CyFlash.c **** 
 220:Generated_Source\PSoC4/CyFlash.c ****     return (retValue);
 221:Generated_Source\PSoC4/CyFlash.c **** }
 222:Generated_Source\PSoC4/CyFlash.c **** 
 223:Generated_Source\PSoC4/CyFlash.c **** 
 224:Generated_Source\PSoC4/CyFlash.c **** 
 225:Generated_Source\PSoC4/CyFlash.c **** #if (CY_IP_FLASH_PARALLEL_PGM_EN && (CY_IP_FLASH_MACROS > 1u))
 226:Generated_Source\PSoC4/CyFlash.c **** /*******************************************************************************
 227:Generated_Source\PSoC4/CyFlash.c **** * Function Name: CySysFlashStartWriteRow
 228:Generated_Source\PSoC4/CyFlash.c **** ****************************************************************************//**
 229:Generated_Source\PSoC4/CyFlash.c **** *
 230:Generated_Source\PSoC4/CyFlash.c **** * Initiates a write to a row of Flash. A call to this API is non-blocking. 
 231:Generated_Source\PSoC4/CyFlash.c **** * Use CySysFlashResumeWriteRow() to resume flash writes and 
 232:Generated_Source\PSoC4/CyFlash.c **** * CySysFlashGetWriteRowStatus() to ascertain status of the write operation.
 233:Generated_Source\PSoC4/CyFlash.c **** *
 234:Generated_Source\PSoC4/CyFlash.c **** * The devices require HFCLK to be sourced by 48 MHz IMO during flash write.
 235:Generated_Source\PSoC4/CyFlash.c **** * This API will modify IMO configuration; it can be later restored to original
 236:Generated_Source\PSoC4/CyFlash.c **** * configuration by calling \ref CySysFlashGetWriteRowStatus().
 237:Generated_Source\PSoC4/CyFlash.c **** *
 238:Generated_Source\PSoC4/CyFlash.c **** * \note The non-blocking operation does not return success status 
 239:Generated_Source\PSoC4/CyFlash.c **** * CY_SYS_FLASH_SUCCESS until the last \ref CySysFlashResumeWriteRow API 
 240:Generated_Source\PSoC4/CyFlash.c **** * is complete. The CPUSS_SYSARG register will be reflecting the SRAM address 
 241:Generated_Source\PSoC4/CyFlash.c **** * during an ongoing non-blocking operation.
 242:Generated_Source\PSoC4/CyFlash.c **** *    
 243:Generated_Source\PSoC4/CyFlash.c **** * \param rowNum The flash row number. The number of the flash rows is defined by
 244:Generated_Source\PSoC4/CyFlash.c **** * the \ref CY_FLASH_NUMBER_ROWS macro for the selected device. Refer to the
 245:Generated_Source\PSoC4/CyFlash.c **** * device datasheet for the details.
 246:Generated_Source\PSoC4/CyFlash.c **** * \note The target flash array is calculated based on the specified flash row.
 247:Generated_Source\PSoC4/CyFlash.c **** *
 248:Generated_Source\PSoC4/CyFlash.c **** * \param rowData Array of bytes to write. The size of the array must be equal to
 249:Generated_Source\PSoC4/CyFlash.c **** * the flash row size. The flash row size for the selected device is defined by
 250:Generated_Source\PSoC4/CyFlash.c **** * the \ref CY_FLASH_SIZEOF_ROW macro. Refer to the device datasheet for the
 251:Generated_Source\PSoC4/CyFlash.c **** * details.
 252:Generated_Source\PSoC4/CyFlash.c **** *
 253:Generated_Source\PSoC4/CyFlash.c **** * \return \ref group_flash_status_codes
 254:Generated_Source\PSoC4/CyFlash.c **** *
 255:Generated_Source\PSoC4/CyFlash.c **** *******************************************************************************/
 256:Generated_Source\PSoC4/CyFlash.c **** uint32 CySysFlashStartWriteRow(uint32 rowNum, const uint8 rowData[])
 257:Generated_Source\PSoC4/CyFlash.c **** {
 258:Generated_Source\PSoC4/CyFlash.c ****     volatile uint32 retValue = CY_SYS_FLASH_SUCCESS;
 259:Generated_Source\PSoC4/CyFlash.c ****     volatile uint32 parameters[(CY_FLASH_SIZEOF_ROW + CY_FLASH_SRAM_ROM_DATA) / sizeof(uint32)];
 260:Generated_Source\PSoC4/CyFlash.c ****     uint8  interruptState;
 261:Generated_Source\PSoC4/CyFlash.c **** 
ARM GAS  C:\Users\young\AppData\Local\Temp\cc1lbVO5.s 			page 12


 262:Generated_Source\PSoC4/CyFlash.c **** #if(CY_IP_SPCIF_SYNCHRONOUS)
 263:Generated_Source\PSoC4/CyFlash.c ****     volatile uint32 clkCnfRetValue = CY_SYS_FLASH_SUCCESS;
 264:Generated_Source\PSoC4/CyFlash.c **** #endif  /* (CY_IP_SPCIF_SYNCHRONOUS) */    
 265:Generated_Source\PSoC4/CyFlash.c **** 
 266:Generated_Source\PSoC4/CyFlash.c ****     if ((rowNum < CY_FLASH_NUMBER_ROWS) && (rowData != 0u))
 267:Generated_Source\PSoC4/CyFlash.c ****     {
 268:Generated_Source\PSoC4/CyFlash.c ****         /* Copy data to be written into internal variable */
 269:Generated_Source\PSoC4/CyFlash.c ****         (void)memcpy((void *)&parameters[2u], rowData, CY_FLASH_SIZEOF_ROW);
 270:Generated_Source\PSoC4/CyFlash.c **** 
 271:Generated_Source\PSoC4/CyFlash.c ****         /* Load Flash Bytes */
 272:Generated_Source\PSoC4/CyFlash.c ****         parameters[0u] = (uint32) (CY_FLASH_GET_MACRO_FROM_ROW(rowNum)        << CY_FLASH_PARAM_MAC
 273:Generated_Source\PSoC4/CyFlash.c ****                          (uint32) (CY_FLASH_PAGE_LATCH_START_ADDR             << CY_FLASH_PARAM_ADD
 274:Generated_Source\PSoC4/CyFlash.c ****                          (uint32) (CY_FLASH_KEY_TWO(CY_FLASH_API_OPCODE_LOAD) << CY_FLASH_PARAM_KEY
 275:Generated_Source\PSoC4/CyFlash.c ****                          CY_FLASH_KEY_ONE;
 276:Generated_Source\PSoC4/CyFlash.c ****         parameters[1u] = CY_FLASH_SIZEOF_ROW - 1u;
 277:Generated_Source\PSoC4/CyFlash.c **** 
 278:Generated_Source\PSoC4/CyFlash.c ****         CY_FLASH_CPUSS_SYSARG_REG = (uint32) &parameters[0u];
 279:Generated_Source\PSoC4/CyFlash.c ****         CY_FLASH_CPUSS_SYSREQ_REG = CY_FLASH_CPUSS_REQ_START | CY_FLASH_API_OPCODE_LOAD;
 280:Generated_Source\PSoC4/CyFlash.c ****         CY_NOP;
 281:Generated_Source\PSoC4/CyFlash.c ****         retValue = CY_FLASH_API_RETURN;
 282:Generated_Source\PSoC4/CyFlash.c **** 
 283:Generated_Source\PSoC4/CyFlash.c ****         if(retValue == CY_SYS_FLASH_SUCCESS)
 284:Generated_Source\PSoC4/CyFlash.c ****         {
 285:Generated_Source\PSoC4/CyFlash.c ****             /***************************************************************
 286:Generated_Source\PSoC4/CyFlash.c ****             * Mask all the exceptions to guarantee that Flash write will
 287:Generated_Source\PSoC4/CyFlash.c ****             * occur in the atomic way. It will not affect system call
 288:Generated_Source\PSoC4/CyFlash.c ****             * execution (flash row write) since it is executed in the NMI
 289:Generated_Source\PSoC4/CyFlash.c ****             * context.
 290:Generated_Source\PSoC4/CyFlash.c ****             ***************************************************************/
 291:Generated_Source\PSoC4/CyFlash.c ****             interruptState = CyEnterCriticalSection();
 292:Generated_Source\PSoC4/CyFlash.c **** 
 293:Generated_Source\PSoC4/CyFlash.c ****         #if(CY_IP_SPCIF_SYNCHRONOUS)
 294:Generated_Source\PSoC4/CyFlash.c ****             clkCnfRetValue = CySysFlashClockBackup();
 295:Generated_Source\PSoC4/CyFlash.c ****             
 296:Generated_Source\PSoC4/CyFlash.c ****             if(clkCnfRetValue == CY_SYS_FLASH_SUCCESS)
 297:Generated_Source\PSoC4/CyFlash.c ****             {
 298:Generated_Source\PSoC4/CyFlash.c ****                 retValue = CySysFlashClockConfig();
 299:Generated_Source\PSoC4/CyFlash.c ****             }
 300:Generated_Source\PSoC4/CyFlash.c ****         #else
 301:Generated_Source\PSoC4/CyFlash.c ****             (void)CySysFlashClockBackup();
 302:Generated_Source\PSoC4/CyFlash.c ****         #endif  /* (CY_IP_SPCIF_SYNCHRONOUS) */
 303:Generated_Source\PSoC4/CyFlash.c **** 
 304:Generated_Source\PSoC4/CyFlash.c ****             if(retValue == CY_SYS_FLASH_SUCCESS)
 305:Generated_Source\PSoC4/CyFlash.c ****             {
 306:Generated_Source\PSoC4/CyFlash.c ****                 /* Non-blocking Write Row */
 307:Generated_Source\PSoC4/CyFlash.c ****                 parameters[0u]  = (uint32) (((uint32) CY_FLASH_KEY_TWO(CY_FLASH_API_OPCODE_NON_BLOC
 308:Generated_Source\PSoC4/CyFlash.c ****                                                         CY_FLASH_PARAM_KEY_TWO_OFFSET) | CY_FLASH_K
 309:Generated_Source\PSoC4/CyFlash.c ****                 parameters[0u] |= (uint32)(rowNum << 16u);
 310:Generated_Source\PSoC4/CyFlash.c **** 
 311:Generated_Source\PSoC4/CyFlash.c ****                 CY_FLASH_CPUSS_SYSARG_REG = (uint32) &parameters[0u];
 312:Generated_Source\PSoC4/CyFlash.c ****                 CY_FLASH_CPUSS_SYSREQ_REG = CY_FLASH_CPUSS_REQ_START | CY_FLASH_API_OPCODE_NON_BLOC
 313:Generated_Source\PSoC4/CyFlash.c ****                 CY_NOP;
 314:Generated_Source\PSoC4/CyFlash.c ****                 retValue = CY_FLASH_API_RETURN;
 315:Generated_Source\PSoC4/CyFlash.c ****             }
 316:Generated_Source\PSoC4/CyFlash.c **** 
 317:Generated_Source\PSoC4/CyFlash.c ****             CyExitCriticalSection(interruptState);
 318:Generated_Source\PSoC4/CyFlash.c ****         }
ARM GAS  C:\Users\young\AppData\Local\Temp\cc1lbVO5.s 			page 13


 319:Generated_Source\PSoC4/CyFlash.c ****     }
 320:Generated_Source\PSoC4/CyFlash.c ****     else
 321:Generated_Source\PSoC4/CyFlash.c ****     {
 322:Generated_Source\PSoC4/CyFlash.c ****         retValue = CY_SYS_FLASH_INVALID_ADDR;
 323:Generated_Source\PSoC4/CyFlash.c ****     }
 324:Generated_Source\PSoC4/CyFlash.c **** 
 325:Generated_Source\PSoC4/CyFlash.c ****     return (retValue);
 326:Generated_Source\PSoC4/CyFlash.c **** }
 327:Generated_Source\PSoC4/CyFlash.c **** 
 328:Generated_Source\PSoC4/CyFlash.c **** 
 329:Generated_Source\PSoC4/CyFlash.c **** /*******************************************************************************
 330:Generated_Source\PSoC4/CyFlash.c **** * Function Name: CySysFlashGetWriteRowStatus
 331:Generated_Source\PSoC4/CyFlash.c **** ****************************************************************************//**
 332:Generated_Source\PSoC4/CyFlash.c **** *
 333:Generated_Source\PSoC4/CyFlash.c **** * Returns the current status of the flash write operation.
 334:Generated_Source\PSoC4/CyFlash.c **** *
 335:Generated_Source\PSoC4/CyFlash.c **** ** \note The non-blocking operation does not return success status 
 336:Generated_Source\PSoC4/CyFlash.c **** * CY_SYS_FLASH_SUCCESS until the last \ref CySysFlashResumeWriteRow API 
 337:Generated_Source\PSoC4/CyFlash.c **** * is complete. The CPUSS_SYSARG register will be reflecting the SRAM address 
 338:Generated_Source\PSoC4/CyFlash.c **** * during an ongoing non-blocking operation.
 339:Generated_Source\PSoC4/CyFlash.c **** * Calling this API before starting a non-blocking write row operation 
 340:Generated_Source\PSoC4/CyFlash.c **** * using the \ref CySysFlashStartWriteRow() API will cause improper operation.
 341:Generated_Source\PSoC4/CyFlash.c **** *
 342:Generated_Source\PSoC4/CyFlash.c **** * \return \ref group_flash_status_codes
 343:Generated_Source\PSoC4/CyFlash.c **** *
 344:Generated_Source\PSoC4/CyFlash.c **** *******************************************************************************/
 345:Generated_Source\PSoC4/CyFlash.c **** uint32 CySysFlashGetWriteRowStatus(void)
 346:Generated_Source\PSoC4/CyFlash.c **** {
 347:Generated_Source\PSoC4/CyFlash.c ****     volatile uint32 retValue = CY_SYS_FLASH_SUCCESS;
 348:Generated_Source\PSoC4/CyFlash.c **** 
 349:Generated_Source\PSoC4/CyFlash.c ****     CY_NOP;
 350:Generated_Source\PSoC4/CyFlash.c ****     retValue = CY_FLASH_API_RETURN;
 351:Generated_Source\PSoC4/CyFlash.c **** 
 352:Generated_Source\PSoC4/CyFlash.c ****     (void) CySysFlashClockRestore();
 353:Generated_Source\PSoC4/CyFlash.c **** 
 354:Generated_Source\PSoC4/CyFlash.c ****     return (retValue);
 355:Generated_Source\PSoC4/CyFlash.c **** }
 356:Generated_Source\PSoC4/CyFlash.c **** 
 357:Generated_Source\PSoC4/CyFlash.c **** 
 358:Generated_Source\PSoC4/CyFlash.c **** /*******************************************************************************
 359:Generated_Source\PSoC4/CyFlash.c **** * Function Name: CySysFlashResumeWriteRow
 360:Generated_Source\PSoC4/CyFlash.c **** ****************************************************************************//**
 361:Generated_Source\PSoC4/CyFlash.c **** *
 362:Generated_Source\PSoC4/CyFlash.c **** * This API must be called, once the SPC interrupt is triggered to complete the
 363:Generated_Source\PSoC4/CyFlash.c **** * non-blocking operation. It is advised not to prolong calling this API for
 364:Generated_Source\PSoC4/CyFlash.c **** * more than 25 ms.
 365:Generated_Source\PSoC4/CyFlash.c **** *
 366:Generated_Source\PSoC4/CyFlash.c **** * The non-blocking write row API \ref CySysFlashStartWriteRow() requires that
 367:Generated_Source\PSoC4/CyFlash.c **** * this API be called 3 times to complete the write. This can be done by
 368:Generated_Source\PSoC4/CyFlash.c **** * configuring SPCIF interrupt and placing a call to this API.
 369:Generated_Source\PSoC4/CyFlash.c **** *
 370:Generated_Source\PSoC4/CyFlash.c **** * For CM0 based device, a non-blocking call to program a row of macro 0
 371:Generated_Source\PSoC4/CyFlash.c **** * requires the user to set the CPUSS_CONFIG.VECS_IN_RAM bit so that the
 372:Generated_Source\PSoC4/CyFlash.c **** * interrupt vector for the SPC is fetched from the SRAM rather than the FLASH.
 373:Generated_Source\PSoC4/CyFlash.c **** *
 374:Generated_Source\PSoC4/CyFlash.c **** * For CM0+ based device, if the user wants to keep the vector table in flash
 375:Generated_Source\PSoC4/CyFlash.c **** * when performing non-blocking flash write then they need to make sure the
ARM GAS  C:\Users\young\AppData\Local\Temp\cc1lbVO5.s 			page 14


 376:Generated_Source\PSoC4/CyFlash.c **** * vector table is placed in the flash macro which is not getting programmed by
 377:Generated_Source\PSoC4/CyFlash.c **** * configuring the VTOR register.
 378:Generated_Source\PSoC4/CyFlash.c **** *
 379:Generated_Source\PSoC4/CyFlash.c **** * \note The non-blocking operation does not return success status 
 380:Generated_Source\PSoC4/CyFlash.c **** * CY_SYS_FLASH_SUCCESS until the last Resume API is complete. 
 381:Generated_Source\PSoC4/CyFlash.c **** * The CPUSS_SYSARG register will be reflecting the SRAM address during an 
 382:Generated_Source\PSoC4/CyFlash.c **** * ongoing non-blocking operation.
 383:Generated_Source\PSoC4/CyFlash.c **** *
 384:Generated_Source\PSoC4/CyFlash.c **** * \return \ref group_flash_status_codes
 385:Generated_Source\PSoC4/CyFlash.c **** *
 386:Generated_Source\PSoC4/CyFlash.c **** *******************************************************************************/
 387:Generated_Source\PSoC4/CyFlash.c **** uint32 CySysFlashResumeWriteRow(void)
 388:Generated_Source\PSoC4/CyFlash.c **** {
 389:Generated_Source\PSoC4/CyFlash.c ****     volatile uint32 retValue = CY_SYS_FLASH_SUCCESS;
 390:Generated_Source\PSoC4/CyFlash.c ****     static volatile uint32 parameters[1u];
 391:Generated_Source\PSoC4/CyFlash.c **** 
 392:Generated_Source\PSoC4/CyFlash.c ****     /* Resume */
 393:Generated_Source\PSoC4/CyFlash.c ****     parameters[0u] = (uint32) (((uint32) CY_FLASH_KEY_TWO(CY_FLASH_API_OPCODE_RESUME_NON_BLOCKING) 
 394:Generated_Source\PSoC4/CyFlash.c ****                                          CY_FLASH_PARAM_KEY_TWO_OFFSET) | CY_FLASH_KEY_ONE);
 395:Generated_Source\PSoC4/CyFlash.c ****     CY_FLASH_CPUSS_SYSARG_REG = (uint32) &parameters[0u];
 396:Generated_Source\PSoC4/CyFlash.c ****     CY_FLASH_CPUSS_SYSREQ_REG = CY_FLASH_CPUSS_REQ_START | CY_FLASH_API_OPCODE_RESUME_NON_BLOCKING;
 397:Generated_Source\PSoC4/CyFlash.c ****     
 398:Generated_Source\PSoC4/CyFlash.c ****     CY_NOP;
 399:Generated_Source\PSoC4/CyFlash.c ****     retValue = CY_FLASH_API_RETURN;
 400:Generated_Source\PSoC4/CyFlash.c ****     
 401:Generated_Source\PSoC4/CyFlash.c ****     return (retValue);
 402:Generated_Source\PSoC4/CyFlash.c **** }
 403:Generated_Source\PSoC4/CyFlash.c **** 
 404:Generated_Source\PSoC4/CyFlash.c **** #endif /* (CY_IP_FLASH_PARALLEL_PGM_EN && (CY_IP_FLASH_MACROS > 1u)) */
 405:Generated_Source\PSoC4/CyFlash.c **** 
 406:Generated_Source\PSoC4/CyFlash.c **** 
 407:Generated_Source\PSoC4/CyFlash.c **** /*******************************************************************************
 408:Generated_Source\PSoC4/CyFlash.c **** * Function Name: CySysFlashSetWaitCycles
 409:Generated_Source\PSoC4/CyFlash.c **** ****************************************************************************//**
 410:Generated_Source\PSoC4/CyFlash.c **** *
 411:Generated_Source\PSoC4/CyFlash.c **** * Sets the number of clock cycles the cache will wait before it samples data
 412:Generated_Source\PSoC4/CyFlash.c **** * coming back from Flash. This function must be called before increasing the
 413:Generated_Source\PSoC4/CyFlash.c **** * SYSCLK clock frequency. It can optionally be called after lowering SYSCLK
 414:Generated_Source\PSoC4/CyFlash.c **** * clock frequency in order to improve the CPU performance.
 415:Generated_Source\PSoC4/CyFlash.c **** *
 416:Generated_Source\PSoC4/CyFlash.c **** * \param freq The System clock frequency in MHz.
 417:Generated_Source\PSoC4/CyFlash.c **** *
 418:Generated_Source\PSoC4/CyFlash.c **** * \note Invalid frequency will be ignored in Release mode and the CPU will be
 419:Generated_Source\PSoC4/CyFlash.c **** * halted if project is compiled in Debug mode.
 420:Generated_Source\PSoC4/CyFlash.c **** *
 421:Generated_Source\PSoC4/CyFlash.c **** *******************************************************************************/
 422:Generated_Source\PSoC4/CyFlash.c **** void CySysFlashSetWaitCycles(uint32 freq)
 423:Generated_Source\PSoC4/CyFlash.c **** {
 424:Generated_Source\PSoC4/CyFlash.c ****     uint8  interruptState;
 425:Generated_Source\PSoC4/CyFlash.c **** 
 426:Generated_Source\PSoC4/CyFlash.c ****     interruptState = CyEnterCriticalSection();
 427:Generated_Source\PSoC4/CyFlash.c **** 
 428:Generated_Source\PSoC4/CyFlash.c ****     #if (CY_IP_CPUSS)
 429:Generated_Source\PSoC4/CyFlash.c **** 
 430:Generated_Source\PSoC4/CyFlash.c ****         if ( freq <= CY_FLASH_SYSCLK_BOUNDARY_MHZ )
 431:Generated_Source\PSoC4/CyFlash.c ****         {
 432:Generated_Source\PSoC4/CyFlash.c ****             CY_SYS_CLK_SELECT_REG &= (uint32)(~CY_FLASH_WAIT_STATE_EN);
ARM GAS  C:\Users\young\AppData\Local\Temp\cc1lbVO5.s 			page 15


 433:Generated_Source\PSoC4/CyFlash.c ****         }
 434:Generated_Source\PSoC4/CyFlash.c ****         else
 435:Generated_Source\PSoC4/CyFlash.c ****         {
 436:Generated_Source\PSoC4/CyFlash.c ****             CY_SYS_CLK_SELECT_REG |= CY_FLASH_WAIT_STATE_EN;
 437:Generated_Source\PSoC4/CyFlash.c ****         }
 438:Generated_Source\PSoC4/CyFlash.c ****     #else
 439:Generated_Source\PSoC4/CyFlash.c ****         #if (CY_IP_CPUSS_FLASHC_PRESENT)
 440:Generated_Source\PSoC4/CyFlash.c ****             /* CY_IP_FM and CY_IP_FS */
 441:Generated_Source\PSoC4/CyFlash.c ****             if (freq <= CY_FLASH_CTL_WS_0_FREQ_MAX)
 442:Generated_Source\PSoC4/CyFlash.c ****             {
 443:Generated_Source\PSoC4/CyFlash.c ****                 CY_FLASH_CTL_REG = (CY_FLASH_CTL_REG & ~CY_FLASH_CTL_WS_MASK) | CY_FLASH_CTL_WS_0_V
 444:Generated_Source\PSoC4/CyFlash.c ****             } else
 445:Generated_Source\PSoC4/CyFlash.c ****             if (freq <= CY_FLASH_CTL_WS_1_FREQ_MAX)
 446:Generated_Source\PSoC4/CyFlash.c ****             {
 447:Generated_Source\PSoC4/CyFlash.c ****                 CY_FLASH_CTL_REG = (CY_FLASH_CTL_REG & ~CY_FLASH_CTL_WS_MASK) | CY_FLASH_CTL_WS_1_V
 448:Generated_Source\PSoC4/CyFlash.c ****             } else
 449:Generated_Source\PSoC4/CyFlash.c ****             #if (CY_IP_FMLT || CY_IP_FSLT)
 450:Generated_Source\PSoC4/CyFlash.c ****                 if (freq <= CY_FLASH_CTL_WS_2_FREQ_MAX)
 451:Generated_Source\PSoC4/CyFlash.c ****                 {
 452:Generated_Source\PSoC4/CyFlash.c ****                     CY_FLASH_CTL_REG = (CY_FLASH_CTL_REG & ~CY_FLASH_CTL_WS_MASK) | CY_FLASH_CTL_WS
 453:Generated_Source\PSoC4/CyFlash.c ****                 }
 454:Generated_Source\PSoC4/CyFlash.c ****                 else
 455:Generated_Source\PSoC4/CyFlash.c ****             #endif  /* (CY_IP_FMLT || CY_IP_FSLT) */
 456:Generated_Source\PSoC4/CyFlash.c ****         #endif /* (CY_IP_CPUSS_FLASHC_PRESENT) */
 457:Generated_Source\PSoC4/CyFlash.c ****         {
 458:Generated_Source\PSoC4/CyFlash.c ****             /* Halt CPU in debug mode if frequency is invalid */
 459:Generated_Source\PSoC4/CyFlash.c ****             CYASSERT(0u != 0u);
 460:Generated_Source\PSoC4/CyFlash.c ****         }
 461:Generated_Source\PSoC4/CyFlash.c **** 
 462:Generated_Source\PSoC4/CyFlash.c ****     #endif  /* (CY_IP_CPUSS) */
 463:Generated_Source\PSoC4/CyFlash.c **** 
 464:Generated_Source\PSoC4/CyFlash.c ****     CyExitCriticalSection(interruptState);
 465:Generated_Source\PSoC4/CyFlash.c **** }
 466:Generated_Source\PSoC4/CyFlash.c **** 
 467:Generated_Source\PSoC4/CyFlash.c **** 
 468:Generated_Source\PSoC4/CyFlash.c **** #if (CY_SFLASH_XTRA_ROWS)
 469:Generated_Source\PSoC4/CyFlash.c **** /*******************************************************************************
 470:Generated_Source\PSoC4/CyFlash.c **** * Function Name: CySysSFlashWriteUserRow
 471:Generated_Source\PSoC4/CyFlash.c **** ****************************************************************************//**
 472:Generated_Source\PSoC4/CyFlash.c **** *
 473:Generated_Source\PSoC4/CyFlash.c **** * Writes data to a row of SFlash user configurable area.
 474:Generated_Source\PSoC4/CyFlash.c **** *
 475:Generated_Source\PSoC4/CyFlash.c **** * This API is applicable for PSoC 4100 BLE, PSoC 4200 BLE, PSoC 4100M,
 476:Generated_Source\PSoC4/CyFlash.c **** * PSoC 4200M, and PSoC 4200L family of devices.
 477:Generated_Source\PSoC4/CyFlash.c **** *
 478:Generated_Source\PSoC4/CyFlash.c **** * \param rowNum The flash row number. The flash row number. The number of the
 479:Generated_Source\PSoC4/CyFlash.c **** * flash rows is defined by the CY_SFLASH_NUMBER_USERROWS macro for the selected
 480:Generated_Source\PSoC4/CyFlash.c **** * device. Valid range is 0-3. Refer to the device TRM for details.
 481:Generated_Source\PSoC4/CyFlash.c **** *
 482:Generated_Source\PSoC4/CyFlash.c **** * \param rowData Array of bytes to write. The size of the array must be equal to
 483:Generated_Source\PSoC4/CyFlash.c **** * the flash row size. The flash row size for the selected device is defined by
 484:Generated_Source\PSoC4/CyFlash.c **** * the \ref CY_SFLASH_SIZEOF_USERROW macro. Refer to the device TRM for the
 485:Generated_Source\PSoC4/CyFlash.c **** * details.
 486:Generated_Source\PSoC4/CyFlash.c **** *
 487:Generated_Source\PSoC4/CyFlash.c **** * \return \ref group_flash_status_codes
 488:Generated_Source\PSoC4/CyFlash.c **** *
 489:Generated_Source\PSoC4/CyFlash.c **** *******************************************************************************/
ARM GAS  C:\Users\young\AppData\Local\Temp\cc1lbVO5.s 			page 16


 490:Generated_Source\PSoC4/CyFlash.c **** uint32 CySysSFlashWriteUserRow(uint32 rowNum, const uint8 rowData[])
 491:Generated_Source\PSoC4/CyFlash.c **** {
 492:Generated_Source\PSoC4/CyFlash.c ****     volatile uint32 retValue = CY_SYS_FLASH_SUCCESS;
 493:Generated_Source\PSoC4/CyFlash.c ****     volatile uint32 clkCnfRetValue = CY_SYS_FLASH_SUCCESS;
 494:Generated_Source\PSoC4/CyFlash.c ****     volatile uint32 parameters[(CY_FLASH_SIZEOF_ROW + CY_FLASH_SRAM_ROM_DATA)/4u];
 495:Generated_Source\PSoC4/CyFlash.c ****     uint8  interruptState;
 496:Generated_Source\PSoC4/CyFlash.c **** 
 497:Generated_Source\PSoC4/CyFlash.c **** 
 498:Generated_Source\PSoC4/CyFlash.c ****     if ((rowNum < CY_SFLASH_NUMBER_USERROWS) && (rowData != 0u))
 499:Generated_Source\PSoC4/CyFlash.c ****     {
 500:Generated_Source\PSoC4/CyFlash.c ****         /* Load Flash Bytes */
 501:Generated_Source\PSoC4/CyFlash.c ****         parameters[0u] = (uint32) (CY_FLASH_GET_MACRO_FROM_ROW(rowNum)        << CY_FLASH_PARAM_MAC
 502:Generated_Source\PSoC4/CyFlash.c ****                          (uint32) (CY_FLASH_PAGE_LATCH_START_ADDR             << CY_FLASH_PARAM_ADD
 503:Generated_Source\PSoC4/CyFlash.c ****                          (uint32) (CY_FLASH_KEY_TWO(CY_FLASH_API_OPCODE_LOAD) << CY_FLASH_PARAM_KEY
 504:Generated_Source\PSoC4/CyFlash.c ****                          CY_FLASH_KEY_ONE;
 505:Generated_Source\PSoC4/CyFlash.c ****         parameters[1u] = CY_FLASH_SIZEOF_ROW - 1u;
 506:Generated_Source\PSoC4/CyFlash.c **** 
 507:Generated_Source\PSoC4/CyFlash.c ****         (void)memcpy((void *)&parameters[2u], rowData, CY_FLASH_SIZEOF_ROW);
 508:Generated_Source\PSoC4/CyFlash.c ****         CY_FLASH_CPUSS_SYSARG_REG = (uint32) &parameters[0u];
 509:Generated_Source\PSoC4/CyFlash.c ****         CY_FLASH_CPUSS_SYSREQ_REG = CY_FLASH_CPUSS_REQ_START | CY_FLASH_API_OPCODE_LOAD;
 510:Generated_Source\PSoC4/CyFlash.c ****         CY_NOP;
 511:Generated_Source\PSoC4/CyFlash.c ****         retValue = CY_FLASH_API_RETURN;
 512:Generated_Source\PSoC4/CyFlash.c **** 
 513:Generated_Source\PSoC4/CyFlash.c ****         if(retValue == CY_SYS_FLASH_SUCCESS)
 514:Generated_Source\PSoC4/CyFlash.c ****         {
 515:Generated_Source\PSoC4/CyFlash.c ****             /***************************************************************
 516:Generated_Source\PSoC4/CyFlash.c ****             * Mask all the exceptions to guarantee that Flash write will
 517:Generated_Source\PSoC4/CyFlash.c ****             * occur in the atomic way. It will not affect system call
 518:Generated_Source\PSoC4/CyFlash.c ****             * execution (flash row write) since it is executed in the NMI
 519:Generated_Source\PSoC4/CyFlash.c ****             * context.
 520:Generated_Source\PSoC4/CyFlash.c ****             ***************************************************************/
 521:Generated_Source\PSoC4/CyFlash.c ****             interruptState = CyEnterCriticalSection();
 522:Generated_Source\PSoC4/CyFlash.c **** 
 523:Generated_Source\PSoC4/CyFlash.c ****             clkCnfRetValue = CySysFlashClockBackup();
 524:Generated_Source\PSoC4/CyFlash.c **** 
 525:Generated_Source\PSoC4/CyFlash.c ****         #if(CY_IP_SPCIF_SYNCHRONOUS)
 526:Generated_Source\PSoC4/CyFlash.c ****             if(clkCnfRetValue == CY_SYS_FLASH_SUCCESS)
 527:Generated_Source\PSoC4/CyFlash.c ****             {
 528:Generated_Source\PSoC4/CyFlash.c ****                 retValue = CySysFlashClockConfig();
 529:Generated_Source\PSoC4/CyFlash.c ****             }
 530:Generated_Source\PSoC4/CyFlash.c ****         #endif  /* (CY_IP_SPCIF_SYNCHRONOUS) */
 531:Generated_Source\PSoC4/CyFlash.c **** 
 532:Generated_Source\PSoC4/CyFlash.c ****             if(retValue == CY_SYS_FLASH_SUCCESS)
 533:Generated_Source\PSoC4/CyFlash.c ****             {
 534:Generated_Source\PSoC4/CyFlash.c ****                 /* Write User Sflash Row */
 535:Generated_Source\PSoC4/CyFlash.c ****                 parameters[0u]  = (uint32) (((uint32) CY_FLASH_KEY_TWO(CY_FLASH_API_OPCODE_WRITE_SF
 536:Generated_Source\PSoC4/CyFlash.c ****                 parameters[1u] = (uint32) rowNum;
 537:Generated_Source\PSoC4/CyFlash.c **** 
 538:Generated_Source\PSoC4/CyFlash.c ****                 CY_FLASH_CPUSS_SYSARG_REG = (uint32) &parameters[0u];
 539:Generated_Source\PSoC4/CyFlash.c ****                 CY_FLASH_CPUSS_SYSREQ_REG = CY_FLASH_CPUSS_REQ_START | CY_FLASH_API_OPCODE_WRITE_SF
 540:Generated_Source\PSoC4/CyFlash.c ****                 CY_NOP;
 541:Generated_Source\PSoC4/CyFlash.c ****                 retValue = CY_FLASH_API_RETURN;
 542:Generated_Source\PSoC4/CyFlash.c ****             }
 543:Generated_Source\PSoC4/CyFlash.c **** 
 544:Generated_Source\PSoC4/CyFlash.c ****             if(clkCnfRetValue == CY_SYS_FLASH_SUCCESS)
 545:Generated_Source\PSoC4/CyFlash.c ****             {
 546:Generated_Source\PSoC4/CyFlash.c ****                 clkCnfRetValue = CySysFlashClockRestore();
ARM GAS  C:\Users\young\AppData\Local\Temp\cc1lbVO5.s 			page 17


 547:Generated_Source\PSoC4/CyFlash.c ****             }
 548:Generated_Source\PSoC4/CyFlash.c ****             CyExitCriticalSection(interruptState);
 549:Generated_Source\PSoC4/CyFlash.c ****         }
 550:Generated_Source\PSoC4/CyFlash.c ****     }
 551:Generated_Source\PSoC4/CyFlash.c ****     else
 552:Generated_Source\PSoC4/CyFlash.c ****     {
 553:Generated_Source\PSoC4/CyFlash.c ****         retValue = CY_SYS_FLASH_INVALID_ADDR;
 554:Generated_Source\PSoC4/CyFlash.c ****     }
 555:Generated_Source\PSoC4/CyFlash.c **** 
 556:Generated_Source\PSoC4/CyFlash.c ****     return (retValue);
 557:Generated_Source\PSoC4/CyFlash.c **** }
 558:Generated_Source\PSoC4/CyFlash.c **** #endif /* (CY_SFLASH_XTRA_ROWS) */
 559:Generated_Source\PSoC4/CyFlash.c **** 
 560:Generated_Source\PSoC4/CyFlash.c **** 
 561:Generated_Source\PSoC4/CyFlash.c **** /*******************************************************************************
 562:Generated_Source\PSoC4/CyFlash.c **** * Function Name: CySysFlashClockBackup
 563:Generated_Source\PSoC4/CyFlash.c **** ****************************************************************************//**
 564:Generated_Source\PSoC4/CyFlash.c **** *
 565:Generated_Source\PSoC4/CyFlash.c **** * Backups the device clock configuration.
 566:Generated_Source\PSoC4/CyFlash.c **** *
 567:Generated_Source\PSoC4/CyFlash.c **** * \return The same as \ref CySysFlashWriteRow().
 568:Generated_Source\PSoC4/CyFlash.c **** *
 569:Generated_Source\PSoC4/CyFlash.c **** *******************************************************************************/
 570:Generated_Source\PSoC4/CyFlash.c **** static cystatus CySysFlashClockBackup(void)
 571:Generated_Source\PSoC4/CyFlash.c **** {
 572:Generated_Source\PSoC4/CyFlash.c ****     cystatus retValue = CY_SYS_FLASH_SUCCESS;
 573:Generated_Source\PSoC4/CyFlash.c **** #if(!CY_IP_FM)
 574:Generated_Source\PSoC4/CyFlash.c ****     #if !(CY_PSOC4_4000)
 575:Generated_Source\PSoC4/CyFlash.c ****         #if (CY_IP_SPCIF_SYNCHRONOUS)
 576:Generated_Source\PSoC4/CyFlash.c ****             volatile uint32   parameters[2u];
 577:Generated_Source\PSoC4/CyFlash.c ****         #endif /* (CY_IP_SPCIF_SYNCHRONOUS) */
 578:Generated_Source\PSoC4/CyFlash.c ****     #endif  /* !(CY_PSOC4_4000) */
 579:Generated_Source\PSoC4/CyFlash.c **** #endif  /* (!CY_IP_FM) */
 580:Generated_Source\PSoC4/CyFlash.c **** 
 581:Generated_Source\PSoC4/CyFlash.c **** #if(CY_IP_FM)
 582:Generated_Source\PSoC4/CyFlash.c **** 
 583:Generated_Source\PSoC4/CyFlash.c ****     /***************************************************************
 584:Generated_Source\PSoC4/CyFlash.c ****     * Preserve IMO configuration that could be changed during
 585:Generated_Source\PSoC4/CyFlash.c ****     * system call execution (Cypress ID #150448).
 586:Generated_Source\PSoC4/CyFlash.c ****     ***************************************************************/
 587:Generated_Source\PSoC4/CyFlash.c ****     cySysFlashBackup.imoConfigReg = CY_SYS_CLK_IMO_CONFIG_REG;
 588:Generated_Source\PSoC4/CyFlash.c **** 
 589:Generated_Source\PSoC4/CyFlash.c **** #else   /* (CY_IP_FMLT) */
 590:Generated_Source\PSoC4/CyFlash.c **** 
 591:Generated_Source\PSoC4/CyFlash.c ****     #if (CY_PSOC4_4000)
 592:Generated_Source\PSoC4/CyFlash.c **** 
 593:Generated_Source\PSoC4/CyFlash.c ****         /***************************************************************************
 594:Generated_Source\PSoC4/CyFlash.c ****         * Perform firmware clock settings backup for the PSOC4 4000 devices (the
 595:Generated_Source\PSoC4/CyFlash.c ****         * corresponding system call is not available).
 596:Generated_Source\PSoC4/CyFlash.c ****         ***************************************************************************/
 597:Generated_Source\PSoC4/CyFlash.c **** 
 598:Generated_Source\PSoC4/CyFlash.c ****         /***************************************************************************
 599:Generated_Source\PSoC4/CyFlash.c ****         * The registers listed below are modified by CySysFlashClockConfig().
 600:Generated_Source\PSoC4/CyFlash.c ****         *
 601:Generated_Source\PSoC4/CyFlash.c ****         * The registers to be saved:
 602:Generated_Source\PSoC4/CyFlash.c ****         * - CY_SYS_CLK_IMO_CONFIG_REG - IMO enable state.
 603:Generated_Source\PSoC4/CyFlash.c ****         * - CY_SYS_CLK_SELECT_REG     - HFCLK source, divider, pump source. Save
ARM GAS  C:\Users\young\AppData\Local\Temp\cc1lbVO5.s 			page 18


 604:Generated_Source\PSoC4/CyFlash.c ****         *                               entire register as it can be directly
 605:Generated_Source\PSoC4/CyFlash.c ****         *                               written on restore (no special
 606:Generated_Source\PSoC4/CyFlash.c ****         *                               requirements).
 607:Generated_Source\PSoC4/CyFlash.c ****         * - CY_SYS_CLK_IMO_SELECT_REG - Save IMO frequency.
 608:Generated_Source\PSoC4/CyFlash.c ****         *
 609:Generated_Source\PSoC4/CyFlash.c ****         * The registers not to be saved:
 610:Generated_Source\PSoC4/CyFlash.c ****         * - CY_SYS_CLK_IMO_TRIM1_REG  - No need to save. Function of frequency.
 611:Generated_Source\PSoC4/CyFlash.c ****         *                               Restored by CySysClkWriteImoFreq().
 612:Generated_Source\PSoC4/CyFlash.c ****         * - CY_SYS_CLK_IMO_TRIM3_REG  - No need to save. Function of frequency.
 613:Generated_Source\PSoC4/CyFlash.c ****         *                               Restored by CySysClkWriteImoFreq().
 614:Generated_Source\PSoC4/CyFlash.c ****         * - REG_CPUSS_FLASH_CTL       - Flash wait cycles. Unmodified due to system
 615:Generated_Source\PSoC4/CyFlash.c ****         *                               clock 16 MHz limit.
 616:Generated_Source\PSoC4/CyFlash.c ****         ***************************************************************************/
 617:Generated_Source\PSoC4/CyFlash.c **** 
 618:Generated_Source\PSoC4/CyFlash.c ****         cySysFlashBackup.clkSelectReg = CY_SYS_CLK_SELECT_REG;
 345              		.loc 1 618 0
 346 0178 814B     		ldr	r3, .L120+16
 347              	.LBE14:
 348              	.LBE13:
 143:Generated_Source\PSoC4/CyFlash.c **** 
 349              		.loc 1 143 0
 350 017a 8346     		mov	fp, r0
 351              	.LVL12:
 352              	.LBB16:
 353              	.LBB15:
 354              		.loc 1 618 0
 355 017c 1A68     		ldr	r2, [r3]
 356 017e 814B     		ldr	r3, .L120+20
 357 0180 9A46     		mov	r10, r3
 619:Generated_Source\PSoC4/CyFlash.c ****         cySysFlashBackup.clkImoEna    = CY_SYS_CLK_IMO_CONFIG_REG & CY_SYS_CLK_IMO_CONFIG_ENABLE;
 358              		.loc 1 619 0
 359 0182 5146     		mov	r1, r10
 618:Generated_Source\PSoC4/CyFlash.c ****         cySysFlashBackup.clkImoEna    = CY_SYS_CLK_IMO_CONFIG_REG & CY_SYS_CLK_IMO_CONFIG_ENABLE;
 360              		.loc 1 618 0
 361 0184 1A60     		str	r2, [r3]
 362              		.loc 1 619 0
 363 0186 804B     		ldr	r3, .L120+24
 364 0188 1B68     		ldr	r3, [r3]
 365 018a DB0F     		lsrs	r3, r3, #31
 366 018c DB07     		lsls	r3, r3, #31
 367 018e 4B60     		str	r3, [r1, #4]
 620:Generated_Source\PSoC4/CyFlash.c ****         cySysFlashBackup.clkImoFreq   = CY_SYS_CLK_IMO_MIN_FREQ_MHZ + (CY_SYS_CLK_IMO_SELECT_REG <<
 368              		.loc 1 620 0
 369 0190 7E4B     		ldr	r3, .L120+28
 370 0192 1B68     		ldr	r3, [r3]
 371 0194 9B00     		lsls	r3, r3, #2
 372 0196 1833     		adds	r3, r3, #24
 373 0198 8B60     		str	r3, [r1, #8]
 374              	.LBE15:
 375              	.LBE16:
 145:Generated_Source\PSoC4/CyFlash.c **** 
 376              		.loc 1 145 0
 377 019a 4946     		mov	r1, r9
 378 019c 0191     		str	r1, [sp, #4]
 148:Generated_Source\PSoC4/CyFlash.c ****             {
 379              		.loc 1 148 0
 380 019e 0199     		ldr	r1, [sp, #4]
ARM GAS  C:\Users\young\AppData\Local\Temp\cc1lbVO5.s 			page 19


 381 01a0 0029     		cmp	r1, #0
 382 01a2 00D1     		bne	.LCB287
 383 01a4 C0E0     		b	.L116	@long jump
 384              	.LCB287:
 385              	.L70:
 154:Generated_Source\PSoC4/CyFlash.c ****             {
 386              		.loc 1 154 0
 387 01a6 009B     		ldr	r3, [sp]
 388 01a8 002B     		cmp	r3, #0
 389 01aa 17D1     		bne	.L74
 157:Generated_Source\PSoC4/CyFlash.c ****                 parameters[0u] |= (uint32)(rowNum << 16u);
 390              		.loc 1 157 0
 391 01ac 784A     		ldr	r2, .L120+32
 158:Generated_Source\PSoC4/CyFlash.c **** 
 392              		.loc 1 158 0
 393 01ae 3104     		lsls	r1, r6, #16
 157:Generated_Source\PSoC4/CyFlash.c ****                 parameters[0u] |= (uint32)(rowNum << 16u);
 394              		.loc 1 157 0
 395 01b0 0292     		str	r2, [sp, #8]
 158:Generated_Source\PSoC4/CyFlash.c **** 
 396              		.loc 1 158 0
 397 01b2 029A     		ldr	r2, [sp, #8]
 161:Generated_Source\PSoC4/CyFlash.c ****                 CY_NOP;
 398              		.loc 1 161 0
 399 01b4 7748     		ldr	r0, .L120+36
 158:Generated_Source\PSoC4/CyFlash.c **** 
 400              		.loc 1 158 0
 401 01b6 0A43     		orrs	r2, r1
 402 01b8 0292     		str	r2, [sp, #8]
 161:Generated_Source\PSoC4/CyFlash.c ****                 CY_NOP;
 403              		.loc 1 161 0
 404 01ba 6F49     		ldr	r1, .L120+8
 160:Generated_Source\PSoC4/CyFlash.c ****                 CY_FLASH_CPUSS_SYSREQ_REG = CY_FLASH_CPUSS_REQ_START | CY_FLASH_API_OPCODE_WRITE_RO
 405              		.loc 1 160 0
 406 01bc 6F4A     		ldr	r2, .L120+12
 407 01be 1560     		str	r5, [r2]
 161:Generated_Source\PSoC4/CyFlash.c ****                 CY_NOP;
 408              		.loc 1 161 0
 409 01c0 0860     		str	r0, [r1]
 162:Generated_Source\PSoC4/CyFlash.c ****                 retValue = CY_FLASH_API_RETURN;
 410              		.loc 1 162 0
 411              		.syntax divided
 412              	@ 162 "Generated_Source\PSoC4\CyFlash.c" 1
 413 01c2 C046     		NOP
 414              	
 415              	@ 0 "" 2
 163:Generated_Source\PSoC4/CyFlash.c ****             }
 416              		.loc 1 163 0
 417              		.thumb
 418              		.syntax unified
 419 01c4 1168     		ldr	r1, [r2]
 420 01c6 090F     		lsrs	r1, r1, #28
 421 01c8 0F29     		cmp	r1, #15
 422 01ca 03D0     		beq	.L112
 163:Generated_Source\PSoC4/CyFlash.c ****             }
 423              		.loc 1 163 0 is_stmt 0 discriminator 2
 424 01cc 1168     		ldr	r1, [r2]
ARM GAS  C:\Users\young\AppData\Local\Temp\cc1lbVO5.s 			page 20


 425 01ce 090F     		lsrs	r1, r1, #28
 426 01d0 0A29     		cmp	r1, #10
 427 01d2 02D0     		beq	.L76
 428              	.L112:
 163:Generated_Source\PSoC4/CyFlash.c ****             }
 429              		.loc 1 163 0 discriminator 4
 430 01d4 1368     		ldr	r3, [r2]
 431 01d6 FF22     		movs	r2, #255
 432 01d8 1340     		ands	r3, r2
 433              	.L76:
 163:Generated_Source\PSoC4/CyFlash.c ****             }
 434              		.loc 1 163 0 discriminator 8
 435 01da 0093     		str	r3, [sp]
 436              	.L74:
 168:Generated_Source\PSoC4/CyFlash.c ****                 {
 437              		.loc 1 168 0 is_stmt 1
 438 01dc 009B     		ldr	r3, [sp]
 439 01de 9946     		mov	r9, r3
 440 01e0 002B     		cmp	r3, #0
 441 01e2 02D1     		bne	.L78
 168:Generated_Source\PSoC4/CyFlash.c ****                 {
 442              		.loc 1 168 0 is_stmt 0 discriminator 1
 443 01e4 4346     		mov	r3, r8
 444 01e6 002B     		cmp	r3, #0
 445 01e8 58D1     		bne	.L117
 446              	.LVL13:
 447              	.L78:
 202:Generated_Source\PSoC4/CyFlash.c ****             {
 448              		.loc 1 202 0 is_stmt 1
 449 01ea 019B     		ldr	r3, [sp, #4]
 450 01ec 002B     		cmp	r3, #0
 451 01ee 37D0     		beq	.L118
 452              	.L85:
 212:Generated_Source\PSoC4/CyFlash.c ****         }
 453              		.loc 1 212 0
 454 01f0 5846     		mov	r0, fp
 455 01f2 FFF7FEFF 		bl	CyExitCriticalSection
 456              	.LVL14:
 457 01f6 01E0     		b	.L69
 458              	.LVL15:
 459              	.L2:
 217:Generated_Source\PSoC4/CyFlash.c ****     }
 460              		.loc 1 217 0
 461 01f8 0423     		movs	r3, #4
 462 01fa 0093     		str	r3, [sp]
 463              	.LVL16:
 464              	.L69:
 220:Generated_Source\PSoC4/CyFlash.c **** }
 465              		.loc 1 220 0
 466 01fc 0098     		ldr	r0, [sp]
 221:Generated_Source\PSoC4/CyFlash.c **** 
 467              		.loc 1 221 0
 468 01fe 15B0     		add	sp, sp, #84
 469              		@ sp needed
 470 0200 3CBC     		pop	{r2, r3, r4, r5}
 471 0202 9046     		mov	r8, r2
 472 0204 9946     		mov	r9, r3
ARM GAS  C:\Users\young\AppData\Local\Temp\cc1lbVO5.s 			page 21


 473 0206 A246     		mov	r10, r4
 474 0208 AB46     		mov	fp, r5
 475 020a F0BD     		pop	{r4, r5, r6, r7, pc}
 476              	.LVL17:
 477              	.L5:
 478 020c 0324     		movs	r4, #3
 479 020e 8A18     		adds	r2, r1, r2
 480 0210 1AE7     		b	.L8
 481              	.LVL18:
 482              	.L91:
 483 0212 0023     		movs	r3, #0
 484              	.LVL19:
 485              	.L110:
 486 0214 9846     		mov	r8, r3
  91:Generated_Source\PSoC4/CyFlash.c ****         uint32 checksum = 0u;
 487              		.loc 1 91 0
 488 0216 0027     		movs	r7, #0
 489 0218 91E7     		b	.L65
 490              	.LVL20:
 491              	.L57:
 492 021a 1024     		movs	r4, #16
 493 021c D318     		adds	r3, r2, r3
 494 021e 0100     		movs	r1, r0
 495 0220 7AE7     		b	.L60
 496              	.L53:
 497 0222 0F24     		movs	r4, #15
 498 0224 9A18     		adds	r2, r3, r2
 499 0226 0100     		movs	r1, r0
 500 0228 6FE7     		b	.L56
 501              	.L49:
 502 022a 5318     		adds	r3, r2, r1
 503 022c 0E24     		movs	r4, #14
 504 022e 0100     		movs	r1, r0
 505 0230 64E7     		b	.L52
 506              	.L45:
 507 0232 0D24     		movs	r4, #13
 508 0234 1A18     		adds	r2, r3, r0
 509 0236 59E7     		b	.L48
 510              	.L37:
 511 0238 5A18     		adds	r2, r3, r1
 512 023a 0B24     		movs	r4, #11
 513 023c 0100     		movs	r1, r0
 514 023e 44E7     		b	.L40
 515              	.L33:
 516 0240 0A24     		movs	r4, #10
 517 0242 1318     		adds	r3, r2, r0
 518 0244 39E7     		b	.L36
 519              	.L25:
 520 0246 5318     		adds	r3, r2, r1
 521 0248 0824     		movs	r4, #8
 522 024a 0100     		movs	r1, r0
 523 024c 24E7     		b	.L28
 524              	.L21:
 525 024e 0724     		movs	r4, #7
 526 0250 1A18     		adds	r2, r3, r0
 527 0252 19E7     		b	.L24
 528              	.L13:
ARM GAS  C:\Users\young\AppData\Local\Temp\cc1lbVO5.s 			page 22


 529 0254 5218     		adds	r2, r2, r1
 530 0256 0524     		movs	r4, #5
 531 0258 1900     		movs	r1, r3
 532 025a 04E7     		b	.L16
 533              	.LVL21:
 534              	.L92:
 133:Generated_Source\PSoC4/CyFlash.c **** 
 535              		.loc 1 133 0
 536 025c 0023     		movs	r3, #0
 537 025e 84E7     		b	.L68
 538              	.LVL22:
 539              	.L118:
 540              	.LBB17:
 541              	.LBB18:
 621:Generated_Source\PSoC4/CyFlash.c **** 
 622:Generated_Source\PSoC4/CyFlash.c ****     #else
 623:Generated_Source\PSoC4/CyFlash.c **** 
 624:Generated_Source\PSoC4/CyFlash.c ****         #if (CY_IP_SPCIF_SYNCHRONOUS)
 625:Generated_Source\PSoC4/CyFlash.c ****             /* FM-Lite Clock Backup System Call */
 626:Generated_Source\PSoC4/CyFlash.c ****             parameters[0u] =
 627:Generated_Source\PSoC4/CyFlash.c ****                 (uint32) ((CY_FLASH_KEY_TWO(CY_FLASH_API_OPCODE_CLK_BACKUP) <<  CY_FLASH_PARAM_KEY_
 628:Generated_Source\PSoC4/CyFlash.c ****                             CY_FLASH_KEY_ONE);
 629:Generated_Source\PSoC4/CyFlash.c ****             parameters[1u] = (uint32) &cySysFlashBackup.clockSettings[0u];
 630:Generated_Source\PSoC4/CyFlash.c ****             CY_FLASH_CPUSS_SYSARG_REG = (uint32) &parameters[0u];
 631:Generated_Source\PSoC4/CyFlash.c ****             CY_FLASH_CPUSS_SYSREQ_REG = CY_FLASH_CPUSS_REQ_START | CY_FLASH_API_OPCODE_CLK_BACKUP;
 632:Generated_Source\PSoC4/CyFlash.c ****             CY_NOP;
 633:Generated_Source\PSoC4/CyFlash.c ****             retValue = CY_FLASH_API_RETURN;
 634:Generated_Source\PSoC4/CyFlash.c ****         #endif /* (CY_IP_SPCIF_SYNCHRONOUS) */
 635:Generated_Source\PSoC4/CyFlash.c **** 
 636:Generated_Source\PSoC4/CyFlash.c ****     #endif  /* (CY_PSOC4_4000) */
 637:Generated_Source\PSoC4/CyFlash.c **** 
 638:Generated_Source\PSoC4/CyFlash.c **** #endif  /* (CY_IP_FM) */
 639:Generated_Source\PSoC4/CyFlash.c **** 
 640:Generated_Source\PSoC4/CyFlash.c ****     return (retValue);
 641:Generated_Source\PSoC4/CyFlash.c **** }
 642:Generated_Source\PSoC4/CyFlash.c **** 
 643:Generated_Source\PSoC4/CyFlash.c **** 
 644:Generated_Source\PSoC4/CyFlash.c **** #if(CY_IP_SPCIF_SYNCHRONOUS)
 645:Generated_Source\PSoC4/CyFlash.c **** /*******************************************************************************
 646:Generated_Source\PSoC4/CyFlash.c **** * Function Name: CySysFlashClockConfig
 647:Generated_Source\PSoC4/CyFlash.c **** ****************************************************************************//**
 648:Generated_Source\PSoC4/CyFlash.c **** *
 649:Generated_Source\PSoC4/CyFlash.c **** * Configures the device clocks for the flash writing.
 650:Generated_Source\PSoC4/CyFlash.c **** *
 651:Generated_Source\PSoC4/CyFlash.c **** * \return The same as \ref CySysFlashWriteRow().
 652:Generated_Source\PSoC4/CyFlash.c **** *
 653:Generated_Source\PSoC4/CyFlash.c **** *******************************************************************************/
 654:Generated_Source\PSoC4/CyFlash.c **** static cystatus CySysFlashClockConfig(void)
 655:Generated_Source\PSoC4/CyFlash.c **** {
 656:Generated_Source\PSoC4/CyFlash.c ****     cystatus retValue = CY_SYS_FLASH_SUCCESS;
 657:Generated_Source\PSoC4/CyFlash.c **** 
 658:Generated_Source\PSoC4/CyFlash.c ****     /***************************************************************************
 659:Generated_Source\PSoC4/CyFlash.c ****     * The FM-Lite IP uses the IMO at 48MHz for the pump clock and SPC timer
 660:Generated_Source\PSoC4/CyFlash.c ****     * clock. The PUMP_SEL and HF clock must be set to IMO before calling Flash
 661:Generated_Source\PSoC4/CyFlash.c ****     * write or erase operation.
 662:Generated_Source\PSoC4/CyFlash.c ****     ***************************************************************************/
 663:Generated_Source\PSoC4/CyFlash.c **** #if (CY_PSOC4_4000)
ARM GAS  C:\Users\young\AppData\Local\Temp\cc1lbVO5.s 			page 23


 664:Generated_Source\PSoC4/CyFlash.c **** 
 665:Generated_Source\PSoC4/CyFlash.c ****     /***************************************************************************
 666:Generated_Source\PSoC4/CyFlash.c ****     * Perform firmware clock settings setup for the PSOC4 4000 devices (the
 667:Generated_Source\PSoC4/CyFlash.c ****     * corresponding system call is not reliable):
 668:Generated_Source\PSoC4/CyFlash.c ****     * - The IMO frequency should be 48 MHz
 669:Generated_Source\PSoC4/CyFlash.c ****     * - The IMO should be source for the HFCLK
 670:Generated_Source\PSoC4/CyFlash.c ****     * - The IMO should be the source for the charge pump clock
 671:Generated_Source\PSoC4/CyFlash.c ****     *
 672:Generated_Source\PSoC4/CyFlash.c ****     * Note The structure members used below are initialized by
 673:Generated_Source\PSoC4/CyFlash.c ****     * the CySysFlashClockBackup() function.
 674:Generated_Source\PSoC4/CyFlash.c ****     ***************************************************************************/
 675:Generated_Source\PSoC4/CyFlash.c ****     if ((cySysFlashBackup.clkImoFreq != 48u) ||
 676:Generated_Source\PSoC4/CyFlash.c ****         ((cySysFlashBackup.clkSelectReg & CY_SYS_CLK_SELECT_DIRECT_SEL_MASK) != CY_SYS_CLK_HFCLK_IM
 677:Generated_Source\PSoC4/CyFlash.c ****         (((cySysFlashBackup.clkSelectReg >> CY_SYS_CLK_SELECT_PUMP_SEL_SHIFT) & CY_SYS_CLK_SELECT_P
 678:Generated_Source\PSoC4/CyFlash.c ****             CY_SYS_CLK_SELECT_PUMP_SEL_IMO))
 679:Generated_Source\PSoC4/CyFlash.c ****     {
 680:Generated_Source\PSoC4/CyFlash.c ****         /***********************************************************************
 681:Generated_Source\PSoC4/CyFlash.c ****          Set HFCLK divider to divide-by-4 to ensure that System clock frequency
 682:Generated_Source\PSoC4/CyFlash.c ****         * is within the valid limit (16 MHz for the PSoC4 4000).
 683:Generated_Source\PSoC4/CyFlash.c ****         ***********************************************************************/
 684:Generated_Source\PSoC4/CyFlash.c ****         CySysClkWriteHfclkDiv(CY_SYS_CLK_HFCLK_DIV_4);
 685:Generated_Source\PSoC4/CyFlash.c **** 
 686:Generated_Source\PSoC4/CyFlash.c ****         /* The IMO frequency should be 48 MHz */
 687:Generated_Source\PSoC4/CyFlash.c ****         if (cySysFlashBackup.clkImoFreq != 48u)
 688:Generated_Source\PSoC4/CyFlash.c ****         {
 689:Generated_Source\PSoC4/CyFlash.c ****             CySysClkWriteImoFreq(48u);
 690:Generated_Source\PSoC4/CyFlash.c ****         }
 691:Generated_Source\PSoC4/CyFlash.c ****         CySysClkImoStart();
 692:Generated_Source\PSoC4/CyFlash.c **** 
 693:Generated_Source\PSoC4/CyFlash.c ****         /* The IMO should be source for the HFCLK */
 694:Generated_Source\PSoC4/CyFlash.c ****         CySysClkWriteHfclkDirect(CY_SYS_CLK_HFCLK_IMO);
 695:Generated_Source\PSoC4/CyFlash.c **** 
 696:Generated_Source\PSoC4/CyFlash.c ****         /* The IMO should be the source for the charge pump clock */
 697:Generated_Source\PSoC4/CyFlash.c ****         CY_SYS_CLK_SELECT_REG =  (CY_SYS_CLK_SELECT_REG &
 698:Generated_Source\PSoC4/CyFlash.c ****             ((uint32)~(uint32)(CY_SYS_CLK_SELECT_PUMP_SEL_MASK << CY_SYS_CLK_SELECT_PUMP_SEL_SHIFT)
 699:Generated_Source\PSoC4/CyFlash.c ****             ((uint32)((uint32)1u << CY_SYS_CLK_SELECT_PUMP_SEL_SHIFT));
 700:Generated_Source\PSoC4/CyFlash.c ****     }
 701:Generated_Source\PSoC4/CyFlash.c **** 
 702:Generated_Source\PSoC4/CyFlash.c **** #else
 703:Generated_Source\PSoC4/CyFlash.c **** 
 704:Generated_Source\PSoC4/CyFlash.c ****     /* FM-Lite Clock Configuration */
 705:Generated_Source\PSoC4/CyFlash.c ****     CY_FLASH_CPUSS_SYSARG_REG =
 706:Generated_Source\PSoC4/CyFlash.c ****         (uint32) ((CY_FLASH_KEY_TWO(CY_FLASH_API_OPCODE_CLK_CONFIG) <<  CY_FLASH_PARAM_KEY_TWO_OFFS
 707:Generated_Source\PSoC4/CyFlash.c ****                     CY_FLASH_KEY_ONE);
 708:Generated_Source\PSoC4/CyFlash.c ****     CY_FLASH_CPUSS_SYSREQ_REG = CY_FLASH_CPUSS_REQ_START | CY_FLASH_API_OPCODE_CLK_CONFIG;
 709:Generated_Source\PSoC4/CyFlash.c ****     CY_NOP;
 710:Generated_Source\PSoC4/CyFlash.c ****     retValue = CY_FLASH_API_RETURN;
 711:Generated_Source\PSoC4/CyFlash.c **** 
 712:Generated_Source\PSoC4/CyFlash.c **** #endif  /* (CY_PSOC4_4000) */
 713:Generated_Source\PSoC4/CyFlash.c **** 
 714:Generated_Source\PSoC4/CyFlash.c ****     return (retValue);
 715:Generated_Source\PSoC4/CyFlash.c **** }
 716:Generated_Source\PSoC4/CyFlash.c **** #endif  /* (CY_IP_SPCIF_SYNCHRONOUS) */
 717:Generated_Source\PSoC4/CyFlash.c **** 
 718:Generated_Source\PSoC4/CyFlash.c **** 
 719:Generated_Source\PSoC4/CyFlash.c **** /*******************************************************************************
 720:Generated_Source\PSoC4/CyFlash.c **** * Function Name: CySysFlashClockRestore
ARM GAS  C:\Users\young\AppData\Local\Temp\cc1lbVO5.s 			page 24


 721:Generated_Source\PSoC4/CyFlash.c **** ****************************************************************************//**
 722:Generated_Source\PSoC4/CyFlash.c **** *
 723:Generated_Source\PSoC4/CyFlash.c **** * Restores the device clock configuration.
 724:Generated_Source\PSoC4/CyFlash.c **** *
 725:Generated_Source\PSoC4/CyFlash.c **** * \return The same as \ref CySysFlashWriteRow().
 726:Generated_Source\PSoC4/CyFlash.c **** *
 727:Generated_Source\PSoC4/CyFlash.c **** *******************************************************************************/
 728:Generated_Source\PSoC4/CyFlash.c **** static cystatus CySysFlashClockRestore(void)
 729:Generated_Source\PSoC4/CyFlash.c **** {
 730:Generated_Source\PSoC4/CyFlash.c ****     cystatus retValue = CY_SYS_FLASH_SUCCESS;
 731:Generated_Source\PSoC4/CyFlash.c **** #if(!CY_IP_FM)
 732:Generated_Source\PSoC4/CyFlash.c ****     #if !(CY_PSOC4_4000)
 733:Generated_Source\PSoC4/CyFlash.c ****         #if (CY_IP_SPCIF_SYNCHRONOUS)
 734:Generated_Source\PSoC4/CyFlash.c ****             volatile uint32   parameters[2u];
 735:Generated_Source\PSoC4/CyFlash.c ****         #endif /* (CY_IP_SPCIF_SYNCHRONOUS) */
 736:Generated_Source\PSoC4/CyFlash.c ****     #endif  /* !(CY_PSOC4_4000) */
 737:Generated_Source\PSoC4/CyFlash.c **** #endif  /* (!CY_IP_FM) */
 738:Generated_Source\PSoC4/CyFlash.c **** 
 739:Generated_Source\PSoC4/CyFlash.c **** #if(CY_IP_FM)
 740:Generated_Source\PSoC4/CyFlash.c **** 
 741:Generated_Source\PSoC4/CyFlash.c ****     /***************************************************************
 742:Generated_Source\PSoC4/CyFlash.c ****     * Restore IMO configuration that could be changed during
 743:Generated_Source\PSoC4/CyFlash.c ****     * system call execution (Cypress ID #150448).
 744:Generated_Source\PSoC4/CyFlash.c ****     ***************************************************************/
 745:Generated_Source\PSoC4/CyFlash.c ****     CY_SYS_CLK_IMO_CONFIG_REG = cySysFlashBackup.imoConfigReg;
 746:Generated_Source\PSoC4/CyFlash.c **** 
 747:Generated_Source\PSoC4/CyFlash.c **** #else
 748:Generated_Source\PSoC4/CyFlash.c **** 
 749:Generated_Source\PSoC4/CyFlash.c ****     #if (CY_PSOC4_4000)
 750:Generated_Source\PSoC4/CyFlash.c **** 
 751:Generated_Source\PSoC4/CyFlash.c ****         /***************************************************************************
 752:Generated_Source\PSoC4/CyFlash.c ****         * Perform firmware clock settings restore for the PSOC4 4000 devices (the
 753:Generated_Source\PSoC4/CyFlash.c ****         * corresponding system call is not available).
 754:Generated_Source\PSoC4/CyFlash.c ****         ***************************************************************************/
 755:Generated_Source\PSoC4/CyFlash.c **** 
 756:Generated_Source\PSoC4/CyFlash.c ****         /* Restore clock settings */
 757:Generated_Source\PSoC4/CyFlash.c ****         if ((cySysFlashBackup.clkImoFreq != 48u) ||
 542              		.loc 1 757 0
 543 0260 5346     		mov	r3, r10
 544 0262 9868     		ldr	r0, [r3, #8]
 545 0264 3028     		cmp	r0, #48
 546 0266 55D0     		beq	.L119
 758:Generated_Source\PSoC4/CyFlash.c ****             ((cySysFlashBackup.clkSelectReg & CY_SYS_CLK_SELECT_DIRECT_SEL_MASK) != CY_SYS_CLK_HFCL
 759:Generated_Source\PSoC4/CyFlash.c ****             (((cySysFlashBackup.clkSelectReg >> CY_SYS_CLK_SELECT_PUMP_SEL_SHIFT) & CY_SYS_CLK_SELE
 760:Generated_Source\PSoC4/CyFlash.c ****                 CY_SYS_CLK_SELECT_PUMP_SEL_IMO))
 761:Generated_Source\PSoC4/CyFlash.c ****         {
 762:Generated_Source\PSoC4/CyFlash.c ****             /* Restore IMO frequency if needed */
 763:Generated_Source\PSoC4/CyFlash.c ****             if (cySysFlashBackup.clkImoFreq != 48u)
 764:Generated_Source\PSoC4/CyFlash.c ****             {
 765:Generated_Source\PSoC4/CyFlash.c ****                 CySysClkWriteImoFreq(cySysFlashBackup.clkImoFreq);
 547              		.loc 1 765 0
 548 0268 FFF7FEFF 		bl	CySysClkWriteImoFreq
 549              	.LVL23:
 550 026c 5346     		mov	r3, r10
 551 026e 0320     		movs	r0, #3
 552 0270 1B68     		ldr	r3, [r3]
 553 0272 1840     		ands	r0, r3
ARM GAS  C:\Users\young\AppData\Local\Temp\cc1lbVO5.s 			page 25


 554              	.L87:
 766:Generated_Source\PSoC4/CyFlash.c ****             }
 767:Generated_Source\PSoC4/CyFlash.c **** 
 768:Generated_Source\PSoC4/CyFlash.c ****             /* Restore HFCLK clock source */
 769:Generated_Source\PSoC4/CyFlash.c ****             CySysClkWriteHfclkDirect(cySysFlashBackup.clkSelectReg & CY_SYS_CLK_SELECT_DIRECT_SEL_M
 555              		.loc 1 769 0
 556 0274 FFF7FEFF 		bl	CySysClkWriteHfclkDirect
 557              	.LVL24:
 770:Generated_Source\PSoC4/CyFlash.c **** 
 771:Generated_Source\PSoC4/CyFlash.c ****             /* Restore HFCLK divider and source for pump  */
 772:Generated_Source\PSoC4/CyFlash.c ****             CY_SYS_CLK_SELECT_REG = cySysFlashBackup.clkSelectReg;
 558              		.loc 1 772 0
 559 0278 5246     		mov	r2, r10
 560 027a 414B     		ldr	r3, .L120+16
 561 027c 1268     		ldr	r2, [r2]
 562 027e 1A60     		str	r2, [r3]
 773:Generated_Source\PSoC4/CyFlash.c **** 
 774:Generated_Source\PSoC4/CyFlash.c ****             /* Stop IMO if needed */
 775:Generated_Source\PSoC4/CyFlash.c ****             if (0u == cySysFlashBackup.clkImoEna)
 563              		.loc 1 775 0
 564 0280 5346     		mov	r3, r10
 565 0282 5B68     		ldr	r3, [r3, #4]
 566 0284 002B     		cmp	r3, #0
 567 0286 01D1     		bne	.L88
 776:Generated_Source\PSoC4/CyFlash.c ****             {
 777:Generated_Source\PSoC4/CyFlash.c ****                 CySysClkImoStop();
 568              		.loc 1 777 0
 569 0288 FFF7FEFF 		bl	CySysClkImoStop
 570              	.LVL25:
 571              	.L88:
 572              	.LBE18:
 573              	.LBE17:
 204:Generated_Source\PSoC4/CyFlash.c **** 
 574              		.loc 1 204 0
 575 028c 0023     		movs	r3, #0
 576 028e 0193     		str	r3, [sp, #4]
 206:Generated_Source\PSoC4/CyFlash.c ****                 {
 577              		.loc 1 206 0
 578 0290 019B     		ldr	r3, [sp, #4]
 579 0292 002B     		cmp	r3, #0
 580 0294 ACD0     		beq	.L85
 208:Generated_Source\PSoC4/CyFlash.c ****                 }
 581              		.loc 1 208 0
 582 0296 019B     		ldr	r3, [sp, #4]
 583 0298 0093     		str	r3, [sp]
 584 029a A9E7     		b	.L85
 585              	.LVL26:
 586              	.L117:
 170:Generated_Source\PSoC4/CyFlash.c ****                     parameters[savedIndex] = savedValue;
 587              		.loc 1 170 0
 588 029c 4022     		movs	r2, #64
 589 029e 0021     		movs	r1, #0
 590 02a0 04A8     		add	r0, sp, #16
 591 02a2 FFF7FEFF 		bl	memset
 592              	.LVL27:
 174:Generated_Source\PSoC4/CyFlash.c ****                                      (uint32) (CY_FLASH_PAGE_LATCH_START_ADDR             << CY_FLA
 593              		.loc 1 174 0
ARM GAS  C:\Users\young\AppData\Local\Temp\cc1lbVO5.s 			page 26


 594 02a6 324B     		ldr	r3, .L120
 171:Generated_Source\PSoC4/CyFlash.c **** 
 595              		.loc 1 171 0
 596 02a8 A400     		lsls	r4, r4, #2
 597              	.LVL28:
 598 02aa 2F51     		str	r7, [r5, r4]
 174:Generated_Source\PSoC4/CyFlash.c ****                                      (uint32) (CY_FLASH_PAGE_LATCH_START_ADDR             << CY_FLA
 599              		.loc 1 174 0
 600 02ac 0293     		str	r3, [sp, #8]
 178:Generated_Source\PSoC4/CyFlash.c **** 
 601              		.loc 1 178 0
 602 02ae 3F23     		movs	r3, #63
 181:Generated_Source\PSoC4/CyFlash.c ****                     CY_NOP;
 603              		.loc 1 181 0
 604 02b0 3049     		ldr	r1, .L120+4
 178:Generated_Source\PSoC4/CyFlash.c **** 
 605              		.loc 1 178 0
 606 02b2 6B60     		str	r3, [r5, #4]
 181:Generated_Source\PSoC4/CyFlash.c ****                     CY_NOP;
 607              		.loc 1 181 0
 608 02b4 304A     		ldr	r2, .L120+8
 180:Generated_Source\PSoC4/CyFlash.c ****                     CY_FLASH_CPUSS_SYSREQ_REG = CY_FLASH_CPUSS_REQ_START | CY_FLASH_API_OPCODE_LOAD
 609              		.loc 1 180 0
 610 02b6 314B     		ldr	r3, .L120+12
 611 02b8 1D60     		str	r5, [r3]
 181:Generated_Source\PSoC4/CyFlash.c ****                     CY_NOP;
 612              		.loc 1 181 0
 613 02ba 1160     		str	r1, [r2]
 182:Generated_Source\PSoC4/CyFlash.c ****                     retValue = CY_FLASH_API_RETURN;
 614              		.loc 1 182 0
 615              		.syntax divided
 616              	@ 182 "Generated_Source\PSoC4\CyFlash.c" 1
 617 02bc C046     		NOP
 618              	
 619              	@ 0 "" 2
 183:Generated_Source\PSoC4/CyFlash.c **** 
 620              		.loc 1 183 0
 621              		.thumb
 622              		.syntax unified
 623 02be 1A68     		ldr	r2, [r3]
 624 02c0 120F     		lsrs	r2, r2, #28
 625 02c2 0F2A     		cmp	r2, #15
 626 02c4 03D0     		beq	.L113
 183:Generated_Source\PSoC4/CyFlash.c **** 
 627              		.loc 1 183 0 is_stmt 0 discriminator 2
 628 02c6 1A68     		ldr	r2, [r3]
 629 02c8 120F     		lsrs	r2, r2, #28
 630 02ca 0A2A     		cmp	r2, #10
 631 02cc 03D0     		beq	.L81
 632              	.L113:
 183:Generated_Source\PSoC4/CyFlash.c **** 
 633              		.loc 1 183 0 discriminator 4
 634 02ce FF22     		movs	r2, #255
 635 02d0 1B68     		ldr	r3, [r3]
 636 02d2 1A40     		ands	r2, r3
 637 02d4 9146     		mov	r9, r2
 638              	.L81:
ARM GAS  C:\Users\young\AppData\Local\Temp\cc1lbVO5.s 			page 27


 183:Generated_Source\PSoC4/CyFlash.c **** 
 639              		.loc 1 183 0 discriminator 8
 640 02d6 4B46     		mov	r3, r9
 641 02d8 0093     		str	r3, [sp]
 186:Generated_Source\PSoC4/CyFlash.c ****                     {
 642              		.loc 1 186 0 is_stmt 1 discriminator 8
 643 02da 009B     		ldr	r3, [sp]
 644 02dc 002B     		cmp	r3, #0
 645 02de 00D0     		beq	.LCB576
 646 02e0 83E7     		b	.L78	@long jump
 647              	.LCB576:
 189:Generated_Source\PSoC4/CyFlash.c ****                             (uint32) (((uint32) CY_FLASH_KEY_TWO(CY_FLASH_API_OPCODE_PROGRAM_ROW) <
 648              		.loc 1 189 0
 649 02e2 2D4A     		ldr	r2, .L120+40
 192:Generated_Source\PSoC4/CyFlash.c **** 
 650              		.loc 1 192 0
 651 02e4 3604     		lsls	r6, r6, #16
 652              	.LVL29:
 189:Generated_Source\PSoC4/CyFlash.c ****                             (uint32) (((uint32) CY_FLASH_KEY_TWO(CY_FLASH_API_OPCODE_PROGRAM_ROW) <
 653              		.loc 1 189 0
 654 02e6 0292     		str	r2, [sp, #8]
 192:Generated_Source\PSoC4/CyFlash.c **** 
 655              		.loc 1 192 0
 656 02e8 029A     		ldr	r2, [sp, #8]
 195:Generated_Source\PSoC4/CyFlash.c ****                         CY_NOP;
 657              		.loc 1 195 0
 658 02ea 2C48     		ldr	r0, .L120+44
 192:Generated_Source\PSoC4/CyFlash.c **** 
 659              		.loc 1 192 0
 660 02ec 1643     		orrs	r6, r2
 195:Generated_Source\PSoC4/CyFlash.c ****                         CY_NOP;
 661              		.loc 1 195 0
 662 02ee 2249     		ldr	r1, .L120+8
 194:Generated_Source\PSoC4/CyFlash.c ****                         CY_FLASH_CPUSS_SYSREQ_REG = CY_FLASH_CPUSS_REQ_START | CY_FLASH_API_OPCODE_
 663              		.loc 1 194 0
 664 02f0 224A     		ldr	r2, .L120+12
 192:Generated_Source\PSoC4/CyFlash.c **** 
 665              		.loc 1 192 0
 666 02f2 0296     		str	r6, [sp, #8]
 194:Generated_Source\PSoC4/CyFlash.c ****                         CY_FLASH_CPUSS_SYSREQ_REG = CY_FLASH_CPUSS_REQ_START | CY_FLASH_API_OPCODE_
 667              		.loc 1 194 0
 668 02f4 1560     		str	r5, [r2]
 195:Generated_Source\PSoC4/CyFlash.c ****                         CY_NOP;
 669              		.loc 1 195 0
 670 02f6 0860     		str	r0, [r1]
 196:Generated_Source\PSoC4/CyFlash.c ****                         retValue = CY_FLASH_API_RETURN;
 671              		.loc 1 196 0
 672              		.syntax divided
 673              	@ 196 "Generated_Source\PSoC4\CyFlash.c" 1
 674 02f8 C046     		NOP
 675              	
 676              	@ 0 "" 2
 197:Generated_Source\PSoC4/CyFlash.c ****                     }
 677              		.loc 1 197 0
 678              		.thumb
 679              		.syntax unified
 680 02fa 1168     		ldr	r1, [r2]
ARM GAS  C:\Users\young\AppData\Local\Temp\cc1lbVO5.s 			page 28


 681 02fc 090F     		lsrs	r1, r1, #28
 682 02fe 0F29     		cmp	r1, #15
 683 0300 03D0     		beq	.L114
 197:Generated_Source\PSoC4/CyFlash.c ****                     }
 684              		.loc 1 197 0 is_stmt 0 discriminator 2
 685 0302 1168     		ldr	r1, [r2]
 686 0304 090F     		lsrs	r1, r1, #28
 687 0306 0A29     		cmp	r1, #10
 688 0308 02D0     		beq	.L83
 689              	.L114:
 197:Generated_Source\PSoC4/CyFlash.c ****                     }
 690              		.loc 1 197 0 discriminator 4
 691 030a 1368     		ldr	r3, [r2]
 692 030c FF22     		movs	r2, #255
 693 030e 1340     		ands	r3, r2
 694              	.L83:
 197:Generated_Source\PSoC4/CyFlash.c ****                     }
 695              		.loc 1 197 0 discriminator 8
 696 0310 0093     		str	r3, [sp]
 697 0312 6AE7     		b	.L78
 698              	.LVL30:
 699              	.L119:
 700              	.LBB20:
 701              	.LBB19:
 758:Generated_Source\PSoC4/CyFlash.c ****             (((cySysFlashBackup.clkSelectReg >> CY_SYS_CLK_SELECT_PUMP_SEL_SHIFT) & CY_SYS_CLK_SELE
 702              		.loc 1 758 0 is_stmt 1
 703 0314 0322     		movs	r2, #3
 704 0316 1000     		movs	r0, r2
 705 0318 1B68     		ldr	r3, [r3]
 706 031a 1840     		ands	r0, r3
 757:Generated_Source\PSoC4/CyFlash.c ****             ((cySysFlashBackup.clkSelectReg & CY_SYS_CLK_SELECT_DIRECT_SEL_MASK) != CY_SYS_CLK_HFCL
 707              		.loc 1 757 0
 708 031c AAD1     		bne	.L87
 758:Generated_Source\PSoC4/CyFlash.c ****             (((cySysFlashBackup.clkSelectReg >> CY_SYS_CLK_SELECT_PUMP_SEL_SHIFT) & CY_SYS_CLK_SELE
 709              		.loc 1 758 0
 710 031e 1B09     		lsrs	r3, r3, #4
 711 0320 1340     		ands	r3, r2
 712 0322 012B     		cmp	r3, #1
 713 0324 A6D1     		bne	.L87
 714 0326 B1E7     		b	.L88
 715              	.LVL31:
 716              	.L116:
 717              	.LBE19:
 718              	.LBE20:
 719              	.LBB21:
 720              	.LBB22:
 675:Generated_Source\PSoC4/CyFlash.c ****         ((cySysFlashBackup.clkSelectReg & CY_SYS_CLK_SELECT_DIRECT_SEL_MASK) != CY_SYS_CLK_HFCLK_IM
 721              		.loc 1 675 0
 722 0328 302B     		cmp	r3, #48
 723 032a 06D1     		bne	.L71
 724 032c 2D3B     		subs	r3, r3, #45
 725 032e 1342     		tst	r3, r2
 726 0330 03D1     		bne	.L71
 676:Generated_Source\PSoC4/CyFlash.c ****         (((cySysFlashBackup.clkSelectReg >> CY_SYS_CLK_SELECT_PUMP_SEL_SHIFT) & CY_SYS_CLK_SELECT_P
 727              		.loc 1 676 0
 728 0332 1209     		lsrs	r2, r2, #4
 729 0334 1A40     		ands	r2, r3
ARM GAS  C:\Users\young\AppData\Local\Temp\cc1lbVO5.s 			page 29


 730 0336 012A     		cmp	r2, #1
 731 0338 16D0     		beq	.L72
 732              	.L71:
 684:Generated_Source\PSoC4/CyFlash.c **** 
 733              		.loc 1 684 0
 734 033a 0220     		movs	r0, #2
 735 033c FFF7FEFF 		bl	CySysClkWriteHfclkDiv
 736              	.LVL32:
 687:Generated_Source\PSoC4/CyFlash.c ****         {
 737              		.loc 1 687 0
 738 0340 5346     		mov	r3, r10
 739 0342 9B68     		ldr	r3, [r3, #8]
 740 0344 302B     		cmp	r3, #48
 741 0346 02D0     		beq	.L73
 689:Generated_Source\PSoC4/CyFlash.c ****         }
 742              		.loc 1 689 0
 743 0348 3020     		movs	r0, #48
 744 034a FFF7FEFF 		bl	CySysClkWriteImoFreq
 745              	.LVL33:
 746              	.L73:
 691:Generated_Source\PSoC4/CyFlash.c **** 
 747              		.loc 1 691 0
 748 034e FFF7FEFF 		bl	CySysClkImoStart
 749              	.LVL34:
 694:Generated_Source\PSoC4/CyFlash.c **** 
 750              		.loc 1 694 0
 751 0352 0020     		movs	r0, #0
 752 0354 FFF7FEFF 		bl	CySysClkWriteHfclkDirect
 753              	.LVL35:
 698:Generated_Source\PSoC4/CyFlash.c ****             ((uint32)((uint32)1u << CY_SYS_CLK_SELECT_PUMP_SEL_SHIFT));
 754              		.loc 1 698 0
 755 0358 3022     		movs	r2, #48
 697:Generated_Source\PSoC4/CyFlash.c ****             ((uint32)~(uint32)(CY_SYS_CLK_SELECT_PUMP_SEL_MASK << CY_SYS_CLK_SELECT_PUMP_SEL_SHIFT)
 756              		.loc 1 697 0
 757 035a 0949     		ldr	r1, .L120+16
 758 035c 0B68     		ldr	r3, [r1]
 698:Generated_Source\PSoC4/CyFlash.c ****             ((uint32)((uint32)1u << CY_SYS_CLK_SELECT_PUMP_SEL_SHIFT));
 759              		.loc 1 698 0
 760 035e 9343     		bics	r3, r2
 761 0360 1A00     		movs	r2, r3
 762 0362 1023     		movs	r3, #16
 763 0364 1343     		orrs	r3, r2
 697:Generated_Source\PSoC4/CyFlash.c ****             ((uint32)~(uint32)(CY_SYS_CLK_SELECT_PUMP_SEL_MASK << CY_SYS_CLK_SELECT_PUMP_SEL_SHIFT)
 764              		.loc 1 697 0
 765 0366 0B60     		str	r3, [r1]
 766              	.L72:
 767              	.LBE22:
 768              	.LBE21:
 150:Generated_Source\PSoC4/CyFlash.c ****             }
 769              		.loc 1 150 0
 770 0368 0023     		movs	r3, #0
 771 036a 0093     		str	r3, [sp]
 772 036c 1BE7     		b	.L70
 773              	.L121:
 774 036e C046     		.align	2
 775              	.L120:
 776 0370 B6D70000 		.word	55222
ARM GAS  C:\Users\young\AppData\Local\Temp\cc1lbVO5.s 			page 30


 777 0374 04000080 		.word	-2147483644
 778 0378 04001040 		.word	1074790404
 779 037c 08001040 		.word	1074790408
 780 0380 28000340 		.word	1073938472
 781 0384 00000000 		.word	.LANCHOR0
 782 0388 30000340 		.word	1073938480
 783 038c 080F0340 		.word	1073942280
 784 0390 B6D80000 		.word	55478
 785 0394 05000080 		.word	-2147483643
 786 0398 B6D90000 		.word	55734
 787 039c 06000080 		.word	-2147483642
 788              		.cfi_endproc
 789              	.LFE0:
 790              		.size	CySysFlashWriteRow, .-CySysFlashWriteRow
 791              		.section	.text.CySysFlashSetWaitCycles,"ax",%progbits
 792              		.align	2
 793              		.global	CySysFlashSetWaitCycles
 794              		.code	16
 795              		.thumb_func
 796              		.type	CySysFlashSetWaitCycles, %function
 797              	CySysFlashSetWaitCycles:
 798              	.LFB1:
 423:Generated_Source\PSoC4/CyFlash.c ****     uint8  interruptState;
 799              		.loc 1 423 0
 800              		.cfi_startproc
 801              		@ args = 0, pretend = 0, frame = 0
 802              		@ frame_needed = 0, uses_anonymous_args = 0
 803              	.LVL36:
 804 0000 70B5     		push	{r4, r5, r6, lr}
 805              		.cfi_def_cfa_offset 16
 806              		.cfi_offset 4, -16
 807              		.cfi_offset 5, -12
 808              		.cfi_offset 6, -8
 809              		.cfi_offset 14, -4
 423:Generated_Source\PSoC4/CyFlash.c ****     uint8  interruptState;
 810              		.loc 1 423 0
 811 0002 0400     		movs	r4, r0
 426:Generated_Source\PSoC4/CyFlash.c **** 
 812              		.loc 1 426 0
 813 0004 FFF7FEFF 		bl	CyEnterCriticalSection
 814              	.LVL37:
 815 0008 0500     		movs	r5, r0
 816              	.LVL38:
 441:Generated_Source\PSoC4/CyFlash.c ****             {
 817              		.loc 1 441 0
 818 000a 102C     		cmp	r4, #16
 819 000c 16D9     		bls	.L127
 445:Generated_Source\PSoC4/CyFlash.c ****             {
 820              		.loc 1 445 0
 821 000e 202C     		cmp	r4, #32
 822 0010 0CD9     		bls	.L128
 450:Generated_Source\PSoC4/CyFlash.c ****                 {
 823              		.loc 1 450 0
 824 0012 302C     		cmp	r4, #48
 825 0014 18D8     		bhi	.L126
 452:Generated_Source\PSoC4/CyFlash.c ****                 }
 826              		.loc 1 452 0
ARM GAS  C:\Users\young\AppData\Local\Temp\cc1lbVO5.s 			page 31


 827 0016 0322     		movs	r2, #3
 828 0018 0D49     		ldr	r1, .L129
 829 001a 0B68     		ldr	r3, [r1]
 830 001c 9343     		bics	r3, r2
 831 001e 013A     		subs	r2, r2, #1
 832 0020 1343     		orrs	r3, r2
 833 0022 0B60     		str	r3, [r1]
 834              	.L124:
 464:Generated_Source\PSoC4/CyFlash.c **** }
 835              		.loc 1 464 0
 836 0024 2800     		movs	r0, r5
 837 0026 FFF7FEFF 		bl	CyExitCriticalSection
 838              	.LVL39:
 465:Generated_Source\PSoC4/CyFlash.c **** 
 839              		.loc 1 465 0
 840              		@ sp needed
 841              	.LVL40:
 842              	.LVL41:
 843 002a 70BD     		pop	{r4, r5, r6, pc}
 844              	.LVL42:
 845              	.L128:
 447:Generated_Source\PSoC4/CyFlash.c ****             } else
 846              		.loc 1 447 0
 847 002c 0322     		movs	r2, #3
 848 002e 0849     		ldr	r1, .L129
 849 0030 0B68     		ldr	r3, [r1]
 850 0032 9343     		bics	r3, r2
 851 0034 023A     		subs	r2, r2, #2
 852 0036 1343     		orrs	r3, r2
 853 0038 0B60     		str	r3, [r1]
 854 003a F3E7     		b	.L124
 855              	.L127:
 443:Generated_Source\PSoC4/CyFlash.c ****             } else
 856              		.loc 1 443 0
 857 003c 0321     		movs	r1, #3
 858 003e 044A     		ldr	r2, .L129
 859 0040 1368     		ldr	r3, [r2]
 860 0042 8B43     		bics	r3, r1
 861 0044 1360     		str	r3, [r2]
 862 0046 EDE7     		b	.L124
 863              	.L126:
 459:Generated_Source\PSoC4/CyFlash.c ****         }
 864              		.loc 1 459 0 discriminator 1
 865 0048 0020     		movs	r0, #0
 866 004a FFF7FEFF 		bl	CyHalt
 867              	.LVL43:
 868 004e E9E7     		b	.L124
 869              	.L130:
 870              		.align	2
 871              	.L129:
 872 0050 30001040 		.word	1074790448
 873              		.cfi_endproc
 874              	.LFE1:
 875              		.size	CySysFlashSetWaitCycles, .-CySysFlashSetWaitCycles
 876              		.bss
 877              		.align	2
 878              		.set	.LANCHOR0,. + 0
ARM GAS  C:\Users\young\AppData\Local\Temp\cc1lbVO5.s 			page 32


 879              		.type	cySysFlashBackup, %object
 880              		.size	cySysFlashBackup, 12
 881              	cySysFlashBackup:
 882 0000 00000000 		.space	12
 882      00000000 
 882      00000000 
 883              		.text
 884              	.Letext0:
 885              		.file 2 "Generated_Source\\PSoC4\\cytypes.h"
 886              		.file 3 "Generated_Source\\PSoC4\\CyFlash.h"
 887              		.file 4 "Generated_Source\\PSoC4\\CyLib.h"