ARM GAS  C:\Users\jhkim\AppData\Local\Temp\ccr8Q7vm.s 			page 1


   1              		.syntax unified
   2              		.cpu cortex-m0
   3              		.fpu softvfp
   4              		.eabi_attribute 20, 1
   5              		.eabi_attribute 21, 1
   6              		.eabi_attribute 23, 3
   7              		.eabi_attribute 24, 1
   8              		.eabi_attribute 25, 1
   9              		.eabi_attribute 26, 1
  10              		.eabi_attribute 30, 2
  11              		.eabi_attribute 34, 0
  12              		.eabi_attribute 18, 4
  13              		.thumb
  14              		.syntax unified
  15              		.file	"Em_EEPROM.c"
  16              		.text
  17              	.Ltext0:
  18              		.cfi_sections	.debug_frame
  19              		.section	.text.Em_EEPROM_Start,"ax",%progbits
  20              		.align	2
  21              		.global	Em_EEPROM_Start
  22              		.code	16
  23              		.thumb_func
  24              		.type	Em_EEPROM_Start, %function
  25              	Em_EEPROM_Start:
  26              	.LFB4:
  27              		.cfi_startproc
  28              		@ args = 0, pretend = 0, frame = 0
  29              		@ frame_needed = 0, uses_anonymous_args = 0
  30              		@ link register save eliminated.
  31              		@ sp needed
  32 0000 7047     		bx	lr
  33              		.cfi_endproc
  34              	.LFE4:
  35              		.size	Em_EEPROM_Start, .-Em_EEPROM_Start
  36 0002 C046     		.section	.text.Em_EEPROM_Stop,"ax",%progbits
  37              		.align	2
  38              		.global	Em_EEPROM_Stop
  39              		.code	16
  40              		.thumb_func
  41              		.type	Em_EEPROM_Stop, %function
  42              	Em_EEPROM_Stop:
  43              	.LFB1:
  44              		.file 1 "Generated_Source\\PSoC4\\Em_EEPROM.c"
   1:Generated_Source\PSoC4/Em_EEPROM.c **** /*******************************************************************************
   2:Generated_Source\PSoC4/Em_EEPROM.c **** * File Name: Em_EEPROM.c
   3:Generated_Source\PSoC4/Em_EEPROM.c **** * Version 1.20
   4:Generated_Source\PSoC4/Em_EEPROM.c **** *
   5:Generated_Source\PSoC4/Em_EEPROM.c **** * Description:
   6:Generated_Source\PSoC4/Em_EEPROM.c **** *  This file provides the source code to API for the Emulated EEPROM Component.
   7:Generated_Source\PSoC4/Em_EEPROM.c **** *
   8:Generated_Source\PSoC4/Em_EEPROM.c **** ********************************************************************************
   9:Generated_Source\PSoC4/Em_EEPROM.c **** * Copyright 2013-2016, Cypress Semiconductor Corporation.  All rights reserved.
  10:Generated_Source\PSoC4/Em_EEPROM.c **** * You may use this file only in accordance with the license, terms, conditions,
  11:Generated_Source\PSoC4/Em_EEPROM.c **** * disclaimers, and limitations in the end user license agreement accompanying
  12:Generated_Source\PSoC4/Em_EEPROM.c **** * the software package with which this file was provided.
  13:Generated_Source\PSoC4/Em_EEPROM.c **** *******************************************************************************/
ARM GAS  C:\Users\jhkim\AppData\Local\Temp\ccr8Q7vm.s 			page 2


  14:Generated_Source\PSoC4/Em_EEPROM.c **** 
  15:Generated_Source\PSoC4/Em_EEPROM.c **** #include "Em_EEPROM.h"
  16:Generated_Source\PSoC4/Em_EEPROM.c **** 
  17:Generated_Source\PSoC4/Em_EEPROM.c **** 
  18:Generated_Source\PSoC4/Em_EEPROM.c **** /*******************************************************************************
  19:Generated_Source\PSoC4/Em_EEPROM.c **** * Function Name: Em_EEPROM_Start
  20:Generated_Source\PSoC4/Em_EEPROM.c **** ********************************************************************************
  21:Generated_Source\PSoC4/Em_EEPROM.c **** *
  22:Generated_Source\PSoC4/Em_EEPROM.c **** * Summary:
  23:Generated_Source\PSoC4/Em_EEPROM.c **** *  Empty function. Included for consistency with other
  24:Generated_Source\PSoC4/Em_EEPROM.c **** *  components.
  25:Generated_Source\PSoC4/Em_EEPROM.c **** *
  26:Generated_Source\PSoC4/Em_EEPROM.c **** * Parameters:
  27:Generated_Source\PSoC4/Em_EEPROM.c **** *  None
  28:Generated_Source\PSoC4/Em_EEPROM.c **** *
  29:Generated_Source\PSoC4/Em_EEPROM.c **** * Return:
  30:Generated_Source\PSoC4/Em_EEPROM.c **** *  None
  31:Generated_Source\PSoC4/Em_EEPROM.c **** *
  32:Generated_Source\PSoC4/Em_EEPROM.c **** *******************************************************************************/
  33:Generated_Source\PSoC4/Em_EEPROM.c **** void Em_EEPROM_Start(void) 
  34:Generated_Source\PSoC4/Em_EEPROM.c **** {
  35:Generated_Source\PSoC4/Em_EEPROM.c **** 
  36:Generated_Source\PSoC4/Em_EEPROM.c **** }
  37:Generated_Source\PSoC4/Em_EEPROM.c **** 
  38:Generated_Source\PSoC4/Em_EEPROM.c **** 
  39:Generated_Source\PSoC4/Em_EEPROM.c **** /*******************************************************************************
  40:Generated_Source\PSoC4/Em_EEPROM.c **** * Function Name: Em_EEPROM_Stop
  41:Generated_Source\PSoC4/Em_EEPROM.c **** ********************************************************************************
  42:Generated_Source\PSoC4/Em_EEPROM.c **** *
  43:Generated_Source\PSoC4/Em_EEPROM.c **** * Summary:
  44:Generated_Source\PSoC4/Em_EEPROM.c **** *  Empty function. Included for consistency with other
  45:Generated_Source\PSoC4/Em_EEPROM.c **** *  components.
  46:Generated_Source\PSoC4/Em_EEPROM.c **** *
  47:Generated_Source\PSoC4/Em_EEPROM.c **** * Parameters:
  48:Generated_Source\PSoC4/Em_EEPROM.c **** *  None
  49:Generated_Source\PSoC4/Em_EEPROM.c **** *
  50:Generated_Source\PSoC4/Em_EEPROM.c **** * Return:
  51:Generated_Source\PSoC4/Em_EEPROM.c **** *  None
  52:Generated_Source\PSoC4/Em_EEPROM.c **** *
  53:Generated_Source\PSoC4/Em_EEPROM.c **** *******************************************************************************/
  54:Generated_Source\PSoC4/Em_EEPROM.c **** void Em_EEPROM_Stop(void) 
  55:Generated_Source\PSoC4/Em_EEPROM.c **** {
  45              		.loc 1 55 0
  46              		.cfi_startproc
  47              		@ args = 0, pretend = 0, frame = 0
  48              		@ frame_needed = 0, uses_anonymous_args = 0
  49              		@ link register save eliminated.
  56:Generated_Source\PSoC4/Em_EEPROM.c **** 
  57:Generated_Source\PSoC4/Em_EEPROM.c **** }
  50              		.loc 1 57 0
  51              		@ sp needed
  52 0000 7047     		bx	lr
  53              		.cfi_endproc
  54              	.LFE1:
  55              		.size	Em_EEPROM_Stop, .-Em_EEPROM_Stop
  56 0002 C046     		.section	.text.Em_EEPROM_Write,"ax",%progbits
  57              		.align	2
ARM GAS  C:\Users\jhkim\AppData\Local\Temp\ccr8Q7vm.s 			page 3


  58              		.global	Em_EEPROM_Write
  59              		.code	16
  60              		.thumb_func
  61              		.type	Em_EEPROM_Write, %function
  62              	Em_EEPROM_Write:
  63              	.LFB2:
  58:Generated_Source\PSoC4/Em_EEPROM.c **** 
  59:Generated_Source\PSoC4/Em_EEPROM.c **** 
  60:Generated_Source\PSoC4/Em_EEPROM.c **** /*******************************************************************************
  61:Generated_Source\PSoC4/Em_EEPROM.c **** * Function Name: Em_EEPROM_Write
  62:Generated_Source\PSoC4/Em_EEPROM.c **** ********************************************************************************
  63:Generated_Source\PSoC4/Em_EEPROM.c **** *
  64:Generated_Source\PSoC4/Em_EEPROM.c **** * Summary:
  65:Generated_Source\PSoC4/Em_EEPROM.c **** *  Writes the specified number of bytes from the source buffer in SRAM to the
  66:Generated_Source\PSoC4/Em_EEPROM.c **** *  emulated EEPROM array in flash, without modifying other data in flash.
  67:Generated_Source\PSoC4/Em_EEPROM.c **** *
  68:Generated_Source\PSoC4/Em_EEPROM.c **** * Parameters:
  69:Generated_Source\PSoC4/Em_EEPROM.c **** *  srcBuf:    Pointer to the SRAM buffer holding the data to write.
  70:Generated_Source\PSoC4/Em_EEPROM.c **** *  eepromPtr: Pointer to the array or variable in flash representing
  71:Generated_Source\PSoC4/Em_EEPROM.c **** *             the emulated EEPROM.
  72:Generated_Source\PSoC4/Em_EEPROM.c **** *  byteCount: Number of bytes to write from srcBuf to eepromPtr.
  73:Generated_Source\PSoC4/Em_EEPROM.c **** *
  74:Generated_Source\PSoC4/Em_EEPROM.c **** * Return:
  75:Generated_Source\PSoC4/Em_EEPROM.c **** *    CYRET_SUCCESS     Successful write.
  76:Generated_Source\PSoC4/Em_EEPROM.c **** *    CYRET_BAD_PARAM   eepromPtr is out of range of flash memory.
  77:Generated_Source\PSoC4/Em_EEPROM.c **** *    CYRET_UNKNOWN     Other error in writing flash.
  78:Generated_Source\PSoC4/Em_EEPROM.c **** *
  79:Generated_Source\PSoC4/Em_EEPROM.c **** *******************************************************************************/
  80:Generated_Source\PSoC4/Em_EEPROM.c **** #if (CY_PSOC3)
  81:Generated_Source\PSoC4/Em_EEPROM.c ****     cystatus Em_EEPROM_Write(const uint8 srcBuf[], const uint8 eepromPtr[], uint16 byteCount)
  82:Generated_Source\PSoC4/Em_EEPROM.c ****                                                                             
  83:Generated_Source\PSoC4/Em_EEPROM.c **** #else
  84:Generated_Source\PSoC4/Em_EEPROM.c ****     cystatus Em_EEPROM_Write(const uint8 srcBuf[], const uint8 eepromPtr[], uint32 byteCount)
  85:Generated_Source\PSoC4/Em_EEPROM.c **** #endif /* (!CY_PSOC3) */
  86:Generated_Source\PSoC4/Em_EEPROM.c **** {
  64              		.loc 1 86 0
  65              		.cfi_startproc
  66              		@ args = 0, pretend = 0, frame = 64
  67              		@ frame_needed = 0, uses_anonymous_args = 0
  68              	.LVL0:
  69 0000 F0B5     		push	{r4, r5, r6, r7, lr}
  70              		.cfi_def_cfa_offset 20
  71              		.cfi_offset 4, -20
  72              		.cfi_offset 5, -16
  73              		.cfi_offset 6, -12
  74              		.cfi_offset 7, -8
  75              		.cfi_offset 14, -4
  76 0002 5F46     		mov	r7, fp
  77 0004 4D46     		mov	r5, r9
  78 0006 4446     		mov	r4, r8
  79 0008 5646     		mov	r6, r10
  87:Generated_Source\PSoC4/Em_EEPROM.c ****     uint8 writeBuffer[CY_FLASH_SIZEOF_ROW];
  88:Generated_Source\PSoC4/Em_EEPROM.c ****     uint32 arrayId;
  89:Generated_Source\PSoC4/Em_EEPROM.c ****     uint32 rowId;
  90:Generated_Source\PSoC4/Em_EEPROM.c ****     uint32 dstIndex;
  91:Generated_Source\PSoC4/Em_EEPROM.c ****     uint32 srcIndex;
  92:Generated_Source\PSoC4/Em_EEPROM.c ****     cystatus rc;
ARM GAS  C:\Users\jhkim\AppData\Local\Temp\ccr8Q7vm.s 			page 4


  93:Generated_Source\PSoC4/Em_EEPROM.c ****     uint32 eeOffset;
  94:Generated_Source\PSoC4/Em_EEPROM.c ****     uint32 byteOffset;
  95:Generated_Source\PSoC4/Em_EEPROM.c ****     
  96:Generated_Source\PSoC4/Em_EEPROM.c ****     #if (!CY_PSOC4)
  97:Generated_Source\PSoC4/Em_EEPROM.c ****         #if (CYDEV_ECC_ENABLE == 0)
  98:Generated_Source\PSoC4/Em_EEPROM.c ****             uint8 rowBuffer[CY_FLASH_SIZEOF_ROW + CY_FLASH_SIZEOF_ECC_ROW];
  99:Generated_Source\PSoC4/Em_EEPROM.c ****         #endif /* CYDEV_ECC_ENABLE == 0) */
 100:Generated_Source\PSoC4/Em_EEPROM.c ****     #endif /* (!CY_PSOC4) */
 101:Generated_Source\PSoC4/Em_EEPROM.c **** 
 102:Generated_Source\PSoC4/Em_EEPROM.c ****     eeOffset = (uint32)eepromPtr;
 103:Generated_Source\PSoC4/Em_EEPROM.c ****     #if (CY_PSOC3)
 104:Generated_Source\PSoC4/Em_EEPROM.c ****         eeOffset &= Em_EEPROM_CODE_ADDR_MASK;
 105:Generated_Source\PSoC4/Em_EEPROM.c ****     #endif /* (CY_PSOC3) */
 106:Generated_Source\PSoC4/Em_EEPROM.c **** 
 107:Generated_Source\PSoC4/Em_EEPROM.c ****     /* Make sure, that eepromPtr[] points to ROM */
 108:Generated_Source\PSoC4/Em_EEPROM.c ****     #if (CY_PSOC3)
 109:Generated_Source\PSoC4/Em_EEPROM.c ****         if (((uint32)eepromPtr >= Em_EEPROM_CODE_ADDR_OFFSET) &&
 110:Generated_Source\PSoC4/Em_EEPROM.c ****             (((uint32)eepromPtr + byteCount) <= Em_EEPROM_CODE_ADDR_END))
 111:Generated_Source\PSoC4/Em_EEPROM.c ****     #else
 112:Generated_Source\PSoC4/Em_EEPROM.c ****         if (((uint32)eepromPtr + byteCount) <= Em_EEPROM_FLASH_END_ADDR)
  80              		.loc 1 112 0
  81 000a 8023     		movs	r3, #128
  86:Generated_Source\PSoC4/Em_EEPROM.c ****     uint8 writeBuffer[CY_FLASH_SIZEOF_ROW];
  82              		.loc 1 86 0
  83 000c F0B4     		push	{r4, r5, r6, r7}
  84              		.cfi_def_cfa_offset 36
  85              		.cfi_offset 8, -36
  86              		.cfi_offset 9, -32
  87              		.cfi_offset 10, -28
  88              		.cfi_offset 11, -24
  89 000e 9046     		mov	r8, r2
  90              		.loc 1 112 0
  91 0010 8A18     		adds	r2, r1, r2
  92              	.LVL1:
  86:Generated_Source\PSoC4/Em_EEPROM.c ****     uint8 writeBuffer[CY_FLASH_SIZEOF_ROW];
  93              		.loc 1 86 0
  94 0012 8146     		mov	r9, r0
  95 0014 91B0     		sub	sp, sp, #68
  96              		.cfi_def_cfa_offset 104
  86:Generated_Source\PSoC4/Em_EEPROM.c ****     uint8 writeBuffer[CY_FLASH_SIZEOF_ROW];
  97              		.loc 1 86 0
  98 0016 0F00     		movs	r7, r1
  99              		.loc 1 112 0
 100 0018 DB01     		lsls	r3, r3, #7
 113:Generated_Source\PSoC4/Em_EEPROM.c ****     #endif /* (CY_PSOC3) */
 114:Generated_Source\PSoC4/Em_EEPROM.c ****     {
 115:Generated_Source\PSoC4/Em_EEPROM.c ****         #if (!CY_PSOC4)
 116:Generated_Source\PSoC4/Em_EEPROM.c ****             (void)CySetTemp();
 117:Generated_Source\PSoC4/Em_EEPROM.c **** 
 118:Generated_Source\PSoC4/Em_EEPROM.c ****             #if(CYDEV_ECC_ENABLE == 0)
 119:Generated_Source\PSoC4/Em_EEPROM.c ****                 (void)CySetFlashEEBuffer(rowBuffer);
 120:Generated_Source\PSoC4/Em_EEPROM.c ****             #endif
 121:Generated_Source\PSoC4/Em_EEPROM.c ****         #endif /* (!CY_PSOC4) */
 122:Generated_Source\PSoC4/Em_EEPROM.c **** 
 123:Generated_Source\PSoC4/Em_EEPROM.c ****         arrayId = eeOffset / CY_FLASH_SIZEOF_ARRAY;
 124:Generated_Source\PSoC4/Em_EEPROM.c ****         rowId = (eeOffset / CY_FLASH_SIZEOF_ROW) % Em_EEPROM_ROWS_IN_ARRAY;
 125:Generated_Source\PSoC4/Em_EEPROM.c ****         byteOffset = (CY_FLASH_SIZEOF_ARRAY * arrayId) + (CY_FLASH_SIZEOF_ROW * rowId);
ARM GAS  C:\Users\jhkim\AppData\Local\Temp\ccr8Q7vm.s 			page 5


 126:Generated_Source\PSoC4/Em_EEPROM.c ****         srcIndex = 0u;
 127:Generated_Source\PSoC4/Em_EEPROM.c **** 
 128:Generated_Source\PSoC4/Em_EEPROM.c ****         rc = CYRET_SUCCESS;
 129:Generated_Source\PSoC4/Em_EEPROM.c **** 
 130:Generated_Source\PSoC4/Em_EEPROM.c ****         while ((srcIndex < byteCount) && (CYRET_SUCCESS == rc))
 131:Generated_Source\PSoC4/Em_EEPROM.c ****         {
 132:Generated_Source\PSoC4/Em_EEPROM.c ****             /* Copy data to the write buffer either from the source buffer or from the flash */
 133:Generated_Source\PSoC4/Em_EEPROM.c ****             for (dstIndex = 0u; dstIndex < CY_FLASH_SIZEOF_ROW; dstIndex++)
 134:Generated_Source\PSoC4/Em_EEPROM.c ****             {
 135:Generated_Source\PSoC4/Em_EEPROM.c ****                 if ((byteOffset >= eeOffset) && (srcIndex < byteCount))
 136:Generated_Source\PSoC4/Em_EEPROM.c ****                 {
 137:Generated_Source\PSoC4/Em_EEPROM.c ****                     writeBuffer[dstIndex] = srcBuf[srcIndex];
 138:Generated_Source\PSoC4/Em_EEPROM.c ****                     srcIndex++;
 139:Generated_Source\PSoC4/Em_EEPROM.c ****                 }
 140:Generated_Source\PSoC4/Em_EEPROM.c ****                 else
 141:Generated_Source\PSoC4/Em_EEPROM.c ****                 {
 142:Generated_Source\PSoC4/Em_EEPROM.c ****                     writeBuffer[dstIndex] = CY_GET_XTND_REG8(CYDEV_FLASH_BASE + byteOffset);
 143:Generated_Source\PSoC4/Em_EEPROM.c ****                 }
 144:Generated_Source\PSoC4/Em_EEPROM.c ****                 byteOffset++;
 145:Generated_Source\PSoC4/Em_EEPROM.c ****             }
 146:Generated_Source\PSoC4/Em_EEPROM.c **** 
 147:Generated_Source\PSoC4/Em_EEPROM.c ****             /* Write flash row */
 148:Generated_Source\PSoC4/Em_EEPROM.c ****             #if (CY_PSOC4)
 149:Generated_Source\PSoC4/Em_EEPROM.c ****                 rc = CySysFlashWriteRow(rowId, writeBuffer);
 150:Generated_Source\PSoC4/Em_EEPROM.c ****             #else
 151:Generated_Source\PSoC4/Em_EEPROM.c ****                 rc = CyWriteRowData((uint8)arrayId, (uint16)rowId, writeBuffer);
 152:Generated_Source\PSoC4/Em_EEPROM.c ****             #endif /* (CY_PSOC4) */
 153:Generated_Source\PSoC4/Em_EEPROM.c **** 
 154:Generated_Source\PSoC4/Em_EEPROM.c ****             /* Go to the next row */
 155:Generated_Source\PSoC4/Em_EEPROM.c ****             rowId++;
 156:Generated_Source\PSoC4/Em_EEPROM.c ****             #if (CY_FLASH_NUMBER_ARRAYS > 1)
 157:Generated_Source\PSoC4/Em_EEPROM.c ****                 if (rowId >= Em_EEPROM_ROWS_IN_ARRAY)
 158:Generated_Source\PSoC4/Em_EEPROM.c ****                 {
 159:Generated_Source\PSoC4/Em_EEPROM.c ****                     arrayId++;
 160:Generated_Source\PSoC4/Em_EEPROM.c ****                     rowId = 0u;
 161:Generated_Source\PSoC4/Em_EEPROM.c ****                 }
 162:Generated_Source\PSoC4/Em_EEPROM.c ****             #endif /* (CY_FLASH_NUMBER_ARRAYS > 1) */
 163:Generated_Source\PSoC4/Em_EEPROM.c ****         }
 164:Generated_Source\PSoC4/Em_EEPROM.c **** 
 165:Generated_Source\PSoC4/Em_EEPROM.c ****         /* Flush both Cache and PHUB prefetch buffer */
 166:Generated_Source\PSoC4/Em_EEPROM.c ****         #if (CY_PSOC5)
 167:Generated_Source\PSoC4/Em_EEPROM.c ****             CyFlushCache();
 168:Generated_Source\PSoC4/Em_EEPROM.c ****         #elif (CY_PSOC3)
 169:Generated_Source\PSoC4/Em_EEPROM.c ****             CY_FLASH_CONTROL_REG |= 6u;
 170:Generated_Source\PSoC4/Em_EEPROM.c ****         #endif /* (CY_PSOC5) */
 171:Generated_Source\PSoC4/Em_EEPROM.c ****     }
 172:Generated_Source\PSoC4/Em_EEPROM.c ****     else
 173:Generated_Source\PSoC4/Em_EEPROM.c ****     {
 174:Generated_Source\PSoC4/Em_EEPROM.c ****         rc = CYRET_BAD_PARAM;
 101              		.loc 1 174 0
 102 001a 0120     		movs	r0, #1
 103              	.LVL2:
 112:Generated_Source\PSoC4/Em_EEPROM.c ****     #endif /* (CY_PSOC3) */
 104              		.loc 1 112 0
 105 001c 9A42     		cmp	r2, r3
 106 001e 31D8     		bhi	.L9
 107              	.LVL3:
ARM GAS  C:\Users\jhkim\AppData\Local\Temp\ccr8Q7vm.s 			page 6


 124:Generated_Source\PSoC4/Em_EEPROM.c ****         byteOffset = (CY_FLASH_SIZEOF_ARRAY * arrayId) + (CY_FLASH_SIZEOF_ROW * rowId);
 108              		.loc 1 124 0
 109 0020 8B04     		lsls	r3, r1, #18
 110 0022 1B0E     		lsrs	r3, r3, #24
 111 0024 9A46     		mov	r10, r3
 112              	.LVL4:
 130:Generated_Source\PSoC4/Em_EEPROM.c ****         {
 113              		.loc 1 130 0
 114 0026 4346     		mov	r3, r8
 115              	.LVL5:
 125:Generated_Source\PSoC4/Em_EEPROM.c ****         srcIndex = 0u;
 116              		.loc 1 125 0
 117 0028 8C0B     		lsrs	r4, r1, #14
 118              	.LVL6:
 119 002a 2402     		lsls	r4, r4, #8
 120              	.LVL7:
 121 002c 5444     		add	r4, r4, r10
 122 002e A401     		lsls	r4, r4, #6
 123              	.LVL8:
 130:Generated_Source\PSoC4/Em_EEPROM.c ****         {
 124              		.loc 1 130 0
 125 0030 002B     		cmp	r3, #0
 126 0032 2ED0     		beq	.L13
 127 0034 6B46     		mov	r3, sp
 128 0036 EB46     		mov	fp, sp
 129 0038 0025     		movs	r5, #0
 130 003a 1E1B     		subs	r6, r3, r4
 131              	.LVL9:
 132              	.L10:
 133 003c 2200     		movs	r2, r4
 134 003e 4032     		adds	r2, r2, #64
 135 0040 08E0     		b	.L7
 136              	.LVL10:
 137              	.L20:
 135:Generated_Source\PSoC4/Em_EEPROM.c ****                 {
 138              		.loc 1 135 0 discriminator 1
 139 0042 A845     		cmp	r8, r5
 140 0044 08D9     		bls	.L5
 137:Generated_Source\PSoC4/Em_EEPROM.c ****                     srcIndex++;
 141              		.loc 1 137 0
 142 0046 4B46     		mov	r3, r9
 143 0048 5B5D     		ldrb	r3, [r3, r5]
 138:Generated_Source\PSoC4/Em_EEPROM.c ****                 }
 144              		.loc 1 138 0
 145 004a 0135     		adds	r5, r5, #1
 146              	.LVL11:
 147 004c 3355     		strb	r3, [r6, r4]
 144:Generated_Source\PSoC4/Em_EEPROM.c ****             }
 148              		.loc 1 144 0
 149 004e 0134     		adds	r4, r4, #1
 150              	.LVL12:
 133:Generated_Source\PSoC4/Em_EEPROM.c ****             {
 151              		.loc 1 133 0
 152 0050 9442     		cmp	r4, r2
 153 0052 07D0     		beq	.L19
 154              	.LVL13:
 155              	.L7:
ARM GAS  C:\Users\jhkim\AppData\Local\Temp\ccr8Q7vm.s 			page 7


 135:Generated_Source\PSoC4/Em_EEPROM.c ****                 {
 156              		.loc 1 135 0
 157 0054 A742     		cmp	r7, r4
 158 0056 F4D9     		bls	.L20
 159              	.L5:
 142:Generated_Source\PSoC4/Em_EEPROM.c ****                 }
 160              		.loc 1 142 0
 161 0058 2378     		ldrb	r3, [r4]
 162 005a DBB2     		uxtb	r3, r3
 163 005c 3355     		strb	r3, [r6, r4]
 144:Generated_Source\PSoC4/Em_EEPROM.c ****             }
 164              		.loc 1 144 0
 165 005e 0134     		adds	r4, r4, #1
 166              	.LVL14:
 133:Generated_Source\PSoC4/Em_EEPROM.c ****             {
 167              		.loc 1 133 0
 168 0060 9442     		cmp	r4, r2
 169 0062 F7D1     		bne	.L7
 170              	.L19:
 149:Generated_Source\PSoC4/Em_EEPROM.c ****             #else
 171              		.loc 1 149 0
 172 0064 5046     		mov	r0, r10
 173 0066 5946     		mov	r1, fp
 174 0068 FFF7FEFF 		bl	CySysFlashWriteRow
 175              	.LVL15:
 155:Generated_Source\PSoC4/Em_EEPROM.c ****             #if (CY_FLASH_NUMBER_ARRAYS > 1)
 176              		.loc 1 155 0
 177 006c 0123     		movs	r3, #1
 178 006e 9C46     		mov	ip, r3
 179 0070 E244     		add	r10, r10, ip
 180              	.LVL16:
 130:Generated_Source\PSoC4/Em_EEPROM.c ****         {
 181              		.loc 1 130 0
 182 0072 4545     		cmp	r5, r8
 183 0074 02D2     		bcs	.L11
 184 0076 403E     		subs	r6, r6, #64
 130:Generated_Source\PSoC4/Em_EEPROM.c ****         {
 185              		.loc 1 130 0 is_stmt 0 discriminator 1
 186 0078 0028     		cmp	r0, #0
 187 007a DFD0     		beq	.L10
 188              	.L11:
 175:Generated_Source\PSoC4/Em_EEPROM.c ****     }
 176:Generated_Source\PSoC4/Em_EEPROM.c **** 
 177:Generated_Source\PSoC4/Em_EEPROM.c ****     /* Mask return codes from flash, if they are not supported */
 178:Generated_Source\PSoC4/Em_EEPROM.c ****     if ((CYRET_SUCCESS != rc) && (CYRET_BAD_PARAM != rc))
 189              		.loc 1 178 0 is_stmt 1
 190 007c 0128     		cmp	r0, #1
 191 007e 01D9     		bls	.L9
 179:Generated_Source\PSoC4/Em_EEPROM.c ****     {
 180:Generated_Source\PSoC4/Em_EEPROM.c ****         rc = CYRET_UNKNOWN;
 192              		.loc 1 180 0
 193 0080 0120     		movs	r0, #1
 194              	.LVL17:
 195 0082 4042     		rsbs	r0, r0, #0
 196              	.LVL18:
 197              	.L9:
 181:Generated_Source\PSoC4/Em_EEPROM.c ****     }
ARM GAS  C:\Users\jhkim\AppData\Local\Temp\ccr8Q7vm.s 			page 8


 182:Generated_Source\PSoC4/Em_EEPROM.c ****     
 183:Generated_Source\PSoC4/Em_EEPROM.c ****     return (rc);
 184:Generated_Source\PSoC4/Em_EEPROM.c **** }
 198              		.loc 1 184 0
 199 0084 11B0     		add	sp, sp, #68
 200              		@ sp needed
 201              	.LVL19:
 202              	.LVL20:
 203              	.LVL21:
 204 0086 3CBC     		pop	{r2, r3, r4, r5}
 205 0088 9046     		mov	r8, r2
 206 008a 9946     		mov	r9, r3
 207 008c A246     		mov	r10, r4
 208 008e AB46     		mov	fp, r5
 209 0090 F0BD     		pop	{r4, r5, r6, r7, pc}
 210              	.LVL22:
 211              	.L13:
 128:Generated_Source\PSoC4/Em_EEPROM.c **** 
 212              		.loc 1 128 0
 213 0092 0020     		movs	r0, #0
 214 0094 F6E7     		b	.L9
 215              		.cfi_endproc
 216              	.LFE2:
 217              		.size	Em_EEPROM_Write, .-Em_EEPROM_Write
 218 0096 C046     		.text
 219              	.Letext0:
 220              		.file 2 "Generated_Source\\PSoC4\\cytypes.h"
 221              		.file 3 "Generated_Source\\PSoC4\\CyFlash.h"