ARM GAS  C:\Users\jhkim\AppData\Local\Temp\cc2MGKKj.s 			page 1


   1              		.syntax unified
   2              		.cpu cortex-m0
   3              		.fpu softvfp
   4              		.eabi_attribute 20, 1
   5              		.eabi_attribute 21, 1
   6              		.eabi_attribute 23, 3
   7              		.eabi_attribute 24, 1
   8              		.eabi_attribute 25, 1
   9              		.eabi_attribute 26, 1
  10              		.eabi_attribute 30, 2
  11              		.eabi_attribute 34, 0
  12              		.eabi_attribute 18, 4
  13              		.thumb
  14              		.syntax unified
  15              		.file	"EZI2C_EZI2C_INT.c"
  16              		.text
  17              	.Ltext0:
  18              		.cfi_sections	.debug_frame
  19              		.section	.text.EZI2C_EZI2C_STRETCH_ISR,"ax",%progbits
  20              		.align	2
  21              		.global	EZI2C_EZI2C_STRETCH_ISR
  22              		.code	16
  23              		.thumb_func
  24              		.type	EZI2C_EZI2C_STRETCH_ISR, %function
  25              	EZI2C_EZI2C_STRETCH_ISR:
  26              	.LFB0:
  27              		.file 1 "Generated_Source\\PSoC4\\EZI2C_EZI2C_INT.c"
   1:Generated_Source\PSoC4/EZI2C_EZI2C_INT.c **** /***************************************************************************//**
   2:Generated_Source\PSoC4/EZI2C_EZI2C_INT.c **** * \file EZI2C_EZI2C_INT.c
   3:Generated_Source\PSoC4/EZI2C_EZI2C_INT.c **** * \version 4.0
   4:Generated_Source\PSoC4/EZI2C_EZI2C_INT.c **** *
   5:Generated_Source\PSoC4/EZI2C_EZI2C_INT.c **** * \brief
   6:Generated_Source\PSoC4/EZI2C_EZI2C_INT.c **** *  This file provides the source code to the Interrupt Service Routine for
   7:Generated_Source\PSoC4/EZI2C_EZI2C_INT.c **** *  the SCB Component in EZI2C mode.
   8:Generated_Source\PSoC4/EZI2C_EZI2C_INT.c **** *
   9:Generated_Source\PSoC4/EZI2C_EZI2C_INT.c **** * Note:
  10:Generated_Source\PSoC4/EZI2C_EZI2C_INT.c **** *
  11:Generated_Source\PSoC4/EZI2C_EZI2C_INT.c **** ********************************************************************************
  12:Generated_Source\PSoC4/EZI2C_EZI2C_INT.c **** * \copyright
  13:Generated_Source\PSoC4/EZI2C_EZI2C_INT.c **** * Copyright 2013-2017, Cypress Semiconductor Corporation.  All rights reserved.
  14:Generated_Source\PSoC4/EZI2C_EZI2C_INT.c **** * You may use this file only in accordance with the license, terms, conditions,
  15:Generated_Source\PSoC4/EZI2C_EZI2C_INT.c **** * disclaimers, and limitations in the end user license agreement accompanying
  16:Generated_Source\PSoC4/EZI2C_EZI2C_INT.c **** * the software package with which this file was provided.
  17:Generated_Source\PSoC4/EZI2C_EZI2C_INT.c **** *******************************************************************************/
  18:Generated_Source\PSoC4/EZI2C_EZI2C_INT.c **** 
  19:Generated_Source\PSoC4/EZI2C_EZI2C_INT.c **** #include "EZI2C_PVT.h"
  20:Generated_Source\PSoC4/EZI2C_EZI2C_INT.c **** #include "EZI2C_EZI2C_PVT.h"
  21:Generated_Source\PSoC4/EZI2C_EZI2C_INT.c **** 
  22:Generated_Source\PSoC4/EZI2C_EZI2C_INT.c **** 
  23:Generated_Source\PSoC4/EZI2C_EZI2C_INT.c **** #if(EZI2C_EZI2C_SCL_STRETCH_ENABLE_CONST)
  24:Generated_Source\PSoC4/EZI2C_EZI2C_INT.c ****     /*******************************************************************************
  25:Generated_Source\PSoC4/EZI2C_EZI2C_INT.c ****     * Function Name: EZI2C_EZI2C_STRETCH_ISR
  26:Generated_Source\PSoC4/EZI2C_EZI2C_INT.c ****     ****************************************************************************//**
  27:Generated_Source\PSoC4/EZI2C_EZI2C_INT.c ****     *
  28:Generated_Source\PSoC4/EZI2C_EZI2C_INT.c ****     *  Handles the Interrupt Service Routine for the SCB EZI2C mode.
  29:Generated_Source\PSoC4/EZI2C_EZI2C_INT.c ****     *  The clock stretching is used during operation.
  30:Generated_Source\PSoC4/EZI2C_EZI2C_INT.c ****     *
ARM GAS  C:\Users\jhkim\AppData\Local\Temp\cc2MGKKj.s 			page 2


  31:Generated_Source\PSoC4/EZI2C_EZI2C_INT.c ****     *******************************************************************************/
  32:Generated_Source\PSoC4/EZI2C_EZI2C_INT.c ****     CY_ISR_PROTO(EZI2C_EZI2C_STRETCH_ISR)
  33:Generated_Source\PSoC4/EZI2C_EZI2C_INT.c ****     {
  28              		.loc 1 33 0
  29              		.cfi_startproc
  30              		@ args = 0, pretend = 0, frame = 0
  31              		@ frame_needed = 0, uses_anonymous_args = 0
  32 0000 F8B5     		push	{r3, r4, r5, r6, r7, lr}
  33              		.cfi_def_cfa_offset 24
  34              		.cfi_offset 3, -24
  35              		.cfi_offset 4, -20
  36              		.cfi_offset 5, -16
  37              		.cfi_offset 6, -12
  38              		.cfi_offset 7, -8
  39              		.cfi_offset 14, -4
  40 0002 4F46     		mov	r7, r9
  41 0004 4646     		mov	r6, r8
  34:Generated_Source\PSoC4/EZI2C_EZI2C_INT.c ****         static uint16 locBufSize;
  35:Generated_Source\PSoC4/EZI2C_EZI2C_INT.c ****         uint32 locIndex;
  36:Generated_Source\PSoC4/EZI2C_EZI2C_INT.c ****         uint32 locStatus;
  37:Generated_Source\PSoC4/EZI2C_EZI2C_INT.c **** 
  38:Generated_Source\PSoC4/EZI2C_EZI2C_INT.c ****         uint32 endTransfer;
  39:Generated_Source\PSoC4/EZI2C_EZI2C_INT.c ****         uint32 fifoIndex;
  40:Generated_Source\PSoC4/EZI2C_EZI2C_INT.c ****         uint32 locByte;
  41:Generated_Source\PSoC4/EZI2C_EZI2C_INT.c **** 
  42:Generated_Source\PSoC4/EZI2C_EZI2C_INT.c ****         uint32 locIntrCause;
  43:Generated_Source\PSoC4/EZI2C_EZI2C_INT.c ****         uint32 locIntrSlave;
  44:Generated_Source\PSoC4/EZI2C_EZI2C_INT.c **** 
  45:Generated_Source\PSoC4/EZI2C_EZI2C_INT.c ****     #ifdef EZI2C_EZI2C_STRETCH_ISR_ENTRY_CALLBACK
  46:Generated_Source\PSoC4/EZI2C_EZI2C_INT.c ****         EZI2C_EZI2C_STRETCH_ISR_EntryCallback();
  47:Generated_Source\PSoC4/EZI2C_EZI2C_INT.c ****     #endif /* EZI2C_EZI2C_STRETCH_ISR_ENTRY_CALLBACK */
  48:Generated_Source\PSoC4/EZI2C_EZI2C_INT.c **** 
  49:Generated_Source\PSoC4/EZI2C_EZI2C_INT.c ****     #if(EZI2C_SECONDARY_ADDRESS_ENABLE_CONST)
  50:Generated_Source\PSoC4/EZI2C_EZI2C_INT.c ****         /* Variable intended to be used with either buffer */
  51:Generated_Source\PSoC4/EZI2C_EZI2C_INT.c ****         static volatile uint8 * EZI2C_dataBuffer; /* Pointer to data buffer              */
  52:Generated_Source\PSoC4/EZI2C_EZI2C_INT.c ****         static uint16 EZI2C_bufSizeBuf;           /* Size of buffer in bytes             */
  53:Generated_Source\PSoC4/EZI2C_EZI2C_INT.c ****         static uint16 EZI2C_protectBuf;           /* Start index of write protected area */
  54:Generated_Source\PSoC4/EZI2C_EZI2C_INT.c **** 
  55:Generated_Source\PSoC4/EZI2C_EZI2C_INT.c ****         static uint8 activeAddress;
  56:Generated_Source\PSoC4/EZI2C_EZI2C_INT.c ****         uint32 ackResponse;
  57:Generated_Source\PSoC4/EZI2C_EZI2C_INT.c **** 
  58:Generated_Source\PSoC4/EZI2C_EZI2C_INT.c ****         ackResponse = EZI2C_EZI2C_ACK_RECEIVED_ADDRESS;
  59:Generated_Source\PSoC4/EZI2C_EZI2C_INT.c ****     #endif /* (EZI2C_SECONDARY_ADDRESS_ENABLE_CONST) */
  60:Generated_Source\PSoC4/EZI2C_EZI2C_INT.c **** 
  61:Generated_Source\PSoC4/EZI2C_EZI2C_INT.c ****     #if !defined (CY_REMOVE_EZI2C_CUSTOM_INTR_HANDLER)
  62:Generated_Source\PSoC4/EZI2C_EZI2C_INT.c ****         if(NULL != EZI2C_customIntrHandler)
  42              		.loc 1 62 0
  43 0006 B54B     		ldr	r3, .L79
  33:Generated_Source\PSoC4/EZI2C_EZI2C_INT.c ****         static uint16 locBufSize;
  44              		.loc 1 33 0
  45 0008 C0B4     		push	{r6, r7}
  46              		.cfi_def_cfa_offset 32
  47              		.cfi_offset 8, -32
  48              		.cfi_offset 9, -28
  49              		.loc 1 62 0
  50 000a 1B68     		ldr	r3, [r3]
  51 000c 002B     		cmp	r3, #0
ARM GAS  C:\Users\jhkim\AppData\Local\Temp\cc2MGKKj.s 			page 3


  52 000e 00D0     		beq	.L2
  63:Generated_Source\PSoC4/EZI2C_EZI2C_INT.c ****         {
  64:Generated_Source\PSoC4/EZI2C_EZI2C_INT.c ****             EZI2C_customIntrHandler();
  53              		.loc 1 64 0
  54 0010 9847     		blx	r3
  55              	.LVL0:
  56              	.L2:
  65:Generated_Source\PSoC4/EZI2C_EZI2C_INT.c ****         }
  66:Generated_Source\PSoC4/EZI2C_EZI2C_INT.c ****     #else
  67:Generated_Source\PSoC4/EZI2C_EZI2C_INT.c ****         CY_EZI2C_CUSTOM_INTR_HANDLER();
  68:Generated_Source\PSoC4/EZI2C_EZI2C_INT.c ****     #endif /* !defined (CY_REMOVE_EZI2C_CUSTOM_INTR_HANDLER) */
  69:Generated_Source\PSoC4/EZI2C_EZI2C_INT.c **** 
  70:Generated_Source\PSoC4/EZI2C_EZI2C_INT.c ****         /* Make local copy of global variable */
  71:Generated_Source\PSoC4/EZI2C_EZI2C_INT.c ****         locIndex = EZI2C_EZI2C_GET_INDEX(activeAddress);
  72:Generated_Source\PSoC4/EZI2C_EZI2C_INT.c **** 
  73:Generated_Source\PSoC4/EZI2C_EZI2C_INT.c ****         /* Get interrupt sources */
  74:Generated_Source\PSoC4/EZI2C_EZI2C_INT.c ****         locIntrSlave = EZI2C_GetSlaveInterruptSource();
  57              		.loc 1 74 0
  58 0012 B34B     		ldr	r3, .L79+4
  71:Generated_Source\PSoC4/EZI2C_EZI2C_INT.c **** 
  59              		.loc 1 71 0
  60 0014 B34D     		ldr	r5, .L79+8
  61              		.loc 1 74 0
  62 0016 1E68     		ldr	r6, [r3]
  75:Generated_Source\PSoC4/EZI2C_EZI2C_INT.c ****         locIntrCause = EZI2C_GetInterruptCause();
  63              		.loc 1 75 0
  64 0018 B34B     		ldr	r3, .L79+12
  71:Generated_Source\PSoC4/EZI2C_EZI2C_INT.c **** 
  65              		.loc 1 71 0
  66 001a 2C88     		ldrh	r4, [r5]
  67              	.LVL1:
  68              		.loc 1 75 0
  69 001c 1F68     		ldr	r7, [r3]
  70              	.LVL2:
  76:Generated_Source\PSoC4/EZI2C_EZI2C_INT.c **** 
  77:Generated_Source\PSoC4/EZI2C_EZI2C_INT.c ****         /* INTR_SLAVE.I2C_ARB_LOST and INTR_SLAVE_I2C.BUS_ERROR */
  78:Generated_Source\PSoC4/EZI2C_EZI2C_INT.c ****         /* Handles errors on the bus. There are cases when both bits are set.
  79:Generated_Source\PSoC4/EZI2C_EZI2C_INT.c ****         * The error recovery is common: re-enable the scb IP. The content of the RX FIFO is lost.
  80:Generated_Source\PSoC4/EZI2C_EZI2C_INT.c ****         */
  81:Generated_Source\PSoC4/EZI2C_EZI2C_INT.c ****         if(0u != (locIntrSlave & (EZI2C_INTR_SLAVE_I2C_ARB_LOST |
  71              		.loc 1 81 0
  72 001e 0223     		movs	r3, #2
  73 0020 FF33     		adds	r3, r3, #255
  74 0022 3340     		ands	r3, r6
  75 0024 2DD0     		beq	.L3
  82:Generated_Source\PSoC4/EZI2C_EZI2C_INT.c ****                                   EZI2C_INTR_SLAVE_I2C_BUS_ERROR)))
  83:Generated_Source\PSoC4/EZI2C_EZI2C_INT.c ****         {
  84:Generated_Source\PSoC4/EZI2C_EZI2C_INT.c ****             EZI2C_CTRL_REG &= (uint32) ~EZI2C_CTRL_ENABLED; /* Disable SCB block */
  85:Generated_Source\PSoC4/EZI2C_EZI2C_INT.c **** 
  86:Generated_Source\PSoC4/EZI2C_EZI2C_INT.c ****         #if(EZI2C_CY_SCBIP_V0)
  87:Generated_Source\PSoC4/EZI2C_EZI2C_INT.c ****             if(0u != ((uint8) EZI2C_EZI2C_STATUS_BUSY & EZI2C_curStatus))
  88:Generated_Source\PSoC4/EZI2C_EZI2C_INT.c ****         #endif /* (EZI2C_CY_SCBIP_V0) */
  89:Generated_Source\PSoC4/EZI2C_EZI2C_INT.c ****             {
  90:Generated_Source\PSoC4/EZI2C_EZI2C_INT.c ****                 EZI2C_curStatus &= (uint8) ~EZI2C_EZI2C_STATUS_BUSY;
  76              		.loc 1 90 0
  77 0026 2021     		movs	r1, #32
  84:Generated_Source\PSoC4/EZI2C_EZI2C_INT.c **** 
ARM GAS  C:\Users\jhkim\AppData\Local\Temp\cc2MGKKj.s 			page 4


  78              		.loc 1 84 0
  79 0028 B04A     		ldr	r2, .L79+16
  80 002a 1368     		ldr	r3, [r2]
  81 002c 5B00     		lsls	r3, r3, #1
  82 002e 5B08     		lsrs	r3, r3, #1
  83 0030 1360     		str	r3, [r2]
  84              		.loc 1 90 0
  85 0032 AF4B     		ldr	r3, .L79+20
  86 0034 1A78     		ldrb	r2, [r3]
  87 0036 8A43     		bics	r2, r1
  88 0038 1A70     		strb	r2, [r3]
  91:Generated_Source\PSoC4/EZI2C_EZI2C_INT.c ****                 EZI2C_curStatus |= (uint8)  EZI2C_EZI2C_STATUS_ERR;
  89              		.loc 1 91 0
  90 003a 1022     		movs	r2, #16
  91 003c 1978     		ldrb	r1, [r3]
  92 003e 0A43     		orrs	r2, r1
  93 0040 1A70     		strb	r2, [r3]
  92:Generated_Source\PSoC4/EZI2C_EZI2C_INT.c **** 
  93:Generated_Source\PSoC4/EZI2C_EZI2C_INT.c ****                 /* INTR_TX_EMPTY is enabled in the address phase to receive data */
  94:Generated_Source\PSoC4/EZI2C_EZI2C_INT.c ****                 if(0u == (EZI2C_GetTxInterruptMode() & EZI2C_INTR_TX_EMPTY))
  94              		.loc 1 94 0
  95 0042 AC4A     		ldr	r2, .L79+24
  96 0044 1268     		ldr	r2, [r2]
  97 0046 D206     		lsls	r2, r2, #27
  98 0048 00D4     		bmi	.LCB63
  99 004a 8DE0     		b	.L70	@long jump
 100              	.LCB63:
  95:Generated_Source\PSoC4/EZI2C_EZI2C_INT.c ****                 {
  96:Generated_Source\PSoC4/EZI2C_EZI2C_INT.c ****                     /* Write complete */
  97:Generated_Source\PSoC4/EZI2C_EZI2C_INT.c ****                     if(EZI2C_indexBuf1 != EZI2C_offsetBuf1)
  98:Generated_Source\PSoC4/EZI2C_EZI2C_INT.c ****                     {
  99:Generated_Source\PSoC4/EZI2C_EZI2C_INT.c ****                         EZI2C_curStatus |= (uint8) EZI2C_INTR_SLAVE_I2C_WRITE_STOP;
 100:Generated_Source\PSoC4/EZI2C_EZI2C_INT.c ****                     }
 101:Generated_Source\PSoC4/EZI2C_EZI2C_INT.c ****                 }
 102:Generated_Source\PSoC4/EZI2C_EZI2C_INT.c ****                 else
 103:Generated_Source\PSoC4/EZI2C_EZI2C_INT.c ****                 {
 104:Generated_Source\PSoC4/EZI2C_EZI2C_INT.c ****                     /* Read complete */
 105:Generated_Source\PSoC4/EZI2C_EZI2C_INT.c ****                     EZI2C_curStatus |= (uint8) EZI2C_INTR_SLAVE_I2C_NACK;
 101              		.loc 1 105 0
 102 004c 0222     		movs	r2, #2
 103 004e 1978     		ldrb	r1, [r3]
 104 0050 0A43     		orrs	r2, r1
 105 0052 1A70     		strb	r2, [r3]
 106              	.L5:
 106:Generated_Source\PSoC4/EZI2C_EZI2C_INT.c ****                 }
 107:Generated_Source\PSoC4/EZI2C_EZI2C_INT.c ****             }
 108:Generated_Source\PSoC4/EZI2C_EZI2C_INT.c **** 
 109:Generated_Source\PSoC4/EZI2C_EZI2C_INT.c ****             EZI2C_DISABLE_SLAVE_AUTO_DATA;
 107              		.loc 1 109 0
 108 0054 A84A     		ldr	r2, .L79+28
 109 0056 A94B     		ldr	r3, .L79+32
 110 0058 1168     		ldr	r1, [r2]
 111 005a 0B40     		ands	r3, r1
 112 005c 1360     		str	r3, [r2]
 110:Generated_Source\PSoC4/EZI2C_EZI2C_INT.c **** 
 111:Generated_Source\PSoC4/EZI2C_EZI2C_INT.c ****             /* Disable TX and RX interrupt sources */
 112:Generated_Source\PSoC4/EZI2C_EZI2C_INT.c ****             EZI2C_SetRxInterruptMode(EZI2C_NO_INTR_SOURCES);
ARM GAS  C:\Users\jhkim\AppData\Local\Temp\cc2MGKKj.s 			page 5


 113              		.loc 1 112 0
 114 005e 0023     		movs	r3, #0
 113:Generated_Source\PSoC4/EZI2C_EZI2C_INT.c ****             EZI2C_SetTxInterruptMode(EZI2C_NO_INTR_SOURCES);
 114:Generated_Source\PSoC4/EZI2C_EZI2C_INT.c **** 
 115:Generated_Source\PSoC4/EZI2C_EZI2C_INT.c ****         #if(EZI2C_CY_SCBIP_V0)
 116:Generated_Source\PSoC4/EZI2C_EZI2C_INT.c ****             /* Clear interrupt sources as they are not automatically cleared after SCB is disabled 
 117:Generated_Source\PSoC4/EZI2C_EZI2C_INT.c ****             EZI2C_ClearRxInterruptSource(EZI2C_INTR_RX_ALL);
 118:Generated_Source\PSoC4/EZI2C_EZI2C_INT.c ****             EZI2C_ClearSlaveInterruptSource(EZI2C_INTR_SLAVE_ALL);
 119:Generated_Source\PSoC4/EZI2C_EZI2C_INT.c ****         #endif /* (EZI2C_CY_SCBIP_V0) */
 120:Generated_Source\PSoC4/EZI2C_EZI2C_INT.c **** 
 121:Generated_Source\PSoC4/EZI2C_EZI2C_INT.c ****             EZI2C_fsmState = EZI2C_EZI2C_FSM_IDLE;
 122:Generated_Source\PSoC4/EZI2C_EZI2C_INT.c **** 
 123:Generated_Source\PSoC4/EZI2C_EZI2C_INT.c ****             EZI2C_CTRL_REG |= (uint32) EZI2C_CTRL_ENABLED;  /* Enable SCB block */
 115              		.loc 1 123 0
 116 0060 8021     		movs	r1, #128
 112:Generated_Source\PSoC4/EZI2C_EZI2C_INT.c ****             EZI2C_SetTxInterruptMode(EZI2C_NO_INTR_SOURCES);
 117              		.loc 1 112 0
 118 0062 A74A     		ldr	r2, .L79+36
 119              		.loc 1 123 0
 120 0064 0906     		lsls	r1, r1, #24
 112:Generated_Source\PSoC4/EZI2C_EZI2C_INT.c ****             EZI2C_SetTxInterruptMode(EZI2C_NO_INTR_SOURCES);
 121              		.loc 1 112 0
 122 0066 1360     		str	r3, [r2]
 113:Generated_Source\PSoC4/EZI2C_EZI2C_INT.c ****             EZI2C_SetTxInterruptMode(EZI2C_NO_INTR_SOURCES);
 123              		.loc 1 113 0
 124 0068 A24A     		ldr	r2, .L79+24
 125 006a 1360     		str	r3, [r2]
 121:Generated_Source\PSoC4/EZI2C_EZI2C_INT.c **** 
 126              		.loc 1 121 0
 127 006c A54A     		ldr	r2, .L79+40
 128 006e 1370     		strb	r3, [r2]
 129              		.loc 1 123 0
 130 0070 9E4A     		ldr	r2, .L79+16
 131 0072 1368     		ldr	r3, [r2]
 132 0074 0B43     		orrs	r3, r1
 133 0076 1360     		str	r3, [r2]
 134              	.LVL3:
 135              	.L6:
 124:Generated_Source\PSoC4/EZI2C_EZI2C_INT.c ****         }
 125:Generated_Source\PSoC4/EZI2C_EZI2C_INT.c ****         else
 126:Generated_Source\PSoC4/EZI2C_EZI2C_INT.c ****         {
 127:Generated_Source\PSoC4/EZI2C_EZI2C_INT.c ****             /* INTR_I2C_EC_WAKE_UP */
 128:Generated_Source\PSoC4/EZI2C_EZI2C_INT.c ****             /* Wakes up device from deep sleep */
 129:Generated_Source\PSoC4/EZI2C_EZI2C_INT.c ****             if(0u != (locIntrCause & EZI2C_INTR_CAUSE_I2C_EC))
 130:Generated_Source\PSoC4/EZI2C_EZI2C_INT.c ****             {
 131:Generated_Source\PSoC4/EZI2C_EZI2C_INT.c ****                 /* Disables wakeup interrupt source but does not clear it. It is cleared in INTR_SL
 132:Generated_Source\PSoC4/EZI2C_EZI2C_INT.c ****                 EZI2C_SetI2CExtClkInterruptMode(EZI2C_NO_INTR_SOURCES);
 133:Generated_Source\PSoC4/EZI2C_EZI2C_INT.c ****             }
 134:Generated_Source\PSoC4/EZI2C_EZI2C_INT.c **** 
 135:Generated_Source\PSoC4/EZI2C_EZI2C_INT.c ****             if(0u != (locIntrCause & (EZI2C_INTR_CAUSE_RX | EZI2C_INTR_CAUSE_SLAVE)))
 136:Generated_Source\PSoC4/EZI2C_EZI2C_INT.c ****             {
 137:Generated_Source\PSoC4/EZI2C_EZI2C_INT.c ****                 /* INTR_RX.NOT_EMPTY */
 138:Generated_Source\PSoC4/EZI2C_EZI2C_INT.c ****                 /* Receives data byte-by-byte. Does not use RX FIFO capabilities */
 139:Generated_Source\PSoC4/EZI2C_EZI2C_INT.c ****                 if (0u != (EZI2C_GetRxInterruptSourceMasked() & EZI2C_INTR_RX_NOT_EMPTY))
 140:Generated_Source\PSoC4/EZI2C_EZI2C_INT.c ****                 {
 141:Generated_Source\PSoC4/EZI2C_EZI2C_INT.c ****                 #if(EZI2C_SECONDARY_ADDRESS_ENABLE_CONST)
 142:Generated_Source\PSoC4/EZI2C_EZI2C_INT.c ****                     /* If I2C_STOP service is delayed to I2C_ADDR_MATCH the address byte is in the 
ARM GAS  C:\Users\jhkim\AppData\Local\Temp\cc2MGKKj.s 			page 6


 143:Generated_Source\PSoC4/EZI2C_EZI2C_INT.c ****                     * RX_NOT_EMPTY is enabled. The address byte has to stay into RX FIFO therefore
 144:Generated_Source\PSoC4/EZI2C_EZI2C_INT.c ****                     * RX.NOT_EMPTY service has to be skipped. The address byte has to be read by I2
 145:Generated_Source\PSoC4/EZI2C_EZI2C_INT.c ****                     */
 146:Generated_Source\PSoC4/EZI2C_EZI2C_INT.c ****                     if (0u == (locIntrCause & EZI2C_INTR_CAUSE_SLAVE))
 147:Generated_Source\PSoC4/EZI2C_EZI2C_INT.c ****                 #endif /* (EZI2C_SECONDARY_ADDRESS_ENABLE_CONST) */
 148:Generated_Source\PSoC4/EZI2C_EZI2C_INT.c ****                     {
 149:Generated_Source\PSoC4/EZI2C_EZI2C_INT.c ****                         locByte = EZI2C_RX_FIFO_RD_REG;
 150:Generated_Source\PSoC4/EZI2C_EZI2C_INT.c **** 
 151:Generated_Source\PSoC4/EZI2C_EZI2C_INT.c ****                         switch(EZI2C_fsmState)
 152:Generated_Source\PSoC4/EZI2C_EZI2C_INT.c ****                         {
 153:Generated_Source\PSoC4/EZI2C_EZI2C_INT.c ****                         case EZI2C_EZI2C_FSM_BYTE_WRITE:
 154:Generated_Source\PSoC4/EZI2C_EZI2C_INT.c ****                             if(0u != locBufSize)
 155:Generated_Source\PSoC4/EZI2C_EZI2C_INT.c ****                             {
 156:Generated_Source\PSoC4/EZI2C_EZI2C_INT.c ****                                 /* Store data byte and ACK */
 157:Generated_Source\PSoC4/EZI2C_EZI2C_INT.c ****                                 EZI2C_I2C_SLAVE_GENERATE_ACK;
 158:Generated_Source\PSoC4/EZI2C_EZI2C_INT.c **** 
 159:Generated_Source\PSoC4/EZI2C_EZI2C_INT.c ****                                 EZI2C_dataBuffer1[locIndex] = (uint8) locByte;
 160:Generated_Source\PSoC4/EZI2C_EZI2C_INT.c ****                                 locIndex++;
 161:Generated_Source\PSoC4/EZI2C_EZI2C_INT.c ****                                 locBufSize--;
 162:Generated_Source\PSoC4/EZI2C_EZI2C_INT.c ****                             }
 163:Generated_Source\PSoC4/EZI2C_EZI2C_INT.c ****                             else
 164:Generated_Source\PSoC4/EZI2C_EZI2C_INT.c ****                             {
 165:Generated_Source\PSoC4/EZI2C_EZI2C_INT.c ****                                 /* Discard data byte and NACK */
 166:Generated_Source\PSoC4/EZI2C_EZI2C_INT.c ****                                 EZI2C_I2C_SLAVE_GENERATE_NACK;
 167:Generated_Source\PSoC4/EZI2C_EZI2C_INT.c ****                             }
 168:Generated_Source\PSoC4/EZI2C_EZI2C_INT.c ****                             break;
 169:Generated_Source\PSoC4/EZI2C_EZI2C_INT.c **** 
 170:Generated_Source\PSoC4/EZI2C_EZI2C_INT.c ****                     #if(EZI2C_SUB_ADDRESS_SIZE16_CONST)
 171:Generated_Source\PSoC4/EZI2C_EZI2C_INT.c ****                         case EZI2C_EZI2C_FSM_OFFSET_HI8:
 172:Generated_Source\PSoC4/EZI2C_EZI2C_INT.c **** 
 173:Generated_Source\PSoC4/EZI2C_EZI2C_INT.c ****                             EZI2C_I2C_SLAVE_GENERATE_ACK;
 174:Generated_Source\PSoC4/EZI2C_EZI2C_INT.c **** 
 175:Generated_Source\PSoC4/EZI2C_EZI2C_INT.c ****                             /* Store offset most significant byre */
 176:Generated_Source\PSoC4/EZI2C_EZI2C_INT.c ****                             locBufSize = (uint16) ((uint8) locByte);
 177:Generated_Source\PSoC4/EZI2C_EZI2C_INT.c **** 
 178:Generated_Source\PSoC4/EZI2C_EZI2C_INT.c ****                             EZI2C_fsmState = EZI2C_EZI2C_FSM_OFFSET_LO8;
 179:Generated_Source\PSoC4/EZI2C_EZI2C_INT.c **** 
 180:Generated_Source\PSoC4/EZI2C_EZI2C_INT.c ****                             break;
 181:Generated_Source\PSoC4/EZI2C_EZI2C_INT.c ****                     #endif /* (EZI2C_SUB_ADDRESS_SIZE16_CONST) */
 182:Generated_Source\PSoC4/EZI2C_EZI2C_INT.c **** 
 183:Generated_Source\PSoC4/EZI2C_EZI2C_INT.c ****                         case EZI2C_EZI2C_FSM_OFFSET_LO8:
 184:Generated_Source\PSoC4/EZI2C_EZI2C_INT.c **** 
 185:Generated_Source\PSoC4/EZI2C_EZI2C_INT.c ****                             #if (EZI2C_SUB_ADDRESS_SIZE16)
 186:Generated_Source\PSoC4/EZI2C_EZI2C_INT.c ****                             {
 187:Generated_Source\PSoC4/EZI2C_EZI2C_INT.c ****                                 /* Collect 2 bytes offset */
 188:Generated_Source\PSoC4/EZI2C_EZI2C_INT.c ****                                 locByte = ((uint32) ((uint32) locBufSize << 8u)) | locByte;
 189:Generated_Source\PSoC4/EZI2C_EZI2C_INT.c ****                             }
 190:Generated_Source\PSoC4/EZI2C_EZI2C_INT.c ****                             #endif
 191:Generated_Source\PSoC4/EZI2C_EZI2C_INT.c **** 
 192:Generated_Source\PSoC4/EZI2C_EZI2C_INT.c ****                             /* Check offset against buffer size */
 193:Generated_Source\PSoC4/EZI2C_EZI2C_INT.c ****                             if(locByte < (uint32) EZI2C_bufSizeBuf1)
 194:Generated_Source\PSoC4/EZI2C_EZI2C_INT.c ****                             {
 195:Generated_Source\PSoC4/EZI2C_EZI2C_INT.c ****                                 EZI2C_I2C_SLAVE_GENERATE_ACK;
 196:Generated_Source\PSoC4/EZI2C_EZI2C_INT.c **** 
 197:Generated_Source\PSoC4/EZI2C_EZI2C_INT.c ****                                 /* Update local buffer index with new offset */
 198:Generated_Source\PSoC4/EZI2C_EZI2C_INT.c ****                                 locIndex = locByte;
 199:Generated_Source\PSoC4/EZI2C_EZI2C_INT.c **** 
ARM GAS  C:\Users\jhkim\AppData\Local\Temp\cc2MGKKj.s 			page 7


 200:Generated_Source\PSoC4/EZI2C_EZI2C_INT.c ****                                 /* Get available buffer size to write */
 201:Generated_Source\PSoC4/EZI2C_EZI2C_INT.c ****                                 locBufSize = (uint16) ((locByte < EZI2C_protectBuf1) ?
 202:Generated_Source\PSoC4/EZI2C_EZI2C_INT.c ****                                                        (EZI2C_protectBuf1 - locByte) : (0u));
 203:Generated_Source\PSoC4/EZI2C_EZI2C_INT.c **** 
 204:Generated_Source\PSoC4/EZI2C_EZI2C_INT.c ****                             #if(EZI2C_CY_SCBIP_V0)
 205:Generated_Source\PSoC4/EZI2C_EZI2C_INT.c **** 
 206:Generated_Source\PSoC4/EZI2C_EZI2C_INT.c ****                                 if(locBufSize < EZI2C_EZI2C_FIFO_SIZE)
 207:Generated_Source\PSoC4/EZI2C_EZI2C_INT.c ****                                 {
 208:Generated_Source\PSoC4/EZI2C_EZI2C_INT.c ****                                     /* Set FSM state to receive byte by byte */
 209:Generated_Source\PSoC4/EZI2C_EZI2C_INT.c ****                                     EZI2C_fsmState = EZI2C_EZI2C_FSM_BYTE_WRITE;
 210:Generated_Source\PSoC4/EZI2C_EZI2C_INT.c ****                                 }
 211:Generated_Source\PSoC4/EZI2C_EZI2C_INT.c ****                                 /* Receive RX FIFO chunks */
 212:Generated_Source\PSoC4/EZI2C_EZI2C_INT.c ****                                 else if(locBufSize == EZI2C_EZI2C_FIFO_SIZE)
 213:Generated_Source\PSoC4/EZI2C_EZI2C_INT.c ****                                 {
 214:Generated_Source\PSoC4/EZI2C_EZI2C_INT.c ****                                     EZI2C_ENABLE_SLAVE_AUTO_DATA; /* NACK when RX FIFO is full */
 215:Generated_Source\PSoC4/EZI2C_EZI2C_INT.c ****                                     EZI2C_SetRxInterruptMode(EZI2C_NO_INTR_SOURCES);
 216:Generated_Source\PSoC4/EZI2C_EZI2C_INT.c ****                                 }
 217:Generated_Source\PSoC4/EZI2C_EZI2C_INT.c ****                                 else
 218:Generated_Source\PSoC4/EZI2C_EZI2C_INT.c ****                                 {
 219:Generated_Source\PSoC4/EZI2C_EZI2C_INT.c ****                                     EZI2C_ENABLE_SLAVE_AUTO_DATA_ACK; /* Stretch when RX FIFO is fu
 220:Generated_Source\PSoC4/EZI2C_EZI2C_INT.c ****                                     EZI2C_SetRxInterruptMode(EZI2C_INTR_RX_FULL);
 221:Generated_Source\PSoC4/EZI2C_EZI2C_INT.c ****                                 }
 222:Generated_Source\PSoC4/EZI2C_EZI2C_INT.c **** 
 223:Generated_Source\PSoC4/EZI2C_EZI2C_INT.c ****                             #else
 224:Generated_Source\PSoC4/EZI2C_EZI2C_INT.c **** 
 225:Generated_Source\PSoC4/EZI2C_EZI2C_INT.c ****                                 #if(EZI2C_SECONDARY_ADDRESS_ENABLE)
 226:Generated_Source\PSoC4/EZI2C_EZI2C_INT.c ****                                 {
 227:Generated_Source\PSoC4/EZI2C_EZI2C_INT.c ****                                     /* Set FSM state to receive byte by byte.
 228:Generated_Source\PSoC4/EZI2C_EZI2C_INT.c ****                                     * The byte by byte receive is always chosen for two addresses. 
 229:Generated_Source\PSoC4/EZI2C_EZI2C_INT.c ****                                     */
 230:Generated_Source\PSoC4/EZI2C_EZI2C_INT.c ****                                     EZI2C_fsmState = EZI2C_EZI2C_FSM_BYTE_WRITE;
 231:Generated_Source\PSoC4/EZI2C_EZI2C_INT.c ****                                 }
 232:Generated_Source\PSoC4/EZI2C_EZI2C_INT.c ****                                 #else
 233:Generated_Source\PSoC4/EZI2C_EZI2C_INT.c ****                                 {
 234:Generated_Source\PSoC4/EZI2C_EZI2C_INT.c ****                                     if (locBufSize < EZI2C_EZI2C_FIFO_SIZE)
 235:Generated_Source\PSoC4/EZI2C_EZI2C_INT.c ****                                     {
 236:Generated_Source\PSoC4/EZI2C_EZI2C_INT.c ****                                         /* Set FSM state to receive byte by byte */
 237:Generated_Source\PSoC4/EZI2C_EZI2C_INT.c ****                                         EZI2C_fsmState = EZI2C_EZI2C_FSM_BYTE_WRITE;
 238:Generated_Source\PSoC4/EZI2C_EZI2C_INT.c ****                                     }
 239:Generated_Source\PSoC4/EZI2C_EZI2C_INT.c ****                                     /* Receive RX FIFO chunks */
 240:Generated_Source\PSoC4/EZI2C_EZI2C_INT.c ****                                     else if (locBufSize == EZI2C_EZI2C_FIFO_SIZE)
 241:Generated_Source\PSoC4/EZI2C_EZI2C_INT.c ****                                     {
 242:Generated_Source\PSoC4/EZI2C_EZI2C_INT.c ****                                         EZI2C_ENABLE_SLAVE_AUTO_DATA; /* NACK when RX FIFO is full 
 243:Generated_Source\PSoC4/EZI2C_EZI2C_INT.c ****                                         EZI2C_SetRxInterruptMode(EZI2C_NO_INTR_SOURCES);
 244:Generated_Source\PSoC4/EZI2C_EZI2C_INT.c ****                                     }
 245:Generated_Source\PSoC4/EZI2C_EZI2C_INT.c ****                                     else
 246:Generated_Source\PSoC4/EZI2C_EZI2C_INT.c ****                                     {
 247:Generated_Source\PSoC4/EZI2C_EZI2C_INT.c ****                                         EZI2C_ENABLE_SLAVE_AUTO_DATA_ACK; /* Stretch when RX FIFO i
 248:Generated_Source\PSoC4/EZI2C_EZI2C_INT.c ****                                         EZI2C_SetRxInterruptMode(EZI2C_INTR_RX_FULL);
 249:Generated_Source\PSoC4/EZI2C_EZI2C_INT.c ****                                     }
 250:Generated_Source\PSoC4/EZI2C_EZI2C_INT.c ****                                 }
 251:Generated_Source\PSoC4/EZI2C_EZI2C_INT.c ****                                 #endif
 252:Generated_Source\PSoC4/EZI2C_EZI2C_INT.c **** 
 253:Generated_Source\PSoC4/EZI2C_EZI2C_INT.c ****                             #endif /* (EZI2C_CY_SCBIP_V0) */
 254:Generated_Source\PSoC4/EZI2C_EZI2C_INT.c **** 
 255:Generated_Source\PSoC4/EZI2C_EZI2C_INT.c ****                                 /* Store local offset into global variable */
 256:Generated_Source\PSoC4/EZI2C_EZI2C_INT.c ****                                 EZI2C_EZI2C_SET_OFFSET(activeAddress, locIndex);
ARM GAS  C:\Users\jhkim\AppData\Local\Temp\cc2MGKKj.s 			page 8


 257:Generated_Source\PSoC4/EZI2C_EZI2C_INT.c ****                             }
 258:Generated_Source\PSoC4/EZI2C_EZI2C_INT.c ****                             else
 259:Generated_Source\PSoC4/EZI2C_EZI2C_INT.c ****                             {
 260:Generated_Source\PSoC4/EZI2C_EZI2C_INT.c ****                                 /* Discard offset byte and NACK */
 261:Generated_Source\PSoC4/EZI2C_EZI2C_INT.c ****                                 EZI2C_I2C_SLAVE_GENERATE_NACK;
 262:Generated_Source\PSoC4/EZI2C_EZI2C_INT.c ****                             }
 263:Generated_Source\PSoC4/EZI2C_EZI2C_INT.c ****                             break;
 264:Generated_Source\PSoC4/EZI2C_EZI2C_INT.c **** 
 265:Generated_Source\PSoC4/EZI2C_EZI2C_INT.c ****                         default:
 266:Generated_Source\PSoC4/EZI2C_EZI2C_INT.c ****                             CYASSERT(0u != 0u); /* Should never get there */
 267:Generated_Source\PSoC4/EZI2C_EZI2C_INT.c ****                             break;
 268:Generated_Source\PSoC4/EZI2C_EZI2C_INT.c ****                         }
 269:Generated_Source\PSoC4/EZI2C_EZI2C_INT.c **** 
 270:Generated_Source\PSoC4/EZI2C_EZI2C_INT.c ****                         EZI2C_ClearRxInterruptSource(EZI2C_INTR_RX_NOT_EMPTY);
 271:Generated_Source\PSoC4/EZI2C_EZI2C_INT.c ****                     }
 272:Generated_Source\PSoC4/EZI2C_EZI2C_INT.c ****                 }
 273:Generated_Source\PSoC4/EZI2C_EZI2C_INT.c ****                 /* INTR_RX.FULL, INTR_SLAVE.I2C_STOP */
 274:Generated_Source\PSoC4/EZI2C_EZI2C_INT.c ****                 /* Receive FIFO chunks: auto data ACK is enabled */
 275:Generated_Source\PSoC4/EZI2C_EZI2C_INT.c ****                 else if (0u != (EZI2C_I2C_CTRL_REG & EZI2C_I2C_CTRL_S_READY_DATA_ACK))
 276:Generated_Source\PSoC4/EZI2C_EZI2C_INT.c ****                 {
 277:Generated_Source\PSoC4/EZI2C_EZI2C_INT.c ****                     /* Slave interrupt (I2C_STOP or I2C_ADDR_MATCH) leads to completion of read.
 278:Generated_Source\PSoC4/EZI2C_EZI2C_INT.c ****                     * A completion event has a higher priority than the FIFO full.
 279:Generated_Source\PSoC4/EZI2C_EZI2C_INT.c ****                     * Read remaining data from RX FIFO.
 280:Generated_Source\PSoC4/EZI2C_EZI2C_INT.c ****                     */
 281:Generated_Source\PSoC4/EZI2C_EZI2C_INT.c ****                     if(0u != (locIntrCause & EZI2C_INTR_CAUSE_SLAVE))
 282:Generated_Source\PSoC4/EZI2C_EZI2C_INT.c ****                     {
 283:Generated_Source\PSoC4/EZI2C_EZI2C_INT.c ****                         /* Read remaining bytes from RX FIFO */
 284:Generated_Source\PSoC4/EZI2C_EZI2C_INT.c ****                         fifoIndex = EZI2C_GET_RX_FIFO_ENTRIES;
 285:Generated_Source\PSoC4/EZI2C_EZI2C_INT.c **** 
 286:Generated_Source\PSoC4/EZI2C_EZI2C_INT.c ****                         #if(EZI2C_SECONDARY_ADDRESS_ENABLE)
 287:Generated_Source\PSoC4/EZI2C_EZI2C_INT.c ****                         {
 288:Generated_Source\PSoC4/EZI2C_EZI2C_INT.c ****                             /* Update with current address match */
 289:Generated_Source\PSoC4/EZI2C_EZI2C_INT.c ****                             if(EZI2C_CHECK_INTR_SLAVE_MASKED(EZI2C_INTR_SLAVE_I2C_ADDR_MATCH))
 290:Generated_Source\PSoC4/EZI2C_EZI2C_INT.c ****                             {
 291:Generated_Source\PSoC4/EZI2C_EZI2C_INT.c ****                                 /* Update RX FIFO entries as address byte is there now */
 292:Generated_Source\PSoC4/EZI2C_EZI2C_INT.c ****                                 fifoIndex = EZI2C_GET_RX_FIFO_ENTRIES;
 293:Generated_Source\PSoC4/EZI2C_EZI2C_INT.c **** 
 294:Generated_Source\PSoC4/EZI2C_EZI2C_INT.c ****                                 /* If SR is valid, RX FIFO is full and address is in SHIFTER:
 295:Generated_Source\PSoC4/EZI2C_EZI2C_INT.c ****                                 * read 8 entries and leave address in RX FIFO for further processin
 296:Generated_Source\PSoC4/EZI2C_EZI2C_INT.c ****                                 * If SR is invalid, address is already in RX FIFO: read (entries-1)
 297:Generated_Source\PSoC4/EZI2C_EZI2C_INT.c ****                                 */
 298:Generated_Source\PSoC4/EZI2C_EZI2C_INT.c ****                                 fifoIndex -= ((0u != EZI2C_GET_RX_FIFO_SR_VALID) ? (0u) : (1u));
 299:Generated_Source\PSoC4/EZI2C_EZI2C_INT.c ****                             }
 300:Generated_Source\PSoC4/EZI2C_EZI2C_INT.c ****                         }
 301:Generated_Source\PSoC4/EZI2C_EZI2C_INT.c ****                         #endif
 302:Generated_Source\PSoC4/EZI2C_EZI2C_INT.c **** 
 303:Generated_Source\PSoC4/EZI2C_EZI2C_INT.c ****                         EZI2C_DISABLE_SLAVE_AUTO_DATA;
 304:Generated_Source\PSoC4/EZI2C_EZI2C_INT.c ****                         endTransfer = EZI2C_EZI2C_CONTINUE_TRANSFER;
 305:Generated_Source\PSoC4/EZI2C_EZI2C_INT.c ****                     }
 306:Generated_Source\PSoC4/EZI2C_EZI2C_INT.c ****                     else
 307:Generated_Source\PSoC4/EZI2C_EZI2C_INT.c ****                     /* INTR_RX_FULL */
 308:Generated_Source\PSoC4/EZI2C_EZI2C_INT.c ****                     /* Continue transfer or disable INTR_RX_FULL to catch completion event. */
 309:Generated_Source\PSoC4/EZI2C_EZI2C_INT.c ****                     {
 310:Generated_Source\PSoC4/EZI2C_EZI2C_INT.c ****                         /* Calculate buffer size available to write data into */
 311:Generated_Source\PSoC4/EZI2C_EZI2C_INT.c ****                         locBufSize -= (uint16) EZI2C_EZI2C_FIFO_SIZE;
 312:Generated_Source\PSoC4/EZI2C_EZI2C_INT.c **** 
 313:Generated_Source\PSoC4/EZI2C_EZI2C_INT.c ****                         if(locBufSize <= EZI2C_EZI2C_FIFO_SIZE)
ARM GAS  C:\Users\jhkim\AppData\Local\Temp\cc2MGKKj.s 			page 9


 314:Generated_Source\PSoC4/EZI2C_EZI2C_INT.c ****                         {
 315:Generated_Source\PSoC4/EZI2C_EZI2C_INT.c ****                             /* Send NACK when RX FIFO overflow */
 316:Generated_Source\PSoC4/EZI2C_EZI2C_INT.c ****                             fifoIndex   = locBufSize;
 317:Generated_Source\PSoC4/EZI2C_EZI2C_INT.c ****                             endTransfer = EZI2C_EZI2C_COMPLETE_TRANSFER;
 318:Generated_Source\PSoC4/EZI2C_EZI2C_INT.c ****                         }
 319:Generated_Source\PSoC4/EZI2C_EZI2C_INT.c ****                         else
 320:Generated_Source\PSoC4/EZI2C_EZI2C_INT.c ****                         {
 321:Generated_Source\PSoC4/EZI2C_EZI2C_INT.c ****                             /* Continue  transaction */
 322:Generated_Source\PSoC4/EZI2C_EZI2C_INT.c ****                             fifoIndex   = EZI2C_EZI2C_FIFO_SIZE;
 323:Generated_Source\PSoC4/EZI2C_EZI2C_INT.c ****                             endTransfer = EZI2C_EZI2C_CONTINUE_TRANSFER;
 324:Generated_Source\PSoC4/EZI2C_EZI2C_INT.c ****                         }
 325:Generated_Source\PSoC4/EZI2C_EZI2C_INT.c ****                     }
 326:Generated_Source\PSoC4/EZI2C_EZI2C_INT.c **** 
 327:Generated_Source\PSoC4/EZI2C_EZI2C_INT.c ****                     for(; (0u != fifoIndex); fifoIndex--)
 328:Generated_Source\PSoC4/EZI2C_EZI2C_INT.c ****                     {
 329:Generated_Source\PSoC4/EZI2C_EZI2C_INT.c ****                         /* Store data in buffer */
 330:Generated_Source\PSoC4/EZI2C_EZI2C_INT.c ****                         EZI2C_dataBuffer1[locIndex] = (uint8) EZI2C_RX_FIFO_RD_REG;
 331:Generated_Source\PSoC4/EZI2C_EZI2C_INT.c ****                         locIndex++;
 332:Generated_Source\PSoC4/EZI2C_EZI2C_INT.c ****                     }
 333:Generated_Source\PSoC4/EZI2C_EZI2C_INT.c **** 
 334:Generated_Source\PSoC4/EZI2C_EZI2C_INT.c ****                     /* Complete transfer sending NACK when RX FIFO overflow */
 335:Generated_Source\PSoC4/EZI2C_EZI2C_INT.c ****                     if(EZI2C_EZI2C_COMPLETE_TRANSFER == endTransfer)
 336:Generated_Source\PSoC4/EZI2C_EZI2C_INT.c ****                     {
 337:Generated_Source\PSoC4/EZI2C_EZI2C_INT.c ****                         EZI2C_ENABLE_SLAVE_AUTO_DATA_NACK;
 338:Generated_Source\PSoC4/EZI2C_EZI2C_INT.c **** 
 339:Generated_Source\PSoC4/EZI2C_EZI2C_INT.c ****                         /* Disable INTR_RX_FULL during last RX FIFO chunk reception */
 340:Generated_Source\PSoC4/EZI2C_EZI2C_INT.c ****                         EZI2C_SetRxInterruptMode(EZI2C_NO_INTR_SOURCES);
 341:Generated_Source\PSoC4/EZI2C_EZI2C_INT.c ****                     }
 342:Generated_Source\PSoC4/EZI2C_EZI2C_INT.c **** 
 343:Generated_Source\PSoC4/EZI2C_EZI2C_INT.c ****                     EZI2C_ClearRxInterruptSource(EZI2C_INTR_RX_FULL |
 344:Generated_Source\PSoC4/EZI2C_EZI2C_INT.c ****                                                             EZI2C_INTR_RX_NOT_EMPTY);
 345:Generated_Source\PSoC4/EZI2C_EZI2C_INT.c ****                 }
 346:Generated_Source\PSoC4/EZI2C_EZI2C_INT.c ****                 else
 347:Generated_Source\PSoC4/EZI2C_EZI2C_INT.c ****                 {
 348:Generated_Source\PSoC4/EZI2C_EZI2C_INT.c ****                     /* Exit for slave interrupts which are not active for RX direction:
 349:Generated_Source\PSoC4/EZI2C_EZI2C_INT.c ****                     * INTR_SLAVE.I2C_ADDR_MATCH and INTR_SLAVE.I2C_STOP while byte-by-byte receptio
 350:Generated_Source\PSoC4/EZI2C_EZI2C_INT.c ****                     */
 351:Generated_Source\PSoC4/EZI2C_EZI2C_INT.c ****                 }
 352:Generated_Source\PSoC4/EZI2C_EZI2C_INT.c ****             }
 353:Generated_Source\PSoC4/EZI2C_EZI2C_INT.c **** 
 354:Generated_Source\PSoC4/EZI2C_EZI2C_INT.c ****             if(0u != (locIntrCause & EZI2C_INTR_CAUSE_SLAVE))
 355:Generated_Source\PSoC4/EZI2C_EZI2C_INT.c ****             {
 356:Generated_Source\PSoC4/EZI2C_EZI2C_INT.c ****                 /* INTR_SLAVE.I2C_STOP */
 357:Generated_Source\PSoC4/EZI2C_EZI2C_INT.c ****                 /* Catch Stop condition: completion of write or read transfer */
 358:Generated_Source\PSoC4/EZI2C_EZI2C_INT.c ****             #if(!EZI2C_SECONDARY_ADDRESS_ENABLE_CONST)
 359:Generated_Source\PSoC4/EZI2C_EZI2C_INT.c ****                 if(0u != (locIntrSlave & EZI2C_INTR_SLAVE_I2C_STOP))
 360:Generated_Source\PSoC4/EZI2C_EZI2C_INT.c ****             #else
 361:Generated_Source\PSoC4/EZI2C_EZI2C_INT.c ****                 /* Prevent triggering when matched address was NACKed */
 362:Generated_Source\PSoC4/EZI2C_EZI2C_INT.c ****                 if((0u != (locIntrSlave & EZI2C_INTR_SLAVE_I2C_STOP)) &&
 363:Generated_Source\PSoC4/EZI2C_EZI2C_INT.c ****                    (0u != ((uint8) EZI2C_EZI2C_STATUS_BUSY & EZI2C_curStatus)))
 364:Generated_Source\PSoC4/EZI2C_EZI2C_INT.c ****             #endif
 365:Generated_Source\PSoC4/EZI2C_EZI2C_INT.c ****                 {
 366:Generated_Source\PSoC4/EZI2C_EZI2C_INT.c ****                     /* Disable TX and RX interrupt sources */
 367:Generated_Source\PSoC4/EZI2C_EZI2C_INT.c ****                     EZI2C_SetRxInterruptMode(EZI2C_NO_INTR_SOURCES);
 368:Generated_Source\PSoC4/EZI2C_EZI2C_INT.c ****                     EZI2C_SetTxInterruptMode(EZI2C_NO_INTR_SOURCES);
 369:Generated_Source\PSoC4/EZI2C_EZI2C_INT.c **** 
 370:Generated_Source\PSoC4/EZI2C_EZI2C_INT.c ****                     /* Set read completion mask */
ARM GAS  C:\Users\jhkim\AppData\Local\Temp\cc2MGKKj.s 			page 10


 371:Generated_Source\PSoC4/EZI2C_EZI2C_INT.c ****                     locStatus = EZI2C_INTR_SLAVE_I2C_NACK;
 372:Generated_Source\PSoC4/EZI2C_EZI2C_INT.c **** 
 373:Generated_Source\PSoC4/EZI2C_EZI2C_INT.c ****                     /* Check if buffer content was modified: the address phase resets the locIndex 
 374:Generated_Source\PSoC4/EZI2C_EZI2C_INT.c ****                     if(locIndex != EZI2C_EZI2C_GET_OFFSET(activeAddress))
 375:Generated_Source\PSoC4/EZI2C_EZI2C_INT.c ****                     {
 376:Generated_Source\PSoC4/EZI2C_EZI2C_INT.c ****                         locStatus |= EZI2C_INTR_SLAVE_I2C_WRITE_STOP;
 377:Generated_Source\PSoC4/EZI2C_EZI2C_INT.c ****                     }
 378:Generated_Source\PSoC4/EZI2C_EZI2C_INT.c **** 
 379:Generated_Source\PSoC4/EZI2C_EZI2C_INT.c ****                     /* Complete read or write transaction */
 380:Generated_Source\PSoC4/EZI2C_EZI2C_INT.c ****                     locStatus &= locIntrSlave;
 381:Generated_Source\PSoC4/EZI2C_EZI2C_INT.c ****                     EZI2C_EZI2C_UPDATE_LOC_STATUS(activeAddress, locStatus);
 382:Generated_Source\PSoC4/EZI2C_EZI2C_INT.c ****                     locStatus |= (uint32)  EZI2C_curStatus;
 383:Generated_Source\PSoC4/EZI2C_EZI2C_INT.c ****                     locStatus &= (uint32) ~EZI2C_EZI2C_STATUS_BUSY;
 384:Generated_Source\PSoC4/EZI2C_EZI2C_INT.c ****                     EZI2C_curStatus = (uint8) locStatus;
 385:Generated_Source\PSoC4/EZI2C_EZI2C_INT.c **** 
 386:Generated_Source\PSoC4/EZI2C_EZI2C_INT.c ****                     EZI2C_fsmState = EZI2C_EZI2C_FSM_IDLE;
 387:Generated_Source\PSoC4/EZI2C_EZI2C_INT.c **** 
 388:Generated_Source\PSoC4/EZI2C_EZI2C_INT.c ****                     #if(EZI2C_SECONDARY_ADDRESS_ENABLE)
 389:Generated_Source\PSoC4/EZI2C_EZI2C_INT.c ****                     {
 390:Generated_Source\PSoC4/EZI2C_EZI2C_INT.c ****                         /* Store local index into global variable, before address phase */
 391:Generated_Source\PSoC4/EZI2C_EZI2C_INT.c ****                         EZI2C_EZI2C_SET_INDEX(activeAddress, locIndex);
 392:Generated_Source\PSoC4/EZI2C_EZI2C_INT.c ****                     }
 393:Generated_Source\PSoC4/EZI2C_EZI2C_INT.c ****                     #endif
 394:Generated_Source\PSoC4/EZI2C_EZI2C_INT.c ****                 }
 395:Generated_Source\PSoC4/EZI2C_EZI2C_INT.c **** 
 396:Generated_Source\PSoC4/EZI2C_EZI2C_INT.c ****                 /* INTR_SLAVE.I2C_ADDR_MATCH */
 397:Generated_Source\PSoC4/EZI2C_EZI2C_INT.c ****                 /* The matched address is received: the slave starts its operation.
 398:Generated_Source\PSoC4/EZI2C_EZI2C_INT.c ****                 * INTR_SLAVE_I2C_STOP updates the buffer index before the address phase for two add
 399:Generated_Source\PSoC4/EZI2C_EZI2C_INT.c ****                 * This is done to update buffer index correctly before the address phase changes it
 400:Generated_Source\PSoC4/EZI2C_EZI2C_INT.c ****                 */
 401:Generated_Source\PSoC4/EZI2C_EZI2C_INT.c ****                 if(0u != (locIntrSlave & EZI2C_INTR_SLAVE_I2C_ADDR_MATCH))
 402:Generated_Source\PSoC4/EZI2C_EZI2C_INT.c ****                 {
 403:Generated_Source\PSoC4/EZI2C_EZI2C_INT.c ****                     #if(EZI2C_SECONDARY_ADDRESS_ENABLE)
 404:Generated_Source\PSoC4/EZI2C_EZI2C_INT.c ****                     {
 405:Generated_Source\PSoC4/EZI2C_EZI2C_INT.c ****                         /* Read address byte from RX FIFO */
 406:Generated_Source\PSoC4/EZI2C_EZI2C_INT.c ****                         locByte = EZI2C_GET_I2C_7BIT_ADDRESS(EZI2C_RX_FIFO_RD_REG);
 407:Generated_Source\PSoC4/EZI2C_EZI2C_INT.c **** 
 408:Generated_Source\PSoC4/EZI2C_EZI2C_INT.c ****                         EZI2C_ClearRxInterruptSource(EZI2C_INTR_RX_NOT_EMPTY);
 409:Generated_Source\PSoC4/EZI2C_EZI2C_INT.c **** 
 410:Generated_Source\PSoC4/EZI2C_EZI2C_INT.c ****                         /* Check received address against device addresses */
 411:Generated_Source\PSoC4/EZI2C_EZI2C_INT.c ****                         if(EZI2C_addrBuf1 == locByte)
 412:Generated_Source\PSoC4/EZI2C_EZI2C_INT.c ****                         {
 413:Generated_Source\PSoC4/EZI2C_EZI2C_INT.c ****                             /* Set buffer exposed to primary slave address */
 414:Generated_Source\PSoC4/EZI2C_EZI2C_INT.c ****                             EZI2C_dataBuffer = EZI2C_dataBuffer1;
 415:Generated_Source\PSoC4/EZI2C_EZI2C_INT.c ****                             EZI2C_bufSizeBuf = EZI2C_bufSizeBuf1;
 416:Generated_Source\PSoC4/EZI2C_EZI2C_INT.c ****                             EZI2C_protectBuf = EZI2C_protectBuf1;
 417:Generated_Source\PSoC4/EZI2C_EZI2C_INT.c **** 
 418:Generated_Source\PSoC4/EZI2C_EZI2C_INT.c ****                             activeAddress = EZI2C_EZI2C_ACTIVE_ADDRESS1;
 419:Generated_Source\PSoC4/EZI2C_EZI2C_INT.c ****                         }
 420:Generated_Source\PSoC4/EZI2C_EZI2C_INT.c ****                         else if(EZI2C_addrBuf2 == locByte)
 421:Generated_Source\PSoC4/EZI2C_EZI2C_INT.c ****                         {
 422:Generated_Source\PSoC4/EZI2C_EZI2C_INT.c ****                             /* Set buffer exposed to secondary slave address */
 423:Generated_Source\PSoC4/EZI2C_EZI2C_INT.c ****                             EZI2C_dataBuffer = EZI2C_dataBuffer2;
 424:Generated_Source\PSoC4/EZI2C_EZI2C_INT.c ****                             EZI2C_bufSizeBuf = EZI2C_bufSizeBuf2;
 425:Generated_Source\PSoC4/EZI2C_EZI2C_INT.c ****                             EZI2C_protectBuf = EZI2C_protectBuf2;
 426:Generated_Source\PSoC4/EZI2C_EZI2C_INT.c **** 
 427:Generated_Source\PSoC4/EZI2C_EZI2C_INT.c ****                             activeAddress = EZI2C_EZI2C_ACTIVE_ADDRESS2;
ARM GAS  C:\Users\jhkim\AppData\Local\Temp\cc2MGKKj.s 			page 11


 428:Generated_Source\PSoC4/EZI2C_EZI2C_INT.c ****                         }
 429:Generated_Source\PSoC4/EZI2C_EZI2C_INT.c ****                         else
 430:Generated_Source\PSoC4/EZI2C_EZI2C_INT.c ****                         {
 431:Generated_Source\PSoC4/EZI2C_EZI2C_INT.c ****                             /* Address does not match */
 432:Generated_Source\PSoC4/EZI2C_EZI2C_INT.c ****                             ackResponse = EZI2C_EZI2C_NACK_RECEIVED_ADDRESS;
 433:Generated_Source\PSoC4/EZI2C_EZI2C_INT.c ****                         }
 434:Generated_Source\PSoC4/EZI2C_EZI2C_INT.c ****                     }
 435:Generated_Source\PSoC4/EZI2C_EZI2C_INT.c ****                     #endif
 436:Generated_Source\PSoC4/EZI2C_EZI2C_INT.c **** 
 437:Generated_Source\PSoC4/EZI2C_EZI2C_INT.c ****                 #if(EZI2C_SECONDARY_ADDRESS_ENABLE_CONST)
 438:Generated_Source\PSoC4/EZI2C_EZI2C_INT.c ****                     if(EZI2C_EZI2C_NACK_RECEIVED_ADDRESS == ackResponse)
 439:Generated_Source\PSoC4/EZI2C_EZI2C_INT.c ****                     {
 440:Generated_Source\PSoC4/EZI2C_EZI2C_INT.c ****                         /* Clear interrupt sources before NACK address */
 441:Generated_Source\PSoC4/EZI2C_EZI2C_INT.c ****                         EZI2C_ClearI2CExtClkInterruptSource(EZI2C_INTR_I2C_EC_WAKE_UP);
 442:Generated_Source\PSoC4/EZI2C_EZI2C_INT.c ****                         EZI2C_ClearSlaveInterruptSource(EZI2C_INTR_SLAVE_ALL);
 443:Generated_Source\PSoC4/EZI2C_EZI2C_INT.c **** 
 444:Generated_Source\PSoC4/EZI2C_EZI2C_INT.c ****                     #if(!EZI2C_CY_SCBIP_V0)
 445:Generated_Source\PSoC4/EZI2C_EZI2C_INT.c ****                         /* Disable INTR_I2C_STOP to not trigger after matched address is NACKed. Ti
 446:Generated_Source\PSoC4/EZI2C_EZI2C_INT.c ****                         EZI2C_DISABLE_INTR_SLAVE(EZI2C_INTR_SLAVE_I2C_STOP);
 447:Generated_Source\PSoC4/EZI2C_EZI2C_INT.c ****                     #endif /* (!EZI2C_CY_SCBIP_V0) */
 448:Generated_Source\PSoC4/EZI2C_EZI2C_INT.c **** 
 449:Generated_Source\PSoC4/EZI2C_EZI2C_INT.c ****                         /* NACK address byte: it does not match neither primary nor secondary */
 450:Generated_Source\PSoC4/EZI2C_EZI2C_INT.c ****                         EZI2C_I2C_SLAVE_GENERATE_NACK;
 451:Generated_Source\PSoC4/EZI2C_EZI2C_INT.c ****                     }
 452:Generated_Source\PSoC4/EZI2C_EZI2C_INT.c ****                     else
 453:Generated_Source\PSoC4/EZI2C_EZI2C_INT.c ****                 #endif /* (EZI2C_SECONDARY_ADDRESS_ENABLE_CONST) */
 454:Generated_Source\PSoC4/EZI2C_EZI2C_INT.c ****                     {
 455:Generated_Source\PSoC4/EZI2C_EZI2C_INT.c **** 
 456:Generated_Source\PSoC4/EZI2C_EZI2C_INT.c ****                     #if(EZI2C_SCB_MODE_UNCONFIG_CONST_CFG)
 457:Generated_Source\PSoC4/EZI2C_EZI2C_INT.c ****                         if(!EZI2C_SECONDARY_ADDRESS_ENABLE)
 458:Generated_Source\PSoC4/EZI2C_EZI2C_INT.c ****                         {
 459:Generated_Source\PSoC4/EZI2C_EZI2C_INT.c ****                             /* Set buffer exposed to primary slave address */
 460:Generated_Source\PSoC4/EZI2C_EZI2C_INT.c ****                             EZI2C_dataBuffer = EZI2C_dataBuffer1;
 461:Generated_Source\PSoC4/EZI2C_EZI2C_INT.c ****                             EZI2C_bufSizeBuf = EZI2C_bufSizeBuf1;
 462:Generated_Source\PSoC4/EZI2C_EZI2C_INT.c ****                             EZI2C_protectBuf = EZI2C_protectBuf1;
 463:Generated_Source\PSoC4/EZI2C_EZI2C_INT.c **** 
 464:Generated_Source\PSoC4/EZI2C_EZI2C_INT.c ****                             activeAddress = EZI2C_EZI2C_ACTIVE_ADDRESS1;
 465:Generated_Source\PSoC4/EZI2C_EZI2C_INT.c ****                         }
 466:Generated_Source\PSoC4/EZI2C_EZI2C_INT.c ****                     #endif /* (EZI2C_SCB_MODE_UNCONFIG_CONST_CFG) */
 467:Generated_Source\PSoC4/EZI2C_EZI2C_INT.c **** 
 468:Generated_Source\PSoC4/EZI2C_EZI2C_INT.c ****                         /* Bus becomes busy after address is received */
 469:Generated_Source\PSoC4/EZI2C_EZI2C_INT.c ****                         EZI2C_curStatus |= (uint8) EZI2C_EZI2C_STATUS_BUSY;
 470:Generated_Source\PSoC4/EZI2C_EZI2C_INT.c **** 
 471:Generated_Source\PSoC4/EZI2C_EZI2C_INT.c ****                         /* Slave is read or written: set current offset */
 472:Generated_Source\PSoC4/EZI2C_EZI2C_INT.c ****                         locIndex = EZI2C_EZI2C_GET_OFFSET(activeAddress);
 473:Generated_Source\PSoC4/EZI2C_EZI2C_INT.c **** 
 474:Generated_Source\PSoC4/EZI2C_EZI2C_INT.c ****                         /* Check transaction direction */
 475:Generated_Source\PSoC4/EZI2C_EZI2C_INT.c ****                         if(EZI2C_CHECK_I2C_STATUS(EZI2C_I2C_STATUS_S_READ))
 476:Generated_Source\PSoC4/EZI2C_EZI2C_INT.c ****                         {
 477:Generated_Source\PSoC4/EZI2C_EZI2C_INT.c ****                             /* Calculate slave buffer size */
 478:Generated_Source\PSoC4/EZI2C_EZI2C_INT.c ****                             locBufSize = EZI2C_bufSizeBuf1 - (uint16) locIndex;
 479:Generated_Source\PSoC4/EZI2C_EZI2C_INT.c **** 
 480:Generated_Source\PSoC4/EZI2C_EZI2C_INT.c ****                             /* Clear TX FIFO to start fill from offset */
 481:Generated_Source\PSoC4/EZI2C_EZI2C_INT.c ****                             EZI2C_CLEAR_TX_FIFO;
 482:Generated_Source\PSoC4/EZI2C_EZI2C_INT.c ****                             EZI2C_SetTxInterruptMode(EZI2C_INTR_TX_EMPTY);
 483:Generated_Source\PSoC4/EZI2C_EZI2C_INT.c ****                         }
 484:Generated_Source\PSoC4/EZI2C_EZI2C_INT.c ****                         else
ARM GAS  C:\Users\jhkim\AppData\Local\Temp\cc2MGKKj.s 			page 12


 485:Generated_Source\PSoC4/EZI2C_EZI2C_INT.c ****                         {
 486:Generated_Source\PSoC4/EZI2C_EZI2C_INT.c ****                             /* Master writes: enable reception interrupt. The FSM state was set in 
 487:Generated_Source\PSoC4/EZI2C_EZI2C_INT.c ****                             EZI2C_SetRxInterruptMode(EZI2C_INTR_RX_NOT_EMPTY);
 488:Generated_Source\PSoC4/EZI2C_EZI2C_INT.c ****                         }
 489:Generated_Source\PSoC4/EZI2C_EZI2C_INT.c **** 
 490:Generated_Source\PSoC4/EZI2C_EZI2C_INT.c ****                         /* Clear interrupt sources before ACK address */
 491:Generated_Source\PSoC4/EZI2C_EZI2C_INT.c ****                         EZI2C_ClearI2CExtClkInterruptSource(EZI2C_INTR_I2C_EC_WAKE_UP);
 492:Generated_Source\PSoC4/EZI2C_EZI2C_INT.c ****                         EZI2C_ClearSlaveInterruptSource(EZI2C_INTR_SLAVE_ALL);
 493:Generated_Source\PSoC4/EZI2C_EZI2C_INT.c **** 
 494:Generated_Source\PSoC4/EZI2C_EZI2C_INT.c ****                     #if (!EZI2C_CY_SCBIP_V0)
 495:Generated_Source\PSoC4/EZI2C_EZI2C_INT.c ****                         /* Enable STOP to trigger after address match is ACKed. Ticket ID#156094 */
 496:Generated_Source\PSoC4/EZI2C_EZI2C_INT.c ****                         EZI2C_ENABLE_INTR_SLAVE(EZI2C_INTR_SLAVE_I2C_STOP);
 497:Generated_Source\PSoC4/EZI2C_EZI2C_INT.c ****                     #endif /* (!EZI2C_CY_SCBIP_V0) */
 498:Generated_Source\PSoC4/EZI2C_EZI2C_INT.c **** 
 499:Generated_Source\PSoC4/EZI2C_EZI2C_INT.c ****                         /* ACK the address byte */
 500:Generated_Source\PSoC4/EZI2C_EZI2C_INT.c ****                         EZI2C_I2C_SLAVE_GENERATE_ACK;
 501:Generated_Source\PSoC4/EZI2C_EZI2C_INT.c ****                     }
 502:Generated_Source\PSoC4/EZI2C_EZI2C_INT.c ****                 }
 503:Generated_Source\PSoC4/EZI2C_EZI2C_INT.c **** 
 504:Generated_Source\PSoC4/EZI2C_EZI2C_INT.c ****                 /* Clear slave interrupt sources */
 505:Generated_Source\PSoC4/EZI2C_EZI2C_INT.c ****                 EZI2C_ClearSlaveInterruptSource(locIntrSlave);
 506:Generated_Source\PSoC4/EZI2C_EZI2C_INT.c ****             }
 507:Generated_Source\PSoC4/EZI2C_EZI2C_INT.c **** 
 508:Generated_Source\PSoC4/EZI2C_EZI2C_INT.c ****             /* INTR_TX.EMPTY */
 509:Generated_Source\PSoC4/EZI2C_EZI2C_INT.c ****             /* Transmits data to the master: loads data into the TX FIFO. The 0xFF sends out if the
 510:Generated_Source\PSoC4/EZI2C_EZI2C_INT.c ****             * out the buffer. The address reception with a read flag clears the TX FIFO to be loade
 511:Generated_Source\PSoC4/EZI2C_EZI2C_INT.c ****             */
 512:Generated_Source\PSoC4/EZI2C_EZI2C_INT.c ****             if(0u != (EZI2C_GetInterruptCause() & EZI2C_INTR_CAUSE_TX))
 513:Generated_Source\PSoC4/EZI2C_EZI2C_INT.c ****             {
 514:Generated_Source\PSoC4/EZI2C_EZI2C_INT.c ****                 /* Put data into TX FIFO until there is a room */
 515:Generated_Source\PSoC4/EZI2C_EZI2C_INT.c ****                 do
 516:Generated_Source\PSoC4/EZI2C_EZI2C_INT.c ****                 {
 517:Generated_Source\PSoC4/EZI2C_EZI2C_INT.c ****                     /* Check transmit buffer range: locBufSize calculates after address reception *
 518:Generated_Source\PSoC4/EZI2C_EZI2C_INT.c ****                     if(0u != locBufSize)
 519:Generated_Source\PSoC4/EZI2C_EZI2C_INT.c ****                     {
 520:Generated_Source\PSoC4/EZI2C_EZI2C_INT.c ****                         EZI2C_TX_FIFO_WR_REG = (uint32) EZI2C_dataBuffer1[locIndex];
 521:Generated_Source\PSoC4/EZI2C_EZI2C_INT.c ****                         locIndex++;
 522:Generated_Source\PSoC4/EZI2C_EZI2C_INT.c ****                         locBufSize--;
 523:Generated_Source\PSoC4/EZI2C_EZI2C_INT.c ****                     }
 524:Generated_Source\PSoC4/EZI2C_EZI2C_INT.c ****                     else
 525:Generated_Source\PSoC4/EZI2C_EZI2C_INT.c ****                     {
 526:Generated_Source\PSoC4/EZI2C_EZI2C_INT.c ****                         EZI2C_TX_FIFO_WR_REG = EZI2C_EZI2C_OVFL_RETURN;
 527:Generated_Source\PSoC4/EZI2C_EZI2C_INT.c ****                     }
 528:Generated_Source\PSoC4/EZI2C_EZI2C_INT.c ****                 }
 529:Generated_Source\PSoC4/EZI2C_EZI2C_INT.c ****                 while(EZI2C_EZI2C_FIFO_SIZE != EZI2C_GET_TX_FIFO_ENTRIES);
 530:Generated_Source\PSoC4/EZI2C_EZI2C_INT.c **** 
 531:Generated_Source\PSoC4/EZI2C_EZI2C_INT.c ****                 EZI2C_ClearTxInterruptSource(EZI2C_INTR_TX_EMPTY);
 532:Generated_Source\PSoC4/EZI2C_EZI2C_INT.c ****             }
 533:Generated_Source\PSoC4/EZI2C_EZI2C_INT.c ****         }
 534:Generated_Source\PSoC4/EZI2C_EZI2C_INT.c **** 
 535:Generated_Source\PSoC4/EZI2C_EZI2C_INT.c ****         /* Store local index copy into global variable */
 536:Generated_Source\PSoC4/EZI2C_EZI2C_INT.c ****         EZI2C_EZI2C_SET_INDEX(activeAddress, locIndex);
 136              		.loc 1 536 0
 137 0078 2C80     		strh	r4, [r5]
 537:Generated_Source\PSoC4/EZI2C_EZI2C_INT.c **** 
 538:Generated_Source\PSoC4/EZI2C_EZI2C_INT.c ****     #ifdef EZI2C_EZI2C_STRETCH_ISR_EXIT_CALLBACK
 539:Generated_Source\PSoC4/EZI2C_EZI2C_INT.c ****         EZI2C_EZI2C_STRETCH_ISR_ExitCallback();
ARM GAS  C:\Users\jhkim\AppData\Local\Temp\cc2MGKKj.s 			page 13


 540:Generated_Source\PSoC4/EZI2C_EZI2C_INT.c ****     #endif /* EZI2C_EZI2C_STRETCH_ISR_EXIT_CALLBACK */
 541:Generated_Source\PSoC4/EZI2C_EZI2C_INT.c **** 
 542:Generated_Source\PSoC4/EZI2C_EZI2C_INT.c ****     }
 138              		.loc 1 542 0
 139              		@ sp needed
 140              	.LVL4:
 141 007a 0CBC     		pop	{r2, r3}
 142 007c 9046     		mov	r8, r2
 143 007e 9946     		mov	r9, r3
 144 0080 F8BD     		pop	{r3, r4, r5, r6, r7, pc}
 145              	.LVL5:
 146              	.L3:
 129:Generated_Source\PSoC4/EZI2C_EZI2C_INT.c ****             {
 147              		.loc 1 129 0
 148 0082 FA06     		lsls	r2, r7, #27
 149 0084 01D5     		bpl	.L7
 132:Generated_Source\PSoC4/EZI2C_EZI2C_INT.c ****             }
 150              		.loc 1 132 0
 151 0086 A04A     		ldr	r2, .L79+44
 152 0088 1360     		str	r3, [r2]
 153              	.L7:
 135:Generated_Source\PSoC4/EZI2C_EZI2C_INT.c ****             {
 154              		.loc 1 135 0
 155 008a 0A23     		movs	r3, #10
 156 008c 3B42     		tst	r3, r7
 157 008e 4CD1     		bne	.L71
 158              	.L68:
 159 0090 0223     		movs	r3, #2
 160 0092 1F40     		ands	r7, r3
 161              	.LVL6:
 162              	.L9:
 354:Generated_Source\PSoC4/EZI2C_EZI2C_INT.c ****             {
 163              		.loc 1 354 0
 164 0094 002F     		cmp	r7, #0
 165 0096 1AD0     		beq	.L27
 359:Generated_Source\PSoC4/EZI2C_EZI2C_INT.c ****             #else
 166              		.loc 1 359 0
 167 0098 F306     		lsls	r3, r6, #27
 168 009a 14D5     		bpl	.L28
 367:Generated_Source\PSoC4/EZI2C_EZI2C_INT.c ****                     EZI2C_SetTxInterruptMode(EZI2C_NO_INTR_SOURCES);
 169              		.loc 1 367 0
 170 009c 0023     		movs	r3, #0
 171 009e 984A     		ldr	r2, .L79+36
 172 00a0 1360     		str	r3, [r2]
 368:Generated_Source\PSoC4/EZI2C_EZI2C_INT.c **** 
 173              		.loc 1 368 0
 174 00a2 944A     		ldr	r2, .L79+24
 175 00a4 1360     		str	r3, [r2]
 176              	.LVL7:
 374:Generated_Source\PSoC4/EZI2C_EZI2C_INT.c ****                     {
 177              		.loc 1 374 0
 178 00a6 994B     		ldr	r3, .L79+48
 179 00a8 1A78     		ldrb	r2, [r3]
 376:Generated_Source\PSoC4/EZI2C_EZI2C_INT.c ****                     }
 180              		.loc 1 376 0
 181 00aa 0A23     		movs	r3, #10
 374:Generated_Source\PSoC4/EZI2C_EZI2C_INT.c ****                     {
ARM GAS  C:\Users\jhkim\AppData\Local\Temp\cc2MGKKj.s 			page 14


 182              		.loc 1 374 0
 183 00ac 9442     		cmp	r4, r2
 184 00ae 00D1     		bne	.LCB151
 185 00b0 F8E0     		b	.L72	@long jump
 186              	.LCB151:
 187              	.L29:
 188              	.LVL8:
 382:Generated_Source\PSoC4/EZI2C_EZI2C_INT.c ****                     locStatus &= (uint32) ~EZI2C_EZI2C_STATUS_BUSY;
 189              		.loc 1 382 0
 190 00b2 8F4A     		ldr	r2, .L79+20
 380:Generated_Source\PSoC4/EZI2C_EZI2C_INT.c ****                     EZI2C_EZI2C_UPDATE_LOC_STATUS(activeAddress, locStatus);
 191              		.loc 1 380 0
 192 00b4 3340     		ands	r3, r6
 193              	.LVL9:
 382:Generated_Source\PSoC4/EZI2C_EZI2C_INT.c ****                     locStatus &= (uint32) ~EZI2C_EZI2C_STATUS_BUSY;
 194              		.loc 1 382 0
 195 00b6 1178     		ldrb	r1, [r2]
 196 00b8 0B43     		orrs	r3, r1
 197              	.LVL10:
 384:Generated_Source\PSoC4/EZI2C_EZI2C_INT.c **** 
 198              		.loc 1 384 0
 199 00ba 2021     		movs	r1, #32
 200 00bc 8B43     		bics	r3, r1
 201              	.LVL11:
 202 00be 1370     		strb	r3, [r2]
 386:Generated_Source\PSoC4/EZI2C_EZI2C_INT.c **** 
 203              		.loc 1 386 0
 204 00c0 0022     		movs	r2, #0
 205 00c2 904B     		ldr	r3, .L79+40
 206 00c4 1A70     		strb	r2, [r3]
 207              	.L28:
 401:Generated_Source\PSoC4/EZI2C_EZI2C_INT.c ****                 {
 208              		.loc 1 401 0
 209 00c6 7306     		lsls	r3, r6, #25
 210 00c8 58D4     		bmi	.L73
 211              	.L30:
 505:Generated_Source\PSoC4/EZI2C_EZI2C_INT.c ****             }
 212              		.loc 1 505 0
 213 00ca 854B     		ldr	r3, .L79+4
 214 00cc 1E60     		str	r6, [r3]
 215              	.L27:
 512:Generated_Source\PSoC4/EZI2C_EZI2C_INT.c ****             {
 216              		.loc 1 512 0
 217 00ce 864B     		ldr	r3, .L79+12
 218 00d0 1B68     		ldr	r3, [r3]
 219 00d2 5B07     		lsls	r3, r3, #29
 220 00d4 D0D5     		bpl	.L6
 221 00d6 8E4B     		ldr	r3, .L79+52
 526:Generated_Source\PSoC4/EZI2C_EZI2C_INT.c ****                     }
 222              		.loc 1 526 0
 223 00d8 8E4E     		ldr	r6, .L79+56
 224              	.LVL12:
 225 00da 9846     		mov	r8, r3
 226 00dc 1A88     		ldrh	r2, [r3]
 520:Generated_Source\PSoC4/EZI2C_EZI2C_INT.c ****                         locIndex++;
 227              		.loc 1 520 0
 228 00de 8E4B     		ldr	r3, .L79+60
ARM GAS  C:\Users\jhkim\AppData\Local\Temp\cc2MGKKj.s 			page 15


 526:Generated_Source\PSoC4/EZI2C_EZI2C_INT.c ****                     }
 229              		.loc 1 526 0
 230 00e0 FF27     		movs	r7, #255
 520:Generated_Source\PSoC4/EZI2C_EZI2C_INT.c ****                         locIndex++;
 231              		.loc 1 520 0
 232 00e2 1B68     		ldr	r3, [r3]
 529:Generated_Source\PSoC4/EZI2C_EZI2C_INT.c **** 
 233              		.loc 1 529 0
 234 00e4 8D48     		ldr	r0, .L79+64
 520:Generated_Source\PSoC4/EZI2C_EZI2C_INT.c ****                         locIndex++;
 235              		.loc 1 520 0
 236 00e6 9C46     		mov	ip, r3
 237 00e8 0023     		movs	r3, #0
 529:Generated_Source\PSoC4/EZI2C_EZI2C_INT.c **** 
 238              		.loc 1 529 0
 239 00ea 0F21     		movs	r1, #15
 520:Generated_Source\PSoC4/EZI2C_EZI2C_INT.c ****                         locIndex++;
 240              		.loc 1 520 0
 241 00ec 9946     		mov	r9, r3
 242 00ee 0DE0     		b	.L35
 243              	.L75:
 244 00f0 6346     		mov	r3, ip
 245 00f2 1B19     		adds	r3, r3, r4
 246 00f4 1B78     		ldrb	r3, [r3]
 522:Generated_Source\PSoC4/EZI2C_EZI2C_INT.c ****                     }
 247              		.loc 1 522 0
 248 00f6 013A     		subs	r2, r2, #1
 520:Generated_Source\PSoC4/EZI2C_EZI2C_INT.c ****                         locIndex++;
 249              		.loc 1 520 0
 250 00f8 DBB2     		uxtb	r3, r3
 251 00fa 3360     		str	r3, [r6]
 252 00fc 0123     		movs	r3, #1
 253 00fe 9946     		mov	r9, r3
 529:Generated_Source\PSoC4/EZI2C_EZI2C_INT.c **** 
 254              		.loc 1 529 0
 255 0100 0368     		ldr	r3, [r0]
 521:Generated_Source\PSoC4/EZI2C_EZI2C_INT.c ****                         locBufSize--;
 256              		.loc 1 521 0
 257 0102 0134     		adds	r4, r4, #1
 258              	.LVL13:
 522:Generated_Source\PSoC4/EZI2C_EZI2C_INT.c ****                     }
 259              		.loc 1 522 0
 260 0104 92B2     		uxth	r2, r2
 529:Generated_Source\PSoC4/EZI2C_EZI2C_INT.c **** 
 261              		.loc 1 529 0
 262 0106 0B40     		ands	r3, r1
 263 0108 082B     		cmp	r3, #8
 264 010a 06D0     		beq	.L74
 265              	.L35:
 518:Generated_Source\PSoC4/EZI2C_EZI2C_INT.c ****                     {
 266              		.loc 1 518 0
 267 010c 002A     		cmp	r2, #0
 268 010e EFD1     		bne	.L75
 526:Generated_Source\PSoC4/EZI2C_EZI2C_INT.c ****                     }
 269              		.loc 1 526 0
 270 0110 3760     		str	r7, [r6]
 529:Generated_Source\PSoC4/EZI2C_EZI2C_INT.c **** 
ARM GAS  C:\Users\jhkim\AppData\Local\Temp\cc2MGKKj.s 			page 16


 271              		.loc 1 529 0
 272 0112 0368     		ldr	r3, [r0]
 273 0114 0B40     		ands	r3, r1
 274 0116 082B     		cmp	r3, #8
 275 0118 F8D1     		bne	.L35
 276              	.L74:
 277 011a 4B46     		mov	r3, r9
 278 011c 002B     		cmp	r3, #0
 279 011e 00D0     		beq	.LCB247
 280 0120 D9E0     		b	.L76	@long jump
 281              	.LCB247:
 282              	.L36:
 531:Generated_Source\PSoC4/EZI2C_EZI2C_INT.c ****             }
 283              		.loc 1 531 0
 284 0122 1022     		movs	r2, #16
 285 0124 7E4B     		ldr	r3, .L79+68
 286 0126 1A60     		str	r2, [r3]
 287 0128 A6E7     		b	.L6
 288              	.LVL14:
 289              	.L71:
 139:Generated_Source\PSoC4/EZI2C_EZI2C_INT.c ****                 {
 290              		.loc 1 139 0
 291 012a 7E4B     		ldr	r3, .L79+72
 292 012c 1B68     		ldr	r3, [r3]
 293 012e 5B07     		lsls	r3, r3, #29
 294 0130 4FD5     		bpl	.L10
 149:Generated_Source\PSoC4/EZI2C_EZI2C_INT.c **** 
 295              		.loc 1 149 0
 296 0132 7D4B     		ldr	r3, .L79+76
 151:Generated_Source\PSoC4/EZI2C_EZI2C_INT.c ****                         {
 297              		.loc 1 151 0
 298 0134 7349     		ldr	r1, .L79+40
 149:Generated_Source\PSoC4/EZI2C_EZI2C_INT.c **** 
 299              		.loc 1 149 0
 300 0136 1A68     		ldr	r2, [r3]
 301              	.LVL15:
 151:Generated_Source\PSoC4/EZI2C_EZI2C_INT.c ****                         {
 302              		.loc 1 151 0
 303 0138 0B78     		ldrb	r3, [r1]
 304 013a 002B     		cmp	r3, #0
 305 013c 00D1     		bne	.LCB273
 306 013e 91E0     		b	.L12	@long jump
 307              	.LCB273:
 308 0140 012B     		cmp	r3, #1
 309 0142 7BD1     		bne	.L66
 154:Generated_Source\PSoC4/EZI2C_EZI2C_INT.c ****                             {
 310              		.loc 1 154 0
 311 0144 7249     		ldr	r1, .L79+52
 312 0146 8846     		mov	r8, r1
 313 0148 0988     		ldrh	r1, [r1]
 314 014a 0029     		cmp	r1, #0
 315 014c 00D1     		bne	.LCB280
 316 014e ABE0     		b	.L16	@long jump
 317              	.LCB280:
 157:Generated_Source\PSoC4/EZI2C_EZI2C_INT.c **** 
 318              		.loc 1 157 0
 319 0150 7648     		ldr	r0, .L79+80
ARM GAS  C:\Users\jhkim\AppData\Local\Temp\cc2MGKKj.s 			page 17


 159:Generated_Source\PSoC4/EZI2C_EZI2C_INT.c ****                                 locIndex++;
 320              		.loc 1 159 0
 321 0152 D2B2     		uxtb	r2, r2
 322              	.LVL16:
 157:Generated_Source\PSoC4/EZI2C_EZI2C_INT.c **** 
 323              		.loc 1 157 0
 324 0154 0360     		str	r3, [r0]
 159:Generated_Source\PSoC4/EZI2C_EZI2C_INT.c ****                                 locIndex++;
 325              		.loc 1 159 0
 326 0156 704B     		ldr	r3, .L79+60
 161:Generated_Source\PSoC4/EZI2C_EZI2C_INT.c ****                             }
 327              		.loc 1 161 0
 328 0158 0139     		subs	r1, r1, #1
 159:Generated_Source\PSoC4/EZI2C_EZI2C_INT.c ****                                 locIndex++;
 329              		.loc 1 159 0
 330 015a 1B68     		ldr	r3, [r3]
 331 015c 1B19     		adds	r3, r3, r4
 332 015e 1A70     		strb	r2, [r3]
 161:Generated_Source\PSoC4/EZI2C_EZI2C_INT.c ****                             }
 333              		.loc 1 161 0
 334 0160 4346     		mov	r3, r8
 160:Generated_Source\PSoC4/EZI2C_EZI2C_INT.c ****                                 locBufSize--;
 335              		.loc 1 160 0
 336 0162 0134     		adds	r4, r4, #1
 337              	.LVL17:
 161:Generated_Source\PSoC4/EZI2C_EZI2C_INT.c ****                             }
 338              		.loc 1 161 0
 339 0164 1980     		strh	r1, [r3]
 340 0166 6CE0     		b	.L15
 341              	.L70:
  97:Generated_Source\PSoC4/EZI2C_EZI2C_INT.c ****                     {
 342              		.loc 1 97 0
 343 0168 684A     		ldr	r2, .L79+48
 344 016a 1278     		ldrb	r2, [r2]
 345 016c A242     		cmp	r2, r4
 346 016e 00D1     		bne	.LCB304
 347 0170 70E7     		b	.L5	@long jump
 348              	.LCB304:
  99:Generated_Source\PSoC4/EZI2C_EZI2C_INT.c ****                     }
 349              		.loc 1 99 0
 350 0172 0822     		movs	r2, #8
 351 0174 1978     		ldrb	r1, [r3]
 352 0176 0A43     		orrs	r2, r1
 353 0178 1A70     		strb	r2, [r3]
 354 017a 6BE7     		b	.L5
 355              	.LVL18:
 356              	.L73:
 469:Generated_Source\PSoC4/EZI2C_EZI2C_INT.c **** 
 357              		.loc 1 469 0
 358 017c 2023     		movs	r3, #32
 359 017e 5C4A     		ldr	r2, .L79+20
 360 0180 1178     		ldrb	r1, [r2]
 361 0182 0B43     		orrs	r3, r1
 362 0184 1370     		strb	r3, [r2]
 472:Generated_Source\PSoC4/EZI2C_EZI2C_INT.c **** 
 363              		.loc 1 472 0
 364 0186 614B     		ldr	r3, .L79+48
ARM GAS  C:\Users\jhkim\AppData\Local\Temp\cc2MGKKj.s 			page 18


 365 0188 1C78     		ldrb	r4, [r3]
 366              	.LVL19:
 475:Generated_Source\PSoC4/EZI2C_EZI2C_INT.c ****                         {
 367              		.loc 1 475 0
 368 018a 694B     		ldr	r3, .L79+84
 369 018c 1A68     		ldr	r2, [r3]
 370 018e 1023     		movs	r3, #16
 371 0190 1342     		tst	r3, r2
 372 0192 4FD0     		beq	.L31
 481:Generated_Source\PSoC4/EZI2C_EZI2C_INT.c ****                             EZI2C_SetTxInterruptMode(EZI2C_INTR_TX_EMPTY);
 373              		.loc 1 481 0
 374 0194 8020     		movs	r0, #128
 478:Generated_Source\PSoC4/EZI2C_EZI2C_INT.c **** 
 375              		.loc 1 478 0
 376 0196 674A     		ldr	r2, .L79+88
 377 0198 5D49     		ldr	r1, .L79+52
 378 019a 1288     		ldrh	r2, [r2]
 481:Generated_Source\PSoC4/EZI2C_EZI2C_INT.c ****                             EZI2C_SetTxInterruptMode(EZI2C_INTR_TX_EMPTY);
 379              		.loc 1 481 0
 380 019c 4002     		lsls	r0, r0, #9
 478:Generated_Source\PSoC4/EZI2C_EZI2C_INT.c **** 
 381              		.loc 1 478 0
 382 019e 121B     		subs	r2, r2, r4
 383 01a0 0A80     		strh	r2, [r1]
 481:Generated_Source\PSoC4/EZI2C_EZI2C_INT.c ****                             EZI2C_SetTxInterruptMode(EZI2C_INTR_TX_EMPTY);
 384              		.loc 1 481 0
 385 01a2 654A     		ldr	r2, .L79+92
 386 01a4 1168     		ldr	r1, [r2]
 387 01a6 0143     		orrs	r1, r0
 388 01a8 1160     		str	r1, [r2]
 389 01aa 1068     		ldr	r0, [r2]
 390 01ac 6349     		ldr	r1, .L79+96
 391 01ae 0140     		ands	r1, r0
 392 01b0 1160     		str	r1, [r2]
 482:Generated_Source\PSoC4/EZI2C_EZI2C_INT.c ****                         }
 393              		.loc 1 482 0
 394 01b2 504A     		ldr	r2, .L79+24
 395 01b4 1360     		str	r3, [r2]
 396              	.L32:
 491:Generated_Source\PSoC4/EZI2C_EZI2C_INT.c ****                         EZI2C_ClearSlaveInterruptSource(EZI2C_INTR_SLAVE_ALL);
 397              		.loc 1 491 0
 398 01b6 0122     		movs	r2, #1
 399 01b8 614B     		ldr	r3, .L79+100
 492:Generated_Source\PSoC4/EZI2C_EZI2C_INT.c **** 
 400              		.loc 1 492 0
 401 01ba 6249     		ldr	r1, .L79+104
 491:Generated_Source\PSoC4/EZI2C_EZI2C_INT.c ****                         EZI2C_ClearSlaveInterruptSource(EZI2C_INTR_SLAVE_ALL);
 402              		.loc 1 491 0
 403 01bc 1A60     		str	r2, [r3]
 492:Generated_Source\PSoC4/EZI2C_EZI2C_INT.c **** 
 404              		.loc 1 492 0
 405 01be 484B     		ldr	r3, .L79+4
 406 01c0 1960     		str	r1, [r3]
 496:Generated_Source\PSoC4/EZI2C_EZI2C_INT.c ****                     #endif /* (!EZI2C_CY_SCBIP_V0) */
 407              		.loc 1 496 0
 408 01c2 1023     		movs	r3, #16
 409 01c4 6049     		ldr	r1, .L79+108
ARM GAS  C:\Users\jhkim\AppData\Local\Temp\cc2MGKKj.s 			page 19


 410 01c6 0868     		ldr	r0, [r1]
 411 01c8 0343     		orrs	r3, r0
 412 01ca 0B60     		str	r3, [r1]
 500:Generated_Source\PSoC4/EZI2C_EZI2C_INT.c ****                     }
 413              		.loc 1 500 0
 414 01cc 574B     		ldr	r3, .L79+80
 415 01ce 1A60     		str	r2, [r3]
 416 01d0 7BE7     		b	.L30
 417              	.LVL20:
 418              	.L10:
 275:Generated_Source\PSoC4/EZI2C_EZI2C_INT.c ****                 {
 419              		.loc 1 275 0
 420 01d2 494A     		ldr	r2, .L79+28
 421 01d4 1368     		ldr	r3, [r2]
 422 01d6 9B04     		lsls	r3, r3, #18
 423 01d8 00D4     		bmi	.LCB377
 424 01da 59E7     		b	.L68	@long jump
 425              	.LCB377:
 281:Generated_Source\PSoC4/EZI2C_EZI2C_INT.c ****                     {
 426              		.loc 1 281 0
 427 01dc 0223     		movs	r3, #2
 428 01de 1F40     		ands	r7, r3
 429              	.LVL21:
 430 01e0 33D1     		bne	.L77
 311:Generated_Source\PSoC4/EZI2C_EZI2C_INT.c **** 
 431              		.loc 1 311 0
 432 01e2 4B4B     		ldr	r3, .L79+52
 433 01e4 1988     		ldrh	r1, [r3]
 434 01e6 0839     		subs	r1, r1, #8
 435 01e8 89B2     		uxth	r1, r1
 436 01ea 1980     		strh	r1, [r3]
 313:Generated_Source\PSoC4/EZI2C_EZI2C_INT.c ****                         {
 437              		.loc 1 313 0
 438 01ec 0829     		cmp	r1, #8
 439 01ee 5ED8     		bhi	.L39
 440              	.LVL22:
 327:Generated_Source\PSoC4/EZI2C_EZI2C_INT.c ****                     {
 441              		.loc 1 327 0
 442 01f0 0029     		cmp	r1, #0
 443 01f2 6ED0     		beq	.L40
 317:Generated_Source\PSoC4/EZI2C_EZI2C_INT.c ****                         }
 444              		.loc 1 317 0
 445 01f4 0023     		movs	r3, #0
 446 01f6 9846     		mov	r8, r3
 447              	.LVL23:
 448              	.L23:
 449 01f8 474B     		ldr	r3, .L79+60
 330:Generated_Source\PSoC4/EZI2C_EZI2C_INT.c ****                         locIndex++;
 450              		.loc 1 330 0 discriminator 2
 451 01fa 4B48     		ldr	r0, .L79+76
 452 01fc 9C46     		mov	ip, r3
 453 01fe 6118     		adds	r1, r4, r1
 454              	.L26:
 455 0200 6346     		mov	r3, ip
 456 0202 0268     		ldr	r2, [r0]
 457 0204 1B68     		ldr	r3, [r3]
 458 0206 D2B2     		uxtb	r2, r2
ARM GAS  C:\Users\jhkim\AppData\Local\Temp\cc2MGKKj.s 			page 20


 459 0208 1B19     		adds	r3, r3, r4
 331:Generated_Source\PSoC4/EZI2C_EZI2C_INT.c ****                     }
 460              		.loc 1 331 0 discriminator 2
 461 020a 0134     		adds	r4, r4, #1
 462              	.LVL24:
 330:Generated_Source\PSoC4/EZI2C_EZI2C_INT.c ****                         locIndex++;
 463              		.loc 1 330 0 discriminator 2
 464 020c 1A70     		strb	r2, [r3]
 327:Generated_Source\PSoC4/EZI2C_EZI2C_INT.c ****                     {
 465              		.loc 1 327 0 discriminator 2
 466 020e 8C42     		cmp	r4, r1
 467 0210 F6D1     		bne	.L26
 335:Generated_Source\PSoC4/EZI2C_EZI2C_INT.c ****                     {
 468              		.loc 1 335 0
 469 0212 4346     		mov	r3, r8
 470 0214 002B     		cmp	r3, #0
 471 0216 09D1     		bne	.L24
 472              	.LVL25:
 473              	.L25:
 337:Generated_Source\PSoC4/EZI2C_EZI2C_INT.c **** 
 474              		.loc 1 337 0
 475 0218 8020     		movs	r0, #128
 476 021a 374A     		ldr	r2, .L79+28
 477 021c 0002     		lsls	r0, r0, #8
 478 021e 1368     		ldr	r3, [r2]
 340:Generated_Source\PSoC4/EZI2C_EZI2C_INT.c ****                     }
 479              		.loc 1 340 0
 480 0220 0C00     		movs	r4, r1
 481              	.LVL26:
 337:Generated_Source\PSoC4/EZI2C_EZI2C_INT.c **** 
 482              		.loc 1 337 0
 483 0222 0343     		orrs	r3, r0
 484 0224 1360     		str	r3, [r2]
 340:Generated_Source\PSoC4/EZI2C_EZI2C_INT.c ****                     }
 485              		.loc 1 340 0
 486 0226 0022     		movs	r2, #0
 487 0228 354B     		ldr	r3, .L79+36
 488 022a 1A60     		str	r2, [r3]
 489              	.L24:
 343:Generated_Source\PSoC4/EZI2C_EZI2C_INT.c ****                                                             EZI2C_INTR_RX_NOT_EMPTY);
 490              		.loc 1 343 0
 491 022c 0C22     		movs	r2, #12
 492 022e 474B     		ldr	r3, .L79+112
 493 0230 1A60     		str	r2, [r3]
 494 0232 2FE7     		b	.L9
 495              	.LVL27:
 496              	.L31:
 487:Generated_Source\PSoC4/EZI2C_EZI2C_INT.c ****                         }
 497              		.loc 1 487 0
 498 0234 0422     		movs	r2, #4
 499 0236 324B     		ldr	r3, .L79+36
 500 0238 1A60     		str	r2, [r3]
 501 023a BCE7     		b	.L32
 502              	.LVL28:
 503              	.L66:
 266:Generated_Source\PSoC4/EZI2C_EZI2C_INT.c ****                             break;
 504              		.loc 1 266 0 discriminator 1
ARM GAS  C:\Users\jhkim\AppData\Local\Temp\cc2MGKKj.s 			page 21


 505 023c 0020     		movs	r0, #0
 506 023e FFF7FEFF 		bl	CyHalt
 507              	.LVL29:
 508              	.L15:
 270:Generated_Source\PSoC4/EZI2C_EZI2C_INT.c ****                     }
 509              		.loc 1 270 0
 510 0242 0422     		movs	r2, #4
 511 0244 414B     		ldr	r3, .L79+112
 512 0246 1A60     		str	r2, [r3]
 513 0248 22E7     		b	.L68
 514              	.LVL30:
 515              	.L77:
 284:Generated_Source\PSoC4/EZI2C_EZI2C_INT.c **** 
 516              		.loc 1 284 0
 517 024a 0F21     		movs	r1, #15
 518 024c 404B     		ldr	r3, .L79+116
 519 024e 1B68     		ldr	r3, [r3]
 303:Generated_Source\PSoC4/EZI2C_EZI2C_INT.c ****                         endTransfer = EZI2C_EZI2C_CONTINUE_TRANSFER;
 520              		.loc 1 303 0
 521 0250 1068     		ldr	r0, [r2]
 284:Generated_Source\PSoC4/EZI2C_EZI2C_INT.c **** 
 522              		.loc 1 284 0
 523 0252 1940     		ands	r1, r3
 524              	.LVL31:
 303:Generated_Source\PSoC4/EZI2C_EZI2C_INT.c ****                         endTransfer = EZI2C_EZI2C_CONTINUE_TRANSFER;
 525              		.loc 1 303 0
 526 0254 294B     		ldr	r3, .L79+32
 527 0256 0340     		ands	r3, r0
 528 0258 1360     		str	r3, [r2]
 529              	.LVL32:
 304:Generated_Source\PSoC4/EZI2C_EZI2C_INT.c ****                     }
 530              		.loc 1 304 0
 531 025a 0123     		movs	r3, #1
 532 025c 9846     		mov	r8, r3
 327:Generated_Source\PSoC4/EZI2C_EZI2C_INT.c ****                     {
 533              		.loc 1 327 0
 534 025e 0029     		cmp	r1, #0
 535 0260 CAD1     		bne	.L23
 536 0262 E3E7     		b	.L24
 537              	.LVL33:
 538              	.L12:
 193:Generated_Source\PSoC4/EZI2C_EZI2C_INT.c ****                             {
 539              		.loc 1 193 0
 540 0264 3348     		ldr	r0, .L79+88
 541 0266 0088     		ldrh	r0, [r0]
 542 0268 8242     		cmp	r2, r0
 543 026a 1DD2     		bcs	.L16
 195:Generated_Source\PSoC4/EZI2C_EZI2C_INT.c **** 
 544              		.loc 1 195 0
 545 026c 0124     		movs	r4, #1
 546 026e 2F48     		ldr	r0, .L79+80
 547 0270 0460     		str	r4, [r0]
 548              	.LVL34:
 201:Generated_Source\PSoC4/EZI2C_EZI2C_INT.c ****                                                        (EZI2C_protectBuf1 - locByte) : (0u));
 549              		.loc 1 201 0
 550 0272 3848     		ldr	r0, .L79+120
 551 0274 0088     		ldrh	r0, [r0]
ARM GAS  C:\Users\jhkim\AppData\Local\Temp\cc2MGKKj.s 			page 22


 552 0276 8242     		cmp	r2, r0
 553 0278 1DD2     		bcs	.L17
 201:Generated_Source\PSoC4/EZI2C_EZI2C_INT.c ****                                                        (EZI2C_protectBuf1 - locByte) : (0u));
 554              		.loc 1 201 0 is_stmt 0 discriminator 1
 555 027a 801A     		subs	r0, r0, r2
 556 027c 244C     		ldr	r4, .L79+52
 557 027e 80B2     		uxth	r0, r0
 558 0280 2080     		strh	r0, [r4]
 234:Generated_Source\PSoC4/EZI2C_EZI2C_INT.c ****                                     {
 559              		.loc 1 234 0 is_stmt 1 discriminator 1
 560 0282 0728     		cmp	r0, #7
 561 0284 19D9     		bls	.L37
 240:Generated_Source\PSoC4/EZI2C_EZI2C_INT.c ****                                     {
 562              		.loc 1 240 0
 563 0286 0828     		cmp	r0, #8
 564 0288 1AD0     		beq	.L78
 247:Generated_Source\PSoC4/EZI2C_EZI2C_INT.c ****                                         EZI2C_SetRxInterruptMode(EZI2C_INTR_RX_FULL);
 565              		.loc 1 247 0
 566 028a 8020     		movs	r0, #128
 567 028c 1A49     		ldr	r1, .L79+28
 568 028e 8001     		lsls	r0, r0, #6
 569 0290 0B68     		ldr	r3, [r1]
 570 0292 0343     		orrs	r3, r0
 571 0294 0B60     		str	r3, [r1]
 248:Generated_Source\PSoC4/EZI2C_EZI2C_INT.c ****                                     }
 572              		.loc 1 248 0
 573 0296 0821     		movs	r1, #8
 574 0298 194B     		ldr	r3, .L79+36
 575 029a 1960     		str	r1, [r3]
 576              	.L19:
 256:Generated_Source\PSoC4/EZI2C_EZI2C_INT.c ****                             }
 577              		.loc 1 256 0
 578 029c 1B4B     		ldr	r3, .L79+48
 579 029e 1400     		movs	r4, r2
 580 02a0 1A70     		strb	r2, [r3]
 581 02a2 CEE7     		b	.L15
 582              	.LVL35:
 583              	.L72:
 371:Generated_Source\PSoC4/EZI2C_EZI2C_INT.c **** 
 584              		.loc 1 371 0
 585 02a4 083B     		subs	r3, r3, #8
 586 02a6 04E7     		b	.L29
 587              	.LVL36:
 588              	.L16:
 261:Generated_Source\PSoC4/EZI2C_EZI2C_INT.c ****                             }
 589              		.loc 1 261 0
 590 02a8 FFF7FEFF 		bl	EZI2C_I2CSlaveNackGeneration
 591              	.LVL37:
 592 02ac C9E7     		b	.L15
 593              	.LVL38:
 594              	.L39:
 323:Generated_Source\PSoC4/EZI2C_EZI2C_INT.c ****                         }
 595              		.loc 1 323 0
 596 02ae 0123     		movs	r3, #1
 322:Generated_Source\PSoC4/EZI2C_EZI2C_INT.c ****                             endTransfer = EZI2C_EZI2C_CONTINUE_TRANSFER;
 597              		.loc 1 322 0
 598 02b0 0821     		movs	r1, #8
ARM GAS  C:\Users\jhkim\AppData\Local\Temp\cc2MGKKj.s 			page 23


 323:Generated_Source\PSoC4/EZI2C_EZI2C_INT.c ****                         }
 599              		.loc 1 323 0
 600 02b2 9846     		mov	r8, r3
 601 02b4 A0E7     		b	.L23
 602              	.LVL39:
 603              	.L17:
 201:Generated_Source\PSoC4/EZI2C_EZI2C_INT.c ****                                                        (EZI2C_protectBuf1 - locByte) : (0u));
 604              		.loc 1 201 0
 605 02b6 1648     		ldr	r0, .L79+52
 606 02b8 0380     		strh	r3, [r0]
 607              	.L37:
 237:Generated_Source\PSoC4/EZI2C_EZI2C_INT.c ****                                     }
 608              		.loc 1 237 0
 609 02ba 0123     		movs	r3, #1
 610 02bc 0B70     		strb	r3, [r1]
 611 02be EDE7     		b	.L19
 612              	.L78:
 242:Generated_Source\PSoC4/EZI2C_EZI2C_INT.c ****                                         EZI2C_SetRxInterruptMode(EZI2C_NO_INTR_SOURCES);
 613              		.loc 1 242 0
 614 02c0 A024     		movs	r4, #160
 615 02c2 0D48     		ldr	r0, .L79+28
 616 02c4 2402     		lsls	r4, r4, #8
 617 02c6 0168     		ldr	r1, [r0]
 618 02c8 2143     		orrs	r1, r4
 619 02ca 0160     		str	r1, [r0]
 243:Generated_Source\PSoC4/EZI2C_EZI2C_INT.c ****                                     }
 620              		.loc 1 243 0
 621 02cc 0C49     		ldr	r1, .L79+36
 622 02ce 0B60     		str	r3, [r1]
 623 02d0 E4E7     		b	.L19
 624              	.LVL40:
 625              	.L40:
 327:Generated_Source\PSoC4/EZI2C_EZI2C_INT.c ****                     {
 626              		.loc 1 327 0
 627 02d2 2100     		movs	r1, r4
 628              	.LVL41:
 629 02d4 A0E7     		b	.L25
 630              	.LVL42:
 631              	.L76:
 632 02d6 4346     		mov	r3, r8
 633 02d8 1A80     		strh	r2, [r3]
 634 02da 22E7     		b	.L36
 635              	.L80:
 636              		.align	2
 637              	.L79:
 638 02dc 00000000 		.word	EZI2C_customIntrHandler
 639 02e0 400F0640 		.word	1074138944
 640 02e4 00000000 		.word	EZI2C_indexBuf1
 641 02e8 000E0640 		.word	1074138624
 642 02ec 00000640 		.word	1074135040
 643 02f0 00000000 		.word	EZI2C_curStatus
 644 02f4 880F0640 		.word	1074139016
 645 02f8 60000640 		.word	1074135136
 646 02fc FF5FFFFF 		.word	-40961
 647 0300 C80F0640 		.word	1074139080
 648 0304 00000000 		.word	EZI2C_fsmState
 649 0308 880E0640 		.word	1074138760
ARM GAS  C:\Users\jhkim\AppData\Local\Temp\cc2MGKKj.s 			page 24


 650 030c 00000000 		.word	EZI2C_offsetBuf1
 651 0310 00000000 		.word	.LANCHOR0
 652 0314 40020640 		.word	1074135616
 653 0318 00000000 		.word	EZI2C_dataBuffer1
 654 031c 08020640 		.word	1074135560
 655 0320 800F0640 		.word	1074139008
 656 0324 CC0F0640 		.word	1074139084
 657 0328 40030640 		.word	1074135872
 658 032c 6C000640 		.word	1074135148
 659 0330 64000640 		.word	1074135140
 660 0334 00000000 		.word	EZI2C_bufSizeBuf1
 661 0338 04020640 		.word	1074135556
 662 033c FFFFFEFF 		.word	-65537
 663 0340 800E0640 		.word	1074138752
 664 0344 FF0F0000 		.word	4095
 665 0348 480F0640 		.word	1074138952
 666 034c C00F0640 		.word	1074139072
 667 0350 08030640 		.word	1074135816
 668 0354 00000000 		.word	EZI2C_protectBuf1
 669              		.cfi_endproc
 670              	.LFE0:
 671              		.size	EZI2C_EZI2C_STRETCH_ISR, .-EZI2C_EZI2C_STRETCH_ISR
 672              		.bss
 673              		.align	1
 674              		.set	.LANCHOR0,. + 0
 675              		.type	locBufSize.4882, %object
 676              		.size	locBufSize.4882, 2
 677              	locBufSize.4882:
 678 0000 0000     		.space	2
 679              		.text
 680              	.Letext0:
 681              		.file 2 "Generated_Source\\PSoC4/cytypes.h"
 682              		.file 3 "Generated_Source\\PSoC4\\EZI2C_PVT.h"
 683              		.file 4 "Generated_Source\\PSoC4\\EZI2C_EZI2C_PVT.h"
 684              		.file 5 "Generated_Source\\PSoC4/CyLib.h"
 685              		.file 6 "Generated_Source\\PSoC4\\EZI2C.h"