ARM GAS  C:\Users\young\AppData\Local\Temp\cc47fNId.s 			page 1


   1              		.syntax unified
   2              		.cpu cortex-m0
   3              		.fpu softvfp
   4              		.eabi_attribute 20, 1
   5              		.eabi_attribute 21, 1
   6              		.eabi_attribute 23, 3
   7              		.eabi_attribute 24, 1
   8              		.eabi_attribute 25, 1
   9              		.eabi_attribute 26, 1
  10              		.eabi_attribute 30, 2
  11              		.eabi_attribute 34, 0
  12              		.eabi_attribute 18, 4
  13              		.thumb
  14              		.syntax unified
  15              		.file	"hawkeye.c"
  16              		.text
  17              	.Ltext0:
  18              		.cfi_sections	.debug_frame
  19              		.section	.text.report_debug_data,"ax",%progbits
  20              		.align	2
  21              		.global	report_debug_data
  22              		.code	16
  23              		.thumb_func
  24              		.type	report_debug_data, %function
  25              	report_debug_data:
  26              	.LFB34:
  27              		.file 1 "hawkeye.c"
   1:hawkeye.c     **** /* ========================================
   2:hawkeye.c     ****  *
   3:hawkeye.c     ****  * Copyright YOUR COMPANY, THE YEAR
   4:hawkeye.c     ****  * All Rights Reserved
   5:hawkeye.c     ****  * UNPUBLISHED, LICENSED SOFTWARE.
   6:hawkeye.c     ****  *
   7:hawkeye.c     ****  * CONFIDENTIAL AND PROPRIETARY INFORMATION
   8:hawkeye.c     ****  * WHICH IS THE PROPERTY OF your company.
   9:hawkeye.c     ****  *
  10:hawkeye.c     ****  * ========================================
  11:hawkeye.c     **** */
  12:hawkeye.c     **** 
  13:hawkeye.c     **** /*----------------------------------------------------------------------------
  14:hawkeye.c     ****                                 include files
  15:hawkeye.c     **** ----------------------------------------------------------------------------*/
  16:hawkeye.c     **** 
  17:hawkeye.c     **** /*----------------------------------------------------------------------------
  18:hawkeye.c     ****                                 include files
  19:hawkeye.c     **** ----------------------------------------------------------------------------*/
  20:hawkeye.c     **** //#include <device.h>
  21:hawkeye.c     **** //#include <header.h>
  22:hawkeye.c     **** #include <project.h>
  23:hawkeye.c     **** 
  24:hawkeye.c     **** /*----------------------------------------------------------------------------
  25:hawkeye.c     ****                                 macro
  26:hawkeye.c     **** ----------------------------------------------------------------------------*/
  27:hawkeye.c     **** /**
  28:hawkeye.c     ****   * Utility macro for expanding port registers.
  29:hawkeye.c     ****   */
  30:hawkeye.c     **** #define JOIN( x, y ) x ## y
ARM GAS  C:\Users\young\AppData\Local\Temp\cc47fNId.s 			page 2


  31:hawkeye.c     **** #define JOIN1( A, B, C ) A ## B ## C
  32:hawkeye.c     **** 
  33:hawkeye.c     **** /**
  34:hawkeye.c     ****   * Macro to build register writes for controlling ports. The intermediate
  35:hawkeye.c     ****   * JOIN macro is required for correct expansion of the args.
  36:hawkeye.c     ****   */
  37:hawkeye.c     **** #define REG( REGISTER, SIDE ) JOIN( REGISTER, SIDE )
  38:hawkeye.c     **** 
  39:hawkeye.c     **** 
  40:hawkeye.c     **** /*----------------------------------------------------------------------------
  41:hawkeye.c     ****                                 prototypes
  42:hawkeye.c     **** ----------------------------------------------------------------------------*/
  43:hawkeye.c     **** void report_debug_data( void );
  44:hawkeye.c     **** void init_debug_if( void );
  45:hawkeye.c     **** 
  46:hawkeye.c     **** static void output_to_debugger( uint8_t *p, uint8_t count );
  47:hawkeye.c     **** static void send_debug_byte( uint8_t data );
  48:hawkeye.c     **** 
  49:hawkeye.c     **** //extern uint16 avg_signal[QT_NUM_CHANNELS];
  50:hawkeye.c     **** 
  51:hawkeye.c     **** //extern char noise_counter[63];
  52:hawkeye.c     **** extern uint16 CapSense_SensorSignal[CapSense_TOTAL_SENSOR_COUNT];
  53:hawkeye.c     **** extern uint16 CapSense_sensorRaw[CapSense_TOTAL_SENSOR_COUNT];
  54:hawkeye.c     **** extern uint16 CapSense_sensorBaseline[CapSense_TOTAL_SENSOR_COUNT];
  55:hawkeye.c     **** extern uint8 CapSense_sensorOnMask[(((CapSense_TOTAL_SENSOR_COUNT - 1u) / 8u) + 1u)];
  56:hawkeye.c     **** 
  57:hawkeye.c     **** /*----------------------------------------------------------------------------
  58:hawkeye.c     ****                             manifest constants
  59:hawkeye.c     **** ----------------------------------------------------------------------------*/
  60:hawkeye.c     **** 
  61:hawkeye.c     **** 
  62:hawkeye.c     **** /*============================================================================
  63:hawkeye.c     **** Name    :   init_debug_if
  64:hawkeye.c     **** ------------------------------------------------------------------------------
  65:hawkeye.c     **** Purpose :   report debug data to host
  66:hawkeye.c     **** Input   :   n/a
  67:hawkeye.c     **** Output  :   n/a
  68:hawkeye.c     **** Notes   :   n/a
  69:hawkeye.c     **** ============================================================================*/
  70:hawkeye.c     **** /*
  71:hawkeye.c     **** void init_debug_if( void )
  72:hawkeye.c     **** {
  73:hawkeye.c     ****     // init port pins
  74:hawkeye.c     ****     REG( DDR, DBG_DATA_PORT ) |= (1u << DBG_DATA_BIT );
  75:hawkeye.c     ****     REG( DDR, DBG_CLK_PORT ) |= (1u << DBG_CLK_BIT );
  76:hawkeye.c     **** }
  77:hawkeye.c     **** */
  78:hawkeye.c     **** /*============================================================================
  79:hawkeye.c     **** Name    :   send_debug_byte
  80:hawkeye.c     **** ------------------------------------------------------------------------------
  81:hawkeye.c     **** Purpose :   transmit a byte over the debug interface
  82:hawkeye.c     **** Input   :   data = byte to be transmitted
  83:hawkeye.c     **** Output  :   n/a
  84:hawkeye.c     **** Notes   :
  85:hawkeye.c     **** ============================================================================*/
  86:hawkeye.c     **** static void send_debug_byte( uint8_t data )
  87:hawkeye.c     **** {
ARM GAS  C:\Users\young\AppData\Local\Temp\cc47fNId.s 			page 3


  88:hawkeye.c     ****     // hawkeye_data_Write(1);
  89:hawkeye.c     ****     // hawkeye_clk_Write(0);
  90:hawkeye.c     ****     
  91:hawkeye.c     ****     uint8 i;
  92:hawkeye.c     **** 
  93:hawkeye.c     ****     for( i = 0u; i < 8u; i++ )
  94:hawkeye.c     ****     {
  95:hawkeye.c     ****         /*  set data    */
  96:hawkeye.c     ****         if( data & 0x80u )
  97:hawkeye.c     ****         {
  98:hawkeye.c     ****             hawkeye_data_Write(1);
  99:hawkeye.c     ****         }
 100:hawkeye.c     ****         else
 101:hawkeye.c     ****         {
 102:hawkeye.c     ****             hawkeye_data_Write(0);
 103:hawkeye.c     ****         }
 104:hawkeye.c     **** 
 105:hawkeye.c     ****         /*  data set up time before clock pulse */
 106:hawkeye.c     ****         CyDelayCycles(1);
 107:hawkeye.c     **** 
 108:hawkeye.c     ****         /*  shift next bit up, ready for output */
 109:hawkeye.c     ****         data = (uint8_t)( data << 1u );
 110:hawkeye.c     **** 
 111:hawkeye.c     ****         /*  clock pulse */
 112:hawkeye.c     ****         hawkeye_clk_Write(1);
 113:hawkeye.c     **** 
 114:hawkeye.c     ****         CyDelayCycles(1);
 115:hawkeye.c     **** 
 116:hawkeye.c     ****         hawkeye_clk_Write(0);
 117:hawkeye.c     **** 
 118:hawkeye.c     ****         /*  delay before next bit   */
 119:hawkeye.c     ****         CyDelayCycles(1);
 120:hawkeye.c     ****     }
 121:hawkeye.c     **** 
 122:hawkeye.c     ****     /*  hold data low between bytes */
 123:hawkeye.c     ****         hawkeye_data_Write(0);
 124:hawkeye.c     **** 
 125:hawkeye.c     ****     /*  inter-byte delay    */
 126:hawkeye.c     ****         CyDelayCycles(2);
 127:hawkeye.c     **** }
 128:hawkeye.c     **** 
 129:hawkeye.c     **** /*============================================================================
 130:hawkeye.c     **** Name    :   output_to_debugger
 131:hawkeye.c     **** ------------------------------------------------------------------------------
 132:hawkeye.c     **** Purpose :   transmit multiple bytes over the debug interface
 133:hawkeye.c     **** Input   :   p = ptr to bytes to transmit
 134:hawkeye.c     ****             count = number of bytes to transmit
 135:hawkeye.c     **** Output  :   n/a
 136:hawkeye.c     **** Notes   :
 137:hawkeye.c     **** ============================================================================*/
 138:hawkeye.c     **** static void output_to_debugger( uint8_t *p, uint8_t count )
 139:hawkeye.c     **** {
 140:hawkeye.c     ****     uint8_t i;
 141:hawkeye.c     ****     uint8_t data;
 142:hawkeye.c     **** 
 143:hawkeye.c     ****     for( i = 0u; i < count; i++ )
 144:hawkeye.c     ****     {
ARM GAS  C:\Users\young\AppData\Local\Temp\cc47fNId.s 			page 4


 145:hawkeye.c     ****         /*  get next byte to transmit   */
 146:hawkeye.c     ****         data = *p;
 147:hawkeye.c     **** 
 148:hawkeye.c     ****         /*  transmit a byte over the debug interface    */
 149:hawkeye.c     ****         send_debug_byte( data );
 150:hawkeye.c     **** 
 151:hawkeye.c     ****         /*  point to next byte to transmit  */
 152:hawkeye.c     ****         p++;
 153:hawkeye.c     ****     }
 154:hawkeye.c     **** }
 155:hawkeye.c     **** 
 156:hawkeye.c     **** /*============================================================================
 157:hawkeye.c     **** Name    :   report_debug_data
 158:hawkeye.c     **** ------------------------------------------------------------------------------
 159:hawkeye.c     **** Purpose :   report debug data to host
 160:hawkeye.c     **** Input   :   n/a
 161:hawkeye.c     **** Output  :   n/a
 162:hawkeye.c     **** Notes   :   n/a
 163:hawkeye.c     **** ============================================================================*/
 164:hawkeye.c     **** static uint8_t frame_count;
 165:hawkeye.c     **** unsigned int temp[25];
 166:hawkeye.c     **** 
 167:hawkeye.c     **** extern uint16 Capsense_FilteredRawData[CapSense_TOTAL_SENSOR_COUNT];
 168:hawkeye.c     **** extern uint16 Sub_Buff[CapSense_TOTAL_SENSOR_COUNT];
 169:hawkeye.c     **** 
 170:hawkeye.c     **** void report_debug_data( void )
 171:hawkeye.c     **** {
  28              		.loc 1 171 0
  29              		.cfi_startproc
  30              		@ args = 0, pretend = 0, frame = 0
  31              		@ frame_needed = 0, uses_anonymous_args = 0
  32              	.LVL0:
  33 0000 F0B5     		push	{r4, r5, r6, r7, lr}
  34              		.cfi_def_cfa_offset 20
  35              		.cfi_offset 4, -20
  36              		.cfi_offset 5, -16
  37              		.cfi_offset 6, -12
  38              		.cfi_offset 7, -8
  39              		.cfi_offset 14, -4
  40 0002 4746     		mov	r7, r8
  41 0004 80B4     		push	{r7}
  42              		.cfi_def_cfa_offset 24
  43              		.cfi_offset 8, -24
  44              	.LBB38:
  45              	.LBB39:
 146:hawkeye.c     **** 
  46              		.loc 1 146 0
  47 0006 894B     		ldr	r3, .L45
  48 0008 0824     		movs	r4, #8
  49 000a 9846     		mov	r8, r3
  50 000c 1D78     		ldrb	r5, [r3]
  51              	.LVL1:
  52 000e 17E0     		b	.L4
  53              	.LVL2:
  54              	.L2:
  55              	.LBB40:
  56              	.LBB41:
ARM GAS  C:\Users\young\AppData\Local\Temp\cc47fNId.s 			page 5


 102:hawkeye.c     ****         }
  57              		.loc 1 102 0
  58 0010 0020     		movs	r0, #0
  59 0012 FFF7FEFF 		bl	hawkeye_data_Write
  60              	.LVL3:
  61              	.L3:
 106:hawkeye.c     **** 
  62              		.loc 1 106 0
  63 0016 0120     		movs	r0, #1
  64 0018 FFF7FEFF 		bl	CyDelayCycles
  65              	.LVL4:
 112:hawkeye.c     **** 
  66              		.loc 1 112 0
  67 001c 0120     		movs	r0, #1
  68 001e FFF7FEFF 		bl	hawkeye_clk_Write
  69              	.LVL5:
 114:hawkeye.c     **** 
  70              		.loc 1 114 0
  71 0022 0120     		movs	r0, #1
  72 0024 FFF7FEFF 		bl	CyDelayCycles
  73              	.LVL6:
  74 0028 013C     		subs	r4, r4, #1
 116:hawkeye.c     **** 
  75              		.loc 1 116 0
  76 002a 0020     		movs	r0, #0
  77 002c FFF7FEFF 		bl	hawkeye_clk_Write
  78              	.LVL7:
 109:hawkeye.c     **** 
  79              		.loc 1 109 0
  80 0030 6D00     		lsls	r5, r5, #1
  81              	.LVL8:
 119:hawkeye.c     ****     }
  82              		.loc 1 119 0
  83 0032 0120     		movs	r0, #1
  84 0034 E4B2     		uxtb	r4, r4
 109:hawkeye.c     **** 
  85              		.loc 1 109 0
  86 0036 EDB2     		uxtb	r5, r5
  87              	.LVL9:
 119:hawkeye.c     ****     }
  88              		.loc 1 119 0
  89 0038 FFF7FEFF 		bl	CyDelayCycles
  90              	.LVL10:
  93:hawkeye.c     ****     {
  91              		.loc 1 93 0
  92 003c 002C     		cmp	r4, #0
  93 003e 06D0     		beq	.L39
  94              	.L4:
  96:hawkeye.c     ****         {
  95              		.loc 1 96 0
  96 0040 6BB2     		sxtb	r3, r5
  97 0042 002B     		cmp	r3, #0
  98 0044 E4DA     		bge	.L2
  98:hawkeye.c     ****         }
  99              		.loc 1 98 0
 100 0046 0120     		movs	r0, #1
 101 0048 FFF7FEFF 		bl	hawkeye_data_Write
ARM GAS  C:\Users\young\AppData\Local\Temp\cc47fNId.s 			page 6


 102              	.LVL11:
 103 004c E3E7     		b	.L3
 104              	.L39:
 123:hawkeye.c     **** 
 105              		.loc 1 123 0
 106 004e 0020     		movs	r0, #0
 107 0050 FFF7FEFF 		bl	hawkeye_data_Write
 108              	.LVL12:
 126:hawkeye.c     **** }
 109              		.loc 1 126 0
 110 0054 0220     		movs	r0, #2
 111 0056 FFF7FEFF 		bl	CyDelayCycles
 112              	.LVL13:
 113 005a 754F     		ldr	r7, .L45+4
 114 005c 3E00     		movs	r6, r7
 115 005e 0C36     		adds	r6, r6, #12
 116              	.LVL14:
 117              	.L8:
 118              	.LBE41:
 119              	.LBE40:
 120              	.LBE39:
 121              	.LBE38:
 122              	.LBB42:
 123              	.LBB43:
 146:hawkeye.c     **** 
 124              		.loc 1 146 0
 125 0060 3D78     		ldrb	r5, [r7]
 126              	.LVL15:
 127 0062 0824     		movs	r4, #8
 128 0064 17E0     		b	.L7
 129              	.LVL16:
 130              	.L5:
 131              	.LBB44:
 132              	.LBB45:
 102:hawkeye.c     ****         }
 133              		.loc 1 102 0
 134 0066 0020     		movs	r0, #0
 135 0068 FFF7FEFF 		bl	hawkeye_data_Write
 136              	.LVL17:
 137              	.L6:
 106:hawkeye.c     **** 
 138              		.loc 1 106 0
 139 006c 0120     		movs	r0, #1
 140 006e FFF7FEFF 		bl	CyDelayCycles
 141              	.LVL18:
 112:hawkeye.c     **** 
 142              		.loc 1 112 0
 143 0072 0120     		movs	r0, #1
 144 0074 FFF7FEFF 		bl	hawkeye_clk_Write
 145              	.LVL19:
 114:hawkeye.c     **** 
 146              		.loc 1 114 0
 147 0078 0120     		movs	r0, #1
 148 007a FFF7FEFF 		bl	CyDelayCycles
 149              	.LVL20:
 150 007e 013C     		subs	r4, r4, #1
 116:hawkeye.c     **** 
ARM GAS  C:\Users\young\AppData\Local\Temp\cc47fNId.s 			page 7


 151              		.loc 1 116 0
 152 0080 0020     		movs	r0, #0
 153 0082 FFF7FEFF 		bl	hawkeye_clk_Write
 154              	.LVL21:
 109:hawkeye.c     **** 
 155              		.loc 1 109 0
 156 0086 6D00     		lsls	r5, r5, #1
 157              	.LVL22:
 119:hawkeye.c     ****     }
 158              		.loc 1 119 0
 159 0088 0120     		movs	r0, #1
 160 008a E4B2     		uxtb	r4, r4
 109:hawkeye.c     **** 
 161              		.loc 1 109 0
 162 008c EDB2     		uxtb	r5, r5
 163              	.LVL23:
 119:hawkeye.c     ****     }
 164              		.loc 1 119 0
 165 008e FFF7FEFF 		bl	CyDelayCycles
 166              	.LVL24:
  93:hawkeye.c     ****     {
 167              		.loc 1 93 0
 168 0092 002C     		cmp	r4, #0
 169 0094 06D0     		beq	.L40
 170              	.L7:
  96:hawkeye.c     ****         {
 171              		.loc 1 96 0
 172 0096 6BB2     		sxtb	r3, r5
 173 0098 002B     		cmp	r3, #0
 174 009a E4DA     		bge	.L5
  98:hawkeye.c     ****         }
 175              		.loc 1 98 0
 176 009c 0120     		movs	r0, #1
 177 009e FFF7FEFF 		bl	hawkeye_data_Write
 178              	.LVL25:
 179 00a2 E3E7     		b	.L6
 180              	.L40:
 123:hawkeye.c     **** 
 181              		.loc 1 123 0
 182 00a4 0020     		movs	r0, #0
 183 00a6 FFF7FEFF 		bl	hawkeye_data_Write
 184              	.LVL26:
 185              	.LBE45:
 186              	.LBE44:
 152:hawkeye.c     ****     }
 187              		.loc 1 152 0
 188 00aa 0137     		adds	r7, r7, #1
 189              	.LVL27:
 190              	.LBB47:
 191              	.LBB46:
 126:hawkeye.c     **** }
 192              		.loc 1 126 0
 193 00ac 0220     		movs	r0, #2
 194 00ae FFF7FEFF 		bl	CyDelayCycles
 195              	.LVL28:
 196              	.LBE46:
 197              	.LBE47:
ARM GAS  C:\Users\young\AppData\Local\Temp\cc47fNId.s 			page 8


 143:hawkeye.c     ****     {
 198              		.loc 1 143 0
 199 00b2 B742     		cmp	r7, r6
 200 00b4 D4D1     		bne	.L8
 201 00b6 5F4F     		ldr	r7, .L45+8
 202              	.LVL29:
 203 00b8 3E00     		movs	r6, r7
 204 00ba 0C36     		adds	r6, r6, #12
 205              	.L12:
 206              	.LVL30:
 207              	.LBE43:
 208              	.LBE42:
 209              	.LBB48:
 210              	.LBB49:
 146:hawkeye.c     **** 
 211              		.loc 1 146 0
 212 00bc 3D78     		ldrb	r5, [r7]
 213              	.LVL31:
 214 00be 0824     		movs	r4, #8
 215 00c0 17E0     		b	.L11
 216              	.LVL32:
 217              	.L9:
 218              	.LBB50:
 219              	.LBB51:
 102:hawkeye.c     ****         }
 220              		.loc 1 102 0
 221 00c2 0020     		movs	r0, #0
 222 00c4 FFF7FEFF 		bl	hawkeye_data_Write
 223              	.LVL33:
 224              	.L10:
 106:hawkeye.c     **** 
 225              		.loc 1 106 0
 226 00c8 0120     		movs	r0, #1
 227 00ca FFF7FEFF 		bl	CyDelayCycles
 228              	.LVL34:
 112:hawkeye.c     **** 
 229              		.loc 1 112 0
 230 00ce 0120     		movs	r0, #1
 231 00d0 FFF7FEFF 		bl	hawkeye_clk_Write
 232              	.LVL35:
 114:hawkeye.c     **** 
 233              		.loc 1 114 0
 234 00d4 0120     		movs	r0, #1
 235 00d6 FFF7FEFF 		bl	CyDelayCycles
 236              	.LVL36:
 237 00da 013C     		subs	r4, r4, #1
 116:hawkeye.c     **** 
 238              		.loc 1 116 0
 239 00dc 0020     		movs	r0, #0
 240 00de FFF7FEFF 		bl	hawkeye_clk_Write
 241              	.LVL37:
 109:hawkeye.c     **** 
 242              		.loc 1 109 0
 243 00e2 6D00     		lsls	r5, r5, #1
 244              	.LVL38:
 119:hawkeye.c     ****     }
 245              		.loc 1 119 0
ARM GAS  C:\Users\young\AppData\Local\Temp\cc47fNId.s 			page 9


 246 00e4 0120     		movs	r0, #1
 247 00e6 E4B2     		uxtb	r4, r4
 109:hawkeye.c     **** 
 248              		.loc 1 109 0
 249 00e8 EDB2     		uxtb	r5, r5
 250              	.LVL39:
 119:hawkeye.c     ****     }
 251              		.loc 1 119 0
 252 00ea FFF7FEFF 		bl	CyDelayCycles
 253              	.LVL40:
  93:hawkeye.c     ****     {
 254              		.loc 1 93 0
 255 00ee 002C     		cmp	r4, #0
 256 00f0 06D0     		beq	.L41
 257              	.L11:
  96:hawkeye.c     ****         {
 258              		.loc 1 96 0
 259 00f2 6BB2     		sxtb	r3, r5
 260 00f4 002B     		cmp	r3, #0
 261 00f6 E4DA     		bge	.L9
  98:hawkeye.c     ****         }
 262              		.loc 1 98 0
 263 00f8 0120     		movs	r0, #1
 264 00fa FFF7FEFF 		bl	hawkeye_data_Write
 265              	.LVL41:
 266 00fe E3E7     		b	.L10
 267              	.L41:
 123:hawkeye.c     **** 
 268              		.loc 1 123 0
 269 0100 0020     		movs	r0, #0
 270 0102 FFF7FEFF 		bl	hawkeye_data_Write
 271              	.LVL42:
 272              	.LBE51:
 273              	.LBE50:
 152:hawkeye.c     ****     }
 274              		.loc 1 152 0
 275 0106 0137     		adds	r7, r7, #1
 276              	.LVL43:
 277              	.LBB53:
 278              	.LBB52:
 126:hawkeye.c     **** }
 279              		.loc 1 126 0
 280 0108 0220     		movs	r0, #2
 281 010a FFF7FEFF 		bl	CyDelayCycles
 282              	.LVL44:
 283              	.LBE52:
 284              	.LBE53:
 143:hawkeye.c     ****     {
 285              		.loc 1 143 0
 286 010e B742     		cmp	r7, r6
 287 0110 D4D1     		bne	.L12
 288 0112 494F     		ldr	r7, .L45+12
 289              	.LVL45:
 290 0114 3E00     		movs	r6, r7
 291 0116 0C36     		adds	r6, r6, #12
 292              	.L16:
 293              	.LVL46:
ARM GAS  C:\Users\young\AppData\Local\Temp\cc47fNId.s 			page 10


 294              	.LBE49:
 295              	.LBE48:
 296              	.LBB54:
 297              	.LBB55:
 146:hawkeye.c     **** 
 298              		.loc 1 146 0
 299 0118 3D78     		ldrb	r5, [r7]
 300              	.LVL47:
 301 011a 0824     		movs	r4, #8
 302 011c 17E0     		b	.L15
 303              	.LVL48:
 304              	.L13:
 305              	.LBB56:
 306              	.LBB57:
 102:hawkeye.c     ****         }
 307              		.loc 1 102 0
 308 011e 0020     		movs	r0, #0
 309 0120 FFF7FEFF 		bl	hawkeye_data_Write
 310              	.LVL49:
 311              	.L14:
 106:hawkeye.c     **** 
 312              		.loc 1 106 0
 313 0124 0120     		movs	r0, #1
 314 0126 FFF7FEFF 		bl	CyDelayCycles
 315              	.LVL50:
 112:hawkeye.c     **** 
 316              		.loc 1 112 0
 317 012a 0120     		movs	r0, #1
 318 012c FFF7FEFF 		bl	hawkeye_clk_Write
 319              	.LVL51:
 114:hawkeye.c     **** 
 320              		.loc 1 114 0
 321 0130 0120     		movs	r0, #1
 322 0132 FFF7FEFF 		bl	CyDelayCycles
 323              	.LVL52:
 324 0136 013C     		subs	r4, r4, #1
 116:hawkeye.c     **** 
 325              		.loc 1 116 0
 326 0138 0020     		movs	r0, #0
 327 013a FFF7FEFF 		bl	hawkeye_clk_Write
 328              	.LVL53:
 109:hawkeye.c     **** 
 329              		.loc 1 109 0
 330 013e 6D00     		lsls	r5, r5, #1
 331              	.LVL54:
 119:hawkeye.c     ****     }
 332              		.loc 1 119 0
 333 0140 0120     		movs	r0, #1
 334 0142 E4B2     		uxtb	r4, r4
 109:hawkeye.c     **** 
 335              		.loc 1 109 0
 336 0144 EDB2     		uxtb	r5, r5
 337              	.LVL55:
 119:hawkeye.c     ****     }
 338              		.loc 1 119 0
 339 0146 FFF7FEFF 		bl	CyDelayCycles
 340              	.LVL56:
ARM GAS  C:\Users\young\AppData\Local\Temp\cc47fNId.s 			page 11


  93:hawkeye.c     ****     {
 341              		.loc 1 93 0
 342 014a 002C     		cmp	r4, #0
 343 014c 06D0     		beq	.L42
 344              	.L15:
  96:hawkeye.c     ****         {
 345              		.loc 1 96 0
 346 014e 6BB2     		sxtb	r3, r5
 347 0150 002B     		cmp	r3, #0
 348 0152 E4DA     		bge	.L13
  98:hawkeye.c     ****         }
 349              		.loc 1 98 0
 350 0154 0120     		movs	r0, #1
 351 0156 FFF7FEFF 		bl	hawkeye_data_Write
 352              	.LVL57:
 353 015a E3E7     		b	.L14
 354              	.L42:
 123:hawkeye.c     **** 
 355              		.loc 1 123 0
 356 015c 0020     		movs	r0, #0
 357 015e FFF7FEFF 		bl	hawkeye_data_Write
 358              	.LVL58:
 359              	.LBE57:
 360              	.LBE56:
 152:hawkeye.c     ****     }
 361              		.loc 1 152 0
 362 0162 0137     		adds	r7, r7, #1
 363              	.LVL59:
 364              	.LBB59:
 365              	.LBB58:
 126:hawkeye.c     **** }
 366              		.loc 1 126 0
 367 0164 0220     		movs	r0, #2
 368 0166 FFF7FEFF 		bl	CyDelayCycles
 369              	.LVL60:
 370              	.LBE58:
 371              	.LBE59:
 143:hawkeye.c     ****     {
 372              		.loc 1 143 0
 373 016a B742     		cmp	r7, r6
 374 016c D4D1     		bne	.L16
 375              	.LVL61:
 376              	.LBE55:
 377              	.LBE54:
 378              	.LBB60:
 379              	.LBB61:
 146:hawkeye.c     **** 
 380              		.loc 1 146 0
 381 016e 334B     		ldr	r3, .L45+16
 382 0170 0824     		movs	r4, #8
 383 0172 1D78     		ldrb	r5, [r3]
 384              	.LVL62:
 385 0174 17E0     		b	.L20
 386              	.LVL63:
 387              	.L18:
 388              	.LBB62:
 389              	.LBB63:
ARM GAS  C:\Users\young\AppData\Local\Temp\cc47fNId.s 			page 12


 102:hawkeye.c     ****         }
 390              		.loc 1 102 0
 391 0176 0020     		movs	r0, #0
 392 0178 FFF7FEFF 		bl	hawkeye_data_Write
 393              	.LVL64:
 394              	.L19:
 106:hawkeye.c     **** 
 395              		.loc 1 106 0
 396 017c 0120     		movs	r0, #1
 397 017e FFF7FEFF 		bl	CyDelayCycles
 398              	.LVL65:
 112:hawkeye.c     **** 
 399              		.loc 1 112 0
 400 0182 0120     		movs	r0, #1
 401 0184 FFF7FEFF 		bl	hawkeye_clk_Write
 402              	.LVL66:
 114:hawkeye.c     **** 
 403              		.loc 1 114 0
 404 0188 0120     		movs	r0, #1
 405 018a FFF7FEFF 		bl	CyDelayCycles
 406              	.LVL67:
 407 018e 013C     		subs	r4, r4, #1
 116:hawkeye.c     **** 
 408              		.loc 1 116 0
 409 0190 0020     		movs	r0, #0
 410 0192 FFF7FEFF 		bl	hawkeye_clk_Write
 411              	.LVL68:
 109:hawkeye.c     **** 
 412              		.loc 1 109 0
 413 0196 6D00     		lsls	r5, r5, #1
 414              	.LVL69:
 119:hawkeye.c     ****     }
 415              		.loc 1 119 0
 416 0198 0120     		movs	r0, #1
 417 019a E4B2     		uxtb	r4, r4
 109:hawkeye.c     **** 
 418              		.loc 1 109 0
 419 019c EDB2     		uxtb	r5, r5
 420              	.LVL70:
 119:hawkeye.c     ****     }
 421              		.loc 1 119 0
 422 019e FFF7FEFF 		bl	CyDelayCycles
 423              	.LVL71:
  93:hawkeye.c     ****     {
 424              		.loc 1 93 0
 425 01a2 002C     		cmp	r4, #0
 426 01a4 06D0     		beq	.L43
 427              	.L20:
  96:hawkeye.c     ****         {
 428              		.loc 1 96 0
 429 01a6 6BB2     		sxtb	r3, r5
 430 01a8 002B     		cmp	r3, #0
 431 01aa E4DA     		bge	.L18
  98:hawkeye.c     ****         }
 432              		.loc 1 98 0
 433 01ac 0120     		movs	r0, #1
 434 01ae FFF7FEFF 		bl	hawkeye_data_Write
ARM GAS  C:\Users\young\AppData\Local\Temp\cc47fNId.s 			page 13


 435              	.LVL72:
 436 01b2 E3E7     		b	.L19
 437              	.L43:
 123:hawkeye.c     **** 
 438              		.loc 1 123 0
 439 01b4 0020     		movs	r0, #0
 440 01b6 FFF7FEFF 		bl	hawkeye_data_Write
 441              	.LVL73:
 126:hawkeye.c     **** }
 442              		.loc 1 126 0
 443 01ba 0220     		movs	r0, #2
 444 01bc FFF7FEFF 		bl	CyDelayCycles
 445              	.LVL74:
 446 01c0 1F4F     		ldr	r7, .L45+20
 447              	.LVL75:
 448 01c2 3E00     		movs	r6, r7
 449 01c4 6436     		adds	r6, r6, #100
 450              	.LVL76:
 451              	.L24:
 452              	.LBE63:
 453              	.LBE62:
 454              	.LBE61:
 455              	.LBE60:
 456              	.LBB64:
 457              	.LBB65:
 146:hawkeye.c     **** 
 458              		.loc 1 146 0
 459 01c6 3D78     		ldrb	r5, [r7]
 460              	.LVL77:
 461 01c8 0824     		movs	r4, #8
 462 01ca 17E0     		b	.L23
 463              	.LVL78:
 464              	.L21:
 465              	.LBB66:
 466              	.LBB67:
 102:hawkeye.c     ****         }
 467              		.loc 1 102 0
 468 01cc 0020     		movs	r0, #0
 469 01ce FFF7FEFF 		bl	hawkeye_data_Write
 470              	.LVL79:
 471              	.L22:
 106:hawkeye.c     **** 
 472              		.loc 1 106 0
 473 01d2 0120     		movs	r0, #1
 474 01d4 FFF7FEFF 		bl	CyDelayCycles
 475              	.LVL80:
 112:hawkeye.c     **** 
 476              		.loc 1 112 0
 477 01d8 0120     		movs	r0, #1
 478 01da FFF7FEFF 		bl	hawkeye_clk_Write
 479              	.LVL81:
 114:hawkeye.c     **** 
 480              		.loc 1 114 0
 481 01de 0120     		movs	r0, #1
 482 01e0 FFF7FEFF 		bl	CyDelayCycles
 483              	.LVL82:
 484 01e4 013C     		subs	r4, r4, #1
ARM GAS  C:\Users\young\AppData\Local\Temp\cc47fNId.s 			page 14


 116:hawkeye.c     **** 
 485              		.loc 1 116 0
 486 01e6 0020     		movs	r0, #0
 487 01e8 FFF7FEFF 		bl	hawkeye_clk_Write
 488              	.LVL83:
 109:hawkeye.c     **** 
 489              		.loc 1 109 0
 490 01ec 6D00     		lsls	r5, r5, #1
 491              	.LVL84:
 119:hawkeye.c     ****     }
 492              		.loc 1 119 0
 493 01ee 0120     		movs	r0, #1
 494 01f0 E4B2     		uxtb	r4, r4
 109:hawkeye.c     **** 
 495              		.loc 1 109 0
 496 01f2 EDB2     		uxtb	r5, r5
 497              	.LVL85:
 119:hawkeye.c     ****     }
 498              		.loc 1 119 0
 499 01f4 FFF7FEFF 		bl	CyDelayCycles
 500              	.LVL86:
  93:hawkeye.c     ****     {
 501              		.loc 1 93 0
 502 01f8 002C     		cmp	r4, #0
 503 01fa 06D0     		beq	.L44
 504              	.L23:
  96:hawkeye.c     ****         {
 505              		.loc 1 96 0
 506 01fc 6BB2     		sxtb	r3, r5
 507 01fe 002B     		cmp	r3, #0
 508 0200 E4DA     		bge	.L21
  98:hawkeye.c     ****         }
 509              		.loc 1 98 0
 510 0202 0120     		movs	r0, #1
 511 0204 FFF7FEFF 		bl	hawkeye_data_Write
 512              	.LVL87:
 513 0208 E3E7     		b	.L22
 514              	.L44:
 123:hawkeye.c     **** 
 515              		.loc 1 123 0
 516 020a 0020     		movs	r0, #0
 517 020c FFF7FEFF 		bl	hawkeye_data_Write
 518              	.LVL88:
 519              	.LBE67:
 520              	.LBE66:
 152:hawkeye.c     ****     }
 521              		.loc 1 152 0
 522 0210 0137     		adds	r7, r7, #1
 523              	.LVL89:
 524              	.LBB69:
 525              	.LBB68:
 126:hawkeye.c     **** }
 526              		.loc 1 126 0
 527 0212 0220     		movs	r0, #2
 528 0214 FFF7FEFF 		bl	CyDelayCycles
 529              	.LVL90:
 530              	.LBE68:
ARM GAS  C:\Users\young\AppData\Local\Temp\cc47fNId.s 			page 15


 531              	.LBE69:
 143:hawkeye.c     ****     {
 532              		.loc 1 143 0
 533 0218 B742     		cmp	r7, r6
 534 021a D4D1     		bne	.L24
 535              	.LVL91:
 536              	.LBE65:
 537              	.LBE64:
 172:hawkeye.c     **** 
 173:hawkeye.c     **** 
 174:hawkeye.c     ****     output_to_debugger( (uint8_t *) &frame_count, (uint8_t) sizeof( frame_count ) );
 175:hawkeye.c     ****     //output_to_debugger( (uint8_t *) &CapSense_sensorRaw[0], (uint8_t) sizeof( CapSense_sensorRaw 
 176:hawkeye.c     ****     output_to_debugger( (uint8_t *) &Capsense_FilteredRawData[0], (uint8_t) sizeof( Capsense_Filter
 177:hawkeye.c     ****     output_to_debugger( (uint8_t *) &CapSense_sensorBaseline[0], (uint8_t) sizeof( CapSense_sensorB
 178:hawkeye.c     ****     //output_to_debugger( (uint8_t *) &CapSense_SensorSignal[0], (uint8_t) sizeof( CapSense_SensorS
 179:hawkeye.c     ****     output_to_debugger( (uint8_t *) &Sub_Buff[0], (uint8_t) sizeof( Sub_Buff ) );  
 180:hawkeye.c     ****     output_to_debugger( (uint8_t *) &CapSense_sensorOnMask[0], (uint8_t) sizeof(CapSense_sensorOnMa
 181:hawkeye.c     ****     /*
 182:hawkeye.c     ****     unsigned char i = 0;
 183:hawkeye.c     ****     for(i = 0; i < 25; i++)
 184:hawkeye.c     ****     {
 185:hawkeye.c     ****         output_to_debugger( (uint8_t *) &temp[i], (uint8_t) sizeof(temp ) );  
 186:hawkeye.c     ****     }
 187:hawkeye.c     ****     */
 188:hawkeye.c     ****     
 189:hawkeye.c     ****     output_to_debugger( (uint8_t *) &temp[0], (uint8_t) sizeof(temp ) ); 
 190:hawkeye.c     ****     //output_to_debugger( (uint8_t *) &temp[1], (uint8_t) sizeof(temp ) );  
 191:hawkeye.c     ****     //output_to_debugger( (uint8_t *) &temp[2], (uint8_t) sizeof(temp ) ); 
 192:hawkeye.c     ****     //output_to_debugger( (uint8_t *) &temp[3], (uint8_t) sizeof(temp ) );   
 193:hawkeye.c     ****     //output_to_debugger( (uint8_t *) &temp[4], (uint8_t) sizeof(temp ) ); 
 194:hawkeye.c     ****     //output_to_debugger( (uint8_t *) &temp[5], (uint8_t) sizeof(temp ) );  
 195:hawkeye.c     ****     //output_to_debugger( (uint8_t *) &temp[6], (uint8_t) sizeof(temp ) ); 
 196:hawkeye.c     ****     //output_to_debugger( (uint8_t *) &temp[7], (uint8_t) sizeof(temp ) );  
 197:hawkeye.c     ****     
 198:hawkeye.c     ****     /*
 199:hawkeye.c     ****     output_to_debugger( (uint8_t *) &qt_measure_data.channel_references[0], (uint8_t) sizeof( qt_me
 200:hawkeye.c     ****     
 201:hawkeye.c     ****     for( i = 0u; i < QT_NUM_CHANNELS; i++ )
 202:hawkeye.c     ****     {
 203:hawkeye.c     ****         sensor_delta = qt_measure_data.channel_references[i] - qt_measure_data.channel_signals[i];
 204:hawkeye.c     ****         output_to_debugger( (uint8_t *) &sensor_delta, sizeof( int16_t ) );
 205:hawkeye.c     ****     }
 206:hawkeye.c     ****     
 207:hawkeye.c     ****     output_to_debugger( (uint8_t *) &qt_measure_data.qt_touch_status, (uint8_t) sizeof( qt_measure_
 208:hawkeye.c     ****     
 209:hawkeye.c     ****     
 210:hawkeye.c     ****     for( i = 0u; i < QT_MAX_NUM_ROTORS_SLIDERS; i++ )
 211:hawkeye.c     ****     {
 212:hawkeye.c     ****         output_to_debugger( (uint8_t *) &qt_measure_data.qt_touch_status.rotor_slider_values[i], si
 213:hawkeye.c     ****         output_to_debugger( (uint8_t *) &zero, sizeof( uint8_t ) );
 214:hawkeye.c     ****     }
 215:hawkeye.c     ****    
 216:hawkeye.c     ****     
 217:hawkeye.c     ****     k = 100;
 218:hawkeye.c     **** 
 219:hawkeye.c     ****     output_to_debugger( (uint8_t *) &k, (uint8_t) sizeof(k ) );        
 220:hawkeye.c     **** 	 */
ARM GAS  C:\Users\young\AppData\Local\Temp\cc47fNId.s 			page 16


 221:hawkeye.c     ****     
 222:hawkeye.c     ****     frame_count++;
 538              		.loc 1 222 0
 539 021c 4346     		mov	r3, r8
 540 021e 4246     		mov	r2, r8
 541 0220 1B78     		ldrb	r3, [r3]
 223:hawkeye.c     **** }
 542              		.loc 1 223 0
 543              		@ sp needed
 222:hawkeye.c     **** }
 544              		.loc 1 222 0
 545 0222 0133     		adds	r3, r3, #1
 546 0224 1370     		strb	r3, [r2]
 547              		.loc 1 223 0
 548 0226 04BC     		pop	{r2}
 549 0228 9046     		mov	r8, r2
 550 022a F0BD     		pop	{r4, r5, r6, r7, pc}
 551              	.L46:
 552              		.align	2
 553              	.L45:
 554 022c 00000000 		.word	.LANCHOR0
 555 0230 00000000 		.word	Capsense_FilteredRawData
 556 0234 00000000 		.word	CapSense_sensorBaseline
 557 0238 00000000 		.word	Sub_Buff
 558 023c 00000000 		.word	CapSense_sensorOnMask
 559 0240 00000000 		.word	temp
 560              		.cfi_endproc
 561              	.LFE34:
 562              		.size	report_debug_data, .-report_debug_data
 563              		.comm	temp,100,4
 564              		.bss
 565              		.set	.LANCHOR0,. + 0
 566              		.type	frame_count, %object
 567              		.size	frame_count, 1
 568              	frame_count:
 569 0000 00       		.space	1
 570              		.text
 571              	.Letext0:
 572              		.file 2 "c:\\program files (x86)\\cypress\\psoc creator\\4.4\\psoc creator\\import\\gnu\\arm\\5.4.
 573              		.file 3 "c:\\program files (x86)\\cypress\\psoc creator\\4.4\\psoc creator\\import\\gnu\\arm\\5.4.
 574              		.file 4 "Generated_Source\\PSoC4/cytypes.h"
 575              		.file 5 "Generated_Source\\PSoC4/hawkeye_data.h"
 576              		.file 6 "Generated_Source\\PSoC4/CyLib.h"
 577              		.file 7 "Generated_Source\\PSoC4/hawkeye_clk.h"