ARM GAS  C:\Users\jhkim\AppData\Local\Temp\cclRqDXR.s 			page 1


   1              		.syntax unified
   2              		.cpu cortex-m0
   3              		.fpu softvfp
   4              		.eabi_attribute 20, 1
   5              		.eabi_attribute 21, 1
   6              		.eabi_attribute 23, 3
   7              		.eabi_attribute 24, 1
   8              		.eabi_attribute 25, 1
   9              		.eabi_attribute 26, 1
  10              		.eabi_attribute 30, 2
  11              		.eabi_attribute 34, 0
  12              		.eabi_attribute 18, 4
  13              		.thumb
  14              		.syntax unified
  15              		.file	"I2CS.c"
  16              		.text
  17              	.Ltext0:
  18              		.cfi_sections	.debug_frame
  19              		.section	.text.I2CS_Init,"ax",%progbits
  20              		.align	2
  21              		.global	I2CS_Init
  22              		.code	16
  23              		.thumb_func
  24              		.type	I2CS_Init, %function
  25              	I2CS_Init:
  26              	.LFB0:
  27              		.file 1 "Generated_Source\\PSoC4\\I2CS.c"
   1:Generated_Source\PSoC4/I2CS.c **** /***************************************************************************//**
   2:Generated_Source\PSoC4/I2CS.c **** * \file I2CS.c
   3:Generated_Source\PSoC4/I2CS.c **** * \version 4.0
   4:Generated_Source\PSoC4/I2CS.c **** *
   5:Generated_Source\PSoC4/I2CS.c **** * \brief
   6:Generated_Source\PSoC4/I2CS.c **** *  This file provides the source code to the API for the SCB Component.
   7:Generated_Source\PSoC4/I2CS.c **** *
   8:Generated_Source\PSoC4/I2CS.c **** * Note:
   9:Generated_Source\PSoC4/I2CS.c **** *
  10:Generated_Source\PSoC4/I2CS.c **** *******************************************************************************
  11:Generated_Source\PSoC4/I2CS.c **** * \copyright
  12:Generated_Source\PSoC4/I2CS.c **** * Copyright 2013-2017, Cypress Semiconductor Corporation.  All rights reserved.
  13:Generated_Source\PSoC4/I2CS.c **** * You may use this file only in accordance with the license, terms, conditions,
  14:Generated_Source\PSoC4/I2CS.c **** * disclaimers, and limitations in the end user license agreement accompanying
  15:Generated_Source\PSoC4/I2CS.c **** * the software package with which this file was provided.
  16:Generated_Source\PSoC4/I2CS.c **** *******************************************************************************/
  17:Generated_Source\PSoC4/I2CS.c **** 
  18:Generated_Source\PSoC4/I2CS.c **** #include "I2CS_PVT.h"
  19:Generated_Source\PSoC4/I2CS.c **** 
  20:Generated_Source\PSoC4/I2CS.c **** #if (I2CS_SCB_MODE_I2C_INC)
  21:Generated_Source\PSoC4/I2CS.c ****     #include "I2CS_I2C_PVT.h"
  22:Generated_Source\PSoC4/I2CS.c **** #endif /* (I2CS_SCB_MODE_I2C_INC) */
  23:Generated_Source\PSoC4/I2CS.c **** 
  24:Generated_Source\PSoC4/I2CS.c **** #if (I2CS_SCB_MODE_EZI2C_INC)
  25:Generated_Source\PSoC4/I2CS.c ****     #include "I2CS_EZI2C_PVT.h"
  26:Generated_Source\PSoC4/I2CS.c **** #endif /* (I2CS_SCB_MODE_EZI2C_INC) */
  27:Generated_Source\PSoC4/I2CS.c **** 
  28:Generated_Source\PSoC4/I2CS.c **** #if (I2CS_SCB_MODE_SPI_INC || I2CS_SCB_MODE_UART_INC)
  29:Generated_Source\PSoC4/I2CS.c ****     #include "I2CS_SPI_UART_PVT.h"
  30:Generated_Source\PSoC4/I2CS.c **** #endif /* (I2CS_SCB_MODE_SPI_INC || I2CS_SCB_MODE_UART_INC) */
ARM GAS  C:\Users\jhkim\AppData\Local\Temp\cclRqDXR.s 			page 2


  31:Generated_Source\PSoC4/I2CS.c **** 
  32:Generated_Source\PSoC4/I2CS.c **** 
  33:Generated_Source\PSoC4/I2CS.c **** /***************************************
  34:Generated_Source\PSoC4/I2CS.c **** *    Run Time Configuration Vars
  35:Generated_Source\PSoC4/I2CS.c **** ***************************************/
  36:Generated_Source\PSoC4/I2CS.c **** 
  37:Generated_Source\PSoC4/I2CS.c **** /* Stores internal component configuration for Unconfigured mode */
  38:Generated_Source\PSoC4/I2CS.c **** #if (I2CS_SCB_MODE_UNCONFIG_CONST_CFG)
  39:Generated_Source\PSoC4/I2CS.c ****     /* Common configuration variables */
  40:Generated_Source\PSoC4/I2CS.c ****     uint8 I2CS_scbMode = I2CS_SCB_MODE_UNCONFIG;
  41:Generated_Source\PSoC4/I2CS.c ****     uint8 I2CS_scbEnableWake;
  42:Generated_Source\PSoC4/I2CS.c ****     uint8 I2CS_scbEnableIntr;
  43:Generated_Source\PSoC4/I2CS.c **** 
  44:Generated_Source\PSoC4/I2CS.c ****     /* I2C configuration variables */
  45:Generated_Source\PSoC4/I2CS.c ****     uint8 I2CS_mode;
  46:Generated_Source\PSoC4/I2CS.c ****     uint8 I2CS_acceptAddr;
  47:Generated_Source\PSoC4/I2CS.c **** 
  48:Generated_Source\PSoC4/I2CS.c ****     /* SPI/UART configuration variables */
  49:Generated_Source\PSoC4/I2CS.c ****     volatile uint8 * I2CS_rxBuffer;
  50:Generated_Source\PSoC4/I2CS.c ****     uint8  I2CS_rxDataBits;
  51:Generated_Source\PSoC4/I2CS.c ****     uint32 I2CS_rxBufferSize;
  52:Generated_Source\PSoC4/I2CS.c **** 
  53:Generated_Source\PSoC4/I2CS.c ****     volatile uint8 * I2CS_txBuffer;
  54:Generated_Source\PSoC4/I2CS.c ****     uint8  I2CS_txDataBits;
  55:Generated_Source\PSoC4/I2CS.c ****     uint32 I2CS_txBufferSize;
  56:Generated_Source\PSoC4/I2CS.c **** 
  57:Generated_Source\PSoC4/I2CS.c ****     /* EZI2C configuration variables */
  58:Generated_Source\PSoC4/I2CS.c ****     uint8 I2CS_numberOfAddr;
  59:Generated_Source\PSoC4/I2CS.c ****     uint8 I2CS_subAddrSize;
  60:Generated_Source\PSoC4/I2CS.c **** #endif /* (I2CS_SCB_MODE_UNCONFIG_CONST_CFG) */
  61:Generated_Source\PSoC4/I2CS.c **** 
  62:Generated_Source\PSoC4/I2CS.c **** 
  63:Generated_Source\PSoC4/I2CS.c **** /***************************************
  64:Generated_Source\PSoC4/I2CS.c **** *     Common SCB Vars
  65:Generated_Source\PSoC4/I2CS.c **** ***************************************/
  66:Generated_Source\PSoC4/I2CS.c **** /**
  67:Generated_Source\PSoC4/I2CS.c **** * \addtogroup group_general
  68:Generated_Source\PSoC4/I2CS.c **** * \{
  69:Generated_Source\PSoC4/I2CS.c **** */
  70:Generated_Source\PSoC4/I2CS.c **** 
  71:Generated_Source\PSoC4/I2CS.c **** /** I2CS_initVar indicates whether the I2CS 
  72:Generated_Source\PSoC4/I2CS.c **** *  component has been initialized. The variable is initialized to 0 
  73:Generated_Source\PSoC4/I2CS.c **** *  and set to 1 the first time SCB_Start() is called. This allows 
  74:Generated_Source\PSoC4/I2CS.c **** *  the component to restart without reinitialization after the first 
  75:Generated_Source\PSoC4/I2CS.c **** *  call to the I2CS_Start() routine.
  76:Generated_Source\PSoC4/I2CS.c **** *
  77:Generated_Source\PSoC4/I2CS.c **** *  If re-initialization of the component is required, then the 
  78:Generated_Source\PSoC4/I2CS.c **** *  I2CS_Init() function can be called before the 
  79:Generated_Source\PSoC4/I2CS.c **** *  I2CS_Start() or I2CS_Enable() function.
  80:Generated_Source\PSoC4/I2CS.c **** */
  81:Generated_Source\PSoC4/I2CS.c **** uint8 I2CS_initVar = 0u;
  82:Generated_Source\PSoC4/I2CS.c **** 
  83:Generated_Source\PSoC4/I2CS.c **** 
  84:Generated_Source\PSoC4/I2CS.c **** #if (! (I2CS_SCB_MODE_I2C_CONST_CFG || \
  85:Generated_Source\PSoC4/I2CS.c ****         I2CS_SCB_MODE_EZI2C_CONST_CFG))
  86:Generated_Source\PSoC4/I2CS.c ****     /** This global variable stores TX interrupt sources after 
  87:Generated_Source\PSoC4/I2CS.c ****     * I2CS_Stop() is called. Only these TX interrupt sources 
ARM GAS  C:\Users\jhkim\AppData\Local\Temp\cclRqDXR.s 			page 3


  88:Generated_Source\PSoC4/I2CS.c ****     * will be restored on a subsequent I2CS_Enable() call.
  89:Generated_Source\PSoC4/I2CS.c ****     */
  90:Generated_Source\PSoC4/I2CS.c ****     uint16 I2CS_IntrTxMask = 0u;
  91:Generated_Source\PSoC4/I2CS.c **** #endif /* (! (I2CS_SCB_MODE_I2C_CONST_CFG || \
  92:Generated_Source\PSoC4/I2CS.c ****               I2CS_SCB_MODE_EZI2C_CONST_CFG)) */
  93:Generated_Source\PSoC4/I2CS.c **** /** \} globals */
  94:Generated_Source\PSoC4/I2CS.c **** 
  95:Generated_Source\PSoC4/I2CS.c **** #if (I2CS_SCB_IRQ_INTERNAL)
  96:Generated_Source\PSoC4/I2CS.c **** #if !defined (CY_REMOVE_I2CS_CUSTOM_INTR_HANDLER)
  97:Generated_Source\PSoC4/I2CS.c ****     void (*I2CS_customIntrHandler)(void) = NULL;
  98:Generated_Source\PSoC4/I2CS.c **** #endif /* !defined (CY_REMOVE_I2CS_CUSTOM_INTR_HANDLER) */
  99:Generated_Source\PSoC4/I2CS.c **** #endif /* (I2CS_SCB_IRQ_INTERNAL) */
 100:Generated_Source\PSoC4/I2CS.c **** 
 101:Generated_Source\PSoC4/I2CS.c **** 
 102:Generated_Source\PSoC4/I2CS.c **** /***************************************
 103:Generated_Source\PSoC4/I2CS.c **** *    Private Function Prototypes
 104:Generated_Source\PSoC4/I2CS.c **** ***************************************/
 105:Generated_Source\PSoC4/I2CS.c **** 
 106:Generated_Source\PSoC4/I2CS.c **** static void I2CS_ScbEnableIntr(void);
 107:Generated_Source\PSoC4/I2CS.c **** static void I2CS_ScbModeStop(void);
 108:Generated_Source\PSoC4/I2CS.c **** static void I2CS_ScbModePostEnable(void);
 109:Generated_Source\PSoC4/I2CS.c **** 
 110:Generated_Source\PSoC4/I2CS.c **** 
 111:Generated_Source\PSoC4/I2CS.c **** /*******************************************************************************
 112:Generated_Source\PSoC4/I2CS.c **** * Function Name: I2CS_Init
 113:Generated_Source\PSoC4/I2CS.c **** ****************************************************************************//**
 114:Generated_Source\PSoC4/I2CS.c **** *
 115:Generated_Source\PSoC4/I2CS.c **** *  Initializes the I2CS component to operate in one of the selected
 116:Generated_Source\PSoC4/I2CS.c **** *  configurations: I2C, SPI, UART or EZI2C.
 117:Generated_Source\PSoC4/I2CS.c **** *  When the configuration is set to "Unconfigured SCB", this function does
 118:Generated_Source\PSoC4/I2CS.c **** *  not do any initialization. Use mode-specific initialization APIs instead:
 119:Generated_Source\PSoC4/I2CS.c **** *  I2CS_I2CInit, I2CS_SpiInit, 
 120:Generated_Source\PSoC4/I2CS.c **** *  I2CS_UartInit or I2CS_EzI2CInit.
 121:Generated_Source\PSoC4/I2CS.c **** *
 122:Generated_Source\PSoC4/I2CS.c **** *******************************************************************************/
 123:Generated_Source\PSoC4/I2CS.c **** void I2CS_Init(void)
 124:Generated_Source\PSoC4/I2CS.c **** {
  28              		.loc 1 124 0
  29              		.cfi_startproc
  30              		@ args = 0, pretend = 0, frame = 0
  31              		@ frame_needed = 0, uses_anonymous_args = 0
  32 0000 10B5     		push	{r4, lr}
  33              		.cfi_def_cfa_offset 8
  34              		.cfi_offset 4, -8
  35              		.cfi_offset 14, -4
 125:Generated_Source\PSoC4/I2CS.c **** #if (I2CS_SCB_MODE_UNCONFIG_CONST_CFG)
 126:Generated_Source\PSoC4/I2CS.c ****     if (I2CS_SCB_MODE_UNCONFIG_RUNTM_CFG)
 127:Generated_Source\PSoC4/I2CS.c ****     {
 128:Generated_Source\PSoC4/I2CS.c ****         I2CS_initVar = 0u;
 129:Generated_Source\PSoC4/I2CS.c ****     }
 130:Generated_Source\PSoC4/I2CS.c ****     else
 131:Generated_Source\PSoC4/I2CS.c ****     {
 132:Generated_Source\PSoC4/I2CS.c ****         /* Initialization was done before this function call */
 133:Generated_Source\PSoC4/I2CS.c ****     }
 134:Generated_Source\PSoC4/I2CS.c **** 
 135:Generated_Source\PSoC4/I2CS.c **** #elif (I2CS_SCB_MODE_I2C_CONST_CFG)
 136:Generated_Source\PSoC4/I2CS.c ****     I2CS_I2CInit();
ARM GAS  C:\Users\jhkim\AppData\Local\Temp\cclRqDXR.s 			page 4


  36              		.loc 1 136 0
  37 0002 FFF7FEFF 		bl	I2CS_I2CInit
  38              	.LVL0:
 137:Generated_Source\PSoC4/I2CS.c **** 
 138:Generated_Source\PSoC4/I2CS.c **** #elif (I2CS_SCB_MODE_SPI_CONST_CFG)
 139:Generated_Source\PSoC4/I2CS.c ****     I2CS_SpiInit();
 140:Generated_Source\PSoC4/I2CS.c **** 
 141:Generated_Source\PSoC4/I2CS.c **** #elif (I2CS_SCB_MODE_UART_CONST_CFG)
 142:Generated_Source\PSoC4/I2CS.c ****     I2CS_UartInit();
 143:Generated_Source\PSoC4/I2CS.c **** 
 144:Generated_Source\PSoC4/I2CS.c **** #elif (I2CS_SCB_MODE_EZI2C_CONST_CFG)
 145:Generated_Source\PSoC4/I2CS.c ****     I2CS_EzI2CInit();
 146:Generated_Source\PSoC4/I2CS.c **** 
 147:Generated_Source\PSoC4/I2CS.c **** #endif /* (I2CS_SCB_MODE_UNCONFIG_CONST_CFG) */
 148:Generated_Source\PSoC4/I2CS.c **** }
  39              		.loc 1 148 0
  40              		@ sp needed
  41 0006 10BD     		pop	{r4, pc}
  42              		.cfi_endproc
  43              	.LFE0:
  44              		.size	I2CS_Init, .-I2CS_Init
  45              		.section	.text.I2CS_Enable,"ax",%progbits
  46              		.align	2
  47              		.global	I2CS_Enable
  48              		.code	16
  49              		.thumb_func
  50              		.type	I2CS_Enable, %function
  51              	I2CS_Enable:
  52              	.LFB1:
 149:Generated_Source\PSoC4/I2CS.c **** 
 150:Generated_Source\PSoC4/I2CS.c **** 
 151:Generated_Source\PSoC4/I2CS.c **** /*******************************************************************************
 152:Generated_Source\PSoC4/I2CS.c **** * Function Name: I2CS_Enable
 153:Generated_Source\PSoC4/I2CS.c **** ****************************************************************************//**
 154:Generated_Source\PSoC4/I2CS.c **** *
 155:Generated_Source\PSoC4/I2CS.c **** *  Enables I2CS component operation: activates the hardware and 
 156:Generated_Source\PSoC4/I2CS.c **** *  internal interrupt. It also restores TX interrupt sources disabled after the 
 157:Generated_Source\PSoC4/I2CS.c **** *  I2CS_Stop() function was called (note that level-triggered TX 
 158:Generated_Source\PSoC4/I2CS.c **** *  interrupt sources remain disabled to not cause code lock-up).
 159:Generated_Source\PSoC4/I2CS.c **** *  For I2C and EZI2C modes the interrupt is internal and mandatory for 
 160:Generated_Source\PSoC4/I2CS.c **** *  operation. For SPI and UART modes the interrupt can be configured as none, 
 161:Generated_Source\PSoC4/I2CS.c **** *  internal or external.
 162:Generated_Source\PSoC4/I2CS.c **** *  The I2CS configuration should be not changed when the component
 163:Generated_Source\PSoC4/I2CS.c **** *  is enabled. Any configuration changes should be made after disabling the 
 164:Generated_Source\PSoC4/I2CS.c **** *  component.
 165:Generated_Source\PSoC4/I2CS.c **** *  When configuration is set to “Unconfigured I2CS”, the component 
 166:Generated_Source\PSoC4/I2CS.c **** *  must first be initialized to operate in one of the following configurations: 
 167:Generated_Source\PSoC4/I2CS.c **** *  I2C, SPI, UART or EZ I2C, using the mode-specific initialization API. 
 168:Generated_Source\PSoC4/I2CS.c **** *  Otherwise this function does not enable the component.
 169:Generated_Source\PSoC4/I2CS.c **** *
 170:Generated_Source\PSoC4/I2CS.c **** *******************************************************************************/
 171:Generated_Source\PSoC4/I2CS.c **** void I2CS_Enable(void)
 172:Generated_Source\PSoC4/I2CS.c **** {
  53              		.loc 1 172 0
  54              		.cfi_startproc
  55              		@ args = 0, pretend = 0, frame = 0
  56              		@ frame_needed = 0, uses_anonymous_args = 0
ARM GAS  C:\Users\jhkim\AppData\Local\Temp\cclRqDXR.s 			page 5


 173:Generated_Source\PSoC4/I2CS.c **** #if (I2CS_SCB_MODE_UNCONFIG_CONST_CFG)
 174:Generated_Source\PSoC4/I2CS.c ****     /* Enable SCB block, only if it is already configured */
 175:Generated_Source\PSoC4/I2CS.c ****     if (!I2CS_SCB_MODE_UNCONFIG_RUNTM_CFG)
 176:Generated_Source\PSoC4/I2CS.c ****     {
 177:Generated_Source\PSoC4/I2CS.c ****         I2CS_CTRL_REG |= I2CS_CTRL_ENABLED;
 178:Generated_Source\PSoC4/I2CS.c **** 
 179:Generated_Source\PSoC4/I2CS.c ****         I2CS_ScbEnableIntr();
 180:Generated_Source\PSoC4/I2CS.c **** 
 181:Generated_Source\PSoC4/I2CS.c ****         /* Call PostEnable function specific to current operation mode */
 182:Generated_Source\PSoC4/I2CS.c ****         I2CS_ScbModePostEnable();
 183:Generated_Source\PSoC4/I2CS.c ****     }
 184:Generated_Source\PSoC4/I2CS.c **** #else
 185:Generated_Source\PSoC4/I2CS.c ****     I2CS_CTRL_REG |= I2CS_CTRL_ENABLED;
  57              		.loc 1 185 0
  58 0000 8021     		movs	r1, #128
  59 0002 054A     		ldr	r2, .L3
 172:Generated_Source\PSoC4/I2CS.c **** #if (I2CS_SCB_MODE_UNCONFIG_CONST_CFG)
  60              		.loc 1 172 0
  61 0004 10B5     		push	{r4, lr}
  62              		.cfi_def_cfa_offset 8
  63              		.cfi_offset 4, -8
  64              		.cfi_offset 14, -4
  65              		.loc 1 185 0
  66 0006 1368     		ldr	r3, [r2]
  67 0008 0906     		lsls	r1, r1, #24
  68 000a 0B43     		orrs	r3, r1
  69 000c 1360     		str	r3, [r2]
  70              	.LBB14:
  71              	.LBB15:
 186:Generated_Source\PSoC4/I2CS.c **** 
 187:Generated_Source\PSoC4/I2CS.c ****     I2CS_ScbEnableIntr();
 188:Generated_Source\PSoC4/I2CS.c **** 
 189:Generated_Source\PSoC4/I2CS.c ****     /* Call PostEnable function specific to current operation mode */
 190:Generated_Source\PSoC4/I2CS.c ****     I2CS_ScbModePostEnable();
 191:Generated_Source\PSoC4/I2CS.c **** #endif /* (I2CS_SCB_MODE_UNCONFIG_CONST_CFG) */
 192:Generated_Source\PSoC4/I2CS.c **** }
 193:Generated_Source\PSoC4/I2CS.c **** 
 194:Generated_Source\PSoC4/I2CS.c **** 
 195:Generated_Source\PSoC4/I2CS.c **** /*******************************************************************************
 196:Generated_Source\PSoC4/I2CS.c **** * Function Name: I2CS_Start
 197:Generated_Source\PSoC4/I2CS.c **** ****************************************************************************//**
 198:Generated_Source\PSoC4/I2CS.c **** *
 199:Generated_Source\PSoC4/I2CS.c **** *  Invokes I2CS_Init() and I2CS_Enable().
 200:Generated_Source\PSoC4/I2CS.c **** *  After this function call, the component is enabled and ready for operation.
 201:Generated_Source\PSoC4/I2CS.c **** *  When configuration is set to "Unconfigured SCB", the component must first be
 202:Generated_Source\PSoC4/I2CS.c **** *  initialized to operate in one of the following configurations: I2C, SPI, UART
 203:Generated_Source\PSoC4/I2CS.c **** *  or EZI2C. Otherwise this function does not enable the component.
 204:Generated_Source\PSoC4/I2CS.c **** *
 205:Generated_Source\PSoC4/I2CS.c **** * \globalvars
 206:Generated_Source\PSoC4/I2CS.c **** *  I2CS_initVar - used to check initial configuration, modified
 207:Generated_Source\PSoC4/I2CS.c **** *  on first function call.
 208:Generated_Source\PSoC4/I2CS.c **** *
 209:Generated_Source\PSoC4/I2CS.c **** *******************************************************************************/
 210:Generated_Source\PSoC4/I2CS.c **** void I2CS_Start(void)
 211:Generated_Source\PSoC4/I2CS.c **** {
 212:Generated_Source\PSoC4/I2CS.c ****     if (0u == I2CS_initVar)
 213:Generated_Source\PSoC4/I2CS.c ****     {
ARM GAS  C:\Users\jhkim\AppData\Local\Temp\cclRqDXR.s 			page 6


 214:Generated_Source\PSoC4/I2CS.c ****         I2CS_Init();
 215:Generated_Source\PSoC4/I2CS.c ****         I2CS_initVar = 1u; /* Component was initialized */
 216:Generated_Source\PSoC4/I2CS.c ****     }
 217:Generated_Source\PSoC4/I2CS.c **** 
 218:Generated_Source\PSoC4/I2CS.c ****     I2CS_Enable();
 219:Generated_Source\PSoC4/I2CS.c **** }
 220:Generated_Source\PSoC4/I2CS.c **** 
 221:Generated_Source\PSoC4/I2CS.c **** 
 222:Generated_Source\PSoC4/I2CS.c **** /*******************************************************************************
 223:Generated_Source\PSoC4/I2CS.c **** * Function Name: I2CS_Stop
 224:Generated_Source\PSoC4/I2CS.c **** ****************************************************************************//**
 225:Generated_Source\PSoC4/I2CS.c **** *
 226:Generated_Source\PSoC4/I2CS.c **** *  Disables the I2CS component: disable the hardware and internal 
 227:Generated_Source\PSoC4/I2CS.c **** *  interrupt. It also disables all TX interrupt sources so as not to cause an 
 228:Generated_Source\PSoC4/I2CS.c **** *  unexpected interrupt trigger because after the component is enabled, the 
 229:Generated_Source\PSoC4/I2CS.c **** *  TX FIFO is empty.
 230:Generated_Source\PSoC4/I2CS.c **** *  Refer to the function I2CS_Enable() for the interrupt 
 231:Generated_Source\PSoC4/I2CS.c **** *  configuration details.
 232:Generated_Source\PSoC4/I2CS.c **** *  This function disables the SCB component without checking to see if 
 233:Generated_Source\PSoC4/I2CS.c **** *  communication is in progress. Before calling this function it may be 
 234:Generated_Source\PSoC4/I2CS.c **** *  necessary to check the status of communication to make sure communication 
 235:Generated_Source\PSoC4/I2CS.c **** *  is complete. If this is not done then communication could be stopped mid 
 236:Generated_Source\PSoC4/I2CS.c **** *  byte and corrupted data could result.
 237:Generated_Source\PSoC4/I2CS.c **** *
 238:Generated_Source\PSoC4/I2CS.c **** *******************************************************************************/
 239:Generated_Source\PSoC4/I2CS.c **** void I2CS_Stop(void)
 240:Generated_Source\PSoC4/I2CS.c **** {
 241:Generated_Source\PSoC4/I2CS.c **** #if (I2CS_SCB_IRQ_INTERNAL)
 242:Generated_Source\PSoC4/I2CS.c ****     I2CS_DisableInt();
 243:Generated_Source\PSoC4/I2CS.c **** #endif /* (I2CS_SCB_IRQ_INTERNAL) */
 244:Generated_Source\PSoC4/I2CS.c **** 
 245:Generated_Source\PSoC4/I2CS.c ****     /* Call Stop function specific to current operation mode */
 246:Generated_Source\PSoC4/I2CS.c ****     I2CS_ScbModeStop();
 247:Generated_Source\PSoC4/I2CS.c **** 
 248:Generated_Source\PSoC4/I2CS.c ****     /* Disable SCB IP */
 249:Generated_Source\PSoC4/I2CS.c ****     I2CS_CTRL_REG &= (uint32) ~I2CS_CTRL_ENABLED;
 250:Generated_Source\PSoC4/I2CS.c **** 
 251:Generated_Source\PSoC4/I2CS.c ****     /* Disable all TX interrupt sources so as not to cause an unexpected
 252:Generated_Source\PSoC4/I2CS.c ****     * interrupt trigger after the component will be enabled because the 
 253:Generated_Source\PSoC4/I2CS.c ****     * TX FIFO is empty.
 254:Generated_Source\PSoC4/I2CS.c ****     * For SCB IP v0, it is critical as it does not mask-out interrupt
 255:Generated_Source\PSoC4/I2CS.c ****     * sources when it is disabled. This can cause a code lock-up in the
 256:Generated_Source\PSoC4/I2CS.c ****     * interrupt handler because TX FIFO cannot be loaded after the block
 257:Generated_Source\PSoC4/I2CS.c ****     * is disabled.
 258:Generated_Source\PSoC4/I2CS.c ****     */
 259:Generated_Source\PSoC4/I2CS.c ****     I2CS_SetTxInterruptMode(I2CS_NO_INTR_SOURCES);
 260:Generated_Source\PSoC4/I2CS.c **** 
 261:Generated_Source\PSoC4/I2CS.c **** #if (I2CS_SCB_IRQ_INTERNAL)
 262:Generated_Source\PSoC4/I2CS.c ****     I2CS_ClearPendingInt();
 263:Generated_Source\PSoC4/I2CS.c **** #endif /* (I2CS_SCB_IRQ_INTERNAL) */
 264:Generated_Source\PSoC4/I2CS.c **** }
 265:Generated_Source\PSoC4/I2CS.c **** 
 266:Generated_Source\PSoC4/I2CS.c **** 
 267:Generated_Source\PSoC4/I2CS.c **** /*******************************************************************************
 268:Generated_Source\PSoC4/I2CS.c **** * Function Name: I2CS_SetRxFifoLevel
 269:Generated_Source\PSoC4/I2CS.c **** ****************************************************************************//**
 270:Generated_Source\PSoC4/I2CS.c **** *
ARM GAS  C:\Users\jhkim\AppData\Local\Temp\cclRqDXR.s 			page 7


 271:Generated_Source\PSoC4/I2CS.c **** *  Sets level in the RX FIFO to generate a RX level interrupt.
 272:Generated_Source\PSoC4/I2CS.c **** *  When the RX FIFO has more entries than the RX FIFO level an RX level
 273:Generated_Source\PSoC4/I2CS.c **** *  interrupt request is generated.
 274:Generated_Source\PSoC4/I2CS.c **** *
 275:Generated_Source\PSoC4/I2CS.c **** *  \param level: Level in the RX FIFO to generate RX level interrupt.
 276:Generated_Source\PSoC4/I2CS.c **** *   The range of valid level values is between 0 and RX FIFO depth - 1.
 277:Generated_Source\PSoC4/I2CS.c **** *
 278:Generated_Source\PSoC4/I2CS.c **** *******************************************************************************/
 279:Generated_Source\PSoC4/I2CS.c **** void I2CS_SetRxFifoLevel(uint32 level)
 280:Generated_Source\PSoC4/I2CS.c **** {
 281:Generated_Source\PSoC4/I2CS.c ****     uint32 rxFifoCtrl;
 282:Generated_Source\PSoC4/I2CS.c **** 
 283:Generated_Source\PSoC4/I2CS.c ****     rxFifoCtrl = I2CS_RX_FIFO_CTRL_REG;
 284:Generated_Source\PSoC4/I2CS.c **** 
 285:Generated_Source\PSoC4/I2CS.c ****     rxFifoCtrl &= ((uint32) ~I2CS_RX_FIFO_CTRL_TRIGGER_LEVEL_MASK); /* Clear level mask bits */
 286:Generated_Source\PSoC4/I2CS.c ****     rxFifoCtrl |= ((uint32) (I2CS_RX_FIFO_CTRL_TRIGGER_LEVEL_MASK & level));
 287:Generated_Source\PSoC4/I2CS.c **** 
 288:Generated_Source\PSoC4/I2CS.c ****     I2CS_RX_FIFO_CTRL_REG = rxFifoCtrl;
 289:Generated_Source\PSoC4/I2CS.c **** }
 290:Generated_Source\PSoC4/I2CS.c **** 
 291:Generated_Source\PSoC4/I2CS.c **** 
 292:Generated_Source\PSoC4/I2CS.c **** /*******************************************************************************
 293:Generated_Source\PSoC4/I2CS.c **** * Function Name: I2CS_SetTxFifoLevel
 294:Generated_Source\PSoC4/I2CS.c **** ****************************************************************************//**
 295:Generated_Source\PSoC4/I2CS.c **** *
 296:Generated_Source\PSoC4/I2CS.c **** *  Sets level in the TX FIFO to generate a TX level interrupt.
 297:Generated_Source\PSoC4/I2CS.c **** *  When the TX FIFO has less entries than the TX FIFO level an TX level
 298:Generated_Source\PSoC4/I2CS.c **** *  interrupt request is generated.
 299:Generated_Source\PSoC4/I2CS.c **** *
 300:Generated_Source\PSoC4/I2CS.c **** *  \param level: Level in the TX FIFO to generate TX level interrupt.
 301:Generated_Source\PSoC4/I2CS.c **** *   The range of valid level values is between 0 and TX FIFO depth - 1.
 302:Generated_Source\PSoC4/I2CS.c **** *
 303:Generated_Source\PSoC4/I2CS.c **** *******************************************************************************/
 304:Generated_Source\PSoC4/I2CS.c **** void I2CS_SetTxFifoLevel(uint32 level)
 305:Generated_Source\PSoC4/I2CS.c **** {
 306:Generated_Source\PSoC4/I2CS.c ****     uint32 txFifoCtrl;
 307:Generated_Source\PSoC4/I2CS.c **** 
 308:Generated_Source\PSoC4/I2CS.c ****     txFifoCtrl = I2CS_TX_FIFO_CTRL_REG;
 309:Generated_Source\PSoC4/I2CS.c **** 
 310:Generated_Source\PSoC4/I2CS.c ****     txFifoCtrl &= ((uint32) ~I2CS_TX_FIFO_CTRL_TRIGGER_LEVEL_MASK); /* Clear level mask bits */
 311:Generated_Source\PSoC4/I2CS.c ****     txFifoCtrl |= ((uint32) (I2CS_TX_FIFO_CTRL_TRIGGER_LEVEL_MASK & level));
 312:Generated_Source\PSoC4/I2CS.c **** 
 313:Generated_Source\PSoC4/I2CS.c ****     I2CS_TX_FIFO_CTRL_REG = txFifoCtrl;
 314:Generated_Source\PSoC4/I2CS.c **** }
 315:Generated_Source\PSoC4/I2CS.c **** 
 316:Generated_Source\PSoC4/I2CS.c **** 
 317:Generated_Source\PSoC4/I2CS.c **** #if (I2CS_SCB_IRQ_INTERNAL)
 318:Generated_Source\PSoC4/I2CS.c ****     /*******************************************************************************
 319:Generated_Source\PSoC4/I2CS.c ****     * Function Name: I2CS_SetCustomInterruptHandler
 320:Generated_Source\PSoC4/I2CS.c ****     ****************************************************************************//**
 321:Generated_Source\PSoC4/I2CS.c ****     *
 322:Generated_Source\PSoC4/I2CS.c ****     *  Registers a function to be called by the internal interrupt handler.
 323:Generated_Source\PSoC4/I2CS.c ****     *  First the function that is registered is called, then the internal interrupt
 324:Generated_Source\PSoC4/I2CS.c ****     *  handler performs any operation such as software buffer management functions
 325:Generated_Source\PSoC4/I2CS.c ****     *  before the interrupt returns.  It is the user's responsibility not to break
 326:Generated_Source\PSoC4/I2CS.c ****     *  the software buffer operations. Only one custom handler is supported, which
 327:Generated_Source\PSoC4/I2CS.c ****     *  is the function provided by the most recent call.
ARM GAS  C:\Users\jhkim\AppData\Local\Temp\cclRqDXR.s 			page 8


 328:Generated_Source\PSoC4/I2CS.c ****     *  At the initialization time no custom handler is registered.
 329:Generated_Source\PSoC4/I2CS.c ****     *
 330:Generated_Source\PSoC4/I2CS.c ****     *  \param func: Pointer to the function to register.
 331:Generated_Source\PSoC4/I2CS.c ****     *        The value NULL indicates to remove the current custom interrupt
 332:Generated_Source\PSoC4/I2CS.c ****     *        handler.
 333:Generated_Source\PSoC4/I2CS.c ****     *
 334:Generated_Source\PSoC4/I2CS.c ****     *******************************************************************************/
 335:Generated_Source\PSoC4/I2CS.c ****     void I2CS_SetCustomInterruptHandler(void (*func)(void))
 336:Generated_Source\PSoC4/I2CS.c ****     {
 337:Generated_Source\PSoC4/I2CS.c ****     #if !defined (CY_REMOVE_I2CS_CUSTOM_INTR_HANDLER)
 338:Generated_Source\PSoC4/I2CS.c ****         I2CS_customIntrHandler = func; /* Register interrupt handler */
 339:Generated_Source\PSoC4/I2CS.c ****     #else
 340:Generated_Source\PSoC4/I2CS.c ****         if (NULL != func)
 341:Generated_Source\PSoC4/I2CS.c ****         {
 342:Generated_Source\PSoC4/I2CS.c ****             /* Suppress compiler warning */
 343:Generated_Source\PSoC4/I2CS.c ****         }
 344:Generated_Source\PSoC4/I2CS.c ****     #endif /* !defined (CY_REMOVE_I2CS_CUSTOM_INTR_HANDLER) */
 345:Generated_Source\PSoC4/I2CS.c ****     }
 346:Generated_Source\PSoC4/I2CS.c **** #endif /* (I2CS_SCB_IRQ_INTERNAL) */
 347:Generated_Source\PSoC4/I2CS.c **** 
 348:Generated_Source\PSoC4/I2CS.c **** 
 349:Generated_Source\PSoC4/I2CS.c **** /*******************************************************************************
 350:Generated_Source\PSoC4/I2CS.c **** * Function Name: I2CS_ScbModeEnableIntr
 351:Generated_Source\PSoC4/I2CS.c **** ****************************************************************************//**
 352:Generated_Source\PSoC4/I2CS.c **** *
 353:Generated_Source\PSoC4/I2CS.c **** *  Enables an interrupt for a specific mode.
 354:Generated_Source\PSoC4/I2CS.c **** *
 355:Generated_Source\PSoC4/I2CS.c **** *******************************************************************************/
 356:Generated_Source\PSoC4/I2CS.c **** static void I2CS_ScbEnableIntr(void)
 357:Generated_Source\PSoC4/I2CS.c **** {
 358:Generated_Source\PSoC4/I2CS.c **** #if (I2CS_SCB_IRQ_INTERNAL)
 359:Generated_Source\PSoC4/I2CS.c ****     /* Enable interrupt in NVIC */
 360:Generated_Source\PSoC4/I2CS.c ****     #if (I2CS_SCB_MODE_UNCONFIG_CONST_CFG)
 361:Generated_Source\PSoC4/I2CS.c ****         if (0u != I2CS_scbEnableIntr)
 362:Generated_Source\PSoC4/I2CS.c ****         {
 363:Generated_Source\PSoC4/I2CS.c ****             I2CS_EnableInt();
 364:Generated_Source\PSoC4/I2CS.c ****         }
 365:Generated_Source\PSoC4/I2CS.c **** 
 366:Generated_Source\PSoC4/I2CS.c ****     #else
 367:Generated_Source\PSoC4/I2CS.c ****         I2CS_EnableInt();
  72              		.loc 1 367 0
  73 000e 0520     		movs	r0, #5
  74 0010 FFF7FEFF 		bl	CyIntEnable
  75              	.LVL1:
  76              	.LBE15:
  77              	.LBE14:
 192:Generated_Source\PSoC4/I2CS.c **** 
  78              		.loc 1 192 0
  79              		@ sp needed
  80 0014 10BD     		pop	{r4, pc}
  81              	.L4:
  82 0016 C046     		.align	2
  83              	.L3:
  84 0018 00000640 		.word	1074135040
  85              		.cfi_endproc
  86              	.LFE1:
  87              		.size	I2CS_Enable, .-I2CS_Enable
ARM GAS  C:\Users\jhkim\AppData\Local\Temp\cclRqDXR.s 			page 9


  88              		.section	.text.I2CS_Start,"ax",%progbits
  89              		.align	2
  90              		.global	I2CS_Start
  91              		.code	16
  92              		.thumb_func
  93              		.type	I2CS_Start, %function
  94              	I2CS_Start:
  95              	.LFB2:
 211:Generated_Source\PSoC4/I2CS.c ****     if (0u == I2CS_initVar)
  96              		.loc 1 211 0
  97              		.cfi_startproc
  98              		@ args = 0, pretend = 0, frame = 0
  99              		@ frame_needed = 0, uses_anonymous_args = 0
 100 0000 10B5     		push	{r4, lr}
 101              		.cfi_def_cfa_offset 8
 102              		.cfi_offset 4, -8
 103              		.cfi_offset 14, -4
 212:Generated_Source\PSoC4/I2CS.c ****     {
 104              		.loc 1 212 0
 105 0002 094C     		ldr	r4, .L8
 106 0004 2378     		ldrb	r3, [r4]
 107 0006 002B     		cmp	r3, #0
 108 0008 03D1     		bne	.L6
 109              	.LBB16:
 110              	.LBB17:
 136:Generated_Source\PSoC4/I2CS.c **** 
 111              		.loc 1 136 0
 112 000a FFF7FEFF 		bl	I2CS_I2CInit
 113              	.LVL2:
 114              	.LBE17:
 115              	.LBE16:
 215:Generated_Source\PSoC4/I2CS.c ****     }
 116              		.loc 1 215 0
 117 000e 0123     		movs	r3, #1
 118 0010 2370     		strb	r3, [r4]
 119              	.L6:
 120              	.LBB18:
 121              	.LBB19:
 185:Generated_Source\PSoC4/I2CS.c **** 
 122              		.loc 1 185 0
 123 0012 8021     		movs	r1, #128
 124 0014 054A     		ldr	r2, .L8+4
 125 0016 0906     		lsls	r1, r1, #24
 126 0018 1368     		ldr	r3, [r2]
 127              	.LBB20:
 128              	.LBB21:
 129              		.loc 1 367 0
 130 001a 0520     		movs	r0, #5
 131              	.LBE21:
 132              	.LBE20:
 185:Generated_Source\PSoC4/I2CS.c **** 
 133              		.loc 1 185 0
 134 001c 0B43     		orrs	r3, r1
 135 001e 1360     		str	r3, [r2]
 136              	.LBB23:
 137              	.LBB22:
 138              		.loc 1 367 0
ARM GAS  C:\Users\jhkim\AppData\Local\Temp\cclRqDXR.s 			page 10


 139 0020 FFF7FEFF 		bl	CyIntEnable
 140              	.LVL3:
 141              	.LBE22:
 142              	.LBE23:
 143              	.LBE19:
 144              	.LBE18:
 219:Generated_Source\PSoC4/I2CS.c **** 
 145              		.loc 1 219 0
 146              		@ sp needed
 147 0024 10BD     		pop	{r4, pc}
 148              	.L9:
 149 0026 C046     		.align	2
 150              	.L8:
 151 0028 00000000 		.word	.LANCHOR0
 152 002c 00000640 		.word	1074135040
 153              		.cfi_endproc
 154              	.LFE2:
 155              		.size	I2CS_Start, .-I2CS_Start
 156              		.section	.text.I2CS_Stop,"ax",%progbits
 157              		.align	2
 158              		.global	I2CS_Stop
 159              		.code	16
 160              		.thumb_func
 161              		.type	I2CS_Stop, %function
 162              	I2CS_Stop:
 163              	.LFB3:
 240:Generated_Source\PSoC4/I2CS.c **** #if (I2CS_SCB_IRQ_INTERNAL)
 164              		.loc 1 240 0
 165              		.cfi_startproc
 166              		@ args = 0, pretend = 0, frame = 0
 167              		@ frame_needed = 0, uses_anonymous_args = 0
 168 0000 10B5     		push	{r4, lr}
 169              		.cfi_def_cfa_offset 8
 170              		.cfi_offset 4, -8
 171              		.cfi_offset 14, -4
 242:Generated_Source\PSoC4/I2CS.c **** #endif /* (I2CS_SCB_IRQ_INTERNAL) */
 172              		.loc 1 242 0
 173 0002 0520     		movs	r0, #5
 174 0004 FFF7FEFF 		bl	CyIntDisable
 175              	.LVL4:
 176              	.LBB24:
 177              	.LBB25:
 368:Generated_Source\PSoC4/I2CS.c **** 
 369:Generated_Source\PSoC4/I2CS.c ****     #endif /* (I2CS_SCB_MODE_UNCONFIG_CONST_CFG) */
 370:Generated_Source\PSoC4/I2CS.c **** #endif /* (I2CS_SCB_IRQ_INTERNAL) */
 371:Generated_Source\PSoC4/I2CS.c **** }
 372:Generated_Source\PSoC4/I2CS.c **** 
 373:Generated_Source\PSoC4/I2CS.c **** 
 374:Generated_Source\PSoC4/I2CS.c **** /*******************************************************************************
 375:Generated_Source\PSoC4/I2CS.c **** * Function Name: I2CS_ScbModePostEnable
 376:Generated_Source\PSoC4/I2CS.c **** ****************************************************************************//**
 377:Generated_Source\PSoC4/I2CS.c **** *
 378:Generated_Source\PSoC4/I2CS.c **** *  Calls the PostEnable function for a specific operation mode.
 379:Generated_Source\PSoC4/I2CS.c **** *
 380:Generated_Source\PSoC4/I2CS.c **** *******************************************************************************/
 381:Generated_Source\PSoC4/I2CS.c **** static void I2CS_ScbModePostEnable(void)
 382:Generated_Source\PSoC4/I2CS.c **** {
ARM GAS  C:\Users\jhkim\AppData\Local\Temp\cclRqDXR.s 			page 11


 383:Generated_Source\PSoC4/I2CS.c **** #if (I2CS_SCB_MODE_UNCONFIG_CONST_CFG)
 384:Generated_Source\PSoC4/I2CS.c **** #if (!I2CS_CY_SCBIP_V1)
 385:Generated_Source\PSoC4/I2CS.c ****     if (I2CS_SCB_MODE_SPI_RUNTM_CFG)
 386:Generated_Source\PSoC4/I2CS.c ****     {
 387:Generated_Source\PSoC4/I2CS.c ****         I2CS_SpiPostEnable();
 388:Generated_Source\PSoC4/I2CS.c ****     }
 389:Generated_Source\PSoC4/I2CS.c ****     else if (I2CS_SCB_MODE_UART_RUNTM_CFG)
 390:Generated_Source\PSoC4/I2CS.c ****     {
 391:Generated_Source\PSoC4/I2CS.c ****         I2CS_UartPostEnable();
 392:Generated_Source\PSoC4/I2CS.c ****     }
 393:Generated_Source\PSoC4/I2CS.c ****     else
 394:Generated_Source\PSoC4/I2CS.c ****     {
 395:Generated_Source\PSoC4/I2CS.c ****         /* Unknown mode: do nothing */
 396:Generated_Source\PSoC4/I2CS.c ****     }
 397:Generated_Source\PSoC4/I2CS.c **** #endif /* (!I2CS_CY_SCBIP_V1) */
 398:Generated_Source\PSoC4/I2CS.c **** 
 399:Generated_Source\PSoC4/I2CS.c **** #elif (I2CS_SCB_MODE_SPI_CONST_CFG)
 400:Generated_Source\PSoC4/I2CS.c ****     I2CS_SpiPostEnable();
 401:Generated_Source\PSoC4/I2CS.c **** 
 402:Generated_Source\PSoC4/I2CS.c **** #elif (I2CS_SCB_MODE_UART_CONST_CFG)
 403:Generated_Source\PSoC4/I2CS.c ****     I2CS_UartPostEnable();
 404:Generated_Source\PSoC4/I2CS.c **** 
 405:Generated_Source\PSoC4/I2CS.c **** #else
 406:Generated_Source\PSoC4/I2CS.c ****     /* Unknown mode: do nothing */
 407:Generated_Source\PSoC4/I2CS.c **** #endif /* (I2CS_SCB_MODE_UNCONFIG_CONST_CFG) */
 408:Generated_Source\PSoC4/I2CS.c **** }
 409:Generated_Source\PSoC4/I2CS.c **** 
 410:Generated_Source\PSoC4/I2CS.c **** 
 411:Generated_Source\PSoC4/I2CS.c **** /*******************************************************************************
 412:Generated_Source\PSoC4/I2CS.c **** * Function Name: I2CS_ScbModeStop
 413:Generated_Source\PSoC4/I2CS.c **** ****************************************************************************//**
 414:Generated_Source\PSoC4/I2CS.c **** *
 415:Generated_Source\PSoC4/I2CS.c **** *  Calls the Stop function for a specific operation mode.
 416:Generated_Source\PSoC4/I2CS.c **** *
 417:Generated_Source\PSoC4/I2CS.c **** *******************************************************************************/
 418:Generated_Source\PSoC4/I2CS.c **** static void I2CS_ScbModeStop(void)
 419:Generated_Source\PSoC4/I2CS.c **** {
 420:Generated_Source\PSoC4/I2CS.c **** #if (I2CS_SCB_MODE_UNCONFIG_CONST_CFG)
 421:Generated_Source\PSoC4/I2CS.c ****     if (I2CS_SCB_MODE_I2C_RUNTM_CFG)
 422:Generated_Source\PSoC4/I2CS.c ****     {
 423:Generated_Source\PSoC4/I2CS.c ****         I2CS_I2CStop();
 424:Generated_Source\PSoC4/I2CS.c ****     }
 425:Generated_Source\PSoC4/I2CS.c ****     else if (I2CS_SCB_MODE_EZI2C_RUNTM_CFG)
 426:Generated_Source\PSoC4/I2CS.c ****     {
 427:Generated_Source\PSoC4/I2CS.c ****         I2CS_EzI2CStop();
 428:Generated_Source\PSoC4/I2CS.c ****     }
 429:Generated_Source\PSoC4/I2CS.c **** #if (!I2CS_CY_SCBIP_V1)
 430:Generated_Source\PSoC4/I2CS.c ****     else if (I2CS_SCB_MODE_SPI_RUNTM_CFG)
 431:Generated_Source\PSoC4/I2CS.c ****     {
 432:Generated_Source\PSoC4/I2CS.c ****         I2CS_SpiStop();
 433:Generated_Source\PSoC4/I2CS.c ****     }
 434:Generated_Source\PSoC4/I2CS.c ****     else if (I2CS_SCB_MODE_UART_RUNTM_CFG)
 435:Generated_Source\PSoC4/I2CS.c ****     {
 436:Generated_Source\PSoC4/I2CS.c ****         I2CS_UartStop();
 437:Generated_Source\PSoC4/I2CS.c ****     }
 438:Generated_Source\PSoC4/I2CS.c **** #endif /* (!I2CS_CY_SCBIP_V1) */
 439:Generated_Source\PSoC4/I2CS.c ****     else
ARM GAS  C:\Users\jhkim\AppData\Local\Temp\cclRqDXR.s 			page 12


 440:Generated_Source\PSoC4/I2CS.c ****     {
 441:Generated_Source\PSoC4/I2CS.c ****         /* Unknown mode: do nothing */
 442:Generated_Source\PSoC4/I2CS.c ****     }
 443:Generated_Source\PSoC4/I2CS.c **** #elif (I2CS_SCB_MODE_I2C_CONST_CFG)
 444:Generated_Source\PSoC4/I2CS.c ****     I2CS_I2CStop();
 178              		.loc 1 444 0
 179 0008 FFF7FEFF 		bl	I2CS_I2CStop
 180              	.LVL5:
 181              	.LBE25:
 182              	.LBE24:
 249:Generated_Source\PSoC4/I2CS.c **** 
 183              		.loc 1 249 0
 184 000c 054A     		ldr	r2, .L11
 262:Generated_Source\PSoC4/I2CS.c **** #endif /* (I2CS_SCB_IRQ_INTERNAL) */
 185              		.loc 1 262 0
 186 000e 0520     		movs	r0, #5
 249:Generated_Source\PSoC4/I2CS.c **** 
 187              		.loc 1 249 0
 188 0010 1368     		ldr	r3, [r2]
 264:Generated_Source\PSoC4/I2CS.c **** 
 189              		.loc 1 264 0
 190              		@ sp needed
 249:Generated_Source\PSoC4/I2CS.c **** 
 191              		.loc 1 249 0
 192 0012 5B00     		lsls	r3, r3, #1
 193 0014 5B08     		lsrs	r3, r3, #1
 194 0016 1360     		str	r3, [r2]
 259:Generated_Source\PSoC4/I2CS.c **** 
 195              		.loc 1 259 0
 196 0018 0022     		movs	r2, #0
 197 001a 034B     		ldr	r3, .L11+4
 198 001c 1A60     		str	r2, [r3]
 262:Generated_Source\PSoC4/I2CS.c **** #endif /* (I2CS_SCB_IRQ_INTERNAL) */
 199              		.loc 1 262 0
 200 001e FFF7FEFF 		bl	CyIntClearPending
 201              	.LVL6:
 264:Generated_Source\PSoC4/I2CS.c **** 
 202              		.loc 1 264 0
 203 0022 10BD     		pop	{r4, pc}
 204              	.L12:
 205              		.align	2
 206              	.L11:
 207 0024 00000640 		.word	1074135040
 208 0028 880F0640 		.word	1074139016
 209              		.cfi_endproc
 210              	.LFE3:
 211              		.size	I2CS_Stop, .-I2CS_Stop
 212              		.section	.text.I2CS_SetRxFifoLevel,"ax",%progbits
 213              		.align	2
 214              		.global	I2CS_SetRxFifoLevel
 215              		.code	16
 216              		.thumb_func
 217              		.type	I2CS_SetRxFifoLevel, %function
 218              	I2CS_SetRxFifoLevel:
 219              	.LFB4:
 280:Generated_Source\PSoC4/I2CS.c ****     uint32 rxFifoCtrl;
 220              		.loc 1 280 0
ARM GAS  C:\Users\jhkim\AppData\Local\Temp\cclRqDXR.s 			page 13


 221              		.cfi_startproc
 222              		@ args = 0, pretend = 0, frame = 0
 223              		@ frame_needed = 0, uses_anonymous_args = 0
 224              		@ link register save eliminated.
 225              	.LVL7:
 285:Generated_Source\PSoC4/I2CS.c ****     rxFifoCtrl |= ((uint32) (I2CS_RX_FIFO_CTRL_TRIGGER_LEVEL_MASK & level));
 226              		.loc 1 285 0
 227 0000 0721     		movs	r1, #7
 283:Generated_Source\PSoC4/I2CS.c **** 
 228              		.loc 1 283 0
 229 0002 034A     		ldr	r2, .L14
 286:Generated_Source\PSoC4/I2CS.c **** 
 230              		.loc 1 286 0
 231 0004 0840     		ands	r0, r1
 232              	.LVL8:
 283:Generated_Source\PSoC4/I2CS.c **** 
 233              		.loc 1 283 0
 234 0006 1368     		ldr	r3, [r2]
 235              	.LVL9:
 289:Generated_Source\PSoC4/I2CS.c **** 
 236              		.loc 1 289 0
 237              		@ sp needed
 285:Generated_Source\PSoC4/I2CS.c ****     rxFifoCtrl |= ((uint32) (I2CS_RX_FIFO_CTRL_TRIGGER_LEVEL_MASK & level));
 238              		.loc 1 285 0
 239 0008 8B43     		bics	r3, r1
 240              	.LVL10:
 286:Generated_Source\PSoC4/I2CS.c **** 
 241              		.loc 1 286 0
 242 000a 1843     		orrs	r0, r3
 243              	.LVL11:
 288:Generated_Source\PSoC4/I2CS.c **** }
 244              		.loc 1 288 0
 245 000c 1060     		str	r0, [r2]
 289:Generated_Source\PSoC4/I2CS.c **** 
 246              		.loc 1 289 0
 247 000e 7047     		bx	lr
 248              	.L15:
 249              		.align	2
 250              	.L14:
 251 0010 04030640 		.word	1074135812
 252              		.cfi_endproc
 253              	.LFE4:
 254              		.size	I2CS_SetRxFifoLevel, .-I2CS_SetRxFifoLevel
 255              		.section	.text.I2CS_SetTxFifoLevel,"ax",%progbits
 256              		.align	2
 257              		.global	I2CS_SetTxFifoLevel
 258              		.code	16
 259              		.thumb_func
 260              		.type	I2CS_SetTxFifoLevel, %function
 261              	I2CS_SetTxFifoLevel:
 262              	.LFB5:
 305:Generated_Source\PSoC4/I2CS.c ****     uint32 txFifoCtrl;
 263              		.loc 1 305 0
 264              		.cfi_startproc
 265              		@ args = 0, pretend = 0, frame = 0
 266              		@ frame_needed = 0, uses_anonymous_args = 0
 267              		@ link register save eliminated.
ARM GAS  C:\Users\jhkim\AppData\Local\Temp\cclRqDXR.s 			page 14


 268              	.LVL12:
 310:Generated_Source\PSoC4/I2CS.c ****     txFifoCtrl |= ((uint32) (I2CS_TX_FIFO_CTRL_TRIGGER_LEVEL_MASK & level));
 269              		.loc 1 310 0
 270 0000 0721     		movs	r1, #7
 308:Generated_Source\PSoC4/I2CS.c **** 
 271              		.loc 1 308 0
 272 0002 034A     		ldr	r2, .L17
 311:Generated_Source\PSoC4/I2CS.c **** 
 273              		.loc 1 311 0
 274 0004 0840     		ands	r0, r1
 275              	.LVL13:
 308:Generated_Source\PSoC4/I2CS.c **** 
 276              		.loc 1 308 0
 277 0006 1368     		ldr	r3, [r2]
 278              	.LVL14:
 314:Generated_Source\PSoC4/I2CS.c **** 
 279              		.loc 1 314 0
 280              		@ sp needed
 310:Generated_Source\PSoC4/I2CS.c ****     txFifoCtrl |= ((uint32) (I2CS_TX_FIFO_CTRL_TRIGGER_LEVEL_MASK & level));
 281              		.loc 1 310 0
 282 0008 8B43     		bics	r3, r1
 283              	.LVL15:
 311:Generated_Source\PSoC4/I2CS.c **** 
 284              		.loc 1 311 0
 285 000a 1843     		orrs	r0, r3
 286              	.LVL16:
 313:Generated_Source\PSoC4/I2CS.c **** }
 287              		.loc 1 313 0
 288 000c 1060     		str	r0, [r2]
 314:Generated_Source\PSoC4/I2CS.c **** 
 289              		.loc 1 314 0
 290 000e 7047     		bx	lr
 291              	.L18:
 292              		.align	2
 293              	.L17:
 294 0010 04020640 		.word	1074135556
 295              		.cfi_endproc
 296              	.LFE5:
 297              		.size	I2CS_SetTxFifoLevel, .-I2CS_SetTxFifoLevel
 298              		.section	.text.I2CS_SetCustomInterruptHandler,"ax",%progbits
 299              		.align	2
 300              		.global	I2CS_SetCustomInterruptHandler
 301              		.code	16
 302              		.thumb_func
 303              		.type	I2CS_SetCustomInterruptHandler, %function
 304              	I2CS_SetCustomInterruptHandler:
 305              	.LFB6:
 336:Generated_Source\PSoC4/I2CS.c ****     #if !defined (CY_REMOVE_I2CS_CUSTOM_INTR_HANDLER)
 306              		.loc 1 336 0
 307              		.cfi_startproc
 308              		@ args = 0, pretend = 0, frame = 0
 309              		@ frame_needed = 0, uses_anonymous_args = 0
 310              		@ link register save eliminated.
 311              	.LVL17:
 338:Generated_Source\PSoC4/I2CS.c ****     #else
 312              		.loc 1 338 0
 313 0000 014B     		ldr	r3, .L20
ARM GAS  C:\Users\jhkim\AppData\Local\Temp\cclRqDXR.s 			page 15


 345:Generated_Source\PSoC4/I2CS.c **** #endif /* (I2CS_SCB_IRQ_INTERNAL) */
 314              		.loc 1 345 0
 315              		@ sp needed
 338:Generated_Source\PSoC4/I2CS.c ****     #else
 316              		.loc 1 338 0
 317 0002 5860     		str	r0, [r3, #4]
 345:Generated_Source\PSoC4/I2CS.c **** #endif /* (I2CS_SCB_IRQ_INTERNAL) */
 318              		.loc 1 345 0
 319 0004 7047     		bx	lr
 320              	.L21:
 321 0006 C046     		.align	2
 322              	.L20:
 323 0008 00000000 		.word	.LANCHOR0
 324              		.cfi_endproc
 325              	.LFE6:
 326              		.size	I2CS_SetCustomInterruptHandler, .-I2CS_SetCustomInterruptHandler
 327              		.section	.text.I2CS_I2CSlaveNackGeneration,"ax",%progbits
 328              		.align	2
 329              		.global	I2CS_I2CSlaveNackGeneration
 330              		.code	16
 331              		.thumb_func
 332              		.type	I2CS_I2CSlaveNackGeneration, %function
 333              	I2CS_I2CSlaveNackGeneration:
 334              	.LFB10:
 445:Generated_Source\PSoC4/I2CS.c **** 
 446:Generated_Source\PSoC4/I2CS.c **** #elif (I2CS_SCB_MODE_EZI2C_CONST_CFG)
 447:Generated_Source\PSoC4/I2CS.c ****     I2CS_EzI2CStop();
 448:Generated_Source\PSoC4/I2CS.c **** 
 449:Generated_Source\PSoC4/I2CS.c **** #elif (I2CS_SCB_MODE_SPI_CONST_CFG)
 450:Generated_Source\PSoC4/I2CS.c ****     I2CS_SpiStop();
 451:Generated_Source\PSoC4/I2CS.c **** 
 452:Generated_Source\PSoC4/I2CS.c **** #elif (I2CS_SCB_MODE_UART_CONST_CFG)
 453:Generated_Source\PSoC4/I2CS.c ****     I2CS_UartStop();
 454:Generated_Source\PSoC4/I2CS.c **** 
 455:Generated_Source\PSoC4/I2CS.c **** #else
 456:Generated_Source\PSoC4/I2CS.c ****     /* Unknown mode: do nothing */
 457:Generated_Source\PSoC4/I2CS.c **** #endif /* (I2CS_SCB_MODE_UNCONFIG_CONST_CFG) */
 458:Generated_Source\PSoC4/I2CS.c **** }
 459:Generated_Source\PSoC4/I2CS.c **** 
 460:Generated_Source\PSoC4/I2CS.c **** 
 461:Generated_Source\PSoC4/I2CS.c **** #if (I2CS_SCB_MODE_UNCONFIG_CONST_CFG)
 462:Generated_Source\PSoC4/I2CS.c ****     /*******************************************************************************
 463:Generated_Source\PSoC4/I2CS.c ****     * Function Name: I2CS_SetPins
 464:Generated_Source\PSoC4/I2CS.c ****     ****************************************************************************//**
 465:Generated_Source\PSoC4/I2CS.c ****     *
 466:Generated_Source\PSoC4/I2CS.c ****     *  Sets the pins settings accordingly to the selected operation mode.
 467:Generated_Source\PSoC4/I2CS.c ****     *  Only available in the Unconfigured operation mode. The mode specific
 468:Generated_Source\PSoC4/I2CS.c ****     *  initialization function calls it.
 469:Generated_Source\PSoC4/I2CS.c ****     *  Pins configuration is set by PSoC Creator when a specific mode of operation
 470:Generated_Source\PSoC4/I2CS.c ****     *  is selected in design time.
 471:Generated_Source\PSoC4/I2CS.c ****     *
 472:Generated_Source\PSoC4/I2CS.c ****     *  \param mode:      Mode of SCB operation.
 473:Generated_Source\PSoC4/I2CS.c ****     *  \param subMode:   Sub-mode of SCB operation. It is only required for SPI and UART
 474:Generated_Source\PSoC4/I2CS.c ****     *             modes.
 475:Generated_Source\PSoC4/I2CS.c ****     *  \param uartEnableMask: enables TX or RX direction and RTS and CTS signals.
 476:Generated_Source\PSoC4/I2CS.c ****     *
 477:Generated_Source\PSoC4/I2CS.c ****     *******************************************************************************/
ARM GAS  C:\Users\jhkim\AppData\Local\Temp\cclRqDXR.s 			page 16


 478:Generated_Source\PSoC4/I2CS.c ****     void I2CS_SetPins(uint32 mode, uint32 subMode, uint32 uartEnableMask)
 479:Generated_Source\PSoC4/I2CS.c ****     {
 480:Generated_Source\PSoC4/I2CS.c ****         uint32 pinsDm[I2CS_SCB_PINS_NUMBER];
 481:Generated_Source\PSoC4/I2CS.c ****         uint32 i;
 482:Generated_Source\PSoC4/I2CS.c ****         
 483:Generated_Source\PSoC4/I2CS.c ****     #if (!I2CS_CY_SCBIP_V1)
 484:Generated_Source\PSoC4/I2CS.c ****         uint32 pinsInBuf = 0u;
 485:Generated_Source\PSoC4/I2CS.c ****     #endif /* (!I2CS_CY_SCBIP_V1) */
 486:Generated_Source\PSoC4/I2CS.c ****         
 487:Generated_Source\PSoC4/I2CS.c ****         uint32 hsiomSel[I2CS_SCB_PINS_NUMBER] = 
 488:Generated_Source\PSoC4/I2CS.c ****         {
 489:Generated_Source\PSoC4/I2CS.c ****             I2CS_SCL_HSIOM_SEL_GPIO,
 490:Generated_Source\PSoC4/I2CS.c ****             I2CS_SDA_HSIOM_SEL_GPIO,
 491:Generated_Source\PSoC4/I2CS.c **** 
 492:Generated_Source\PSoC4/I2CS.c ****         };
 493:Generated_Source\PSoC4/I2CS.c **** 
 494:Generated_Source\PSoC4/I2CS.c ****     #if (I2CS_CY_SCBIP_V1)
 495:Generated_Source\PSoC4/I2CS.c ****         /* Supress compiler warning. */
 496:Generated_Source\PSoC4/I2CS.c ****         if ((0u == subMode) || (0u == uartEnableMask))
 497:Generated_Source\PSoC4/I2CS.c ****         {
 498:Generated_Source\PSoC4/I2CS.c ****         }
 499:Generated_Source\PSoC4/I2CS.c ****     #endif /* (I2CS_CY_SCBIP_V1) */
 500:Generated_Source\PSoC4/I2CS.c **** 
 501:Generated_Source\PSoC4/I2CS.c ****         /* Set default HSIOM to GPIO and Drive Mode to Analog Hi-Z */
 502:Generated_Source\PSoC4/I2CS.c ****         for (i = 0u; i < I2CS_SCB_PINS_NUMBER; i++)
 503:Generated_Source\PSoC4/I2CS.c ****         {
 504:Generated_Source\PSoC4/I2CS.c ****             pinsDm[i] = I2CS_PIN_DM_ALG_HIZ;
 505:Generated_Source\PSoC4/I2CS.c ****         }
 506:Generated_Source\PSoC4/I2CS.c **** 
 507:Generated_Source\PSoC4/I2CS.c ****         if ((I2CS_SCB_MODE_I2C   == mode) ||
 508:Generated_Source\PSoC4/I2CS.c ****             (I2CS_SCB_MODE_EZI2C == mode))
 509:Generated_Source\PSoC4/I2CS.c ****         {
 510:Generated_Source\PSoC4/I2CS.c ****         #if (I2CS_SCL_PIN)
 511:Generated_Source\PSoC4/I2CS.c ****             hsiomSel[I2CS_SCL_PIN_INDEX] = I2CS_SCL_HSIOM_SEL_I2C;
 512:Generated_Source\PSoC4/I2CS.c ****             pinsDm  [I2CS_SCL_PIN_INDEX] = I2CS_PIN_DM_OD_LO;
 513:Generated_Source\PSoC4/I2CS.c ****         #elif (I2CS_RX_WAKE_SDA_MOSI_PIN)
 514:Generated_Source\PSoC4/I2CS.c ****             hsiomSel[I2CS_RX_WAKE_SDA_MOSI_PIN_INDEX] = I2CS_RX_WAKE_SDA_MOSI_HSIOM_SEL_I2C;
 515:Generated_Source\PSoC4/I2CS.c ****             pinsDm  [I2CS_RX_WAKE_SDA_MOSI_PIN_INDEX] = I2CS_PIN_DM_OD_LO;
 516:Generated_Source\PSoC4/I2CS.c ****         #else
 517:Generated_Source\PSoC4/I2CS.c ****         #endif /* (I2CS_SCL_PIN) */
 518:Generated_Source\PSoC4/I2CS.c ****         
 519:Generated_Source\PSoC4/I2CS.c ****         #if (I2CS_SDA_PIN)
 520:Generated_Source\PSoC4/I2CS.c ****             hsiomSel[I2CS_SDA_PIN_INDEX] = I2CS_SDA_HSIOM_SEL_I2C;
 521:Generated_Source\PSoC4/I2CS.c ****             pinsDm  [I2CS_SDA_PIN_INDEX] = I2CS_PIN_DM_OD_LO;
 522:Generated_Source\PSoC4/I2CS.c ****         #endif /* (I2CS_SDA_PIN) */
 523:Generated_Source\PSoC4/I2CS.c ****         }
 524:Generated_Source\PSoC4/I2CS.c ****     #if (!I2CS_CY_SCBIP_V1)
 525:Generated_Source\PSoC4/I2CS.c ****         else if (I2CS_SCB_MODE_SPI == mode)
 526:Generated_Source\PSoC4/I2CS.c ****         {
 527:Generated_Source\PSoC4/I2CS.c ****         #if (I2CS_SCL_PIN)
 528:Generated_Source\PSoC4/I2CS.c ****             hsiomSel[I2CS_SCL_PIN_INDEX] = I2CS_SCL_HSIOM_SEL_SPI;
 529:Generated_Source\PSoC4/I2CS.c ****         #elif (I2CS_RX_WAKE_SDA_MOSI_PIN)
 530:Generated_Source\PSoC4/I2CS.c ****             hsiomSel[I2CS_RX_WAKE_SDA_MOSI_PIN_INDEX] = I2CS_RX_WAKE_SDA_MOSI_HSIOM_SEL_SPI;
 531:Generated_Source\PSoC4/I2CS.c ****         #else
 532:Generated_Source\PSoC4/I2CS.c ****         #endif /* (I2CS_SCL_PIN) */
 533:Generated_Source\PSoC4/I2CS.c ****         
 534:Generated_Source\PSoC4/I2CS.c ****         #if (I2CS_SDA_PIN)
ARM GAS  C:\Users\jhkim\AppData\Local\Temp\cclRqDXR.s 			page 17


 535:Generated_Source\PSoC4/I2CS.c ****             hsiomSel[I2CS_SDA_PIN_INDEX] = I2CS_SDA_HSIOM_SEL_SPI;
 536:Generated_Source\PSoC4/I2CS.c ****         #endif /* (I2CS_SDA_PIN) */
 537:Generated_Source\PSoC4/I2CS.c ****         
 538:Generated_Source\PSoC4/I2CS.c ****         #if (I2CS_CTS_SCLK_PIN)
 539:Generated_Source\PSoC4/I2CS.c ****             hsiomSel[I2CS_CTS_SCLK_PIN_INDEX] = I2CS_CTS_SCLK_HSIOM_SEL_SPI;
 540:Generated_Source\PSoC4/I2CS.c ****         #endif /* (I2CS_CTS_SCLK_PIN) */
 541:Generated_Source\PSoC4/I2CS.c **** 
 542:Generated_Source\PSoC4/I2CS.c ****             if (I2CS_SPI_SLAVE == subMode)
 543:Generated_Source\PSoC4/I2CS.c ****             {
 544:Generated_Source\PSoC4/I2CS.c ****                 /* Slave */
 545:Generated_Source\PSoC4/I2CS.c ****                 pinsDm[I2CS_SCL_PIN_INDEX] = I2CS_PIN_DM_DIG_HIZ;
 546:Generated_Source\PSoC4/I2CS.c ****                 pinsDm[I2CS_SDA_PIN_INDEX] = I2CS_PIN_DM_STRONG;
 547:Generated_Source\PSoC4/I2CS.c ****                 pinsDm[I2CS_CTS_SCLK_PIN_INDEX] = I2CS_PIN_DM_DIG_HIZ;
 548:Generated_Source\PSoC4/I2CS.c **** 
 549:Generated_Source\PSoC4/I2CS.c ****             #if (I2CS_RTS_SS0_PIN)
 550:Generated_Source\PSoC4/I2CS.c ****                 /* Only SS0 is valid choice for Slave */
 551:Generated_Source\PSoC4/I2CS.c ****                 hsiomSel[I2CS_RTS_SS0_PIN_INDEX] = I2CS_RTS_SS0_HSIOM_SEL_SPI;
 552:Generated_Source\PSoC4/I2CS.c ****                 pinsDm  [I2CS_RTS_SS0_PIN_INDEX] = I2CS_PIN_DM_DIG_HIZ;
 553:Generated_Source\PSoC4/I2CS.c ****             #endif /* (I2CS_RTS_SS0_PIN) */
 554:Generated_Source\PSoC4/I2CS.c **** 
 555:Generated_Source\PSoC4/I2CS.c ****             #if (I2CS_SDA_PIN)
 556:Generated_Source\PSoC4/I2CS.c ****                 /* Disable input buffer */
 557:Generated_Source\PSoC4/I2CS.c ****                  pinsInBuf |= I2CS_SDA_PIN_MASK;
 558:Generated_Source\PSoC4/I2CS.c ****             #endif /* (I2CS_SDA_PIN) */
 559:Generated_Source\PSoC4/I2CS.c ****             }
 560:Generated_Source\PSoC4/I2CS.c ****             else 
 561:Generated_Source\PSoC4/I2CS.c ****             {
 562:Generated_Source\PSoC4/I2CS.c ****                 /* (Master) */
 563:Generated_Source\PSoC4/I2CS.c ****                 pinsDm[I2CS_SCL_PIN_INDEX] = I2CS_PIN_DM_STRONG;
 564:Generated_Source\PSoC4/I2CS.c ****                 pinsDm[I2CS_SDA_PIN_INDEX] = I2CS_PIN_DM_DIG_HIZ;
 565:Generated_Source\PSoC4/I2CS.c ****                 pinsDm[I2CS_CTS_SCLK_PIN_INDEX] = I2CS_PIN_DM_STRONG;
 566:Generated_Source\PSoC4/I2CS.c **** 
 567:Generated_Source\PSoC4/I2CS.c ****             #if (I2CS_RTS_SS0_PIN)
 568:Generated_Source\PSoC4/I2CS.c ****                 hsiomSel [I2CS_RTS_SS0_PIN_INDEX] = I2CS_RTS_SS0_HSIOM_SEL_SPI;
 569:Generated_Source\PSoC4/I2CS.c ****                 pinsDm   [I2CS_RTS_SS0_PIN_INDEX] = I2CS_PIN_DM_STRONG;
 570:Generated_Source\PSoC4/I2CS.c ****                 pinsInBuf |= I2CS_RTS_SS0_PIN_MASK;
 571:Generated_Source\PSoC4/I2CS.c ****             #endif /* (I2CS_RTS_SS0_PIN) */
 572:Generated_Source\PSoC4/I2CS.c **** 
 573:Generated_Source\PSoC4/I2CS.c ****             #if (I2CS_SS1_PIN)
 574:Generated_Source\PSoC4/I2CS.c ****                 hsiomSel [I2CS_SS1_PIN_INDEX] = I2CS_SS1_HSIOM_SEL_SPI;
 575:Generated_Source\PSoC4/I2CS.c ****                 pinsDm   [I2CS_SS1_PIN_INDEX] = I2CS_PIN_DM_STRONG;
 576:Generated_Source\PSoC4/I2CS.c ****                 pinsInBuf |= I2CS_SS1_PIN_MASK;
 577:Generated_Source\PSoC4/I2CS.c ****             #endif /* (I2CS_SS1_PIN) */
 578:Generated_Source\PSoC4/I2CS.c **** 
 579:Generated_Source\PSoC4/I2CS.c ****             #if (I2CS_SS2_PIN)
 580:Generated_Source\PSoC4/I2CS.c ****                 hsiomSel [I2CS_SS2_PIN_INDEX] = I2CS_SS2_HSIOM_SEL_SPI;
 581:Generated_Source\PSoC4/I2CS.c ****                 pinsDm   [I2CS_SS2_PIN_INDEX] = I2CS_PIN_DM_STRONG;
 582:Generated_Source\PSoC4/I2CS.c ****                 pinsInBuf |= I2CS_SS2_PIN_MASK;
 583:Generated_Source\PSoC4/I2CS.c ****             #endif /* (I2CS_SS2_PIN) */
 584:Generated_Source\PSoC4/I2CS.c **** 
 585:Generated_Source\PSoC4/I2CS.c ****             #if (I2CS_SS3_PIN)
 586:Generated_Source\PSoC4/I2CS.c ****                 hsiomSel [I2CS_SS3_PIN_INDEX] = I2CS_SS3_HSIOM_SEL_SPI;
 587:Generated_Source\PSoC4/I2CS.c ****                 pinsDm   [I2CS_SS3_PIN_INDEX] = I2CS_PIN_DM_STRONG;
 588:Generated_Source\PSoC4/I2CS.c ****                 pinsInBuf |= I2CS_SS3_PIN_MASK;
 589:Generated_Source\PSoC4/I2CS.c ****             #endif /* (I2CS_SS3_PIN) */
 590:Generated_Source\PSoC4/I2CS.c **** 
 591:Generated_Source\PSoC4/I2CS.c ****                 /* Disable input buffers */
ARM GAS  C:\Users\jhkim\AppData\Local\Temp\cclRqDXR.s 			page 18


 592:Generated_Source\PSoC4/I2CS.c ****             #if (I2CS_SCL_PIN)
 593:Generated_Source\PSoC4/I2CS.c ****                 pinsInBuf |= I2CS_SCL_PIN_MASK;
 594:Generated_Source\PSoC4/I2CS.c ****             #elif (I2CS_RX_WAKE_SDA_MOSI_PIN)
 595:Generated_Source\PSoC4/I2CS.c ****                 pinsInBuf |= I2CS_RX_WAKE_SDA_MOSI_PIN_MASK;
 596:Generated_Source\PSoC4/I2CS.c ****             #else
 597:Generated_Source\PSoC4/I2CS.c ****             #endif /* (I2CS_SCL_PIN) */
 598:Generated_Source\PSoC4/I2CS.c **** 
 599:Generated_Source\PSoC4/I2CS.c ****             #if (I2CS_CTS_SCLK_PIN)
 600:Generated_Source\PSoC4/I2CS.c ****                 pinsInBuf |= I2CS_CTS_SCLK_PIN_MASK;
 601:Generated_Source\PSoC4/I2CS.c ****             #endif /* (I2CS_CTS_SCLK_PIN) */
 602:Generated_Source\PSoC4/I2CS.c ****             }
 603:Generated_Source\PSoC4/I2CS.c ****         }
 604:Generated_Source\PSoC4/I2CS.c ****         else /* UART */
 605:Generated_Source\PSoC4/I2CS.c ****         {
 606:Generated_Source\PSoC4/I2CS.c ****             if (I2CS_UART_MODE_SMARTCARD == subMode)
 607:Generated_Source\PSoC4/I2CS.c ****             {
 608:Generated_Source\PSoC4/I2CS.c ****                 /* SmartCard */
 609:Generated_Source\PSoC4/I2CS.c ****             #if (I2CS_SDA_PIN)
 610:Generated_Source\PSoC4/I2CS.c ****                 hsiomSel[I2CS_SDA_PIN_INDEX] = I2CS_SDA_HSIOM_SEL_UART;
 611:Generated_Source\PSoC4/I2CS.c ****                 pinsDm  [I2CS_SDA_PIN_INDEX] = I2CS_PIN_DM_OD_LO;
 612:Generated_Source\PSoC4/I2CS.c ****             #endif /* (I2CS_SDA_PIN) */
 613:Generated_Source\PSoC4/I2CS.c ****             }
 614:Generated_Source\PSoC4/I2CS.c ****             else /* Standard or IrDA */
 615:Generated_Source\PSoC4/I2CS.c ****             {
 616:Generated_Source\PSoC4/I2CS.c ****                 if (0u != (I2CS_UART_RX_PIN_ENABLE & uartEnableMask))
 617:Generated_Source\PSoC4/I2CS.c ****                 {
 618:Generated_Source\PSoC4/I2CS.c ****                 #if (I2CS_SCL_PIN)
 619:Generated_Source\PSoC4/I2CS.c ****                     hsiomSel[I2CS_SCL_PIN_INDEX] = I2CS_SCL_HSIOM_SEL_UART;
 620:Generated_Source\PSoC4/I2CS.c ****                     pinsDm  [I2CS_SCL_PIN_INDEX] = I2CS_PIN_DM_DIG_HIZ;
 621:Generated_Source\PSoC4/I2CS.c ****                 #elif (I2CS_RX_WAKE_SDA_MOSI_PIN)
 622:Generated_Source\PSoC4/I2CS.c ****                     hsiomSel[I2CS_RX_WAKE_SDA_MOSI_PIN_INDEX] = I2CS_RX_WAKE_SDA_MOSI_HSIOM_SEL_UAR
 623:Generated_Source\PSoC4/I2CS.c ****                     pinsDm  [I2CS_RX_WAKE_SDA_MOSI_PIN_INDEX] = I2CS_PIN_DM_DIG_HIZ;
 624:Generated_Source\PSoC4/I2CS.c ****                 #else
 625:Generated_Source\PSoC4/I2CS.c ****                 #endif /* (I2CS_SCL_PIN) */
 626:Generated_Source\PSoC4/I2CS.c ****                 }
 627:Generated_Source\PSoC4/I2CS.c **** 
 628:Generated_Source\PSoC4/I2CS.c ****                 if (0u != (I2CS_UART_TX_PIN_ENABLE & uartEnableMask))
 629:Generated_Source\PSoC4/I2CS.c ****                 {
 630:Generated_Source\PSoC4/I2CS.c ****                 #if (I2CS_SDA_PIN)
 631:Generated_Source\PSoC4/I2CS.c ****                     hsiomSel[I2CS_SDA_PIN_INDEX] = I2CS_SDA_HSIOM_SEL_UART;
 632:Generated_Source\PSoC4/I2CS.c ****                     pinsDm  [I2CS_SDA_PIN_INDEX] = I2CS_PIN_DM_STRONG;
 633:Generated_Source\PSoC4/I2CS.c ****                     
 634:Generated_Source\PSoC4/I2CS.c ****                     /* Disable input buffer */
 635:Generated_Source\PSoC4/I2CS.c ****                     pinsInBuf |= I2CS_SDA_PIN_MASK;
 636:Generated_Source\PSoC4/I2CS.c ****                 #endif /* (I2CS_SDA_PIN) */
 637:Generated_Source\PSoC4/I2CS.c ****                 }
 638:Generated_Source\PSoC4/I2CS.c **** 
 639:Generated_Source\PSoC4/I2CS.c ****             #if !(I2CS_CY_SCBIP_V0 || I2CS_CY_SCBIP_V1)
 640:Generated_Source\PSoC4/I2CS.c ****                 if (I2CS_UART_MODE_STD == subMode)
 641:Generated_Source\PSoC4/I2CS.c ****                 {
 642:Generated_Source\PSoC4/I2CS.c ****                     if (0u != (I2CS_UART_CTS_PIN_ENABLE & uartEnableMask))
 643:Generated_Source\PSoC4/I2CS.c ****                     {
 644:Generated_Source\PSoC4/I2CS.c ****                         /* CTS input is multiplexed with SCLK */
 645:Generated_Source\PSoC4/I2CS.c ****                     #if (I2CS_CTS_SCLK_PIN)
 646:Generated_Source\PSoC4/I2CS.c ****                         hsiomSel[I2CS_CTS_SCLK_PIN_INDEX] = I2CS_CTS_SCLK_HSIOM_SEL_UART;
 647:Generated_Source\PSoC4/I2CS.c ****                         pinsDm  [I2CS_CTS_SCLK_PIN_INDEX] = I2CS_PIN_DM_DIG_HIZ;
 648:Generated_Source\PSoC4/I2CS.c ****                     #endif /* (I2CS_CTS_SCLK_PIN) */
ARM GAS  C:\Users\jhkim\AppData\Local\Temp\cclRqDXR.s 			page 19


 649:Generated_Source\PSoC4/I2CS.c ****                     }
 650:Generated_Source\PSoC4/I2CS.c **** 
 651:Generated_Source\PSoC4/I2CS.c ****                     if (0u != (I2CS_UART_RTS_PIN_ENABLE & uartEnableMask))
 652:Generated_Source\PSoC4/I2CS.c ****                     {
 653:Generated_Source\PSoC4/I2CS.c ****                         /* RTS output is multiplexed with SS0 */
 654:Generated_Source\PSoC4/I2CS.c ****                     #if (I2CS_RTS_SS0_PIN)
 655:Generated_Source\PSoC4/I2CS.c ****                         hsiomSel[I2CS_RTS_SS0_PIN_INDEX] = I2CS_RTS_SS0_HSIOM_SEL_UART;
 656:Generated_Source\PSoC4/I2CS.c ****                         pinsDm  [I2CS_RTS_SS0_PIN_INDEX] = I2CS_PIN_DM_STRONG;
 657:Generated_Source\PSoC4/I2CS.c ****                         
 658:Generated_Source\PSoC4/I2CS.c ****                         /* Disable input buffer */
 659:Generated_Source\PSoC4/I2CS.c ****                         pinsInBuf |= I2CS_RTS_SS0_PIN_MASK;
 660:Generated_Source\PSoC4/I2CS.c ****                     #endif /* (I2CS_RTS_SS0_PIN) */
 661:Generated_Source\PSoC4/I2CS.c ****                     }
 662:Generated_Source\PSoC4/I2CS.c ****                 }
 663:Generated_Source\PSoC4/I2CS.c ****             #endif /* !(I2CS_CY_SCBIP_V0 || I2CS_CY_SCBIP_V1) */
 664:Generated_Source\PSoC4/I2CS.c ****             }
 665:Generated_Source\PSoC4/I2CS.c ****         }
 666:Generated_Source\PSoC4/I2CS.c ****     #endif /* (!I2CS_CY_SCBIP_V1) */
 667:Generated_Source\PSoC4/I2CS.c **** 
 668:Generated_Source\PSoC4/I2CS.c ****     /* Configure pins: set HSIOM, DM and InputBufEnable */
 669:Generated_Source\PSoC4/I2CS.c ****     /* Note: the DR register settings do not effect the pin output if HSIOM is other than GPIO */
 670:Generated_Source\PSoC4/I2CS.c **** 
 671:Generated_Source\PSoC4/I2CS.c ****     #if (I2CS_SCL_PIN)
 672:Generated_Source\PSoC4/I2CS.c ****         I2CS_SET_HSIOM_SEL(I2CS_SCL_HSIOM_REG,
 673:Generated_Source\PSoC4/I2CS.c ****                                        I2CS_SCL_HSIOM_MASK,
 674:Generated_Source\PSoC4/I2CS.c ****                                        I2CS_SCL_HSIOM_POS,
 675:Generated_Source\PSoC4/I2CS.c ****                                         hsiomSel[I2CS_SCL_PIN_INDEX]);
 676:Generated_Source\PSoC4/I2CS.c **** 
 677:Generated_Source\PSoC4/I2CS.c ****         I2CS_i2c_scl_SetDriveMode((uint8) pinsDm[I2CS_SCL_PIN_INDEX]);
 678:Generated_Source\PSoC4/I2CS.c **** 
 679:Generated_Source\PSoC4/I2CS.c ****         #if (!I2CS_CY_SCBIP_V1)
 680:Generated_Source\PSoC4/I2CS.c ****             I2CS_SET_INP_DIS(I2CS_i2c_scl_INP_DIS,
 681:Generated_Source\PSoC4/I2CS.c ****                                          I2CS_i2c_scl_MASK,
 682:Generated_Source\PSoC4/I2CS.c ****                                          (0u != (pinsInBuf & I2CS_SCL_PIN_MASK)));
 683:Generated_Source\PSoC4/I2CS.c ****         #endif /* (!I2CS_CY_SCBIP_V1) */
 684:Generated_Source\PSoC4/I2CS.c ****     
 685:Generated_Source\PSoC4/I2CS.c ****     #elif (I2CS_RX_WAKE_SDA_MOSI_PIN)
 686:Generated_Source\PSoC4/I2CS.c ****         I2CS_SET_HSIOM_SEL(I2CS_RX_WAKE_SDA_MOSI_HSIOM_REG,
 687:Generated_Source\PSoC4/I2CS.c ****                                        I2CS_RX_WAKE_SDA_MOSI_HSIOM_MASK,
 688:Generated_Source\PSoC4/I2CS.c ****                                        I2CS_RX_WAKE_SDA_MOSI_HSIOM_POS,
 689:Generated_Source\PSoC4/I2CS.c ****                                        hsiomSel[I2CS_RX_WAKE_SDA_MOSI_PIN_INDEX]);
 690:Generated_Source\PSoC4/I2CS.c **** 
 691:Generated_Source\PSoC4/I2CS.c ****         I2CS_uart_rx_wake_i2c_sda_spi_mosi_SetDriveMode((uint8)
 692:Generated_Source\PSoC4/I2CS.c ****                                                                pinsDm[I2CS_RX_WAKE_SDA_MOSI_PIN_IND
 693:Generated_Source\PSoC4/I2CS.c **** 
 694:Generated_Source\PSoC4/I2CS.c ****         I2CS_SET_INP_DIS(I2CS_uart_rx_wake_i2c_sda_spi_mosi_INP_DIS,
 695:Generated_Source\PSoC4/I2CS.c ****                                      I2CS_uart_rx_wake_i2c_sda_spi_mosi_MASK,
 696:Generated_Source\PSoC4/I2CS.c ****                                      (0u != (pinsInBuf & I2CS_RX_WAKE_SDA_MOSI_PIN_MASK)));
 697:Generated_Source\PSoC4/I2CS.c **** 
 698:Generated_Source\PSoC4/I2CS.c ****          /* Set interrupt on falling edge */
 699:Generated_Source\PSoC4/I2CS.c ****         I2CS_SET_INCFG_TYPE(I2CS_RX_WAKE_SDA_MOSI_INTCFG_REG,
 700:Generated_Source\PSoC4/I2CS.c ****                                         I2CS_RX_WAKE_SDA_MOSI_INTCFG_TYPE_MASK,
 701:Generated_Source\PSoC4/I2CS.c ****                                         I2CS_RX_WAKE_SDA_MOSI_INTCFG_TYPE_POS,
 702:Generated_Source\PSoC4/I2CS.c ****                                         I2CS_INTCFG_TYPE_FALLING_EDGE);
 703:Generated_Source\PSoC4/I2CS.c ****     #else
 704:Generated_Source\PSoC4/I2CS.c ****     #endif /* (I2CS_RX_WAKE_SDA_MOSI_PIN) */
 705:Generated_Source\PSoC4/I2CS.c **** 
ARM GAS  C:\Users\jhkim\AppData\Local\Temp\cclRqDXR.s 			page 20


 706:Generated_Source\PSoC4/I2CS.c ****     #if (I2CS_SDA_PIN)
 707:Generated_Source\PSoC4/I2CS.c ****         I2CS_SET_HSIOM_SEL(I2CS_SDA_HSIOM_REG,
 708:Generated_Source\PSoC4/I2CS.c ****                                        I2CS_SDA_HSIOM_MASK,
 709:Generated_Source\PSoC4/I2CS.c ****                                        I2CS_SDA_HSIOM_POS,
 710:Generated_Source\PSoC4/I2CS.c ****                                         hsiomSel[I2CS_SDA_PIN_INDEX]);
 711:Generated_Source\PSoC4/I2CS.c **** 
 712:Generated_Source\PSoC4/I2CS.c ****         I2CS_i2c_sda_SetDriveMode((uint8) pinsDm[I2CS_SDA_PIN_INDEX]);
 713:Generated_Source\PSoC4/I2CS.c **** 
 714:Generated_Source\PSoC4/I2CS.c ****     #if (!I2CS_CY_SCBIP_V1)
 715:Generated_Source\PSoC4/I2CS.c ****         I2CS_SET_INP_DIS(I2CS_i2c_sda_INP_DIS,
 716:Generated_Source\PSoC4/I2CS.c ****                                      I2CS_i2c_sda_MASK,
 717:Generated_Source\PSoC4/I2CS.c ****                                     (0u != (pinsInBuf & I2CS_SDA_PIN_MASK)));
 718:Generated_Source\PSoC4/I2CS.c ****     #endif /* (!I2CS_CY_SCBIP_V1) */
 719:Generated_Source\PSoC4/I2CS.c ****     #endif /* (I2CS_SCL_PIN) */
 720:Generated_Source\PSoC4/I2CS.c **** 
 721:Generated_Source\PSoC4/I2CS.c ****     #if (I2CS_CTS_SCLK_PIN)
 722:Generated_Source\PSoC4/I2CS.c ****         I2CS_SET_HSIOM_SEL(I2CS_CTS_SCLK_HSIOM_REG,
 723:Generated_Source\PSoC4/I2CS.c ****                                        I2CS_CTS_SCLK_HSIOM_MASK,
 724:Generated_Source\PSoC4/I2CS.c ****                                        I2CS_CTS_SCLK_HSIOM_POS,
 725:Generated_Source\PSoC4/I2CS.c ****                                        hsiomSel[I2CS_CTS_SCLK_PIN_INDEX]);
 726:Generated_Source\PSoC4/I2CS.c **** 
 727:Generated_Source\PSoC4/I2CS.c ****         I2CS_uart_cts_spi_sclk_SetDriveMode((uint8) pinsDm[I2CS_CTS_SCLK_PIN_INDEX]);
 728:Generated_Source\PSoC4/I2CS.c **** 
 729:Generated_Source\PSoC4/I2CS.c ****         I2CS_SET_INP_DIS(I2CS_uart_cts_spi_sclk_INP_DIS,
 730:Generated_Source\PSoC4/I2CS.c ****                                      I2CS_uart_cts_spi_sclk_MASK,
 731:Generated_Source\PSoC4/I2CS.c ****                                      (0u != (pinsInBuf & I2CS_CTS_SCLK_PIN_MASK)));
 732:Generated_Source\PSoC4/I2CS.c ****     #endif /* (I2CS_CTS_SCLK_PIN) */
 733:Generated_Source\PSoC4/I2CS.c **** 
 734:Generated_Source\PSoC4/I2CS.c ****     #if (I2CS_RTS_SS0_PIN)
 735:Generated_Source\PSoC4/I2CS.c ****         I2CS_SET_HSIOM_SEL(I2CS_RTS_SS0_HSIOM_REG,
 736:Generated_Source\PSoC4/I2CS.c ****                                        I2CS_RTS_SS0_HSIOM_MASK,
 737:Generated_Source\PSoC4/I2CS.c ****                                        I2CS_RTS_SS0_HSIOM_POS,
 738:Generated_Source\PSoC4/I2CS.c ****                                        hsiomSel[I2CS_RTS_SS0_PIN_INDEX]);
 739:Generated_Source\PSoC4/I2CS.c **** 
 740:Generated_Source\PSoC4/I2CS.c ****         I2CS_uart_rts_spi_ss0_SetDriveMode((uint8) pinsDm[I2CS_RTS_SS0_PIN_INDEX]);
 741:Generated_Source\PSoC4/I2CS.c **** 
 742:Generated_Source\PSoC4/I2CS.c ****         I2CS_SET_INP_DIS(I2CS_uart_rts_spi_ss0_INP_DIS,
 743:Generated_Source\PSoC4/I2CS.c ****                                      I2CS_uart_rts_spi_ss0_MASK,
 744:Generated_Source\PSoC4/I2CS.c ****                                      (0u != (pinsInBuf & I2CS_RTS_SS0_PIN_MASK)));
 745:Generated_Source\PSoC4/I2CS.c ****     #endif /* (I2CS_RTS_SS0_PIN) */
 746:Generated_Source\PSoC4/I2CS.c **** 
 747:Generated_Source\PSoC4/I2CS.c ****     #if (I2CS_SS1_PIN)
 748:Generated_Source\PSoC4/I2CS.c ****         I2CS_SET_HSIOM_SEL(I2CS_SS1_HSIOM_REG,
 749:Generated_Source\PSoC4/I2CS.c ****                                        I2CS_SS1_HSIOM_MASK,
 750:Generated_Source\PSoC4/I2CS.c ****                                        I2CS_SS1_HSIOM_POS,
 751:Generated_Source\PSoC4/I2CS.c ****                                        hsiomSel[I2CS_SS1_PIN_INDEX]);
 752:Generated_Source\PSoC4/I2CS.c **** 
 753:Generated_Source\PSoC4/I2CS.c ****         I2CS_spi_ss1_SetDriveMode((uint8) pinsDm[I2CS_SS1_PIN_INDEX]);
 754:Generated_Source\PSoC4/I2CS.c **** 
 755:Generated_Source\PSoC4/I2CS.c ****         I2CS_SET_INP_DIS(I2CS_spi_ss1_INP_DIS,
 756:Generated_Source\PSoC4/I2CS.c ****                                      I2CS_spi_ss1_MASK,
 757:Generated_Source\PSoC4/I2CS.c ****                                      (0u != (pinsInBuf & I2CS_SS1_PIN_MASK)));
 758:Generated_Source\PSoC4/I2CS.c ****     #endif /* (I2CS_SS1_PIN) */
 759:Generated_Source\PSoC4/I2CS.c **** 
 760:Generated_Source\PSoC4/I2CS.c ****     #if (I2CS_SS2_PIN)
 761:Generated_Source\PSoC4/I2CS.c ****         I2CS_SET_HSIOM_SEL(I2CS_SS2_HSIOM_REG,
 762:Generated_Source\PSoC4/I2CS.c ****                                        I2CS_SS2_HSIOM_MASK,
ARM GAS  C:\Users\jhkim\AppData\Local\Temp\cclRqDXR.s 			page 21


 763:Generated_Source\PSoC4/I2CS.c ****                                        I2CS_SS2_HSIOM_POS,
 764:Generated_Source\PSoC4/I2CS.c ****                                        hsiomSel[I2CS_SS2_PIN_INDEX]);
 765:Generated_Source\PSoC4/I2CS.c **** 
 766:Generated_Source\PSoC4/I2CS.c ****         I2CS_spi_ss2_SetDriveMode((uint8) pinsDm[I2CS_SS2_PIN_INDEX]);
 767:Generated_Source\PSoC4/I2CS.c **** 
 768:Generated_Source\PSoC4/I2CS.c ****         I2CS_SET_INP_DIS(I2CS_spi_ss2_INP_DIS,
 769:Generated_Source\PSoC4/I2CS.c ****                                      I2CS_spi_ss2_MASK,
 770:Generated_Source\PSoC4/I2CS.c ****                                      (0u != (pinsInBuf & I2CS_SS2_PIN_MASK)));
 771:Generated_Source\PSoC4/I2CS.c ****     #endif /* (I2CS_SS2_PIN) */
 772:Generated_Source\PSoC4/I2CS.c **** 
 773:Generated_Source\PSoC4/I2CS.c ****     #if (I2CS_SS3_PIN)
 774:Generated_Source\PSoC4/I2CS.c ****         I2CS_SET_HSIOM_SEL(I2CS_SS3_HSIOM_REG,
 775:Generated_Source\PSoC4/I2CS.c ****                                        I2CS_SS3_HSIOM_MASK,
 776:Generated_Source\PSoC4/I2CS.c ****                                        I2CS_SS3_HSIOM_POS,
 777:Generated_Source\PSoC4/I2CS.c ****                                        hsiomSel[I2CS_SS3_PIN_INDEX]);
 778:Generated_Source\PSoC4/I2CS.c **** 
 779:Generated_Source\PSoC4/I2CS.c ****         I2CS_spi_ss3_SetDriveMode((uint8) pinsDm[I2CS_SS3_PIN_INDEX]);
 780:Generated_Source\PSoC4/I2CS.c **** 
 781:Generated_Source\PSoC4/I2CS.c ****         I2CS_SET_INP_DIS(I2CS_spi_ss3_INP_DIS,
 782:Generated_Source\PSoC4/I2CS.c ****                                      I2CS_spi_ss3_MASK,
 783:Generated_Source\PSoC4/I2CS.c ****                                      (0u != (pinsInBuf & I2CS_SS3_PIN_MASK)));
 784:Generated_Source\PSoC4/I2CS.c ****     #endif /* (I2CS_SS3_PIN) */
 785:Generated_Source\PSoC4/I2CS.c ****     }
 786:Generated_Source\PSoC4/I2CS.c **** 
 787:Generated_Source\PSoC4/I2CS.c **** #endif /* (I2CS_SCB_MODE_UNCONFIG_CONST_CFG) */
 788:Generated_Source\PSoC4/I2CS.c **** 
 789:Generated_Source\PSoC4/I2CS.c **** 
 790:Generated_Source\PSoC4/I2CS.c **** #if (I2CS_CY_SCBIP_V0 || I2CS_CY_SCBIP_V1)
 791:Generated_Source\PSoC4/I2CS.c ****     /*******************************************************************************
 792:Generated_Source\PSoC4/I2CS.c ****     * Function Name: I2CS_I2CSlaveNackGeneration
 793:Generated_Source\PSoC4/I2CS.c ****     ****************************************************************************//**
 794:Generated_Source\PSoC4/I2CS.c ****     *
 795:Generated_Source\PSoC4/I2CS.c ****     *  Sets command to generate NACK to the address or data.
 796:Generated_Source\PSoC4/I2CS.c ****     *
 797:Generated_Source\PSoC4/I2CS.c ****     *******************************************************************************/
 798:Generated_Source\PSoC4/I2CS.c ****     void I2CS_I2CSlaveNackGeneration(void)
 799:Generated_Source\PSoC4/I2CS.c ****     {
 335              		.loc 1 799 0
 336              		.cfi_startproc
 337              		@ args = 0, pretend = 0, frame = 0
 338              		@ frame_needed = 0, uses_anonymous_args = 0
 339              		@ link register save eliminated.
 800:Generated_Source\PSoC4/I2CS.c ****         /* Check for EC_AM toggle condition: EC_AM and clock stretching for address are enabled */
 801:Generated_Source\PSoC4/I2CS.c ****         if ((0u != (I2CS_CTRL_REG & I2CS_CTRL_EC_AM_MODE)) &&
 340              		.loc 1 801 0
 341 0000 8022     		movs	r2, #128
 342 0002 0A4B     		ldr	r3, .L27
 343 0004 5200     		lsls	r2, r2, #1
 344 0006 1968     		ldr	r1, [r3]
 345 0008 1142     		tst	r1, r2
 346 000a 0AD0     		beq	.L23
 802:Generated_Source\PSoC4/I2CS.c ****             (0u == (I2CS_I2C_CTRL_REG & I2CS_I2C_CTRL_S_NOT_READY_ADDR_NACK)))
 347              		.loc 1 802 0 discriminator 1
 348 000c 0849     		ldr	r1, .L27+4
 349 000e 0968     		ldr	r1, [r1]
 801:Generated_Source\PSoC4/I2CS.c ****             (0u == (I2CS_I2C_CTRL_REG & I2CS_I2C_CTRL_S_NOT_READY_ADDR_NACK)))
 350              		.loc 1 801 0 discriminator 1
ARM GAS  C:\Users\jhkim\AppData\Local\Temp\cclRqDXR.s 			page 22


 351 0010 4904     		lsls	r1, r1, #17
 352 0012 06D4     		bmi	.L23
 803:Generated_Source\PSoC4/I2CS.c ****         {
 804:Generated_Source\PSoC4/I2CS.c ****             /* Toggle EC_AM before NACK generation */
 805:Generated_Source\PSoC4/I2CS.c ****             I2CS_CTRL_REG &= ~I2CS_CTRL_EC_AM_MODE;
 353              		.loc 1 805 0
 354 0014 1868     		ldr	r0, [r3]
 355 0016 0749     		ldr	r1, .L27+8
 356 0018 0140     		ands	r1, r0
 357 001a 1960     		str	r1, [r3]
 806:Generated_Source\PSoC4/I2CS.c ****             I2CS_CTRL_REG |=  I2CS_CTRL_EC_AM_MODE;
 358              		.loc 1 806 0
 359 001c 1968     		ldr	r1, [r3]
 360 001e 0A43     		orrs	r2, r1
 361 0020 1A60     		str	r2, [r3]
 362              	.L23:
 807:Generated_Source\PSoC4/I2CS.c ****         }
 808:Generated_Source\PSoC4/I2CS.c **** 
 809:Generated_Source\PSoC4/I2CS.c ****         I2CS_I2C_SLAVE_CMD_REG = I2CS_I2C_SLAVE_CMD_S_NACK;
 363              		.loc 1 809 0
 364 0022 0222     		movs	r2, #2
 365 0024 044B     		ldr	r3, .L27+12
 810:Generated_Source\PSoC4/I2CS.c ****     }
 366              		.loc 1 810 0
 367              		@ sp needed
 809:Generated_Source\PSoC4/I2CS.c ****     }
 368              		.loc 1 809 0
 369 0026 1A60     		str	r2, [r3]
 370              		.loc 1 810 0
 371 0028 7047     		bx	lr
 372              	.L28:
 373 002a C046     		.align	2
 374              	.L27:
 375 002c 00000640 		.word	1074135040
 376 0030 60000640 		.word	1074135136
 377 0034 FFFEFFFF 		.word	-257
 378 0038 6C000640 		.word	1074135148
 379              		.cfi_endproc
 380              	.LFE10:
 381              		.size	I2CS_I2CSlaveNackGeneration, .-I2CS_I2CSlaveNackGeneration
 382              		.global	I2CS_customIntrHandler
 383              		.global	I2CS_initVar
 384              		.bss
 385              		.align	2
 386              		.set	.LANCHOR0,. + 0
 387              		.type	I2CS_initVar, %object
 388              		.size	I2CS_initVar, 1
 389              	I2CS_initVar:
 390 0000 00       		.space	1
 391 0001 000000   		.space	3
 392              		.type	I2CS_customIntrHandler, %object
 393              		.size	I2CS_customIntrHandler, 4
 394              	I2CS_customIntrHandler:
 395 0004 00000000 		.space	4
 396              		.text
 397              	.Letext0:
 398              		.file 2 "Generated_Source\\PSoC4/cytypes.h"
ARM GAS  C:\Users\jhkim\AppData\Local\Temp\cclRqDXR.s 			page 23


 399              		.file 3 "Generated_Source\\PSoC4\\I2CS_I2C_PVT.h"
 400              		.file 4 "Generated_Source\\PSoC4/CyLib.h"