ARM GAS  C:\Users\young\AppData\Local\Temp\ccRRoTpk.s 			page 1


   1              		.syntax unified
   2              		.cpu cortex-m0
   3              		.fpu softvfp
   4              		.eabi_attribute 20, 1
   5              		.eabi_attribute 21, 1
   6              		.eabi_attribute 23, 3
   7              		.eabi_attribute 24, 1
   8              		.eabi_attribute 25, 1
   9              		.eabi_attribute 26, 1
  10              		.eabi_attribute 30, 2
  11              		.eabi_attribute 34, 0
  12              		.eabi_attribute 18, 4
  13              		.thumb
  14              		.syntax unified
  15              		.file	"main.c"
  16              		.text
  17              	.Ltext0:
  18              		.cfi_sections	.debug_frame
  19              		.section	.text.InterruptHandler,"ax",%progbits
  20              		.align	2
  21              		.global	InterruptHandler
  22              		.code	16
  23              		.thumb_func
  24              		.type	InterruptHandler, %function
  25              	InterruptHandler:
  26              	.LFB32:
  27              		.file 1 "main.c"
   1:main.c        ****  /* ========================================
   2:main.c        ****  *
   3:main.c        ****  * Copyright YOUR COMPANY, THE YEAR
   4:main.c        ****  * All Rights Reserved
   5:main.c        ****  * UNPUBLISHED, LICENSED SOFTWARE.
   6:main.c        ****  *
   7:main.c        ****  * CONFIDENTIAL AND PROPRIETARY INFORMATION
   8:main.c        ****  * WHICH IS THE PROPERTY OF your company.
   9:main.c        ****  *
  10:main.c        ****  * ========================================
  11:main.c        **** */
  12:main.c        **** // /* unit8 widget is in Widgets constants definition of CapSense_CSHL.h */
  13:main.c        **** 
  14:main.c        **** //<A1_Global_Multi>
  15:main.c        **** 
  16:main.c        **** #include <project.h>
  17:main.c        **** #include <header.h>
  18:main.c        **** #include "CapSense_CSHL.h"
  19:main.c        **** 
  20:main.c        **** #define Debug
  21:main.c        **** 
  22:main.c        **** #ifdef Debug
  23:main.c        **** #define hawkeye
  24:main.c        **** //#define CYDebug
  25:main.c        **** #endif
  26:main.c        **** 
  27:main.c        **** #ifdef hawkeye
  28:main.c        ****    extern void report_debug_data( void );
  29:main.c        ****    unsigned char d = 0;
  30:main.c        **** #endif
ARM GAS  C:\Users\young\AppData\Local\Temp\ccRRoTpk.s 			page 2


  31:main.c        **** extern uint16 CapSense_SensorSignal[6u];
  32:main.c        **** //extern uint16 CapSense_SensorSignal[CapSense_TOTAL_SENSOR_COUNT];
  33:main.c        **** extern uint16 CapSense_sensorRaw[CapSense_TOTAL_SENSOR_COUNT];
  34:main.c        **** extern uint16 CapSense_sensorBaseline[CapSense_TOTAL_SENSOR_COUNT];
  35:main.c        **** //extern uint8 CapSense_sensorOnMask[(((CapSense_TOTAL_SENSOR_COUNT - 1u) / 8u) + 1u)];
  36:main.c        **** extern uint8 CapSense_sensorOnMask[1u];
  37:main.c        **** /* Cypress Functions */
  38:main.c        **** CY_ISR_PROTO (WDT_ISR);
  39:main.c        **** uint32 ILODelayCycles_0 = 0;
  40:main.c        **** uint32 ILODelayCycles_1 = 0;
  41:main.c        **** 
  42:main.c        **** //------------------------ User Value & Function ------------------------//
  43:main.c        **** 
  44:main.c        **** /* Initialize Baseline for filter with specific sensing count */
  45:main.c        **** void CapSense_CSD_InitializeAllBaselines_Filtered(uint8 Repeat);
  46:main.c        **** void CapSense_CSD_InitializeSensorBaseline_Filtered(uint32 sensor);
  47:main.c        **** void CapSense_CSD_BaseInit_Filtered(uint32 sensor);
  48:main.c        **** #define BaselineUpdateCount 16u
  49:main.c        **** extern uint16 CapSense_rawFilterData1[CapSense_TOTAL_SENSOR_COUNT];
  50:main.c        **** 
  51:main.c        **** /* WDT */
  52:main.c        **** #define wdt_ms 40u
  53:main.c        **** void WDT_Clear(void);
  54:main.c        **** void Clear_WDT_With_Flag(void);
  55:main.c        **** void Set_WDT_Clear_Flag(uint8 value);
  56:main.c        **** //void WDT_Init(uint16 WDTResetTime, uint16 WDTSleepTime);
  57:main.c        **** void WDT_Init(uint8 IgnoreBit, uint16 Match);
  58:main.c        **** void WDT_Match_Init(uint8 IgnoreBit, uint16 Match);
  59:main.c        **** void Force_WDT_Reset(void);
  60:main.c        **** uint8 WDT_Clear_Flag = 0u;
  61:main.c        **** uint16 WDT_Ignore;  
  62:main.c        **** uint16 WDT_Match;
  63:main.c        **** 
  64:main.c        **** /* SleepMode */
  65:main.c        **** //#define WDT_RESET_TIME 2000u * 32 /* WDT reset time */    
  66:main.c        **** //#define WDT_INTERRUPT_TIME 100 * 32  /* WDT Interrupt for sleep */
  67:main.c        **** #define WDT_RESET_TIME 1 /* WDT reset time */    
  68:main.c        **** #define WDT_INTERRUPT_TIME 20  /* WDT Interrupt for sleep */
  69:main.c        **** 
  70:main.c        **** unsigned char key_scan_count;
  71:main.c        **** extern unsigned int temp[CapSense_TOTAL_SENSOR_COUNT];
  72:main.c        **** 
  73:main.c        **** #ifdef Debug
  74:main.c        **** void CapSense_UpdateEnabledBaselines_Filter(void);
  75:main.c        **** void CapSense_UpdateSensorBaseline_Filter(uint32 sensor);
  76:main.c        **** void CapSense_UpdateBaselineNoThreshold_Filter(uint32 sensor);
  77:main.c        **** uint16 Capsense_FilteredRawData[CapSense_TOTAL_SENSOR_COUNT];
  78:main.c        **** uint16 Sub_Buff[CapSense_TOTAL_SENSOR_COUNT];
  79:main.c        **** uint8 SignalBit_Debug = 0;
  80:main.c        **** #endif
  81:main.c        **** /*******************************************************************************
  82:main.c        **** * Define Interrupt service routine and allocate an vector to the Interrupt
  83:main.c        **** ********************************************************************************/
  84:main.c        **** CY_ISR(InterruptHandler)        //SimpleUX   Timer ISR 설정
  85:main.c        **** {
  28              		.loc 1 85 0
  29              		.cfi_startproc
ARM GAS  C:\Users\young\AppData\Local\Temp\ccRRoTpk.s 			page 3


  30              		@ args = 0, pretend = 0, frame = 0
  31              		@ frame_needed = 0, uses_anonymous_args = 0
  32 0000 10B5     		push	{r4, lr}
  33              		.cfi_def_cfa_offset 8
  34              		.cfi_offset 4, -8
  35              		.cfi_offset 14, -4
  86:main.c        ****     Timer_1_ClearInterrupt(Timer_1_INTR_MASK_CC_MATCH);
  36              		.loc 1 86 0
  37 0002 0220     		movs	r0, #2
  38 0004 FFF7FEFF 		bl	Timer_1_ClearInterrupt
  39              	.LVL0:
  40              	.LBB10:
  41              	.LBB11:
  87:main.c        ****     
  88:main.c        ****     Set_WDT_Clear_Flag(1);
  89:main.c        **** }
  90:main.c        **** 
  91:main.c        **** void FirstSensingData(void);
  92:main.c        **** 
  93:main.c        **** #ifdef CYDebug
  94:main.c        **** #define SW_UART_PORT        (3u)
  95:main.c        **** #define SW_UART_PIN         (0u)
  96:main.c        **** #endif
  97:main.c        **** 
  98:main.c        **** int main(void)
  99:main.c        **** {
 100:main.c        **** 	/* Enable global interrupt */
 101:main.c        **** 	CyGlobalIntEnable;
 102:main.c        ****     
 103:main.c        ****     UnUsedPin_16_Write(0);
 104:main.c        ****     UnUsedPin_9_Write(0);
 105:main.c        ****     UnUsedPin_18_Write(0);
 106:main.c        ****     UnUsedPin_10_Write(0);
 107:main.c        ****     UnUsedPin_14_Write(0);
 108:main.c        ****     UnUsedPin_15_Write(0);
 109:main.c        ****     #ifndef CYDebug
 110:main.c        ****     hawkeye_clk_Write(0);
 111:main.c        ****     hawkeye_data_Write(0);
 112:main.c        ****     #endif
 113:main.c        ****         
 114:main.c        ****     Clock_1_Enable();                           //SimpleUX
 115:main.c        ****     
 116:main.c        ****     /* Enable the Interrupt component connected to interrupt */
 117:main.c        ****     TC_CC_ISR_StartEx(InterruptHandler);        //SimpleUX
 118:main.c        **** 
 119:main.c        **** 	/* Start the components */
 120:main.c        ****     Timer_1_Start();                            //SimpleUX
 121:main.c        ****     
 122:main.c        ****     #ifdef CYDebug
 123:main.c        ****     uint8 buff[46];
 124:main.c        ****     /* Configure SW_Tx_UART to use port and pin from defines above */
 125:main.c        ****     SW_Tx_UART_StartEx(SW_UART_PORT, SW_UART_PIN);
 126:main.c        ****     #endif
 127:main.c        ****     
 128:main.c        ****     //WDT_Init(WDT_RESET_TIME, WDT_INTERRUPT_TIME);   /* Initialize WDT Interval */
 129:main.c        ****     
 130:main.c        ****     CyDelay(20u);
ARM GAS  C:\Users\young\AppData\Local\Temp\ccRRoTpk.s 			page 4


 131:main.c        ****     CyDelay(20u);
 132:main.c        ****     
 133:main.c        **** 	/* Initialize and start the CapSense component */
 134:main.c        **** 	CapSense_Start();			
 135:main.c        ****     
 136:main.c        ****     FirstSensingData();
 137:main.c        ****     
 138:main.c        **** 	/* Initialize Baseline using Adapted filter */
 139:main.c        ****     CapSense_CSD_InitializeAllBaselines_Filtered(BaselineUpdateCount);
 140:main.c        ****     
 141:main.c        ****     
 142:main.c        **** 	while(1)	/* Sensor Scanning Loop */
 143:main.c        **** 	{      
 144:main.c        **** 		/* Start scanning all enabled sensors */
 145:main.c        **** 		CapSense_ScanEnabledWidgets();
 146:main.c        **** 		
 147:main.c        ****         /* Wait for scanning to complete */
 148:main.c        **** 		while(CapSense_IsBusy() != 0)
 149:main.c        ****         {
 150:main.c        ****         }
 151:main.c        ****         
 152:main.c        **** 		/* Update all baselines */
 153:main.c        ****         #ifdef Debug
 154:main.c        ****         CapSense_UpdateEnabledBaselines_Filter();
 155:main.c        ****         #else
 156:main.c        ****         CapSense_UpdateEnabledBaselines();    
 157:main.c        ****         #endif
 158:main.c        ****         
 159:main.c        ****         /* Is any sensor active? */
 160:main.c        ****         CapSense_CheckIsAnyWidgetActive();
 161:main.c        ****         
 162:main.c        ****         #ifdef CYDebug
 163:main.c        ****         //Fill in output buffer by the sinValue
 164:main.c        ****         buff[0]  = 0x0D;
 165:main.c        ****         buff[1]  = 0x0a;
 166:main.c        ****         #if 1
 167:main.c        ****         buff[2]  = CapSense_SensorOnMask[0];
 168:main.c        ****         buff[3]  = CapSense_SensorOnMask[1];
 169:main.c        ****         
 170:main.c        ****         for(SignalBit_Debug = 0; SignalBit_Debug < CapSense_TOTAL_SENSOR_COUNT; SignalBit_Debug++)
 171:main.c        ****         {
 172:main.c        ****             Sub_Buff[SignalBit_Debug] = (Capsense_FilteredRawData[SignalBit_Debug] > CapSense_Senso
 173:main.c        ****         }
 174:main.c        ****         
 175:main.c        ****         for(SignalBit_Debug = 0; SignalBit_Debug < CapSense_TOTAL_SENSOR_COUNT; SignalBit_Debug++)
 176:main.c        ****         {
 177:main.c        ****             buff[(SignalBit_Debug*2)+4] = Sub_Buff[SignalBit_Debug];
 178:main.c        ****             buff[(SignalBit_Debug*2)+5] = Sub_Buff[SignalBit_Debug]>>8;
 179:main.c        ****         }
 180:main.c        ****         //Send data to host
 181:main.c        ****         SW_Tx_UART_PutArray(buff, 27);
 182:main.c        ****         #endif
 183:main.c        ****         #if 0
 184:main.c        ****         for(SignalBit_Debug = 0; SignalBit_Debug < CapSense_TOTAL_SENSOR_COUNT; SignalBit_Debug++)
 185:main.c        ****         {
 186:main.c        ****             //buff[(SignalBit_Debug*2)+2] = CapSense_SensorRaw[SignalBit_Debug];
 187:main.c        ****             //buff[(SignalBit_Debug*2)+3] = CapSense_SensorRaw[SignalBit_Debug]>>8;
ARM GAS  C:\Users\young\AppData\Local\Temp\ccRRoTpk.s 			page 5


 188:main.c        ****             buff[(SignalBit_Debug*2)+2] = Capsense_FilteredRawData[SignalBit_Debug];
 189:main.c        ****             buff[(SignalBit_Debug*2)+3] = Capsense_FilteredRawData[SignalBit_Debug]>>8;
 190:main.c        ****         }
 191:main.c        ****         for(SignalBit_Debug = 0; SignalBit_Debug < CapSense_TOTAL_SENSOR_COUNT; SignalBit_Debug++)
 192:main.c        ****         {
 193:main.c        ****             buff[(SignalBit_Debug*2)+24] = CapSense_SensorBaseline[SignalBit_Debug];
 194:main.c        ****             buff[(SignalBit_Debug*2)+25] = CapSense_SensorBaseline[SignalBit_Debug]>>8;
 195:main.c        ****         }
 196:main.c        ****         //Send data to host
 197:main.c        ****         SW_Tx_UART_PutArray(buff, 46);
 198:main.c        ****         /*
 199:main.c        ****         if(debugflag == 1)
 200:main.c        ****         {
 201:main.c        ****             debugcnt = 0;
 202:main.c        ****             debugflag = 0;
 203:main.c        ****         }
 204:main.c        ****         */
 205:main.c        ****         #endif
 206:main.c        ****         #endif
 207:main.c        ****         
 208:main.c        ****         #ifdef hawkeye
 209:main.c        ****             for(SignalBit_Debug = 0; SignalBit_Debug < CapSense_TOTAL_SENSOR_COUNT; SignalBit_Debug
 210:main.c        ****             {
 211:main.c        ****                 Sub_Buff[SignalBit_Debug] = (Capsense_FilteredRawData[SignalBit_Debug] > CapSense_S
 212:main.c        ****             }
 213:main.c        ****             //temp[0] = sleep_flag;
 214:main.c        ****             //temp[0] = CapSense_GetModulationIDAC(0);
 215:main.c        ****             //temp[0] = CapSense_GetDebounce(25);
 216:main.c        ****             //temp[0] = comm_err_flag;
 217:main.c        ****             if(d < 2)
 218:main.c        ****             {
 219:main.c        ****                 d++;
 220:main.c        ****             }
 221:main.c        ****             else
 222:main.c        ****             {
 223:main.c        ****                 report_debug_data();       
 224:main.c        ****                 d = 0;
 225:main.c        ****             }
 226:main.c        ****         #endif
 227:main.c        **** 	}
 228:main.c        **** }
 229:main.c        **** #if 0
 230:main.c        **** void Long_key_detect(void)
 231:main.c        **** {
 232:main.c        ****     unsigned char i = 0;
 233:main.c        ****     uint8 flag = 0;
 234:main.c        ****     
 235:main.c        ****     for( i = 0; i < CapSense_TOTAL_SENSOR_COUNT; i++)
 236:main.c        ****     {
 237:main.c        ****         if(CapSense_SensorSignal[i] > CapSense_noiseThreshold[i])
 238:main.c        ****         {
 239:main.c        ****             flag = 1;
 240:main.c        ****             break;
 241:main.c        ****         }
 242:main.c        ****         else
 243:main.c        ****         {
 244:main.c        ****         }
ARM GAS  C:\Users\young\AppData\Local\Temp\ccRRoTpk.s 			page 6


 245:main.c        ****     }
 246:main.c        ****     
 247:main.c        ****     
 248:main.c        ****     long_key_start = flag;
 249:main.c        **** }
 250:main.c        **** 
 251:main.c        **** void Abnormal_Capsense_Detect(void)
 252:main.c        **** {
 253:main.c        ****     uint8 i = 0;
 254:main.c        ****     
 255:main.c        ****     for(i = 0; i < CapSense_TOTAL_SENSOR_COUNT; i++)
 256:main.c        ****     {
 257:main.c        ****         if((CapSense_SensorRaw[i] <= (uint16)(((uint32)Resolution_Max[i]*Abnormal_Capsense_detect_L
 258:main.c        ****            (CapSense_SensorRaw[i] >= (uint16)(((uint32)Resolution_Max[i]*Abnormal_Capsense_detect_H
 259:main.c        ****         {
 260:main.c        ****             Abnormal_Capsense_Flag = 1;
 261:main.c        ****             break;
 262:main.c        ****         }
 263:main.c        ****         else
 264:main.c        ****         {
 265:main.c        ****             Abnormal_Capsense_Flag = 0;
 266:main.c        ****         }
 267:main.c        ****     }
 268:main.c        **** }
 269:main.c        **** 
 270:main.c        **** void baseline_check(void)
 271:main.c        **** {
 272:main.c        ****     unsigned char i = 0;
 273:main.c        ****     for( i = 0; i < CapSense_TOTAL_SENSOR_COUNT ; i++)
 274:main.c        ****     {
 275:main.c        ****         if( (CapSense_sensorBaseline[i] > ((default_baseline[i]*12)/10)) && (CapSense_GetModulation
 276:main.c        ****         {
 277:main.c        ****             CapSense_SetModulationIDAC(i,( (IDAC_val[i]*135)/100));
 278:main.c        ****             CapSense_SetFingerThreshold(i,((F_thersholds[i]*85)/100));
 279:main.c        ****             CapSense_SetNoiseThreshold(i, (((F_thersholds[i]*85)/100) - (CapSense_GetFingerHysteres
 280:main.c        ****             CapSense_InitializeSensorBaseline(i);
 281:main.c        ****             CyDelay(5u);
 282:main.c        ****         }
 283:main.c        ****         else if( (CapSense_sensorBaseline[i] < ((default_baseline[i]*8)/10)) && (CapSense_GetModula
 284:main.c        ****         {
 285:main.c        ****             CapSense_SetModulationIDAC(i,IDAC_val[i]);
 286:main.c        ****             CapSense_SetFingerThreshold(i,F_thersholds[i]);
 287:main.c        ****             CapSense_SetNoiseThreshold(i, (F_thersholds[i] - (CapSense_GetFingerHysteresis(i)) - 1)
 288:main.c        ****             CapSense_InitializeSensorBaseline(i);
 289:main.c        ****             CyDelay(5u);
 290:main.c        ****         }  
 291:main.c        ****         #ifdef hawkeye
 292:main.c        ****             //temp[i] = CapSense_GetModulationIDAC(i);
 293:main.c        ****             //temp[i] = CapSense_GetFingerThreshold(i);
 294:main.c        ****         #endif
 295:main.c        ****     }
 296:main.c        **** }
 297:main.c        **** 
 298:main.c        **** void multikey_check(void)
 299:main.c        **** {
 300:main.c        ****     #if 1
 301:main.c        ****     unsigned char i, a, count_multi_key = 0;
ARM GAS  C:\Users\young\AppData\Local\Temp\ccRRoTpk.s 			page 7


 302:main.c        ****     
 303:main.c        ****     //multikey_flag = 0;
 304:main.c        ****     
 305:main.c        ****     if(CapSense_SensorOnMask[1] & 0x04)
 306:main.c        ****     {
 307:main.c        ****         count_multi_key++;
 308:main.c        ****     }
 309:main.c        ****     
 310:main.c        ****     for(i = 0 ; i < 2 ; i++)
 311:main.c        ****     {
 312:main.c        ****         a = (0x01 << i);
 313:main.c        ****         if( (CapSense_SensorOnMask[0] & a) )
 314:main.c        ****         {
 315:main.c        ****             count_multi_key++;
 316:main.c        ****         }
 317:main.c        ****     }
 318:main.c        ****     
 319:main.c        ****     if( count_multi_key >= 2 )
 320:main.c        ****     {        
 321:main.c        ****         multikey_flag = 1;
 322:main.c        ****     }
 323:main.c        ****     
 324:main.c        ****     if( (CapSense_SensorOnMask[0] == 0x00) && (CapSense_SensorOnMask[1] == 0x00) )
 325:main.c        ****     {
 326:main.c        ****         multikey_flag = 0;
 327:main.c        ****     }
 328:main.c        ****     #endif
 329:main.c        **** }
 330:main.c        **** 
 331:main.c        **** void Power_key_control(void)
 332:main.c        **** {
 333:main.c        ****     //if(PowerKeyCnt < 40)    //Power key가 100ms 미만으로 눌림
 334:main.c        ****     if(PowerKeyCnt < 80)    //Power key가 200ms 미만으로 눌림
 335:main.c        ****     {
 336:main.c        ****         Pin_Power_Write(1);
 337:main.c        ****             
 338:main.c        ****         if( (CapSense_SensorOnMask[1] & 0x04) && (multikey_flag == 0))
 339:main.c        ****             PowerKeyFlag = 1;
 340:main.c        ****         else
 341:main.c        ****             PowerKeyFlag = 0;
 342:main.c        ****     }
 343:main.c        ****     //else if(PowerKeyCnt < 80) //Power key가 100ms 이상으로 눌림, 100ms 동안 LOW 유지
 344:main.c        ****     else if(PowerKeyCnt < 120) //Power key가 100ms 이상으로 눌림, 100ms 동안 LOW 유지
 345:main.c        ****     {        
 346:main.c        ****         Pin_Power_Write(0);
 347:main.c        ****     }
 348:main.c        ****     else //Power key 가 100ms 눌린 후 Pin_Power_Write(0) 출력 하며 100ms 이상이 지남
 349:main.c        ****     {
 350:main.c        ****         if(CapSense_SensorOnMask[1] & 0x04)
 351:main.c        ****             Pin_Power_Write(0); 
 352:main.c        ****         else
 353:main.c        ****         {
 354:main.c        ****             Pin_Power_Write(1);             
 355:main.c        ****             PowerKeyFlag = 0;
 356:main.c        ****         }
 357:main.c        ****     }
 358:main.c        **** }
ARM GAS  C:\Users\young\AppData\Local\Temp\ccRRoTpk.s 			page 8


 359:main.c        **** 
 360:main.c        **** void SensorEnable(void)
 361:main.c        **** {
 362:main.c        ****     uint8 i = 0;
 363:main.c        ****     
 364:main.c        ****     /* Scan only the Button 10 sensor */
 365:main.c        ****     CapSense_ScanSensor(CapSense_BUTTON10__BTN);
 366:main.c        ****     /* Wait for scanning to complete */
 367:main.c        ****     while(CapSense_IsBusy() != 0);
 368:main.c        ****     /* Update the baseline of only the Button 10 sensor*/
 369:main.c        ****    	CapSense_UpdateSensorBaseline(CapSense_BUTTON10__BTN);
 370:main.c        ****     /* Check if the Button 10 sensor is active */
 371:main.c        ****     bButtonTouchOnOffStatus = CapSense_CheckIsWidgetActive(CapSense_BUTTON10__BTN);
 372:main.c        ****     
 373:main.c        ****     
 374:main.c        ****     for(i = 0; i < 10; i++)
 375:main.c        ****     {
 376:main.c        ****         CapSense_ScanSensor(i);
 377:main.c        ****         while(CapSense_IsBusy() != 0);
 378:main.c        ****         CapSense_UpdateSensorBaseline(i);
 379:main.c        ****         CapSense_CheckIsWidgetActive(i);
 380:main.c        ****     }
 381:main.c        **** }
 382:main.c        **** #endif
 383:main.c        **** 
 384:main.c        **** void WDT_Clear(void)
 385:main.c        **** {
 386:main.c        ****     //CySysWdtResetCounters(CY_SYS_WDT_COUNTER1_RESET);
 387:main.c        ****     /* Watchdog Clear */
 388:main.c        ****     CySysWdtClearInterrupt();   
 389:main.c        **** }
 390:main.c        **** 
 391:main.c        **** void Clear_WDT_With_Flag(void)
 392:main.c        **** {    
 393:main.c        ****     if(WDT_Clear_Flag == 1)
 394:main.c        ****     {
 395:main.c        ****         WDT_Clear();
 396:main.c        ****         WDT_Clear_Flag = 0;
 397:main.c        ****     }
 398:main.c        **** }
 399:main.c        **** 
 400:main.c        **** void Set_WDT_Clear_Flag(uint8 value)
 401:main.c        **** {
 402:main.c        ****     WDT_Clear_Flag = value;
  42              		.loc 1 402 0
  43 0008 0122     		movs	r2, #1
  44 000a 014B     		ldr	r3, .L2
  45              	.LBE11:
  46              	.LBE10:
  89:main.c        **** 
  47              		.loc 1 89 0
  48              		@ sp needed
  49              	.LBB13:
  50              	.LBB12:
  51              		.loc 1 402 0
  52 000c 1A70     		strb	r2, [r3]
  53              	.LVL1:
ARM GAS  C:\Users\young\AppData\Local\Temp\ccRRoTpk.s 			page 9


  54              	.LBE12:
  55              	.LBE13:
  89:main.c        **** 
  56              		.loc 1 89 0
  57 000e 10BD     		pop	{r4, pc}
  58              	.L3:
  59              		.align	2
  60              	.L2:
  61 0010 00000000 		.word	.LANCHOR0
  62              		.cfi_endproc
  63              	.LFE32:
  64              		.size	InterruptHandler, .-InterruptHandler
  65              		.section	.text.WDT_ISR,"ax",%progbits
  66              		.align	2
  67              		.global	WDT_ISR
  68              		.code	16
  69              		.thumb_func
  70              		.type	WDT_ISR, %function
  71              	WDT_ISR:
  72              	.LFB47:
 403:main.c        **** }
 404:main.c        **** 
 405:main.c        **** /***********************************************************************/
 406:main.c        **** /* For void CapSense_CSD_InitializeAllBaselines_Filtered(uint8 Repeat) */
 407:main.c        **** /***********************************************************************/
 408:main.c        **** /* Baseline Calibration using Filter */
 409:main.c        **** void CapSense_CSD_InitializeAllBaselines_Filtered(uint8 Repeat)
 410:main.c        **** {
 411:main.c        ****     uint32 i;
 412:main.c        ****     uint8 j;
 413:main.c        ****     
 414:main.c        ****     for(j=0u;j<Repeat;j++)    /* Repeat N Times */
 415:main.c        ****     {
 416:main.c        ****         for(i = 0u; i < CapSense_TOTAL_SCANSLOT_COUNT; i++)
 417:main.c        ****         {
 418:main.c        ****             CapSense_CSD_InitializeSensorBaseline_Filtered(i);
 419:main.c        ****  
 420:main.c        ****         }
 421:main.c        ****     }
 422:main.c        **** }
 423:main.c        **** 
 424:main.c        **** /* IIR 필터 사용 하기 위하여 RawCount를 측정 */
 425:main.c        **** void CapSense_CSD_InitializeSensorBaseline_Filtered(uint32 sensor)
 426:main.c        **** {
 427:main.c        ****     /* Scan sensor */
 428:main.c        **** #if 1
 429:main.c        ****     CapSense_ScanSensor(sensor);
 430:main.c        ****     while(CapSense_IsBusy() != 0u)
 431:main.c        ****     { 
 432:main.c        ****         /* Wait while sensor is busy */
 433:main.c        ****     }
 434:main.c        **** #endif
 435:main.c        **** 
 436:main.c        ****     /* Initialize Baseline, Signal and debounce counters */
 437:main.c        ****     CapSense_CSD_BaseInit_Filtered(sensor);
 438:main.c        **** }
 439:main.c        **** 
ARM GAS  C:\Users\young\AppData\Local\Temp\ccRRoTpk.s 			page 10


 440:main.c        **** /* 필터를 거친 값을 Baseline에 저장 */
 441:main.c        **** void CapSense_CSD_BaseInit_Filtered(uint32 sensor)
 442:main.c        **** {    
 443:main.c        ****     uint16 filteredRawData;        
 444:main.c        ****     
 445:main.c        ****     #if ((CapSense_CSD_TOTAL_BUTTONS_COUNT) || (CapSense_CSD_TOTAL_MATRIX_BUTTONS_COUNT) || \
 446:main.c        ****          (CapSense_CSD_TOTAL_GENERICS_COUNT))
 447:main.c        ****         uint8 widget = CapSense_CSD_widgetNumber[sensor];
 448:main.c        ****     #endif /* ((CapSense_CSD_TOTAL_MATRIX_BUTTONS_COUNT) || (CapSense_CSD_TOTAL_MATRIX_BUTTONS_COUN
 449:main.c        **** 
 450:main.c        ****     #if (CapSense_CSD_TOTAL_MATRIX_BUTTONS_COUNT)
 451:main.c        ****         uint8 debounceIndex;
 452:main.c        ****     #endif  /* (CapSense_CSD_TOTAL_MATRIX_BUTTONS_COUNT) */
 453:main.c        **** 
 454:main.c        ****     #if (CapSense_CSD_TOTAL_GENERICS_COUNT)
 455:main.c        ****         /* Exclude generic widget */
 456:main.c        ****         if(widget < CapSense_CSD_END_OF_WIDGETS_INDEX)
 457:main.c        ****         {
 458:main.c        ****     #endif  /* CapSense_CSD_TOTAL_GENERICS_COUNT */
 459:main.c        ****     
 460:main.c        ****     /* Filtered RawCount */
 461:main.c        ****     filteredRawData = CapSense_sensorRaw[sensor];
 462:main.c        ****     
 463:main.c        ****     filteredRawData = CapSense_IIR4Filter(filteredRawData, CapSense_rawFilterData1[sensor]);
 464:main.c        ****     CapSense_rawFilterData1[sensor] = filteredRawData;
 465:main.c        **** 
 466:main.c        ****     
 467:main.c        ****     /* Initialize Baseline */    
 468:main.c        ****     CapSense_sensorBaseline[sensor] = CapSense_rawFilterData1[sensor];
 469:main.c        ****     CapSense_sensorBaselineLow[sensor] = 0u;
 470:main.c        ****     CapSense_sensorSignal[sensor] = 0u;
 471:main.c        **** 
 472:main.c        ****     //CapSense_CSD_debounceCounter0[widget] =  OnDebounce[widget];
 473:main.c        ****     //CapSense_CSD_debounceCounter1[widget] =  OffDebounce[widget];
 474:main.c        ****     
 475:main.c        **** }
 476:main.c        ****         
 477:main.c        **** void FirstSensingData(void)
 478:main.c        **** {
 479:main.c        ****     uint32 i;
 480:main.c        ****     
 481:main.c        ****     for(i = 0u; i < CapSense_TOTAL_SCANSLOT_COUNT; i++)
 482:main.c        ****     {
 483:main.c        ****         CapSense_ScanSensor(i);
 484:main.c        ****         
 485:main.c        ****         while(CapSense_IsBusy() != 0u)
 486:main.c        ****         { 
 487:main.c        ****             /* Wait while sensor is busy */
 488:main.c        ****         }
 489:main.c        ****         
 490:main.c        ****         CapSense_rawFilterData1[i] = CapSense_sensorRaw[i];
 491:main.c        ****     }
 492:main.c        **** }
 493:main.c        **** 
 494:main.c        **** #ifdef Debug
 495:main.c        **** /***********************************************************************/
 496:main.c        **** /* For void CapSense_UpdateEnabledBaselines_Filter */
ARM GAS  C:\Users\young\AppData\Local\Temp\ccRRoTpk.s 			page 11


 497:main.c        **** /***********************************************************************/
 498:main.c        **** void CapSense_UpdateEnabledBaselines_Filter(void)
 499:main.c        **** {
 500:main.c        ****     uint32 i;
 501:main.c        ****     uint32 isSensorEnabled;
 502:main.c        **** 
 503:main.c        ****     for(i = 0u; i < CapSense_TOTAL_SENSOR_COUNT; i++)
 504:main.c        ****     {
 505:main.c        ****         isSensorEnabled = CapSense_GetBitValue(CapSense_sensorEnableMask, i);
 506:main.c        **** 
 507:main.c        ****         if(0u != isSensorEnabled)
 508:main.c        ****         {
 509:main.c        ****             //CapSense_UpdateSensorBaseline(i);
 510:main.c        ****             CapSense_UpdateSensorBaseline_Filter(i);
 511:main.c        ****         }
 512:main.c        ****     }
 513:main.c        **** }
 514:main.c        **** 
 515:main.c        ****  void CapSense_UpdateSensorBaseline_Filter(uint32 sensor)
 516:main.c        **** {
 517:main.c        ****     #if (CapSense_TOTAL_GENERICS_COUNT)
 518:main.c        ****         uint32 widget;
 519:main.c        **** 
 520:main.c        ****         widget = CapSense_widgetNumber[sensor];
 521:main.c        **** 
 522:main.c        ****         /* Exclude generic widget */
 523:main.c        ****         if(widget < CapSense_END_OF_WIDGETS_INDEX)
 524:main.c        ****         {
 525:main.c        ****     #endif  /* CapSense_TOTAL_GENERICS_COUNT */
 526:main.c        **** 
 527:main.c        ****     #if (CapSense_TUNING_METHOD == CapSense__TUNING_AUTO)
 528:main.c        ****         CapSense_UpdateThresholds(sensor);
 529:main.c        ****     #endif /* (CapSense_TUNING_METHOD == CapSense__TUNING_AUTO) */
 530:main.c        **** 
 531:main.c        ****     //CapSense_UpdateBaselineNoThreshold(sensor);
 532:main.c        ****     CapSense_UpdateBaselineNoThreshold_Filter(sensor);
 533:main.c        **** 
 534:main.c        ****     #if (CapSense_TOTAL_GENERICS_COUNT)
 535:main.c        ****         /* Exclude generic widget */
 536:main.c        ****         }
 537:main.c        ****     #endif  /* CapSense_TOTAL_GENERICS_COUNT */
 538:main.c        **** }
 539:main.c        **** 
 540:main.c        **** void CapSense_UpdateBaselineNoThreshold_Filter(uint32 sensor)
 541:main.c        **** {
 542:main.c        ****     uint32 calc;
 543:main.c        ****     uint32 sign;
 544:main.c        ****     uint16 tempRaw;
 545:main.c        ****     uint16 AveragetempRaw;
 546:main.c        ****     uint16 filteredRawData;
 547:main.c        ****     uint8 widget = CapSense_widgetNumber[sensor];
 548:main.c        ****     uint16 noiseThreshold;
 549:main.c        **** 
 550:main.c        ****     #if (CapSense_TOTAL_GENERICS_COUNT)
 551:main.c        ****         /* Exclude generic widget */
 552:main.c        ****         if(widget < CapSense_END_OF_WIDGETS_INDEX)
 553:main.c        ****         {
ARM GAS  C:\Users\young\AppData\Local\Temp\ccRRoTpk.s 			page 12


 554:main.c        ****     #endif  /* CapSense_TOTAL_GENERICS_COUNT */
 555:main.c        **** 
 556:main.c        ****     noiseThreshold = CapSense_noiseThreshold[widget];
 557:main.c        ****     filteredRawData = CapSense_sensorRaw[sensor];
 558:main.c        **** 
 559:main.c        ****     #if (CapSense_RAW_FILTER_MASK != 0u)
 560:main.c        ****     //if(CapSense_enableRawFilters != 0u)
 561:main.c        ****     {
 562:main.c        ****         #if (CapSense_RAW_FILTER_MASK & CapSense_MEDIAN_FILTER)
 563:main.c        ****             tempRaw = filteredRawData;
 564:main.c        ****             filteredRawData = CapSense_MedianFilter(filteredRawData, CapSense_rawFilterData1[sensor
 565:main.c        ****                                                             CapSense_rawFilterData2[sensor]);
 566:main.c        ****             CapSense_rawFilterData2[sensor] = CapSense_rawFilterData1[sensor];
 567:main.c        ****             CapSense_rawFilterData1[sensor] = tempRaw;
 568:main.c        **** 
 569:main.c        ****         #elif (CapSense_RAW_FILTER_MASK & CapSense_AVERAGING_FILTER)
 570:main.c        ****             tempRaw = filteredRawData;
 571:main.c        ****             filteredRawData = CapSense_AveragingFilter(filteredRawData, CapSense_rawFilterData1[sen
 572:main.c        ****                                                                CapSense_rawFilterData2[sensor]);
 573:main.c        ****             CapSense_rawFilterData2[sensor] = CapSense_rawFilterData1[sensor];
 574:main.c        ****             CapSense_rawFilterData1[sensor] = tempRaw;
 575:main.c        **** 
 576:main.c        ****         #elif (CapSense_RAW_FILTER_MASK & CapSense_IIR2_FILTER)
 577:main.c        ****             filteredRawData = CapSense_IIR2Filter(filteredRawData, CapSense_rawFilterData1[sensor])
 578:main.c        ****             CapSense_rawFilterData1[sensor] = filteredRawData;
 579:main.c        **** 
 580:main.c        ****         #elif (CapSense_RAW_FILTER_MASK & CapSense_IIR4_FILTER)
 581:main.c        ****             filteredRawData = CapSense_IIR4Filter(filteredRawData, CapSense_rawFilterData1[sensor])
 582:main.c        ****             CapSense_rawFilterData1[sensor] = filteredRawData;
 583:main.c        ****             Capsense_FilteredRawData[sensor] = filteredRawData;
 584:main.c        ****                     
 585:main.c        ****             #if 0
 586:main.c        ****             /* Add AverageFilter */
 587:main.c        ****             AveragetempRaw = filteredRawData;
 588:main.c        ****             filteredRawData = CapSense_USER_AverageFilter(filteredRawData, CapSense_Aver_rawFilterD
 589:main.c        ****             CapSense_Aver_rawFilterData2[sensor] = CapSense_Aver_rawFilterData1[sensor];
 590:main.c        ****             CapSense_Aver_rawFilterData1[sensor] = AveragetempRaw;
 591:main.c        ****             /* Add AverageFilter */
 592:main.c        **** 
 593:main.c        ****             /* Add MedianFilter */
 594:main.c        ****             tempRaw = filteredRawData;
 595:main.c        ****             filteredRawData = CapSense_USER_MEDIANFilter(filteredRawData, CapSense_rawFilterData1[s
 596:main.c        ****                                                      CapSense_rawFilterData3[sensor], CapSense_rawF
 597:main.c        ****             
 598:main.c        ****             //CapSense_rawFilterData6[sensor] = CapSense_rawFilterData5[sensor];
 599:main.c        ****             //CapSense_rawFilterData5[sensor] = CapSense_rawFilterData4[sensor];
 600:main.c        ****             CapSense_rawFilterData4[sensor] = CapSense_rawFilterData3[sensor];
 601:main.c        ****             CapSense_rawFilterData3[sensor] = CapSense_rawFilterData2[sensor];
 602:main.c        ****             CapSense_rawFilterData2[sensor] = CapSense_rawFilterData1[sensor];
 603:main.c        ****             CapSense_rawFilterData1[sensor] = tempRaw;
 604:main.c        ****             /* Add MedianFilter */     
 605:main.c        ****             #endif
 606:main.c        ****             
 607:main.c        ****         #elif (CapSense_RAW_FILTER_MASK & CapSense_JITTER_FILTER)
 608:main.c        ****             filteredRawData = CapSense_JitterFilter(filteredRawData, CapSense_rawFilterData1[sensor
 609:main.c        ****             CapSense_rawFilterData1[sensor] = filteredRawData;
 610:main.c        **** 
ARM GAS  C:\Users\young\AppData\Local\Temp\ccRRoTpk.s 			page 13


 611:main.c        ****         #elif (CapSense_RAW_FILTER_MASK & CapSense_IIR8_FILTER)
 612:main.c        ****             filteredRawData = CapSense_IIR8Filter(filteredRawData, CapSense_rawFilterData1[sensor])
 613:main.c        ****             CapSense_rawFilterData1[sensor] = filteredRawData;
 614:main.c        **** 
 615:main.c        ****         #elif (CapSense_RAW_FILTER_MASK & CapSense_IIR16_FILTER)
 616:main.c        ****             filteredRawData = CapSense_IIR16Filter(filteredRawData, CapSense_rawFilterData1[sensor]
 617:main.c        ****             CapSense_rawFilterData1[sensor] = filteredRawData;
 618:main.c        **** 
 619:main.c        ****         #else
 620:main.c        ****             /* No Raw filters */
 621:main.c        ****         #endif  /* (CapSense_RAW_FILTER_MASK & CapSense_MEDIAN_FILTER) */
 622:main.c        ****     }
 623:main.c        ****     #endif  /* (CapSense_RAW_FILTER_MASK != 0u) */
 624:main.c        **** 
 625:main.c        ****     #if (CapSense_TUNING_METHOD == CapSense__TUNING_AUTO)
 626:main.c        ****         MeasureNoiseEnvelope_P4_v2_60(&CapSense_config, (uint8)sensor, CapSense_sensorRaw);
 627:main.c        ****     #endif /* (CapSense_TUNING_METHOD == CapSense__TUNING_AUTO) */
 628:main.c        **** 
 629:main.c        ****     /* Baseline calculation */
 630:main.c        ****     /* Calculate difference RawData[cur] - Baseline[prev] */
 631:main.c        ****     if(filteredRawData >= CapSense_sensorBaseline[sensor])
 632:main.c        ****     {
 633:main.c        ****         CapSense_lowBaselineResetCnt[sensor] = 0u;
 634:main.c        ****         tempRaw = filteredRawData - CapSense_sensorBaseline[sensor];
 635:main.c        ****         sign = 1u;    /* Positive difference - Calculate the Signal */
 636:main.c        ****     }
 637:main.c        ****     else
 638:main.c        ****     {
 639:main.c        ****         tempRaw = CapSense_sensorBaseline[sensor] - filteredRawData;
 640:main.c        ****         sign = 0u;    /* Negative difference - Do NOT calculate the Signal */
 641:main.c        ****     }
 642:main.c        **** 
 643:main.c        ****     #if (CapSense_TUNING_METHOD != CapSense__TUNING_NONE)
 644:main.c        ****     if((sign == 0u) && (tempRaw > (uint16) CapSense_negativeNoiseThreshold[widget]))
 645:main.c        ****     #else
 646:main.c        ****     if((sign == 0u) && (tempRaw > (uint16) CapSense_NEGATIVE_NOISE_THRESHOLD))
 647:main.c        ****     #endif /* (CapSense_TUNING_METHOD != CapSense__TUNING_NONE) */
 648:main.c        ****     {
 649:main.c        ****         if(CapSense_lowBaselineResetCnt[sensor] >= CapSense_lowBaselineReset[sensor])
 650:main.c        ****         {
 651:main.c        ****             CapSense_BaseInit(sensor);
 652:main.c        ****             CapSense_lowBaselineResetCnt[sensor] = 0u;
 653:main.c        ****         }
 654:main.c        ****         else
 655:main.c        ****         {
 656:main.c        ****             CapSense_lowBaselineResetCnt[sensor]++;
 657:main.c        ****         }
 658:main.c        ****     }
 659:main.c        ****     else
 660:main.c        ****     {
 661:main.c        ****         #if (CapSense_AUTO_RESET == CapSense_AUTO_RESET_DISABLE)
 662:main.c        ****         #if (CapSense_TUNING_METHOD != CapSense__TUNING_NONE)
 663:main.c        ****             /* Update Baseline if lower than noiseThreshold */
 664:main.c        ****             if ( (tempRaw <= noiseThreshold) ||
 665:main.c        ****              ((tempRaw < (uint16) CapSense_negativeNoiseThreshold[widget])
 666:main.c        ****                && (sign == 0u)))
 667:main.c        ****             {
ARM GAS  C:\Users\young\AppData\Local\Temp\ccRRoTpk.s 			page 14


 668:main.c        ****         #else
 669:main.c        ****             /* Update Baseline if lower than noiseThreshold */
 670:main.c        ****             if ( (tempRaw <= noiseThreshold) ||
 671:main.c        ****                  ((tempRaw < (uint16) CapSense_NEGATIVE_NOISE_THRESHOLD)
 672:main.c        ****                    && (sign == 0u)))
 673:main.c        ****             {
 674:main.c        ****         #endif /* (CapSense_TUNING_METHOD != CapSense__TUNING_NONE) */
 675:main.c        ****         #endif /* (CapSense_AUTO_RESET == CapSense_AUTO_RESET_DISABLE) */
 676:main.c        ****                 /* Make full Baseline 23 bits */
 677:main.c        ****                 calc = (uint32) CapSense_sensorBaseline[sensor] << 8u;
 678:main.c        ****                 calc |= (uint32) CapSense_sensorBaselineLow[sensor];
 679:main.c        **** 
 680:main.c        ****                 /* Add Raw Data to Baseline */
 681:main.c        ****                 calc += filteredRawData;
 682:main.c        **** 
 683:main.c        ****                 /* Sub the high Baseline */
 684:main.c        ****                 calc -= CapSense_sensorBaseline[sensor];
 685:main.c        **** 
 686:main.c        ****                 /* Put Baseline and BaselineLow */
 687:main.c        ****                 CapSense_sensorBaseline[sensor] = ((uint16) (calc >> 8u));
 688:main.c        ****                 CapSense_sensorBaselineLow[sensor] = ((uint8) calc);
 689:main.c        **** 
 690:main.c        ****                 CapSense_lowBaselineResetCnt[sensor] = 0u;
 691:main.c        ****         #if (CapSense_AUTO_RESET == CapSense_AUTO_RESET_DISABLE)
 692:main.c        ****             }
 693:main.c        ****         #endif /* (CapSense_AUTO_RESET == CapSense_AUTO_RESET_DISABLE) */
 694:main.c        ****     }
 695:main.c        **** 
 696:main.c        ****     /* Calculate Signal if positive difference > noiseThreshold */
 697:main.c        ****     if((tempRaw > (uint16) noiseThreshold) && (sign != 0u))
 698:main.c        ****     {
 699:main.c        ****         #if (CapSense_SIGNAL_SIZE == CapSense_SIGNAL_SIZE_UINT8)
 700:main.c        ****             /* Over flow defence for uint8 */
 701:main.c        ****             if (tempRaw > 0xFFu)
 702:main.c        ****             {
 703:main.c        ****                 CapSense_sensorSignal[sensor] = 0xFFu;
 704:main.c        ****             }
 705:main.c        ****             else
 706:main.c        ****             {
 707:main.c        ****                 CapSense_sensorSignal[sensor] = ((uint8) tempRaw);
 708:main.c        ****             }
 709:main.c        ****         #else
 710:main.c        ****             CapSense_sensorSignal[sensor] = ((uint16) tempRaw);
 711:main.c        ****         #endif  /* (CapSense_SIGNAL_SIZE == CapSense_SIGNAL_SIZE_UINT8) */
 712:main.c        ****     }
 713:main.c        ****     else
 714:main.c        ****     {
 715:main.c        ****         /* Signal is zero */
 716:main.c        ****         CapSense_sensorSignal[sensor] = 0u;
 717:main.c        ****     }
 718:main.c        **** 
 719:main.c        ****     #if (CapSense_TOTAL_GENERICS_COUNT)
 720:main.c        ****         /* Exclude generic widget */
 721:main.c        ****         }
 722:main.c        ****     #endif  /* CapSense_TOTAL_GENERICS_COUNT */
 723:main.c        **** }
 724:main.c        **** #endif
ARM GAS  C:\Users\young\AppData\Local\Temp\ccRRoTpk.s 			page 15


 725:main.c        **** /********************************************************************************************/
 726:main.c        **** /* WDT Initialize */
 727:main.c        **** /********************************************************************************************/
 728:main.c        **** void WDT_Init(uint8 IgnoreBit, uint16 Match_ms)
 729:main.c        **** {
 730:main.c        ****     WDT_Ignore = IgnoreBit; /* for Reset mode */
 731:main.c        ****     WDT_Match = Match_ms;  /* for Match mode */
 732:main.c        ****     
 733:main.c        ****     /* Configure WDT ISR */
 734:main.c        ****     isr_WDT_Stop();
 735:main.c        ****     
 736:main.c        ****     /* Once watchdog counter reaches match value interrupt is generated  */
 737:main.c        ****     CySysWdtWriteMatch(65535);    
 738:main.c        **** 
 739:main.c        ****     /* Configure WDT to be 16-bit wraparound up-counter - 1 MSb is ignored */
 740:main.c        ****     /* 0 = 4.91, 1 = 2.45, 2 = 1.225, 3 = 0.612, 4 = 0.306, 5 = 0.153 */
 741:main.c        ****     
 742:main.c        ****     CySysWdtWriteIgnoreBits(IgnoreBit);    // ILO = 40khz -50%~100% accuracy, IgnoreBit = 0 : 65535
 743:main.c        **** 
 744:main.c        ****     /* Start the WDT */
 745:main.c        ****     CySysWdtEnable();
 746:main.c        **** 
 747:main.c        ****     /* Make sure that interrupt is forwarded to the CPU */
 748:main.c        ****     CySysWdtUnmaskInterrupt();   
 749:main.c        **** }
 750:main.c        **** 
 751:main.c        **** /********************************************************************************************/
 752:main.c        **** /* WDT Match Interrupt initialize */
 753:main.c        **** /********************************************************************************************/
 754:main.c        **** 
 755:main.c        **** void WDT_Match_Init(uint8 IgnoreBit, uint16 Match_ms)
 756:main.c        **** {
 757:main.c        ****     WDT_Ignore = IgnoreBit;
 758:main.c        ****     WDT_Match = Match_ms;
 759:main.c        ****     
 760:main.c        ****     /* Configure WDT ISR */
 761:main.c        ****     isr_WDT_StartEx(WDT_ISR);
 762:main.c        ****     
 763:main.c        ****     /* Once watchdog counter reaches match value interrupt is generated  */
 764:main.c        ****     //50 = 1.04ms interval
 765:main.c        ****     CySysWdtWriteMatch(CySysWdtReadMatch() + WDT_Match*wdt_ms);
 766:main.c        ****     
 767:main.c        ****     /* Configure WDT to be 16-bit wraparound up-counter - 1 MSb is ignored */
 768:main.c        ****     /* 0 = 4.91, 1 = 2.45, 2 = 1.225, 3 = 0.612, 4 = 0.306, 5 = 0.153 */
 769:main.c        ****     
 770:main.c        ****     CySysWdtWriteIgnoreBits(IgnoreBit);    /* 1.63*3 = 4.91ms, 2.45 ~ 9.82ms */
 771:main.c        **** 
 772:main.c        ****     /* Start the WDT */
 773:main.c        ****     CySysWdtEnable();
 774:main.c        **** 
 775:main.c        ****     /* Make sure that interrupt is forwarded to the CPU */
 776:main.c        ****     CySysWdtUnmaskInterrupt();  
 777:main.c        **** }
 778:main.c        **** /********************************************************************************************/
 779:main.c        **** /* Force WDT Reset */
 780:main.c        **** /********************************************************************************************/
 781:main.c        **** void Force_WDT_Reset(void)
ARM GAS  C:\Users\young\AppData\Local\Temp\ccRRoTpk.s 			page 16


 782:main.c        **** {
 783:main.c        ****     WDT_Init(5, WDT_INTERRUPT_TIME);   /* Initialize WDT Interval */
 784:main.c        ****     
 785:main.c        ****     while(1)
 786:main.c        ****     {
 787:main.c        ****     }
 788:main.c        **** }
 789:main.c        **** 
 790:main.c        **** 
 791:main.c        **** /******************************************************************************
 792:main.c        **** * Function Name: WDT_ISR_Handler
 793:main.c        **** *******************************************************************************
 794:main.c        **** *
 795:main.c        **** * Summary:
 796:main.c        **** * Interrupt Service Routine for the watchdog timer interrupt. The periodicity 
 797:main.c        **** * of the interrupt is depended on the match value written into the counter 
 798:main.c        **** * register using API - CySysWdtWriteMatch().
 799:main.c        **** *
 800:main.c        **** ******************************************************************************/
 801:main.c        **** CY_ISR(WDT_ISR)
 802:main.c        **** {
  73              		.loc 1 802 0
  74              		.cfi_startproc
  75              		@ args = 0, pretend = 0, frame = 0
  76              		@ frame_needed = 0, uses_anonymous_args = 0
  77 0000 10B5     		push	{r4, lr}
  78              		.cfi_def_cfa_offset 8
  79              		.cfi_offset 4, -8
  80              		.cfi_offset 14, -4
 803:main.c        **** 	/* Clear WDT interrupt */ 
 804:main.c        ****     CySysWdtClearInterrupt();
  81              		.loc 1 804 0
  82 0002 FFF7FEFF 		bl	CySysWdtClearInterrupt
  83              	.LVL2:
 805:main.c        ****     isr_WDT_ClearPending();
  84              		.loc 1 805 0
  85 0006 FFF7FEFF 		bl	isr_WDT_ClearPending
  86              	.LVL3:
 806:main.c        ****     /* WDT match value is updated in order to obtain periodic interrupts. */
 807:main.c        ****     CySysWdtWriteMatch(CySysWdtReadMatch() + WDT_Match*wdt_ms); // ILO = 40Khz, 1000 means 25ms, bu
  87              		.loc 1 807 0
  88 000a FFF7FEFF 		bl	CySysWdtGetMatch
  89              	.LVL4:
  90 000e 044B     		ldr	r3, .L5
 808:main.c        **** }
  91              		.loc 1 808 0
  92              		@ sp needed
 807:main.c        **** }
  93              		.loc 1 807 0
  94 0010 1B88     		ldrh	r3, [r3]
  95 0012 9A00     		lsls	r2, r3, #2
  96 0014 D318     		adds	r3, r2, r3
  97 0016 DB00     		lsls	r3, r3, #3
  98 0018 1818     		adds	r0, r3, r0
  99 001a FFF7FEFF 		bl	CySysWdtSetMatch
 100              	.LVL5:
 101              		.loc 1 808 0
ARM GAS  C:\Users\young\AppData\Local\Temp\ccRRoTpk.s 			page 17


 102 001e 10BD     		pop	{r4, pc}
 103              	.L6:
 104              		.align	2
 105              	.L5:
 106 0020 00000000 		.word	WDT_Match
 107              		.cfi_endproc
 108              	.LFE47:
 109              		.size	WDT_ISR, .-WDT_ISR
 110              		.section	.text.WDT_Clear,"ax",%progbits
 111              		.align	2
 112              		.global	WDT_Clear
 113              		.code	16
 114              		.thumb_func
 115              		.type	WDT_Clear, %function
 116              	WDT_Clear:
 117              	.LFB34:
 385:main.c        ****     //CySysWdtResetCounters(CY_SYS_WDT_COUNTER1_RESET);
 118              		.loc 1 385 0
 119              		.cfi_startproc
 120              		@ args = 0, pretend = 0, frame = 0
 121              		@ frame_needed = 0, uses_anonymous_args = 0
 122 0000 10B5     		push	{r4, lr}
 123              		.cfi_def_cfa_offset 8
 124              		.cfi_offset 4, -8
 125              		.cfi_offset 14, -4
 388:main.c        **** }
 126              		.loc 1 388 0
 127 0002 FFF7FEFF 		bl	CySysWdtClearInterrupt
 128              	.LVL6:
 389:main.c        **** 
 129              		.loc 1 389 0
 130              		@ sp needed
 131 0006 10BD     		pop	{r4, pc}
 132              		.cfi_endproc
 133              	.LFE34:
 134              		.size	WDT_Clear, .-WDT_Clear
 135              		.section	.text.Clear_WDT_With_Flag,"ax",%progbits
 136              		.align	2
 137              		.global	Clear_WDT_With_Flag
 138              		.code	16
 139              		.thumb_func
 140              		.type	Clear_WDT_With_Flag, %function
 141              	Clear_WDT_With_Flag:
 142              	.LFB35:
 392:main.c        ****     if(WDT_Clear_Flag == 1)
 143              		.loc 1 392 0
 144              		.cfi_startproc
 145              		@ args = 0, pretend = 0, frame = 0
 146              		@ frame_needed = 0, uses_anonymous_args = 0
 147 0000 10B5     		push	{r4, lr}
 148              		.cfi_def_cfa_offset 8
 149              		.cfi_offset 4, -8
 150              		.cfi_offset 14, -4
 393:main.c        ****     {
 151              		.loc 1 393 0
 152 0002 054C     		ldr	r4, .L12
 153 0004 2378     		ldrb	r3, [r4]
ARM GAS  C:\Users\young\AppData\Local\Temp\ccRRoTpk.s 			page 18


 154 0006 012B     		cmp	r3, #1
 155 0008 00D0     		beq	.L11
 156              	.L8:
 398:main.c        **** 
 157              		.loc 1 398 0
 158              		@ sp needed
 159 000a 10BD     		pop	{r4, pc}
 160              	.L11:
 161              	.LBB14:
 162              	.LBB15:
 388:main.c        **** }
 163              		.loc 1 388 0
 164 000c FFF7FEFF 		bl	CySysWdtClearInterrupt
 165              	.LVL7:
 166              	.LBE15:
 167              	.LBE14:
 396:main.c        ****     }
 168              		.loc 1 396 0
 169 0010 0023     		movs	r3, #0
 170 0012 2370     		strb	r3, [r4]
 398:main.c        **** 
 171              		.loc 1 398 0
 172 0014 F9E7     		b	.L8
 173              	.L13:
 174 0016 C046     		.align	2
 175              	.L12:
 176 0018 00000000 		.word	.LANCHOR0
 177              		.cfi_endproc
 178              	.LFE35:
 179              		.size	Clear_WDT_With_Flag, .-Clear_WDT_With_Flag
 180              		.section	.text.Set_WDT_Clear_Flag,"ax",%progbits
 181              		.align	2
 182              		.global	Set_WDT_Clear_Flag
 183              		.code	16
 184              		.thumb_func
 185              		.type	Set_WDT_Clear_Flag, %function
 186              	Set_WDT_Clear_Flag:
 187              	.LFB36:
 401:main.c        ****     WDT_Clear_Flag = value;
 188              		.loc 1 401 0
 189              		.cfi_startproc
 190              		@ args = 0, pretend = 0, frame = 0
 191              		@ frame_needed = 0, uses_anonymous_args = 0
 192              		@ link register save eliminated.
 193              	.LVL8:
 402:main.c        **** }
 194              		.loc 1 402 0
 195 0000 014B     		ldr	r3, .L15
 403:main.c        **** 
 196              		.loc 1 403 0
 197              		@ sp needed
 402:main.c        **** }
 198              		.loc 1 402 0
 199 0002 1870     		strb	r0, [r3]
 403:main.c        **** 
 200              		.loc 1 403 0
 201 0004 7047     		bx	lr
ARM GAS  C:\Users\young\AppData\Local\Temp\ccRRoTpk.s 			page 19


 202              	.L16:
 203 0006 C046     		.align	2
 204              	.L15:
 205 0008 00000000 		.word	.LANCHOR0
 206              		.cfi_endproc
 207              	.LFE36:
 208              		.size	Set_WDT_Clear_Flag, .-Set_WDT_Clear_Flag
 209              		.section	.text.CapSense_CSD_InitializeAllBaselines_Filtered,"ax",%progbits
 210              		.align	2
 211              		.global	CapSense_CSD_InitializeAllBaselines_Filtered
 212              		.code	16
 213              		.thumb_func
 214              		.type	CapSense_CSD_InitializeAllBaselines_Filtered, %function
 215              	CapSense_CSD_InitializeAllBaselines_Filtered:
 216              	.LFB37:
 410:main.c        ****     uint32 i;
 217              		.loc 1 410 0
 218              		.cfi_startproc
 219              		@ args = 0, pretend = 0, frame = 8
 220              		@ frame_needed = 0, uses_anonymous_args = 0
 221              	.LVL9:
 222 0000 F0B5     		push	{r4, r5, r6, r7, lr}
 223              		.cfi_def_cfa_offset 20
 224              		.cfi_offset 4, -20
 225              		.cfi_offset 5, -16
 226              		.cfi_offset 6, -12
 227              		.cfi_offset 7, -8
 228              		.cfi_offset 14, -4
 229 0002 5F46     		mov	r7, fp
 230 0004 5646     		mov	r6, r10
 231 0006 4D46     		mov	r5, r9
 232 0008 4446     		mov	r4, r8
 233 000a F0B4     		push	{r4, r5, r6, r7}
 234              		.cfi_def_cfa_offset 36
 235              		.cfi_offset 8, -36
 236              		.cfi_offset 9, -32
 237              		.cfi_offset 10, -28
 238              		.cfi_offset 11, -24
 239 000c 83B0     		sub	sp, sp, #12
 240              		.cfi_def_cfa_offset 48
 410:main.c        ****     uint32 i;
 241              		.loc 1 410 0
 242 000e 0190     		str	r0, [sp, #4]
 414:main.c        ****     {
 243              		.loc 1 414 0
 244 0010 0028     		cmp	r0, #0
 245 0012 2CD0     		beq	.L17
 246 0014 0023     		movs	r3, #0
 247 0016 0093     		str	r3, [sp]
 248 0018 184B     		ldr	r3, .L26
 249 001a 9B46     		mov	fp, r3
 250 001c 184B     		ldr	r3, .L26+4
 251 001e 9A46     		mov	r10, r3
 252 0020 184B     		ldr	r3, .L26+8
 253 0022 9946     		mov	r9, r3
 254 0024 184B     		ldr	r3, .L26+12
 255 0026 9846     		mov	r8, r3
ARM GAS  C:\Users\young\AppData\Local\Temp\ccRRoTpk.s 			page 20


 256              	.LVL10:
 257              	.L21:
 258 0028 0025     		movs	r5, #0
 259 002a 0026     		movs	r6, #0
 260              	.L20:
 261              	.LVL11:
 262              	.LBB20:
 263              	.LBB21:
 429:main.c        ****     while(CapSense_IsBusy() != 0u)
 264              		.loc 1 429 0
 265 002c 3000     		movs	r0, r6
 266 002e FFF7FEFF 		bl	CapSense_ScanSensor
 267              	.LVL12:
 268              	.L19:
 430:main.c        ****     { 
 269              		.loc 1 430 0
 270 0032 FFF7FEFF 		bl	CapSense_IsBusy
 271              	.LVL13:
 272 0036 0028     		cmp	r0, #0
 273 0038 FBD1     		bne	.L19
 274              	.LBB22:
 275              	.LBB23:
 461:main.c        ****     
 276              		.loc 1 461 0
 277 003a 5B46     		mov	r3, fp
 278 003c 0400     		movs	r4, r0
 279              	.LVL14:
 280 003e 585B     		ldrh	r0, [r3, r5]
 281              	.LVL15:
 463:main.c        ****     CapSense_rawFilterData1[sensor] = filteredRawData;
 282              		.loc 1 463 0
 283 0040 5346     		mov	r3, r10
 284 0042 5F19     		adds	r7, r3, r5
 285 0044 3988     		ldrh	r1, [r7]
 286 0046 FFF7FEFF 		bl	CapSense_IIR4Filter
 287              	.LVL16:
 468:main.c        ****     CapSense_sensorBaselineLow[sensor] = 0u;
 288              		.loc 1 468 0
 289 004a 4B46     		mov	r3, r9
 290 004c 5853     		strh	r0, [r3, r5]
 469:main.c        ****     CapSense_sensorSignal[sensor] = 0u;
 291              		.loc 1 469 0
 292 004e 4346     		mov	r3, r8
 293 0050 9C55     		strb	r4, [r3, r6]
 470:main.c        **** 
 294              		.loc 1 470 0
 295 0052 0E4B     		ldr	r3, .L26+16
 296              	.LBE23:
 297              	.LBE22:
 298              	.LBE21:
 299              	.LBE20:
 416:main.c        ****         {
 300              		.loc 1 416 0
 301 0054 0136     		adds	r6, r6, #1
 302              	.LVL17:
 303              	.LBB27:
 304              	.LBB26:
ARM GAS  C:\Users\young\AppData\Local\Temp\ccRRoTpk.s 			page 21


 305              	.LBB25:
 306              	.LBB24:
 470:main.c        **** 
 307              		.loc 1 470 0
 308 0056 5C53     		strh	r4, [r3, r5]
 309              	.LVL18:
 464:main.c        **** 
 310              		.loc 1 464 0
 311 0058 3880     		strh	r0, [r7]
 312 005a 0235     		adds	r5, r5, #2
 313              	.LBE24:
 314              	.LBE25:
 315              	.LBE26:
 316              	.LBE27:
 416:main.c        ****         {
 317              		.loc 1 416 0
 318 005c 062E     		cmp	r6, #6
 319 005e E5D1     		bne	.L20
 414:main.c        ****     {
 320              		.loc 1 414 0 discriminator 2
 321 0060 009B     		ldr	r3, [sp]
 322 0062 019A     		ldr	r2, [sp, #4]
 323 0064 0133     		adds	r3, r3, #1
 324 0066 DBB2     		uxtb	r3, r3
 325 0068 0093     		str	r3, [sp]
 326              	.LVL19:
 327 006a 9A42     		cmp	r2, r3
 328 006c DCD1     		bne	.L21
 329              	.LVL20:
 330              	.L17:
 422:main.c        **** 
 331              		.loc 1 422 0
 332 006e 03B0     		add	sp, sp, #12
 333              		@ sp needed
 334 0070 3CBC     		pop	{r2, r3, r4, r5}
 335 0072 9046     		mov	r8, r2
 336 0074 9946     		mov	r9, r3
 337 0076 A246     		mov	r10, r4
 338 0078 AB46     		mov	fp, r5
 339 007a F0BD     		pop	{r4, r5, r6, r7, pc}
 340              	.L27:
 341              		.align	2
 342              	.L26:
 343 007c 00000000 		.word	CapSense_sensorRaw
 344 0080 00000000 		.word	CapSense_rawFilterData1
 345 0084 00000000 		.word	CapSense_sensorBaseline
 346 0088 00000000 		.word	CapSense_sensorBaselineLow
 347 008c 00000000 		.word	CapSense_sensorSignal
 348              		.cfi_endproc
 349              	.LFE37:
 350              		.size	CapSense_CSD_InitializeAllBaselines_Filtered, .-CapSense_CSD_InitializeAllBaselines_Filtered
 351              		.section	.text.CapSense_CSD_InitializeSensorBaseline_Filtered,"ax",%progbits
 352              		.align	2
 353              		.global	CapSense_CSD_InitializeSensorBaseline_Filtered
 354              		.code	16
 355              		.thumb_func
 356              		.type	CapSense_CSD_InitializeSensorBaseline_Filtered, %function
ARM GAS  C:\Users\young\AppData\Local\Temp\ccRRoTpk.s 			page 22


 357              	CapSense_CSD_InitializeSensorBaseline_Filtered:
 358              	.LFB38:
 426:main.c        ****     /* Scan sensor */
 359              		.loc 1 426 0
 360              		.cfi_startproc
 361              		@ args = 0, pretend = 0, frame = 0
 362              		@ frame_needed = 0, uses_anonymous_args = 0
 363              	.LVL21:
 364 0000 F8B5     		push	{r3, r4, r5, r6, r7, lr}
 365              		.cfi_def_cfa_offset 24
 366              		.cfi_offset 3, -24
 367              		.cfi_offset 4, -20
 368              		.cfi_offset 5, -16
 369              		.cfi_offset 6, -12
 370              		.cfi_offset 7, -8
 371              		.cfi_offset 14, -4
 426:main.c        ****     /* Scan sensor */
 372              		.loc 1 426 0
 373 0002 0600     		movs	r6, r0
 429:main.c        ****     while(CapSense_IsBusy() != 0u)
 374              		.loc 1 429 0
 375 0004 FFF7FEFF 		bl	CapSense_ScanSensor
 376              	.LVL22:
 377              	.L29:
 430:main.c        ****     { 
 378              		.loc 1 430 0 discriminator 1
 379 0008 FFF7FEFF 		bl	CapSense_IsBusy
 380              	.LVL23:
 381 000c 041E     		subs	r4, r0, #0
 382 000e FBD1     		bne	.L29
 383              	.LVL24:
 384              	.LBB30:
 385              	.LBB31:
 463:main.c        ****     CapSense_rawFilterData1[sensor] = filteredRawData;
 386              		.loc 1 463 0
 387 0010 074F     		ldr	r7, .L31
 461:main.c        ****     
 388              		.loc 1 461 0
 389 0012 084B     		ldr	r3, .L31+4
 390 0014 7500     		lsls	r5, r6, #1
 391 0016 E85A     		ldrh	r0, [r5, r3]
 392              	.LVL25:
 463:main.c        ****     CapSense_rawFilterData1[sensor] = filteredRawData;
 393              		.loc 1 463 0
 394 0018 E95B     		ldrh	r1, [r5, r7]
 395 001a FFF7FEFF 		bl	CapSense_IIR4Filter
 396              	.LVL26:
 468:main.c        ****     CapSense_sensorBaselineLow[sensor] = 0u;
 397              		.loc 1 468 0
 398 001e 064B     		ldr	r3, .L31+8
 464:main.c        **** 
 399              		.loc 1 464 0
 400 0020 E853     		strh	r0, [r5, r7]
 468:main.c        ****     CapSense_sensorBaselineLow[sensor] = 0u;
 401              		.loc 1 468 0
 402 0022 E852     		strh	r0, [r5, r3]
 469:main.c        ****     CapSense_sensorSignal[sensor] = 0u;
ARM GAS  C:\Users\young\AppData\Local\Temp\ccRRoTpk.s 			page 23


 403              		.loc 1 469 0
 404 0024 054B     		ldr	r3, .L31+12
 405              	.LBE31:
 406              	.LBE30:
 438:main.c        **** 
 407              		.loc 1 438 0
 408              		@ sp needed
 409              	.LBB33:
 410              	.LBB32:
 469:main.c        ****     CapSense_sensorSignal[sensor] = 0u;
 411              		.loc 1 469 0
 412 0026 9C55     		strb	r4, [r3, r6]
 470:main.c        **** 
 413              		.loc 1 470 0
 414 0028 054B     		ldr	r3, .L31+16
 415 002a EC52     		strh	r4, [r5, r3]
 416              	.LVL27:
 417              	.LVL28:
 418              	.LBE32:
 419              	.LBE33:
 438:main.c        **** 
 420              		.loc 1 438 0
 421 002c F8BD     		pop	{r3, r4, r5, r6, r7, pc}
 422              	.L32:
 423 002e C046     		.align	2
 424              	.L31:
 425 0030 00000000 		.word	CapSense_rawFilterData1
 426 0034 00000000 		.word	CapSense_sensorRaw
 427 0038 00000000 		.word	CapSense_sensorBaseline
 428 003c 00000000 		.word	CapSense_sensorBaselineLow
 429 0040 00000000 		.word	CapSense_sensorSignal
 430              		.cfi_endproc
 431              	.LFE38:
 432              		.size	CapSense_CSD_InitializeSensorBaseline_Filtered, .-CapSense_CSD_InitializeSensorBaseline_Filt
 433              		.section	.text.CapSense_CSD_BaseInit_Filtered,"ax",%progbits
 434              		.align	2
 435              		.global	CapSense_CSD_BaseInit_Filtered
 436              		.code	16
 437              		.thumb_func
 438              		.type	CapSense_CSD_BaseInit_Filtered, %function
 439              	CapSense_CSD_BaseInit_Filtered:
 440              	.LFB39:
 442:main.c        ****     uint16 filteredRawData;        
 441              		.loc 1 442 0
 442              		.cfi_startproc
 443              		@ args = 0, pretend = 0, frame = 0
 444              		@ frame_needed = 0, uses_anonymous_args = 0
 445              	.LVL29:
 446 0000 70B5     		push	{r4, r5, r6, lr}
 447              		.cfi_def_cfa_offset 16
 448              		.cfi_offset 4, -16
 449              		.cfi_offset 5, -12
 450              		.cfi_offset 6, -8
 451              		.cfi_offset 14, -4
 461:main.c        ****     
 452              		.loc 1 461 0
 453 0002 084B     		ldr	r3, .L34
ARM GAS  C:\Users\young\AppData\Local\Temp\ccRRoTpk.s 			page 24


 463:main.c        ****     CapSense_rawFilterData1[sensor] = filteredRawData;
 454              		.loc 1 463 0
 455 0004 084E     		ldr	r6, .L34+4
 461:main.c        ****     
 456              		.loc 1 461 0
 457 0006 4400     		lsls	r4, r0, #1
 442:main.c        ****     uint16 filteredRawData;        
 458              		.loc 1 442 0
 459 0008 0500     		movs	r5, r0
 463:main.c        ****     CapSense_rawFilterData1[sensor] = filteredRawData;
 460              		.loc 1 463 0
 461 000a A15B     		ldrh	r1, [r4, r6]
 461:main.c        ****     
 462              		.loc 1 461 0
 463 000c E05A     		ldrh	r0, [r4, r3]
 464              	.LVL30:
 463:main.c        ****     CapSense_rawFilterData1[sensor] = filteredRawData;
 465              		.loc 1 463 0
 466 000e FFF7FEFF 		bl	CapSense_IIR4Filter
 467              	.LVL31:
 468:main.c        ****     CapSense_sensorBaselineLow[sensor] = 0u;
 468              		.loc 1 468 0
 469 0012 064B     		ldr	r3, .L34+8
 469:main.c        ****     CapSense_sensorSignal[sensor] = 0u;
 470              		.loc 1 469 0
 471 0014 064A     		ldr	r2, .L34+12
 468:main.c        ****     CapSense_sensorBaselineLow[sensor] = 0u;
 472              		.loc 1 468 0
 473 0016 E052     		strh	r0, [r4, r3]
 469:main.c        ****     CapSense_sensorSignal[sensor] = 0u;
 474              		.loc 1 469 0
 475 0018 0023     		movs	r3, #0
 476 001a 5355     		strb	r3, [r2, r5]
 470:main.c        **** 
 477              		.loc 1 470 0
 478 001c 054A     		ldr	r2, .L34+16
 464:main.c        **** 
 479              		.loc 1 464 0
 480 001e A053     		strh	r0, [r4, r6]
 470:main.c        **** 
 481              		.loc 1 470 0
 482 0020 A352     		strh	r3, [r4, r2]
 475:main.c        ****         
 483              		.loc 1 475 0
 484              		@ sp needed
 485              	.LVL32:
 486 0022 70BD     		pop	{r4, r5, r6, pc}
 487              	.L35:
 488              		.align	2
 489              	.L34:
 490 0024 00000000 		.word	CapSense_sensorRaw
 491 0028 00000000 		.word	CapSense_rawFilterData1
 492 002c 00000000 		.word	CapSense_sensorBaseline
 493 0030 00000000 		.word	CapSense_sensorBaselineLow
 494 0034 00000000 		.word	CapSense_sensorSignal
 495              		.cfi_endproc
 496              	.LFE39:
ARM GAS  C:\Users\young\AppData\Local\Temp\ccRRoTpk.s 			page 25


 497              		.size	CapSense_CSD_BaseInit_Filtered, .-CapSense_CSD_BaseInit_Filtered
 498              		.section	.text.FirstSensingData,"ax",%progbits
 499              		.align	2
 500              		.global	FirstSensingData
 501              		.code	16
 502              		.thumb_func
 503              		.type	FirstSensingData, %function
 504              	FirstSensingData:
 505              	.LFB40:
 478:main.c        ****     uint32 i;
 506              		.loc 1 478 0
 507              		.cfi_startproc
 508              		@ args = 0, pretend = 0, frame = 0
 509              		@ frame_needed = 0, uses_anonymous_args = 0
 510              	.LVL33:
 511 0000 F8B5     		push	{r3, r4, r5, r6, r7, lr}
 512              		.cfi_def_cfa_offset 24
 513              		.cfi_offset 3, -24
 514              		.cfi_offset 4, -20
 515              		.cfi_offset 5, -16
 516              		.cfi_offset 6, -12
 517              		.cfi_offset 7, -8
 518              		.cfi_offset 14, -4
 478:main.c        ****     uint32 i;
 519              		.loc 1 478 0
 520 0002 0025     		movs	r5, #0
 481:main.c        ****     {
 521              		.loc 1 481 0
 522 0004 0024     		movs	r4, #0
 523 0006 084F     		ldr	r7, .L41
 524 0008 084E     		ldr	r6, .L41+4
 525              	.LVL34:
 526              	.L38:
 483:main.c        ****         
 527              		.loc 1 483 0
 528 000a 2000     		movs	r0, r4
 529 000c FFF7FEFF 		bl	CapSense_ScanSensor
 530              	.LVL35:
 531              	.L37:
 485:main.c        ****         { 
 532              		.loc 1 485 0 discriminator 1
 533 0010 FFF7FEFF 		bl	CapSense_IsBusy
 534              	.LVL36:
 535 0014 0028     		cmp	r0, #0
 536 0016 FBD1     		bne	.L37
 490:main.c        ****     }
 537              		.loc 1 490 0 discriminator 2
 538 0018 735B     		ldrh	r3, [r6, r5]
 481:main.c        ****     {
 539              		.loc 1 481 0 discriminator 2
 540 001a 0134     		adds	r4, r4, #1
 541              	.LVL37:
 490:main.c        ****     }
 542              		.loc 1 490 0 discriminator 2
 543 001c 7B53     		strh	r3, [r7, r5]
 544 001e 0235     		adds	r5, r5, #2
 481:main.c        ****     {
ARM GAS  C:\Users\young\AppData\Local\Temp\ccRRoTpk.s 			page 26


 545              		.loc 1 481 0 discriminator 2
 546 0020 062C     		cmp	r4, #6
 547 0022 F2D1     		bne	.L38
 492:main.c        **** 
 548              		.loc 1 492 0
 549              		@ sp needed
 550              	.LVL38:
 551 0024 F8BD     		pop	{r3, r4, r5, r6, r7, pc}
 552              	.L42:
 553 0026 C046     		.align	2
 554              	.L41:
 555 0028 00000000 		.word	CapSense_rawFilterData1
 556 002c 00000000 		.word	CapSense_sensorRaw
 557              		.cfi_endproc
 558              	.LFE40:
 559              		.size	FirstSensingData, .-FirstSensingData
 560              		.section	.text.CapSense_UpdateEnabledBaselines_Filter,"ax",%progbits
 561              		.align	2
 562              		.global	CapSense_UpdateEnabledBaselines_Filter
 563              		.code	16
 564              		.thumb_func
 565              		.type	CapSense_UpdateEnabledBaselines_Filter, %function
 566              	CapSense_UpdateEnabledBaselines_Filter:
 567              	.LFB41:
 499:main.c        ****     uint32 i;
 568              		.loc 1 499 0
 569              		.cfi_startproc
 570              		@ args = 0, pretend = 0, frame = 8
 571              		@ frame_needed = 0, uses_anonymous_args = 0
 572              	.LVL39:
 573 0000 F0B5     		push	{r4, r5, r6, r7, lr}
 574              		.cfi_def_cfa_offset 20
 575              		.cfi_offset 4, -20
 576              		.cfi_offset 5, -16
 577              		.cfi_offset 6, -12
 578              		.cfi_offset 7, -8
 579              		.cfi_offset 14, -4
 580 0002 5F46     		mov	r7, fp
 581 0004 5646     		mov	r6, r10
 582 0006 4D46     		mov	r5, r9
 583 0008 4446     		mov	r4, r8
 584 000a F0B4     		push	{r4, r5, r6, r7}
 585              		.cfi_def_cfa_offset 36
 586              		.cfi_offset 8, -36
 587              		.cfi_offset 9, -32
 588              		.cfi_offset 10, -28
 589              		.cfi_offset 11, -24
 590              	.LBB40:
 591              	.LBB41:
 592              	.LBB42:
 557:main.c        **** 
 593              		.loc 1 557 0
 594 000c 464B     		ldr	r3, .L67
 595              	.LBE42:
 596              	.LBE41:
 597              	.LBE40:
 499:main.c        ****     uint32 i;
ARM GAS  C:\Users\young\AppData\Local\Temp\ccRRoTpk.s 			page 27


 598              		.loc 1 499 0
 599 000e 83B0     		sub	sp, sp, #12
 600              		.cfi_def_cfa_offset 48
 601 0010 464E     		ldr	r6, .L67+4
 499:main.c        ****     uint32 i;
 602              		.loc 1 499 0
 603 0012 0025     		movs	r5, #0
 503:main.c        ****     {
 604              		.loc 1 503 0
 605 0014 0024     		movs	r4, #0
 606 0016 464F     		ldr	r7, .L67+8
 607              	.LBB49:
 608              	.LBB46:
 609              	.LBB43:
 557:main.c        **** 
 610              		.loc 1 557 0
 611 0018 9B46     		mov	fp, r3
 612 001a 04E0     		b	.L53
 613              	.LVL40:
 614              	.L44:
 615              	.LBE43:
 616              	.LBE46:
 617              	.LBE49:
 503:main.c        ****     {
 618              		.loc 1 503 0 discriminator 2
 619 001c 0134     		adds	r4, r4, #1
 620              	.LVL41:
 621 001e 0235     		adds	r5, r5, #2
 622 0020 0136     		adds	r6, r6, #1
 623 0022 062C     		cmp	r4, #6
 624 0024 4DD0     		beq	.L64
 625              	.LVL42:
 626              	.L53:
 505:main.c        **** 
 627              		.loc 1 505 0
 628 0026 2100     		movs	r1, r4
 629 0028 3800     		movs	r0, r7
 630 002a FFF7FEFF 		bl	CapSense_GetBitValue
 631              	.LVL43:
 507:main.c        ****         {
 632              		.loc 1 507 0
 633 002e 0028     		cmp	r0, #0
 634 0030 F4D0     		beq	.L44
 635              	.LVL44:
 636              	.LBB50:
 637              	.LBB47:
 638              	.LBB44:
 556:main.c        ****     filteredRawData = CapSense_sensorRaw[sensor];
 639              		.loc 1 556 0
 640 0032 404B     		ldr	r3, .L67+12
 641 0034 1B5D     		ldrb	r3, [r3, r4]
 642 0036 5B00     		lsls	r3, r3, #1
 643 0038 9946     		mov	r9, r3
 644 003a 4A46     		mov	r2, r9
 645 003c 3E4B     		ldr	r3, .L67+16
 646 003e 9B5A     		ldrh	r3, [r3, r2]
 647 0040 9A46     		mov	r10, r3
ARM GAS  C:\Users\young\AppData\Local\Temp\ccRRoTpk.s 			page 28


 648              	.LVL45:
 557:main.c        **** 
 649              		.loc 1 557 0
 650 0042 5B46     		mov	r3, fp
 651 0044 585B     		ldrh	r0, [r3, r5]
 652              	.LVL46:
 581:main.c        ****             CapSense_rawFilterData1[sensor] = filteredRawData;
 653              		.loc 1 581 0
 654 0046 3D4B     		ldr	r3, .L67+20
 655 0048 9846     		mov	r8, r3
 656 004a A844     		add	r8, r8, r5
 657 004c 4346     		mov	r3, r8
 658 004e 1988     		ldrh	r1, [r3]
 659 0050 FFF7FEFF 		bl	CapSense_IIR4Filter
 660              	.LVL47:
 582:main.c        ****             Capsense_FilteredRawData[sensor] = filteredRawData;
 661              		.loc 1 582 0
 662 0054 4346     		mov	r3, r8
 663 0056 1880     		strh	r0, [r3]
 583:main.c        ****                     
 664              		.loc 1 583 0
 665 0058 394B     		ldr	r3, .L67+24
 666 005a 5853     		strh	r0, [r3, r5]
 631:main.c        ****     {
 667              		.loc 1 631 0
 668 005c 394B     		ldr	r3, .L67+28
 669 005e 595B     		ldrh	r1, [r3, r5]
 670 0060 9C46     		mov	ip, r3
 671 0062 8842     		cmp	r0, r1
 672 0064 3CD3     		bcc	.L45
 633:main.c        ****         tempRaw = filteredRawData - CapSense_sensorBaseline[sensor];
 673              		.loc 1 633 0
 674 0066 0023     		movs	r3, #0
 635:main.c        ****     }
 675              		.loc 1 635 0
 676 0068 0122     		movs	r2, #1
 633:main.c        ****         tempRaw = filteredRawData - CapSense_sensorBaseline[sensor];
 677              		.loc 1 633 0
 678 006a 3370     		strb	r3, [r6]
 634:main.c        ****         sign = 1u;    /* Positive difference - Calculate the Signal */
 679              		.loc 1 634 0
 680 006c 431A     		subs	r3, r0, r1
 681 006e 9BB2     		uxth	r3, r3
 682 0070 0093     		str	r3, [sp]
 683              	.LVL48:
 635:main.c        ****     }
 684              		.loc 1 635 0
 685 0072 0192     		str	r2, [sp, #4]
 686              	.LVL49:
 687              	.L46:
 664:main.c        ****              ((tempRaw < (uint16) CapSense_negativeNoiseThreshold[widget])
 688              		.loc 1 664 0
 689 0074 9A45     		cmp	r10, r3
 690 0076 08D2     		bcs	.L49
 691 0078 4B46     		mov	r3, r9
 665:main.c        ****                && (sign == 0u)))
 692              		.loc 1 665 0
ARM GAS  C:\Users\young\AppData\Local\Temp\ccRRoTpk.s 			page 29


 693 007a 334A     		ldr	r2, .L67+32
 664:main.c        ****              ((tempRaw < (uint16) CapSense_negativeNoiseThreshold[widget])
 694              		.loc 1 664 0
 695 007c D25A     		ldrh	r2, [r2, r3]
 696 007e 009B     		ldr	r3, [sp]
 697 0080 9A42     		cmp	r2, r3
 698 0082 25D9     		bls	.L52
 666:main.c        ****             {
 699              		.loc 1 666 0
 700 0084 019B     		ldr	r3, [sp, #4]
 701 0086 002B     		cmp	r3, #0
 702 0088 25D1     		bne	.L51
 703              	.L49:
 678:main.c        **** 
 704              		.loc 1 678 0
 705 008a 304B     		ldr	r3, .L67+36
 677:main.c        ****                 calc |= (uint32) CapSense_sensorBaselineLow[sensor];
 706              		.loc 1 677 0
 707 008c 0A02     		lsls	r2, r1, #8
 708              	.LVL50:
 678:main.c        **** 
 709              		.loc 1 678 0
 710 008e 9846     		mov	r8, r3
 711 0090 A044     		add	r8, r8, r4
 712              	.LVL51:
 713 0092 4346     		mov	r3, r8
 714 0094 1B78     		ldrb	r3, [r3]
 715 0096 1A43     		orrs	r2, r3
 716              	.LVL52:
 687:main.c        ****                 CapSense_sensorBaselineLow[sensor] = ((uint8) calc);
 717              		.loc 1 687 0
 718 0098 6346     		mov	r3, ip
 719 009a 511A     		subs	r1, r2, r1
 720              	.LVL53:
 684:main.c        **** 
 721              		.loc 1 684 0
 722 009c 4018     		adds	r0, r0, r1
 723              	.LVL54:
 687:main.c        ****                 CapSense_sensorBaselineLow[sensor] = ((uint8) calc);
 724              		.loc 1 687 0
 725 009e 020A     		lsrs	r2, r0, #8
 726 00a0 5A53     		strh	r2, [r3, r5]
 688:main.c        **** 
 727              		.loc 1 688 0
 728 00a2 4346     		mov	r3, r8
 690:main.c        ****         #if (CapSense_AUTO_RESET == CapSense_AUTO_RESET_DISABLE)
 729              		.loc 1 690 0
 730 00a4 0022     		movs	r2, #0
 688:main.c        **** 
 731              		.loc 1 688 0
 732 00a6 1870     		strb	r0, [r3]
 697:main.c        ****     {
 733              		.loc 1 697 0
 734 00a8 009B     		ldr	r3, [sp]
 690:main.c        ****         #if (CapSense_AUTO_RESET == CapSense_AUTO_RESET_DISABLE)
 735              		.loc 1 690 0
 736 00aa 3270     		strb	r2, [r6]
ARM GAS  C:\Users\young\AppData\Local\Temp\ccRRoTpk.s 			page 30


 697:main.c        ****     {
 737              		.loc 1 697 0
 738 00ac 9A45     		cmp	r10, r3
 739 00ae 0FD3     		bcc	.L52
 740              	.LVL55:
 741              	.L48:
 716:main.c        ****     }
 742              		.loc 1 716 0
 743 00b0 0022     		movs	r2, #0
 744 00b2 274B     		ldr	r3, .L67+40
 745 00b4 EB18     		adds	r3, r5, r3
 746 00b6 1A80     		strh	r2, [r3]
 747              	.LVL56:
 748              	.L66:
 749              	.LBE44:
 750              	.LBE47:
 751              	.LBE50:
 503:main.c        ****     {
 752              		.loc 1 503 0
 753 00b8 0134     		adds	r4, r4, #1
 754              	.LVL57:
 755 00ba 0235     		adds	r5, r5, #2
 756 00bc 0136     		adds	r6, r6, #1
 757 00be 062C     		cmp	r4, #6
 758 00c0 B1D1     		bne	.L53
 759              	.LVL58:
 760              	.L64:
 513:main.c        **** 
 761              		.loc 1 513 0
 762 00c2 03B0     		add	sp, sp, #12
 763              		@ sp needed
 764              	.LVL59:
 765 00c4 3CBC     		pop	{r2, r3, r4, r5}
 766 00c6 9046     		mov	r8, r2
 767 00c8 9946     		mov	r9, r3
 768 00ca A246     		mov	r10, r4
 769 00cc AB46     		mov	fp, r5
 770 00ce F0BD     		pop	{r4, r5, r6, r7, pc}
 771              	.LVL60:
 772              	.L52:
 773              	.LBB51:
 774              	.LBB48:
 775              	.LBB45:
 697:main.c        ****     {
 776              		.loc 1 697 0
 777 00d0 019B     		ldr	r3, [sp, #4]
 778 00d2 002B     		cmp	r3, #0
 779 00d4 ECD0     		beq	.L48
 780              	.L51:
 710:main.c        ****         #endif  /* (CapSense_SIGNAL_SIZE == CapSense_SIGNAL_SIZE_UINT8) */
 781              		.loc 1 710 0
 782 00d6 6B46     		mov	r3, sp
 783 00d8 1D4A     		ldr	r2, .L67+40
 784 00da 1B88     		ldrh	r3, [r3]
 785 00dc 5353     		strh	r3, [r2, r5]
 786 00de 9DE7     		b	.L44
 787              	.LVL61:
ARM GAS  C:\Users\young\AppData\Local\Temp\ccRRoTpk.s 			page 31


 788              	.L45:
 639:main.c        ****         sign = 0u;    /* Negative difference - Do NOT calculate the Signal */
 789              		.loc 1 639 0
 790 00e0 0B1A     		subs	r3, r1, r0
 791 00e2 9BB2     		uxth	r3, r3
 792 00e4 0093     		str	r3, [sp]
 793              	.LVL62:
 644:main.c        ****     #else
 794              		.loc 1 644 0
 795 00e6 4B46     		mov	r3, r9
 796 00e8 174A     		ldr	r2, .L67+32
 797 00ea D25A     		ldrh	r2, [r2, r3]
 798 00ec 009B     		ldr	r3, [sp]
 799 00ee 9A42     		cmp	r2, r3
 800 00f0 0BD2     		bcs	.L54
 649:main.c        ****         {
 801              		.loc 1 649 0
 802 00f2 184A     		ldr	r2, .L67+44
 803 00f4 3378     		ldrb	r3, [r6]
 804 00f6 125D     		ldrb	r2, [r2, r4]
 805 00f8 9A42     		cmp	r2, r3
 806 00fa 0AD9     		bls	.L65
 716:main.c        ****     }
 807              		.loc 1 716 0
 808 00fc 0022     		movs	r2, #0
 656:main.c        ****         }
 809              		.loc 1 656 0
 810 00fe 0133     		adds	r3, r3, #1
 811 0100 3370     		strb	r3, [r6]
 716:main.c        ****     }
 812              		.loc 1 716 0
 813 0102 134B     		ldr	r3, .L67+40
 814 0104 EB18     		adds	r3, r5, r3
 815 0106 1A80     		strh	r2, [r3]
 816 0108 D6E7     		b	.L66
 817              	.L54:
 640:main.c        ****     }
 818              		.loc 1 640 0
 819 010a 0023     		movs	r3, #0
 820 010c 0193     		str	r3, [sp, #4]
 821 010e 009B     		ldr	r3, [sp]
 822 0110 B0E7     		b	.L46
 823              	.L65:
 651:main.c        ****             CapSense_lowBaselineResetCnt[sensor] = 0u;
 824              		.loc 1 651 0
 825 0112 2000     		movs	r0, r4
 826              	.LVL63:
 827 0114 FFF7FEFF 		bl	CapSense_BaseInit
 828              	.LVL64:
 652:main.c        ****         }
 829              		.loc 1 652 0
 830 0118 0023     		movs	r3, #0
 716:main.c        ****     }
 831              		.loc 1 716 0
 832 011a 0022     		movs	r2, #0
 652:main.c        ****         }
 833              		.loc 1 652 0
ARM GAS  C:\Users\young\AppData\Local\Temp\ccRRoTpk.s 			page 32


 834 011c 3370     		strb	r3, [r6]
 716:main.c        ****     }
 835              		.loc 1 716 0
 836 011e 0C4B     		ldr	r3, .L67+40
 837 0120 EB18     		adds	r3, r5, r3
 838 0122 1A80     		strh	r2, [r3]
 839 0124 C8E7     		b	.L66
 840              	.L68:
 841 0126 C046     		.align	2
 842              	.L67:
 843 0128 00000000 		.word	CapSense_sensorRaw
 844 012c 00000000 		.word	CapSense_lowBaselineResetCnt
 845 0130 00000000 		.word	CapSense_sensorEnableMask
 846 0134 00000000 		.word	CapSense_widgetNumber
 847 0138 00000000 		.word	CapSense_noiseThreshold
 848 013c 00000000 		.word	CapSense_rawFilterData1
 849 0140 00000000 		.word	Capsense_FilteredRawData
 850 0144 00000000 		.word	CapSense_sensorBaseline
 851 0148 00000000 		.word	CapSense_negativeNoiseThreshold
 852 014c 00000000 		.word	CapSense_sensorBaselineLow
 853 0150 00000000 		.word	CapSense_sensorSignal
 854 0154 00000000 		.word	CapSense_lowBaselineReset
 855              	.LBE45:
 856              	.LBE48:
 857              	.LBE51:
 858              		.cfi_endproc
 859              	.LFE41:
 860              		.size	CapSense_UpdateEnabledBaselines_Filter, .-CapSense_UpdateEnabledBaselines_Filter
 861              		.section	.text.CapSense_UpdateSensorBaseline_Filter,"ax",%progbits
 862              		.align	2
 863              		.global	CapSense_UpdateSensorBaseline_Filter
 864              		.code	16
 865              		.thumb_func
 866              		.type	CapSense_UpdateSensorBaseline_Filter, %function
 867              	CapSense_UpdateSensorBaseline_Filter:
 868              	.LFB42:
 516:main.c        ****     #if (CapSense_TOTAL_GENERICS_COUNT)
 869              		.loc 1 516 0
 870              		.cfi_startproc
 871              		@ args = 0, pretend = 0, frame = 0
 872              		@ frame_needed = 0, uses_anonymous_args = 0
 873              	.LVL65:
 874 0000 F0B5     		push	{r4, r5, r6, r7, lr}
 875              		.cfi_def_cfa_offset 20
 876              		.cfi_offset 4, -20
 877              		.cfi_offset 5, -16
 878              		.cfi_offset 6, -12
 879              		.cfi_offset 7, -8
 880              		.cfi_offset 14, -4
 881 0002 4546     		mov	r5, r8
 882 0004 5746     		mov	r7, r10
 883 0006 4E46     		mov	r6, r9
 884              	.LBB54:
 885              	.LBB55:
 547:main.c        ****     uint16 noiseThreshold;
 886              		.loc 1 547 0
 887 0008 314B     		ldr	r3, .L86
ARM GAS  C:\Users\young\AppData\Local\Temp\ccRRoTpk.s 			page 33


 888              	.LBE55:
 889              	.LBE54:
 516:main.c        ****     #if (CapSense_TOTAL_GENERICS_COUNT)
 890              		.loc 1 516 0
 891 000a E0B4     		push	{r5, r6, r7}
 892              		.cfi_def_cfa_offset 32
 893              		.cfi_offset 8, -32
 894              		.cfi_offset 9, -28
 895              		.cfi_offset 10, -24
 896              	.LBB59:
 897              	.LBB56:
 556:main.c        ****     filteredRawData = CapSense_sensorRaw[sensor];
 898              		.loc 1 556 0
 899 000c 1E5C     		ldrb	r6, [r3, r0]
 900 000e 314B     		ldr	r3, .L86+4
 901 0010 7600     		lsls	r6, r6, #1
 902 0012 9F5B     		ldrh	r7, [r3, r6]
 903              	.LVL66:
 557:main.c        **** 
 904              		.loc 1 557 0
 905 0014 304B     		ldr	r3, .L86+8
 906 0016 4400     		lsls	r4, r0, #1
 907              	.LBE56:
 908              	.LBE59:
 516:main.c        ****     #if (CapSense_TOTAL_GENERICS_COUNT)
 909              		.loc 1 516 0
 910 0018 0500     		movs	r5, r0
 911              	.LBB60:
 912              	.LBB57:
 557:main.c        **** 
 913              		.loc 1 557 0
 914 001a 185B     		ldrh	r0, [r3, r4]
 915              	.LVL67:
 581:main.c        ****             CapSense_rawFilterData1[sensor] = filteredRawData;
 916              		.loc 1 581 0
 917 001c 2F4B     		ldr	r3, .L86+12
 918 001e 9846     		mov	r8, r3
 919 0020 195B     		ldrh	r1, [r3, r4]
 920 0022 FFF7FEFF 		bl	CapSense_IIR4Filter
 921              	.LVL68:
 582:main.c        ****             Capsense_FilteredRawData[sensor] = filteredRawData;
 922              		.loc 1 582 0
 923 0026 4346     		mov	r3, r8
 631:main.c        ****     {
 924              		.loc 1 631 0
 925 0028 2D49     		ldr	r1, .L86+16
 582:main.c        ****             Capsense_FilteredRawData[sensor] = filteredRawData;
 926              		.loc 1 582 0
 927 002a 1853     		strh	r0, [r3, r4]
 583:main.c        ****                     
 928              		.loc 1 583 0
 929 002c 2D4B     		ldr	r3, .L86+20
 930 002e 1853     		strh	r0, [r3, r4]
 631:main.c        ****     {
 931              		.loc 1 631 0
 932 0030 0B5B     		ldrh	r3, [r1, r4]
 933 0032 9C46     		mov	ip, r3
ARM GAS  C:\Users\young\AppData\Local\Temp\ccRRoTpk.s 			page 34


 934 0034 9842     		cmp	r0, r3
 935 0036 25D3     		bcc	.L70
 633:main.c        ****         tempRaw = filteredRawData - CapSense_sensorBaseline[sensor];
 936              		.loc 1 633 0
 937 0038 0022     		movs	r2, #0
 938 003a 2B4B     		ldr	r3, .L86+24
 939 003c 5A55     		strb	r2, [r3, r5]
 634:main.c        ****         sign = 1u;    /* Positive difference - Calculate the Signal */
 940              		.loc 1 634 0
 941 003e 6346     		mov	r3, ip
 635:main.c        ****     }
 942              		.loc 1 635 0
 943 0040 0132     		adds	r2, r2, #1
 944 0042 9146     		mov	r9, r2
 634:main.c        ****         sign = 1u;    /* Positive difference - Calculate the Signal */
 945              		.loc 1 634 0
 946 0044 C31A     		subs	r3, r0, r3
 947 0046 9BB2     		uxth	r3, r3
 948              	.LVL69:
 949              	.L71:
 664:main.c        ****              ((tempRaw < (uint16) CapSense_negativeNoiseThreshold[widget])
 950              		.loc 1 664 0
 951 0048 9F42     		cmp	r7, r3
 952 004a 2AD3     		bcc	.L84
 953              	.L74:
 677:main.c        ****                 calc |= (uint32) CapSense_sensorBaselineLow[sensor];
 954              		.loc 1 677 0
 955 004c 6246     		mov	r2, ip
 956 004e 1202     		lsls	r2, r2, #8
 957 0050 9046     		mov	r8, r2
 958              	.LVL70:
 959 0052 4646     		mov	r6, r8
 678:main.c        **** 
 960              		.loc 1 678 0
 961 0054 254A     		ldr	r2, .L86+28
 962              	.LVL71:
 963 0056 9246     		mov	r10, r2
 964 0058 525D     		ldrb	r2, [r2, r5]
 965 005a 3243     		orrs	r2, r6
 966 005c 6646     		mov	r6, ip
 967              	.LVL72:
 968 005e 921B     		subs	r2, r2, r6
 684:main.c        **** 
 969              		.loc 1 684 0
 970 0060 8018     		adds	r0, r0, r2
 971              	.LVL73:
 687:main.c        ****                 CapSense_sensorBaselineLow[sensor] = ((uint8) calc);
 972              		.loc 1 687 0
 973 0062 020A     		lsrs	r2, r0, #8
 974 0064 0A53     		strh	r2, [r1, r4]
 688:main.c        **** 
 975              		.loc 1 688 0
 976 0066 5246     		mov	r2, r10
 690:main.c        ****         #if (CapSense_AUTO_RESET == CapSense_AUTO_RESET_DISABLE)
 977              		.loc 1 690 0
 978 0068 0021     		movs	r1, #0
 688:main.c        **** 
ARM GAS  C:\Users\young\AppData\Local\Temp\ccRRoTpk.s 			page 35


 979              		.loc 1 688 0
 980 006a 5055     		strb	r0, [r2, r5]
 690:main.c        ****         #if (CapSense_AUTO_RESET == CapSense_AUTO_RESET_DISABLE)
 981              		.loc 1 690 0
 982 006c 1E4A     		ldr	r2, .L86+24
 983 006e 5155     		strb	r1, [r2, r5]
 697:main.c        ****     {
 984              		.loc 1 697 0
 985 0070 9F42     		cmp	r7, r3
 986 0072 22D3     		bcc	.L78
 987              	.LVL74:
 988              	.L73:
 716:main.c        ****     }
 989              		.loc 1 716 0
 990 0074 0022     		movs	r2, #0
 991              	.L76:
 992 0076 1E4B     		ldr	r3, .L86+32
 993              	.LBE57:
 994              	.LBE60:
 538:main.c        **** 
 995              		.loc 1 538 0
 996              		@ sp needed
 997 0078 1A53     		strh	r2, [r3, r4]
 998              	.LVL75:
 999              	.LVL76:
 1000 007a 1CBC     		pop	{r2, r3, r4}
 1001 007c 9046     		mov	r8, r2
 1002 007e 9946     		mov	r9, r3
 1003 0080 A246     		mov	r10, r4
 1004 0082 F0BD     		pop	{r4, r5, r6, r7, pc}
 1005              	.LVL77:
 1006              	.L70:
 1007              	.LBB61:
 1008              	.LBB58:
 644:main.c        ****     #else
 1009              		.loc 1 644 0
 1010 0084 1B4A     		ldr	r2, .L86+36
 639:main.c        ****         sign = 0u;    /* Negative difference - Do NOT calculate the Signal */
 1011              		.loc 1 639 0
 1012 0086 1B1A     		subs	r3, r3, r0
 644:main.c        ****     #else
 1013              		.loc 1 644 0
 1014 0088 925B     		ldrh	r2, [r2, r6]
 639:main.c        ****         sign = 0u;    /* Negative difference - Do NOT calculate the Signal */
 1015              		.loc 1 639 0
 1016 008a 9BB2     		uxth	r3, r3
 1017              	.LVL78:
 644:main.c        ****     #else
 1018              		.loc 1 644 0
 1019 008c 9A42     		cmp	r2, r3
 1020 008e 11D2     		bcs	.L79
 649:main.c        ****         {
 1021              		.loc 1 649 0
 1022 0090 154E     		ldr	r6, .L86+24
 1023 0092 194A     		ldr	r2, .L86+40
 1024 0094 735D     		ldrb	r3, [r6, r5]
 1025              	.LVL79:
ARM GAS  C:\Users\young\AppData\Local\Temp\ccRRoTpk.s 			page 36


 1026 0096 525D     		ldrb	r2, [r2, r5]
 1027 0098 9A42     		cmp	r2, r3
 1028 009a 13D9     		bls	.L85
 656:main.c        ****         }
 1029              		.loc 1 656 0
 1030 009c 0133     		adds	r3, r3, #1
 1031 009e 7355     		strb	r3, [r6, r5]
 1032 00a0 E8E7     		b	.L73
 1033              	.LVL80:
 1034              	.L84:
 665:main.c        ****                && (sign == 0u)))
 1035              		.loc 1 665 0
 1036 00a2 144A     		ldr	r2, .L86+36
 664:main.c        ****              ((tempRaw < (uint16) CapSense_negativeNoiseThreshold[widget])
 1037              		.loc 1 664 0
 1038 00a4 925B     		ldrh	r2, [r2, r6]
 1039 00a6 9A42     		cmp	r2, r3
 1040 00a8 07D9     		bls	.L78
 666:main.c        ****             {
 1041              		.loc 1 666 0
 1042 00aa 4E46     		mov	r6, r9
 1043 00ac 1A00     		movs	r2, r3
 1044 00ae 002E     		cmp	r6, #0
 1045 00b0 E1D1     		bne	.L76
 1046 00b2 CBE7     		b	.L74
 1047              	.LVL81:
 1048              	.L79:
 640:main.c        ****     }
 1049              		.loc 1 640 0
 1050 00b4 0022     		movs	r2, #0
 1051 00b6 9146     		mov	r9, r2
 1052 00b8 C6E7     		b	.L71
 1053              	.LVL82:
 1054              	.L78:
 697:main.c        ****     {
 1055              		.loc 1 697 0
 1056 00ba 4A46     		mov	r2, r9
 1057 00bc 002A     		cmp	r2, #0
 1058 00be D9D0     		beq	.L73
 1059 00c0 1A00     		movs	r2, r3
 1060 00c2 D8E7     		b	.L76
 1061              	.LVL83:
 1062              	.L85:
 651:main.c        ****             CapSense_lowBaselineResetCnt[sensor] = 0u;
 1063              		.loc 1 651 0
 1064 00c4 2800     		movs	r0, r5
 1065              	.LVL84:
 1066 00c6 FFF7FEFF 		bl	CapSense_BaseInit
 1067              	.LVL85:
 652:main.c        ****         }
 1068              		.loc 1 652 0
 1069 00ca 0023     		movs	r3, #0
 1070 00cc 7355     		strb	r3, [r6, r5]
 1071 00ce D1E7     		b	.L73
 1072              	.L87:
 1073              		.align	2
 1074              	.L86:
ARM GAS  C:\Users\young\AppData\Local\Temp\ccRRoTpk.s 			page 37


 1075 00d0 00000000 		.word	CapSense_widgetNumber
 1076 00d4 00000000 		.word	CapSense_noiseThreshold
 1077 00d8 00000000 		.word	CapSense_sensorRaw
 1078 00dc 00000000 		.word	CapSense_rawFilterData1
 1079 00e0 00000000 		.word	CapSense_sensorBaseline
 1080 00e4 00000000 		.word	Capsense_FilteredRawData
 1081 00e8 00000000 		.word	CapSense_lowBaselineResetCnt
 1082 00ec 00000000 		.word	CapSense_sensorBaselineLow
 1083 00f0 00000000 		.word	CapSense_sensorSignal
 1084 00f4 00000000 		.word	CapSense_negativeNoiseThreshold
 1085 00f8 00000000 		.word	CapSense_lowBaselineReset
 1086              	.LBE58:
 1087              	.LBE61:
 1088              		.cfi_endproc
 1089              	.LFE42:
 1090              		.size	CapSense_UpdateSensorBaseline_Filter, .-CapSense_UpdateSensorBaseline_Filter
 1091              		.section	.text.CapSense_UpdateBaselineNoThreshold_Filter,"ax",%progbits
 1092              		.align	2
 1093              		.global	CapSense_UpdateBaselineNoThreshold_Filter
 1094              		.code	16
 1095              		.thumb_func
 1096              		.type	CapSense_UpdateBaselineNoThreshold_Filter, %function
 1097              	CapSense_UpdateBaselineNoThreshold_Filter:
 1098              	.LFB43:
 541:main.c        ****     uint32 calc;
 1099              		.loc 1 541 0
 1100              		.cfi_startproc
 1101              		@ args = 0, pretend = 0, frame = 0
 1102              		@ frame_needed = 0, uses_anonymous_args = 0
 1103              	.LVL86:
 1104 0000 F0B5     		push	{r4, r5, r6, r7, lr}
 1105              		.cfi_def_cfa_offset 20
 1106              		.cfi_offset 4, -20
 1107              		.cfi_offset 5, -16
 1108              		.cfi_offset 6, -12
 1109              		.cfi_offset 7, -8
 1110              		.cfi_offset 14, -4
 1111 0002 4546     		mov	r5, r8
 1112 0004 5746     		mov	r7, r10
 1113 0006 4E46     		mov	r6, r9
 547:main.c        ****     uint16 noiseThreshold;
 1114              		.loc 1 547 0
 1115 0008 314B     		ldr	r3, .L105
 541:main.c        ****     uint32 calc;
 1116              		.loc 1 541 0
 1117 000a E0B4     		push	{r5, r6, r7}
 1118              		.cfi_def_cfa_offset 32
 1119              		.cfi_offset 8, -32
 1120              		.cfi_offset 9, -28
 1121              		.cfi_offset 10, -24
 556:main.c        ****     filteredRawData = CapSense_sensorRaw[sensor];
 1122              		.loc 1 556 0
 1123 000c 1E5C     		ldrb	r6, [r3, r0]
 1124 000e 314B     		ldr	r3, .L105+4
 1125 0010 7600     		lsls	r6, r6, #1
 1126 0012 9F5B     		ldrh	r7, [r3, r6]
 1127              	.LVL87:
ARM GAS  C:\Users\young\AppData\Local\Temp\ccRRoTpk.s 			page 38


 557:main.c        **** 
 1128              		.loc 1 557 0
 1129 0014 304B     		ldr	r3, .L105+8
 1130 0016 4400     		lsls	r4, r0, #1
 541:main.c        ****     uint32 calc;
 1131              		.loc 1 541 0
 1132 0018 0500     		movs	r5, r0
 557:main.c        **** 
 1133              		.loc 1 557 0
 1134 001a 185B     		ldrh	r0, [r3, r4]
 1135              	.LVL88:
 581:main.c        ****             CapSense_rawFilterData1[sensor] = filteredRawData;
 1136              		.loc 1 581 0
 1137 001c 2F4B     		ldr	r3, .L105+12
 1138 001e 9846     		mov	r8, r3
 1139 0020 195B     		ldrh	r1, [r3, r4]
 1140 0022 FFF7FEFF 		bl	CapSense_IIR4Filter
 1141              	.LVL89:
 582:main.c        ****             Capsense_FilteredRawData[sensor] = filteredRawData;
 1142              		.loc 1 582 0
 1143 0026 4346     		mov	r3, r8
 631:main.c        ****     {
 1144              		.loc 1 631 0
 1145 0028 2D49     		ldr	r1, .L105+16
 582:main.c        ****             Capsense_FilteredRawData[sensor] = filteredRawData;
 1146              		.loc 1 582 0
 1147 002a 1853     		strh	r0, [r3, r4]
 583:main.c        ****                     
 1148              		.loc 1 583 0
 1149 002c 2D4B     		ldr	r3, .L105+20
 1150 002e 1853     		strh	r0, [r3, r4]
 631:main.c        ****     {
 1151              		.loc 1 631 0
 1152 0030 0B5B     		ldrh	r3, [r1, r4]
 1153 0032 9C46     		mov	ip, r3
 1154 0034 9842     		cmp	r0, r3
 1155 0036 25D3     		bcc	.L89
 633:main.c        ****         tempRaw = filteredRawData - CapSense_sensorBaseline[sensor];
 1156              		.loc 1 633 0
 1157 0038 0022     		movs	r2, #0
 1158 003a 2B4B     		ldr	r3, .L105+24
 1159 003c 5A55     		strb	r2, [r3, r5]
 634:main.c        ****         sign = 1u;    /* Positive difference - Calculate the Signal */
 1160              		.loc 1 634 0
 1161 003e 6346     		mov	r3, ip
 635:main.c        ****     }
 1162              		.loc 1 635 0
 1163 0040 0132     		adds	r2, r2, #1
 1164 0042 9146     		mov	r9, r2
 634:main.c        ****         sign = 1u;    /* Positive difference - Calculate the Signal */
 1165              		.loc 1 634 0
 1166 0044 C31A     		subs	r3, r0, r3
 1167 0046 9BB2     		uxth	r3, r3
 1168              	.LVL90:
 1169              	.L90:
 664:main.c        ****              ((tempRaw < (uint16) CapSense_negativeNoiseThreshold[widget])
 1170              		.loc 1 664 0
ARM GAS  C:\Users\young\AppData\Local\Temp\ccRRoTpk.s 			page 39


 1171 0048 9F42     		cmp	r7, r3
 1172 004a 2AD3     		bcc	.L103
 1173              	.L93:
 677:main.c        ****                 calc |= (uint32) CapSense_sensorBaselineLow[sensor];
 1174              		.loc 1 677 0
 1175 004c 6246     		mov	r2, ip
 1176 004e 1202     		lsls	r2, r2, #8
 1177 0050 9046     		mov	r8, r2
 1178              	.LVL91:
 1179 0052 4646     		mov	r6, r8
 678:main.c        **** 
 1180              		.loc 1 678 0
 1181 0054 254A     		ldr	r2, .L105+28
 1182              	.LVL92:
 1183 0056 9246     		mov	r10, r2
 1184 0058 525D     		ldrb	r2, [r2, r5]
 1185 005a 3243     		orrs	r2, r6
 1186 005c 6646     		mov	r6, ip
 1187              	.LVL93:
 1188 005e 921B     		subs	r2, r2, r6
 684:main.c        **** 
 1189              		.loc 1 684 0
 1190 0060 8018     		adds	r0, r0, r2
 1191              	.LVL94:
 687:main.c        ****                 CapSense_sensorBaselineLow[sensor] = ((uint8) calc);
 1192              		.loc 1 687 0
 1193 0062 020A     		lsrs	r2, r0, #8
 1194 0064 0A53     		strh	r2, [r1, r4]
 688:main.c        **** 
 1195              		.loc 1 688 0
 1196 0066 5246     		mov	r2, r10
 690:main.c        ****         #if (CapSense_AUTO_RESET == CapSense_AUTO_RESET_DISABLE)
 1197              		.loc 1 690 0
 1198 0068 0021     		movs	r1, #0
 688:main.c        **** 
 1199              		.loc 1 688 0
 1200 006a 5055     		strb	r0, [r2, r5]
 690:main.c        ****         #if (CapSense_AUTO_RESET == CapSense_AUTO_RESET_DISABLE)
 1201              		.loc 1 690 0
 1202 006c 1E4A     		ldr	r2, .L105+24
 1203 006e 5155     		strb	r1, [r2, r5]
 697:main.c        ****     {
 1204              		.loc 1 697 0
 1205 0070 9F42     		cmp	r7, r3
 1206 0072 22D3     		bcc	.L97
 1207              	.LVL95:
 1208              	.L92:
 716:main.c        ****     }
 1209              		.loc 1 716 0
 1210 0074 0022     		movs	r2, #0
 1211              	.L95:
 1212 0076 1E4B     		ldr	r3, .L105+32
 723:main.c        **** #endif
 1213              		.loc 1 723 0
 1214              		@ sp needed
 1215 0078 1A53     		strh	r2, [r3, r4]
 1216              	.LVL96:
ARM GAS  C:\Users\young\AppData\Local\Temp\ccRRoTpk.s 			page 40


 1217              	.LVL97:
 1218 007a 1CBC     		pop	{r2, r3, r4}
 1219 007c 9046     		mov	r8, r2
 1220 007e 9946     		mov	r9, r3
 1221 0080 A246     		mov	r10, r4
 1222 0082 F0BD     		pop	{r4, r5, r6, r7, pc}
 1223              	.LVL98:
 1224              	.L89:
 644:main.c        ****     #else
 1225              		.loc 1 644 0
 1226 0084 1B4A     		ldr	r2, .L105+36
 639:main.c        ****         sign = 0u;    /* Negative difference - Do NOT calculate the Signal */
 1227              		.loc 1 639 0
 1228 0086 1B1A     		subs	r3, r3, r0
 644:main.c        ****     #else
 1229              		.loc 1 644 0
 1230 0088 925B     		ldrh	r2, [r2, r6]
 639:main.c        ****         sign = 0u;    /* Negative difference - Do NOT calculate the Signal */
 1231              		.loc 1 639 0
 1232 008a 9BB2     		uxth	r3, r3
 1233              	.LVL99:
 644:main.c        ****     #else
 1234              		.loc 1 644 0
 1235 008c 9A42     		cmp	r2, r3
 1236 008e 11D2     		bcs	.L98
 649:main.c        ****         {
 1237              		.loc 1 649 0
 1238 0090 154E     		ldr	r6, .L105+24
 1239 0092 194A     		ldr	r2, .L105+40
 1240 0094 735D     		ldrb	r3, [r6, r5]
 1241              	.LVL100:
 1242 0096 525D     		ldrb	r2, [r2, r5]
 1243 0098 9A42     		cmp	r2, r3
 1244 009a 13D9     		bls	.L104
 656:main.c        ****         }
 1245              		.loc 1 656 0
 1246 009c 0133     		adds	r3, r3, #1
 1247 009e 7355     		strb	r3, [r6, r5]
 1248 00a0 E8E7     		b	.L92
 1249              	.LVL101:
 1250              	.L103:
 665:main.c        ****                && (sign == 0u)))
 1251              		.loc 1 665 0 discriminator 1
 1252 00a2 144A     		ldr	r2, .L105+36
 664:main.c        ****              ((tempRaw < (uint16) CapSense_negativeNoiseThreshold[widget])
 1253              		.loc 1 664 0 discriminator 1
 1254 00a4 925B     		ldrh	r2, [r2, r6]
 1255 00a6 9A42     		cmp	r2, r3
 1256 00a8 07D9     		bls	.L97
 666:main.c        ****             {
 1257              		.loc 1 666 0
 1258 00aa 4E46     		mov	r6, r9
 1259 00ac 1A00     		movs	r2, r3
 1260 00ae 002E     		cmp	r6, #0
 1261 00b0 E1D1     		bne	.L95
 1262 00b2 CBE7     		b	.L93
 1263              	.LVL102:
ARM GAS  C:\Users\young\AppData\Local\Temp\ccRRoTpk.s 			page 41


 1264              	.L98:
 640:main.c        ****     }
 1265              		.loc 1 640 0
 1266 00b4 0022     		movs	r2, #0
 1267 00b6 9146     		mov	r9, r2
 1268 00b8 C6E7     		b	.L90
 1269              	.LVL103:
 1270              	.L97:
 697:main.c        ****     {
 1271              		.loc 1 697 0
 1272 00ba 4A46     		mov	r2, r9
 1273 00bc 002A     		cmp	r2, #0
 1274 00be D9D0     		beq	.L92
 1275 00c0 1A00     		movs	r2, r3
 1276 00c2 D8E7     		b	.L95
 1277              	.LVL104:
 1278              	.L104:
 651:main.c        ****             CapSense_lowBaselineResetCnt[sensor] = 0u;
 1279              		.loc 1 651 0
 1280 00c4 2800     		movs	r0, r5
 1281              	.LVL105:
 1282 00c6 FFF7FEFF 		bl	CapSense_BaseInit
 1283              	.LVL106:
 652:main.c        ****         }
 1284              		.loc 1 652 0
 1285 00ca 0023     		movs	r3, #0
 1286 00cc 7355     		strb	r3, [r6, r5]
 1287 00ce D1E7     		b	.L92
 1288              	.L106:
 1289              		.align	2
 1290              	.L105:
 1291 00d0 00000000 		.word	CapSense_widgetNumber
 1292 00d4 00000000 		.word	CapSense_noiseThreshold
 1293 00d8 00000000 		.word	CapSense_sensorRaw
 1294 00dc 00000000 		.word	CapSense_rawFilterData1
 1295 00e0 00000000 		.word	CapSense_sensorBaseline
 1296 00e4 00000000 		.word	Capsense_FilteredRawData
 1297 00e8 00000000 		.word	CapSense_lowBaselineResetCnt
 1298 00ec 00000000 		.word	CapSense_sensorBaselineLow
 1299 00f0 00000000 		.word	CapSense_sensorSignal
 1300 00f4 00000000 		.word	CapSense_negativeNoiseThreshold
 1301 00f8 00000000 		.word	CapSense_lowBaselineReset
 1302              		.cfi_endproc
 1303              	.LFE43:
 1304              		.size	CapSense_UpdateBaselineNoThreshold_Filter, .-CapSense_UpdateBaselineNoThreshold_Filter
 1305              		.section	.text.startup.main,"ax",%progbits
 1306              		.align	2
 1307              		.global	main
 1308              		.code	16
 1309              		.thumb_func
 1310              		.type	main, %function
 1311              	main:
 1312              	.LFB33:
  99:main.c        **** 	/* Enable global interrupt */
 1313              		.loc 1 99 0
 1314              		.cfi_startproc
 1315              		@ Volatile: function does not return.
ARM GAS  C:\Users\young\AppData\Local\Temp\ccRRoTpk.s 			page 42


 1316              		@ args = 0, pretend = 0, frame = 0
 1317              		@ frame_needed = 0, uses_anonymous_args = 0
 1318 0000 F8B5     		push	{r3, r4, r5, r6, r7, lr}
 1319              		.cfi_def_cfa_offset 24
 1320              		.cfi_offset 3, -24
 1321              		.cfi_offset 4, -20
 1322              		.cfi_offset 5, -16
 1323              		.cfi_offset 6, -12
 1324              		.cfi_offset 7, -8
 1325              		.cfi_offset 14, -4
 1326 0002 5F46     		mov	r7, fp
 1327 0004 5646     		mov	r6, r10
 1328 0006 4D46     		mov	r5, r9
 1329 0008 4446     		mov	r4, r8
 1330 000a F0B4     		push	{r4, r5, r6, r7}
 1331              		.cfi_def_cfa_offset 40
 1332              		.cfi_offset 8, -40
 1333              		.cfi_offset 9, -36
 1334              		.cfi_offset 10, -32
 1335              		.cfi_offset 11, -28
 101:main.c        ****     
 1336              		.loc 1 101 0
 1337              		.syntax divided
 1338              	@ 101 "main.c" 1
 1339 000c 62B6     		CPSIE   i
 1340              	@ 0 "" 2
 103:main.c        ****     UnUsedPin_9_Write(0);
 1341              		.loc 1 103 0
 1342              		.thumb
 1343              		.syntax unified
 1344 000e 0020     		movs	r0, #0
 1345 0010 FFF7FEFF 		bl	UnUsedPin_16_Write
 1346              	.LVL107:
 104:main.c        ****     UnUsedPin_18_Write(0);
 1347              		.loc 1 104 0
 1348 0014 0020     		movs	r0, #0
 1349 0016 FFF7FEFF 		bl	UnUsedPin_9_Write
 1350              	.LVL108:
 105:main.c        ****     UnUsedPin_10_Write(0);
 1351              		.loc 1 105 0
 1352 001a 0020     		movs	r0, #0
 1353 001c FFF7FEFF 		bl	UnUsedPin_18_Write
 1354              	.LVL109:
 106:main.c        ****     UnUsedPin_14_Write(0);
 1355              		.loc 1 106 0
 1356 0020 0020     		movs	r0, #0
 1357 0022 FFF7FEFF 		bl	UnUsedPin_10_Write
 1358              	.LVL110:
 107:main.c        ****     UnUsedPin_15_Write(0);
 1359              		.loc 1 107 0
 1360 0026 0020     		movs	r0, #0
 1361 0028 FFF7FEFF 		bl	UnUsedPin_14_Write
 1362              	.LVL111:
 108:main.c        ****     #ifndef CYDebug
 1363              		.loc 1 108 0
 1364 002c 0020     		movs	r0, #0
 1365 002e FFF7FEFF 		bl	UnUsedPin_15_Write
ARM GAS  C:\Users\young\AppData\Local\Temp\ccRRoTpk.s 			page 43


 1366              	.LVL112:
 110:main.c        ****     hawkeye_data_Write(0);
 1367              		.loc 1 110 0
 1368 0032 0020     		movs	r0, #0
 1369 0034 FFF7FEFF 		bl	hawkeye_clk_Write
 1370              	.LVL113:
 111:main.c        ****     #endif
 1371              		.loc 1 111 0
 1372 0038 0020     		movs	r0, #0
 1373 003a FFF7FEFF 		bl	hawkeye_data_Write
 1374              	.LVL114:
 114:main.c        ****     
 1375              		.loc 1 114 0
 1376 003e FF20     		movs	r0, #255
 1377 0040 FFF7FEFF 		bl	Clock_1_StartEx
 1378              	.LVL115:
 117:main.c        **** 
 1379              		.loc 1 117 0
 1380 0044 4B48     		ldr	r0, .L139
 1381 0046 FFF7FEFF 		bl	TC_CC_ISR_StartEx
 1382              	.LVL116:
 120:main.c        ****     
 1383              		.loc 1 120 0
 1384 004a FFF7FEFF 		bl	Timer_1_Start
 1385              	.LVL117:
 130:main.c        ****     CyDelay(20u);
 1386              		.loc 1 130 0
 1387 004e 1420     		movs	r0, #20
 1388 0050 FFF7FEFF 		bl	CyDelay
 1389              	.LVL118:
 131:main.c        ****     
 1390              		.loc 1 131 0
 1391 0054 1420     		movs	r0, #20
 1392 0056 FFF7FEFF 		bl	CyDelay
 1393              	.LVL119:
 134:main.c        ****     
 1394              		.loc 1 134 0
 1395 005a FFF7FEFF 		bl	CapSense_Start
 1396              	.LVL120:
 136:main.c        ****     
 1397              		.loc 1 136 0
 1398 005e FFF7FEFF 		bl	FirstSensingData
 1399              	.LVL121:
 1400 0062 454B     		ldr	r3, .L139+4
 1401 0064 1027     		movs	r7, #16
 1402 0066 9B46     		mov	fp, r3
 1403 0068 444B     		ldr	r3, .L139+8
 1404 006a 454C     		ldr	r4, .L139+12
 1405 006c 9A46     		mov	r10, r3
 1406              	.LVL122:
 1407              	.L108:
  99:main.c        **** 	/* Enable global interrupt */
 1408              		.loc 1 99 0
 1409 006e 0023     		movs	r3, #0
 1410 0070 0026     		movs	r6, #0
 1411 0072 9846     		mov	r8, r3
 1412              	.LVL123:
ARM GAS  C:\Users\young\AppData\Local\Temp\ccRRoTpk.s 			page 44


 1413              	.L110:
 1414              	.LBB72:
 1415              	.LBB73:
 1416              	.LBB74:
 1417              	.LBB75:
 429:main.c        ****     while(CapSense_IsBusy() != 0u)
 1418              		.loc 1 429 0
 1419 0074 4046     		mov	r0, r8
 1420 0076 FFF7FEFF 		bl	CapSense_ScanSensor
 1421              	.LVL124:
 1422              	.L109:
 430:main.c        ****     { 
 1423              		.loc 1 430 0
 1424 007a FFF7FEFF 		bl	CapSense_IsBusy
 1425              	.LVL125:
 1426 007e 051E     		subs	r5, r0, #0
 1427 0080 FBD1     		bne	.L109
 1428              	.LVL126:
 1429              	.LBB76:
 1430              	.LBB77:
 463:main.c        ****     CapSense_rawFilterData1[sensor] = filteredRawData;
 1431              		.loc 1 463 0
 1432 0082 B146     		mov	r9, r6
 461:main.c        ****     
 1433              		.loc 1 461 0
 1434 0084 5B46     		mov	r3, fp
 463:main.c        ****     CapSense_rawFilterData1[sensor] = filteredRawData;
 1435              		.loc 1 463 0
 1436 0086 D144     		add	r9, r9, r10
 461:main.c        ****     
 1437              		.loc 1 461 0
 1438 0088 985B     		ldrh	r0, [r3, r6]
 1439              	.LVL127:
 463:main.c        ****     CapSense_rawFilterData1[sensor] = filteredRawData;
 1440              		.loc 1 463 0
 1441 008a 4B46     		mov	r3, r9
 1442 008c 1988     		ldrh	r1, [r3]
 1443 008e FFF7FEFF 		bl	CapSense_IIR4Filter
 1444              	.LVL128:
 464:main.c        **** 
 1445              		.loc 1 464 0
 1446 0092 4B46     		mov	r3, r9
 469:main.c        ****     CapSense_sensorSignal[sensor] = 0u;
 1447              		.loc 1 469 0
 1448 0094 4246     		mov	r2, r8
 464:main.c        **** 
 1449              		.loc 1 464 0
 1450 0096 1880     		strh	r0, [r3]
 469:main.c        ****     CapSense_sensorSignal[sensor] = 0u;
 1451              		.loc 1 469 0
 1452 0098 3A4B     		ldr	r3, .L139+16
 468:main.c        ****     CapSense_sensorBaselineLow[sensor] = 0u;
 1453              		.loc 1 468 0
 1454 009a A053     		strh	r0, [r4, r6]
 469:main.c        ****     CapSense_sensorSignal[sensor] = 0u;
 1455              		.loc 1 469 0
 1456 009c 9D54     		strb	r5, [r3, r2]
ARM GAS  C:\Users\young\AppData\Local\Temp\ccRRoTpk.s 			page 45


 470:main.c        **** 
 1457              		.loc 1 470 0
 1458 009e 3A4B     		ldr	r3, .L139+20
 1459 00a0 9D53     		strh	r5, [r3, r6]
 1460              	.LVL129:
 1461              	.LBE77:
 1462              	.LBE76:
 1463              	.LBE75:
 1464              	.LBE74:
 416:main.c        ****         {
 1465              		.loc 1 416 0
 1466 00a2 0123     		movs	r3, #1
 1467 00a4 9C46     		mov	ip, r3
 1468 00a6 E044     		add	r8, r8, ip
 1469              	.LVL130:
 1470 00a8 4346     		mov	r3, r8
 1471 00aa 0236     		adds	r6, r6, #2
 1472 00ac 062B     		cmp	r3, #6
 1473 00ae E1D1     		bne	.L110
 1474 00b0 013F     		subs	r7, r7, #1
 1475 00b2 FFB2     		uxtb	r7, r7
 414:main.c        ****     {
 1476              		.loc 1 414 0
 1477 00b4 002F     		cmp	r7, #0
 1478 00b6 DAD1     		bne	.L108
 1479 00b8 344B     		ldr	r3, .L139+24
 1480 00ba 354E     		ldr	r6, .L139+28
 1481 00bc 9B46     		mov	fp, r3
 1482 00be 354B     		ldr	r3, .L139+32
 1483 00c0 354D     		ldr	r5, .L139+36
 1484 00c2 9846     		mov	r8, r3
 1485              	.LVL131:
 1486 00c4 0623     		movs	r3, #6
 1487 00c6 9946     		mov	r9, r3
 1488              	.LBE73:
 1489              	.LBE72:
 224:main.c        ****             }
 1490              		.loc 1 224 0
 1491 00c8 0023     		movs	r3, #0
 1492 00ca 9A46     		mov	r10, r3
 1493              	.LVL132:
 1494              	.L111:
 145:main.c        **** 		
 1495              		.loc 1 145 0
 1496 00cc FFF7FEFF 		bl	CapSense_ScanEnabledWidgets
 1497              	.LVL133:
 1498              	.L112:
 148:main.c        ****         {
 1499              		.loc 1 148 0 discriminator 1
 1500 00d0 FFF7FEFF 		bl	CapSense_IsBusy
 1501              	.LVL134:
 1502 00d4 0028     		cmp	r0, #0
 1503 00d6 FBD1     		bne	.L112
 1504 00d8 0027     		movs	r7, #0
 1505 00da 02E0     		b	.L114
 1506              	.LVL135:
 1507              	.L113:
ARM GAS  C:\Users\young\AppData\Local\Temp\ccRRoTpk.s 			page 46


 1508              	.LBB78:
 1509              	.LBB79:
 503:main.c        ****     {
 1510              		.loc 1 503 0
 1511 00dc 0137     		adds	r7, r7, #1
 1512              	.LVL136:
 1513 00de 062F     		cmp	r7, #6
 1514 00e0 0BD0     		beq	.L137
 1515              	.LVL137:
 1516              	.L114:
 505:main.c        **** 
 1517              		.loc 1 505 0
 1518 00e2 3900     		movs	r1, r7
 1519 00e4 5846     		mov	r0, fp
 1520 00e6 FFF7FEFF 		bl	CapSense_GetBitValue
 1521              	.LVL138:
 507:main.c        ****         {
 1522              		.loc 1 507 0
 1523 00ea 0028     		cmp	r0, #0
 1524 00ec F6D0     		beq	.L113
 1525              	.LVL139:
 1526              	.LBB80:
 1527              	.LBB81:
 532:main.c        **** 
 1528              		.loc 1 532 0
 1529 00ee 3800     		movs	r0, r7
 1530              	.LVL140:
 1531              	.LBE81:
 1532              	.LBE80:
 503:main.c        ****     {
 1533              		.loc 1 503 0
 1534 00f0 0137     		adds	r7, r7, #1
 1535              	.LVL141:
 1536              	.LBB83:
 1537              	.LBB82:
 532:main.c        **** 
 1538              		.loc 1 532 0
 1539 00f2 FFF7FEFF 		bl	CapSense_UpdateBaselineNoThreshold_Filter
 1540              	.LVL142:
 1541              	.LBE82:
 1542              	.LBE83:
 503:main.c        ****     {
 1543              		.loc 1 503 0
 1544 00f6 062F     		cmp	r7, #6
 1545 00f8 F3D1     		bne	.L114
 1546              	.LVL143:
 1547              	.L137:
 1548              	.LBE79:
 1549              	.LBE78:
 160:main.c        ****         
 1550              		.loc 1 160 0
 1551 00fa FFF7FEFF 		bl	CapSense_CheckIsAnyWidgetActive
 1552              	.LVL144:
 211:main.c        ****             }
 1553              		.loc 1 211 0
 1554 00fe 3188     		ldrh	r1, [r6]
 1555 0100 2288     		ldrh	r2, [r4]
ARM GAS  C:\Users\young\AppData\Local\Temp\ccRRoTpk.s 			page 47


 1556 0102 0023     		movs	r3, #0
 1557 0104 9142     		cmp	r1, r2
 1558 0106 00D9     		bls	.L116
 1559 0108 8B1A     		subs	r3, r1, r2
 1560              	.L116:
 1561 010a 2B80     		strh	r3, [r5]
 1562 010c 7188     		ldrh	r1, [r6, #2]
 1563 010e 6288     		ldrh	r2, [r4, #2]
 1564 0110 0023     		movs	r3, #0
 1565 0112 9142     		cmp	r1, r2
 1566 0114 00D9     		bls	.L118
 1567 0116 8B1A     		subs	r3, r1, r2
 1568              	.L118:
 1569 0118 6B80     		strh	r3, [r5, #2]
 1570 011a B188     		ldrh	r1, [r6, #4]
 1571 011c A288     		ldrh	r2, [r4, #4]
 1572 011e 0023     		movs	r3, #0
 1573 0120 9142     		cmp	r1, r2
 1574 0122 00D9     		bls	.L120
 1575 0124 8B1A     		subs	r3, r1, r2
 1576              	.L120:
 1577 0126 AB80     		strh	r3, [r5, #4]
 1578 0128 F188     		ldrh	r1, [r6, #6]
 1579 012a E288     		ldrh	r2, [r4, #6]
 1580 012c 0023     		movs	r3, #0
 1581 012e 9142     		cmp	r1, r2
 1582 0130 00D9     		bls	.L122
 1583 0132 8B1A     		subs	r3, r1, r2
 1584              	.L122:
 1585 0134 EB80     		strh	r3, [r5, #6]
 1586 0136 3189     		ldrh	r1, [r6, #8]
 1587 0138 2289     		ldrh	r2, [r4, #8]
 1588 013a 0023     		movs	r3, #0
 1589 013c 9142     		cmp	r1, r2
 1590 013e 00D9     		bls	.L124
 1591 0140 8B1A     		subs	r3, r1, r2
 1592              	.L124:
 1593 0142 2B81     		strh	r3, [r5, #8]
 1594 0144 7189     		ldrh	r1, [r6, #10]
 1595 0146 6289     		ldrh	r2, [r4, #10]
 1596 0148 0023     		movs	r3, #0
 1597 014a 9142     		cmp	r1, r2
 1598 014c 00D9     		bls	.L126
 1599 014e 8B1A     		subs	r3, r1, r2
 1600              	.L126:
 1601 0150 6B81     		strh	r3, [r5, #10]
 1602 0152 4A46     		mov	r2, r9
 1603 0154 4346     		mov	r3, r8
 1604 0156 5A70     		strb	r2, [r3, #1]
 217:main.c        ****             {
 1605              		.loc 1 217 0
 1606 0158 9B78     		ldrb	r3, [r3, #2]
 1607 015a 012B     		cmp	r3, #1
 1608 015c 05D9     		bls	.L138
 223:main.c        ****                 d = 0;
 1609              		.loc 1 223 0
 1610 015e FFF7FEFF 		bl	report_debug_data
ARM GAS  C:\Users\young\AppData\Local\Temp\ccRRoTpk.s 			page 48


 1611              	.LVL145:
 224:main.c        ****             }
 1612              		.loc 1 224 0
 1613 0162 4346     		mov	r3, r8
 1614 0164 5246     		mov	r2, r10
 1615 0166 9A70     		strb	r2, [r3, #2]
 1616 0168 B0E7     		b	.L111
 1617              	.L138:
 219:main.c        ****             }
 1618              		.loc 1 219 0
 1619 016a 4246     		mov	r2, r8
 1620 016c 0133     		adds	r3, r3, #1
 1621 016e 9370     		strb	r3, [r2, #2]
 1622 0170 ACE7     		b	.L111
 1623              	.L140:
 1624 0172 C046     		.align	2
 1625              	.L139:
 1626 0174 00000000 		.word	InterruptHandler
 1627 0178 00000000 		.word	CapSense_sensorRaw
 1628 017c 00000000 		.word	CapSense_rawFilterData1
 1629 0180 00000000 		.word	CapSense_sensorBaseline
 1630 0184 00000000 		.word	CapSense_sensorBaselineLow
 1631 0188 00000000 		.word	CapSense_sensorSignal
 1632 018c 00000000 		.word	CapSense_sensorEnableMask
 1633 0190 00000000 		.word	Capsense_FilteredRawData
 1634 0194 00000000 		.word	.LANCHOR0
 1635 0198 00000000 		.word	Sub_Buff
 1636              		.cfi_endproc
 1637              	.LFE33:
 1638              		.size	main, .-main
 1639              		.section	.text.WDT_Init,"ax",%progbits
 1640              		.align	2
 1641              		.global	WDT_Init
 1642              		.code	16
 1643              		.thumb_func
 1644              		.type	WDT_Init, %function
 1645              	WDT_Init:
 1646              	.LFB44:
 729:main.c        ****     WDT_Ignore = IgnoreBit; /* for Reset mode */
 1647              		.loc 1 729 0
 1648              		.cfi_startproc
 1649              		@ args = 0, pretend = 0, frame = 0
 1650              		@ frame_needed = 0, uses_anonymous_args = 0
 1651              	.LVL146:
 1652 0000 10B5     		push	{r4, lr}
 1653              		.cfi_def_cfa_offset 8
 1654              		.cfi_offset 4, -8
 1655              		.cfi_offset 14, -4
 729:main.c        ****     WDT_Ignore = IgnoreBit; /* for Reset mode */
 1656              		.loc 1 729 0
 1657 0002 0400     		movs	r4, r0
 730:main.c        ****     WDT_Match = Match_ms;  /* for Match mode */
 1658              		.loc 1 730 0
 1659 0004 084B     		ldr	r3, .L142
 749:main.c        **** 
 1660              		.loc 1 749 0
 1661              		@ sp needed
ARM GAS  C:\Users\young\AppData\Local\Temp\ccRRoTpk.s 			page 49


 730:main.c        ****     WDT_Match = Match_ms;  /* for Match mode */
 1662              		.loc 1 730 0
 1663 0006 1880     		strh	r0, [r3]
 731:main.c        ****     
 1664              		.loc 1 731 0
 1665 0008 084B     		ldr	r3, .L142+4
 1666 000a 1980     		strh	r1, [r3]
 734:main.c        ****     
 1667              		.loc 1 734 0
 1668 000c FFF7FEFF 		bl	isr_WDT_Stop
 1669              	.LVL147:
 737:main.c        **** 
 1670              		.loc 1 737 0
 1671 0010 0748     		ldr	r0, .L142+8
 1672 0012 FFF7FEFF 		bl	CySysWdtSetMatch
 1673              	.LVL148:
 742:main.c        **** 
 1674              		.loc 1 742 0
 1675 0016 2000     		movs	r0, r4
 1676 0018 FFF7FEFF 		bl	CySysWdtSetIgnoreBits
 1677              	.LVL149:
 745:main.c        **** 
 1678              		.loc 1 745 0
 1679 001c FFF7FEFF 		bl	CySysWdtEnable
 1680              	.LVL150:
 748:main.c        **** }
 1681              		.loc 1 748 0
 1682 0020 FFF7FEFF 		bl	CySysWdtUnmaskInterrupt
 1683              	.LVL151:
 749:main.c        **** 
 1684              		.loc 1 749 0
 1685 0024 10BD     		pop	{r4, pc}
 1686              	.L143:
 1687 0026 C046     		.align	2
 1688              	.L142:
 1689 0028 00000000 		.word	WDT_Ignore
 1690 002c 00000000 		.word	WDT_Match
 1691 0030 FFFF0000 		.word	65535
 1692              		.cfi_endproc
 1693              	.LFE44:
 1694              		.size	WDT_Init, .-WDT_Init
 1695              		.section	.text.WDT_Match_Init,"ax",%progbits
 1696              		.align	2
 1697              		.global	WDT_Match_Init
 1698              		.code	16
 1699              		.thumb_func
 1700              		.type	WDT_Match_Init, %function
 1701              	WDT_Match_Init:
 1702              	.LFB45:
 756:main.c        ****     WDT_Ignore = IgnoreBit;
 1703              		.loc 1 756 0
 1704              		.cfi_startproc
 1705              		@ args = 0, pretend = 0, frame = 0
 1706              		@ frame_needed = 0, uses_anonymous_args = 0
 1707              	.LVL152:
 757:main.c        ****     WDT_Match = Match_ms;
 1708              		.loc 1 757 0
ARM GAS  C:\Users\young\AppData\Local\Temp\ccRRoTpk.s 			page 50


 1709 0000 0C4B     		ldr	r3, .L145
 756:main.c        ****     WDT_Ignore = IgnoreBit;
 1710              		.loc 1 756 0
 1711 0002 70B5     		push	{r4, r5, r6, lr}
 1712              		.cfi_def_cfa_offset 16
 1713              		.cfi_offset 4, -16
 1714              		.cfi_offset 5, -12
 1715              		.cfi_offset 6, -8
 1716              		.cfi_offset 14, -4
 758:main.c        ****     
 1717              		.loc 1 758 0
 1718 0004 0C4D     		ldr	r5, .L145+4
 757:main.c        ****     WDT_Match = Match_ms;
 1719              		.loc 1 757 0
 1720 0006 1880     		strh	r0, [r3]
 756:main.c        ****     WDT_Ignore = IgnoreBit;
 1721              		.loc 1 756 0
 1722 0008 0400     		movs	r4, r0
 761:main.c        ****     
 1723              		.loc 1 761 0
 1724 000a 0C48     		ldr	r0, .L145+8
 1725              	.LVL153:
 758:main.c        ****     
 1726              		.loc 1 758 0
 1727 000c 2980     		strh	r1, [r5]
 761:main.c        ****     
 1728              		.loc 1 761 0
 1729 000e FFF7FEFF 		bl	isr_WDT_StartEx
 1730              	.LVL154:
 765:main.c        ****     
 1731              		.loc 1 765 0
 1732 0012 FFF7FEFF 		bl	CySysWdtGetMatch
 1733              	.LVL155:
 1734 0016 2B88     		ldrh	r3, [r5]
 777:main.c        **** /********************************************************************************************/
 1735              		.loc 1 777 0
 1736              		@ sp needed
 765:main.c        ****     
 1737              		.loc 1 765 0
 1738 0018 9A00     		lsls	r2, r3, #2
 1739 001a D318     		adds	r3, r2, r3
 1740 001c DB00     		lsls	r3, r3, #3
 1741 001e 1818     		adds	r0, r3, r0
 1742 0020 FFF7FEFF 		bl	CySysWdtSetMatch
 1743              	.LVL156:
 770:main.c        **** 
 1744              		.loc 1 770 0
 1745 0024 2000     		movs	r0, r4
 1746 0026 FFF7FEFF 		bl	CySysWdtSetIgnoreBits
 1747              	.LVL157:
 773:main.c        **** 
 1748              		.loc 1 773 0
 1749 002a FFF7FEFF 		bl	CySysWdtEnable
 1750              	.LVL158:
 776:main.c        **** }
 1751              		.loc 1 776 0
 1752 002e FFF7FEFF 		bl	CySysWdtUnmaskInterrupt
ARM GAS  C:\Users\young\AppData\Local\Temp\ccRRoTpk.s 			page 51


 1753              	.LVL159:
 777:main.c        **** /********************************************************************************************/
 1754              		.loc 1 777 0
 1755 0032 70BD     		pop	{r4, r5, r6, pc}
 1756              	.L146:
 1757              		.align	2
 1758              	.L145:
 1759 0034 00000000 		.word	WDT_Ignore
 1760 0038 00000000 		.word	WDT_Match
 1761 003c 00000000 		.word	WDT_ISR
 1762              		.cfi_endproc
 1763              	.LFE45:
 1764              		.size	WDT_Match_Init, .-WDT_Match_Init
 1765              		.section	.text.Force_WDT_Reset,"ax",%progbits
 1766              		.align	2
 1767              		.global	Force_WDT_Reset
 1768              		.code	16
 1769              		.thumb_func
 1770              		.type	Force_WDT_Reset, %function
 1771              	Force_WDT_Reset:
 1772              	.LFB46:
 782:main.c        ****     WDT_Init(5, WDT_INTERRUPT_TIME);   /* Initialize WDT Interval */
 1773              		.loc 1 782 0
 1774              		.cfi_startproc
 1775              		@ Volatile: function does not return.
 1776              		@ args = 0, pretend = 0, frame = 0
 1777              		@ frame_needed = 0, uses_anonymous_args = 0
 1778 0000 10B5     		push	{r4, lr}
 1779              		.cfi_def_cfa_offset 8
 1780              		.cfi_offset 4, -8
 1781              		.cfi_offset 14, -4
 783:main.c        ****     
 1782              		.loc 1 783 0
 1783 0002 1421     		movs	r1, #20
 1784 0004 0520     		movs	r0, #5
 1785 0006 FFF7FEFF 		bl	WDT_Init
 1786              	.LVL160:
 1787              	.L148:
 1788 000a FEE7     		b	.L148
 1789              		.cfi_endproc
 1790              	.LFE46:
 1791              		.size	Force_WDT_Reset, .-Force_WDT_Reset
 1792              		.global	SignalBit_Debug
 1793              		.comm	Sub_Buff,12,4
 1794              		.comm	Capsense_FilteredRawData,12,4
 1795              		.comm	key_scan_count,1,1
 1796              		.comm	WDT_Match,2,2
 1797              		.comm	WDT_Ignore,2,2
 1798              		.global	WDT_Clear_Flag
 1799              		.global	ILODelayCycles_1
 1800              		.global	ILODelayCycles_0
 1801              		.global	d
 1802              		.bss
 1803              		.align	2
 1804              		.set	.LANCHOR0,. + 0
 1805              		.type	WDT_Clear_Flag, %object
 1806              		.size	WDT_Clear_Flag, 1
ARM GAS  C:\Users\young\AppData\Local\Temp\ccRRoTpk.s 			page 52


 1807              	WDT_Clear_Flag:
 1808 0000 00       		.space	1
 1809              		.type	SignalBit_Debug, %object
 1810              		.size	SignalBit_Debug, 1
 1811              	SignalBit_Debug:
 1812 0001 00       		.space	1
 1813              		.type	d, %object
 1814              		.size	d, 1
 1815              	d:
 1816 0002 00       		.space	1
 1817 0003 00       		.space	1
 1818              		.type	ILODelayCycles_1, %object
 1819              		.size	ILODelayCycles_1, 4
 1820              	ILODelayCycles_1:
 1821 0004 00000000 		.space	4
 1822              		.type	ILODelayCycles_0, %object
 1823              		.size	ILODelayCycles_0, 4
 1824              	ILODelayCycles_0:
 1825 0008 00000000 		.space	4
 1826              		.text
 1827              	.Letext0:
 1828              		.file 2 "Generated_Source\\PSoC4/cytypes.h"
 1829              		.file 3 "Generated_Source\\PSoC4/CapSense.h"
 1830              		.file 4 "Generated_Source\\PSoC4/CapSense_CSHL.h"
 1831              		.file 5 "Generated_Source\\PSoC4/Timer_1.h"
 1832              		.file 6 "Generated_Source\\PSoC4/CyLFClk.h"
 1833              		.file 7 "Generated_Source\\PSoC4/isr_WDT.h"
 1834              		.file 8 "Generated_Source\\PSoC4/CapSense_PVT.h"
 1835              		.file 9 "Generated_Source\\PSoC4/UnUsedPin_16.h"
 1836              		.file 10 "Generated_Source\\PSoC4/UnUsedPin_9.h"
 1837              		.file 11 "Generated_Source\\PSoC4/UnUsedPin_18.h"
 1838              		.file 12 "Generated_Source\\PSoC4/UnUsedPin_10.h"
 1839              		.file 13 "Generated_Source\\PSoC4/UnUsedPin_14.h"
 1840              		.file 14 "Generated_Source\\PSoC4/UnUsedPin_15.h"
 1841              		.file 15 "Generated_Source\\PSoC4/hawkeye_clk.h"
 1842              		.file 16 "Generated_Source\\PSoC4/hawkeye_data.h"
 1843              		.file 17 "Generated_Source\\PSoC4/Clock_1.h"
 1844              		.file 18 "Generated_Source\\PSoC4/TC_CC_ISR.h"
 1845              		.file 19 "Generated_Source\\PSoC4/CyLib.h"