ARM GAS  C:\Users\jhkim\AppData\Local\Temp\cc9oMwCq.s 			page 1


   1              		.syntax unified
   2              		.cpu cortex-m0
   3              		.fpu softvfp
   4              		.eabi_attribute 20, 1
   5              		.eabi_attribute 21, 1
   6              		.eabi_attribute 23, 3
   7              		.eabi_attribute 24, 1
   8              		.eabi_attribute 25, 1
   9              		.eabi_attribute 26, 1
  10              		.eabi_attribute 30, 2
  11              		.eabi_attribute 34, 0
  12              		.eabi_attribute 18, 4
  13              		.thumb
  14              		.syntax unified
  15              		.file	"SW_Tx_UART.c"
  16              		.text
  17              	.Ltext0:
  18              		.cfi_sections	.debug_frame
  19              		.section	.text.SW_Tx_UART_StartEx,"ax",%progbits
  20              		.align	2
  21              		.global	SW_Tx_UART_StartEx
  22              		.code	16
  23              		.thumb_func
  24              		.type	SW_Tx_UART_StartEx, %function
  25              	SW_Tx_UART_StartEx:
  26              	.LFB0:
  27              		.file 1 "Generated_Source\\PSoC4\\SW_Tx_UART.c"
   1:Generated_Source\PSoC4/SW_Tx_UART.c **** /*******************************************************************************
   2:Generated_Source\PSoC4/SW_Tx_UART.c **** * File Name: SW_Tx_UART.c
   3:Generated_Source\PSoC4/SW_Tx_UART.c **** * Version 1.50
   4:Generated_Source\PSoC4/SW_Tx_UART.c **** *
   5:Generated_Source\PSoC4/SW_Tx_UART.c **** * Description:
   6:Generated_Source\PSoC4/SW_Tx_UART.c **** *  This file provides the source code to the API for the Software Transmit UART.
   7:Generated_Source\PSoC4/SW_Tx_UART.c **** *
   8:Generated_Source\PSoC4/SW_Tx_UART.c **** ********************************************************************************
   9:Generated_Source\PSoC4/SW_Tx_UART.c **** * Copyright 2013-2015, Cypress Semiconductor Corporation.  All rights reserved.
  10:Generated_Source\PSoC4/SW_Tx_UART.c **** * You may use this file only in accordance with the license, terms, conditions,
  11:Generated_Source\PSoC4/SW_Tx_UART.c **** * disclaimers, and limitations in the end user license agreement accompanying
  12:Generated_Source\PSoC4/SW_Tx_UART.c **** * the software package with which this file was provided.
  13:Generated_Source\PSoC4/SW_Tx_UART.c **** *******************************************************************************/
  14:Generated_Source\PSoC4/SW_Tx_UART.c **** 
  15:Generated_Source\PSoC4/SW_Tx_UART.c **** #include "SW_Tx_UART_PVT.h"
  16:Generated_Source\PSoC4/SW_Tx_UART.c **** 
  17:Generated_Source\PSoC4/SW_Tx_UART.c **** #if(SW_Tx_UART_PIN_STATIC_MODE == 1u)
  18:Generated_Source\PSoC4/SW_Tx_UART.c ****     uint32 SW_Tx_UART_pinNumber = SW_Tx_UART_PIN_NUMBER;
  19:Generated_Source\PSoC4/SW_Tx_UART.c ****     uint32 SW_Tx_UART_pinPortNumber = SW_Tx_UART_PIN_PORT_NUMBER;
  20:Generated_Source\PSoC4/SW_Tx_UART.c ****     #if(CY_PSOC3)
  21:Generated_Source\PSoC4/SW_Tx_UART.c ****         uint32 pdata SW_Tx_UART_pinDrAdress = SW_Tx_UART_PIN_DR;
  22:Generated_Source\PSoC4/SW_Tx_UART.c ****     #else
  23:Generated_Source\PSoC4/SW_Tx_UART.c ****         uint32 SW_Tx_UART_pinDrAdress = SW_Tx_UART_PIN_DR;
  24:Generated_Source\PSoC4/SW_Tx_UART.c ****     #endif /* (CY_PSOC3) */
  25:Generated_Source\PSoC4/SW_Tx_UART.c **** #else
  26:Generated_Source\PSoC4/SW_Tx_UART.c ****     uint32 SW_Tx_UART_pinNumber;
  27:Generated_Source\PSoC4/SW_Tx_UART.c ****     uint32 SW_Tx_UART_pinPortNumber;
  28:Generated_Source\PSoC4/SW_Tx_UART.c ****     #if(CY_PSOC3)
  29:Generated_Source\PSoC4/SW_Tx_UART.c ****         uint32 pdata SW_Tx_UART_pinDrAdress;
  30:Generated_Source\PSoC4/SW_Tx_UART.c ****     #else
ARM GAS  C:\Users\jhkim\AppData\Local\Temp\cc9oMwCq.s 			page 2


  31:Generated_Source\PSoC4/SW_Tx_UART.c ****         uint32 SW_Tx_UART_pinDrAdress;
  32:Generated_Source\PSoC4/SW_Tx_UART.c ****     #endif /* (CY_PSOC3) */
  33:Generated_Source\PSoC4/SW_Tx_UART.c **** #endif /* (SW_Tx_UART_PIN_STATIC_MODE == 1u) */
  34:Generated_Source\PSoC4/SW_Tx_UART.c **** 
  35:Generated_Source\PSoC4/SW_Tx_UART.c **** 
  36:Generated_Source\PSoC4/SW_Tx_UART.c **** #if(SW_Tx_UART_PIN_STATIC_MODE == 1u)
  37:Generated_Source\PSoC4/SW_Tx_UART.c ****     /*******************************************************************************
  38:Generated_Source\PSoC4/SW_Tx_UART.c ****     * Function Name: SW_Tx_UART_Start
  39:Generated_Source\PSoC4/SW_Tx_UART.c ****     ********************************************************************************
  40:Generated_Source\PSoC4/SW_Tx_UART.c ****     *
  41:Generated_Source\PSoC4/SW_Tx_UART.c ****     * Summary:
  42:Generated_Source\PSoC4/SW_Tx_UART.c ****     *  Empty function. Included for consistency with other
  43:Generated_Source\PSoC4/SW_Tx_UART.c ****     *  components. This API is not available when PinAssignmentMethod
  44:Generated_Source\PSoC4/SW_Tx_UART.c ****     *  is set to Dynamic.
  45:Generated_Source\PSoC4/SW_Tx_UART.c ****     *
  46:Generated_Source\PSoC4/SW_Tx_UART.c ****     * Parameters:
  47:Generated_Source\PSoC4/SW_Tx_UART.c ****     *  None
  48:Generated_Source\PSoC4/SW_Tx_UART.c ****     *
  49:Generated_Source\PSoC4/SW_Tx_UART.c ****     * Return:
  50:Generated_Source\PSoC4/SW_Tx_UART.c ****     *  None
  51:Generated_Source\PSoC4/SW_Tx_UART.c ****     *
  52:Generated_Source\PSoC4/SW_Tx_UART.c ****     *******************************************************************************/
  53:Generated_Source\PSoC4/SW_Tx_UART.c ****     void SW_Tx_UART_Start(void) 
  54:Generated_Source\PSoC4/SW_Tx_UART.c ****     {
  55:Generated_Source\PSoC4/SW_Tx_UART.c **** 
  56:Generated_Source\PSoC4/SW_Tx_UART.c ****     }
  57:Generated_Source\PSoC4/SW_Tx_UART.c **** #else
  58:Generated_Source\PSoC4/SW_Tx_UART.c ****     /*******************************************************************************
  59:Generated_Source\PSoC4/SW_Tx_UART.c ****     * Function Name: SW_Tx_UART_StartEx
  60:Generated_Source\PSoC4/SW_Tx_UART.c ****     ********************************************************************************
  61:Generated_Source\PSoC4/SW_Tx_UART.c ****     *
  62:Generated_Source\PSoC4/SW_Tx_UART.c ****     * Summary:
  63:Generated_Source\PSoC4/SW_Tx_UART.c ****     *  Configures the SW Tx UART to use the pin specified
  64:Generated_Source\PSoC4/SW_Tx_UART.c ****     *  by the parameters. This API is only available when
  65:Generated_Source\PSoC4/SW_Tx_UART.c ****     *  PinAssignmentMethod is set to Dynamic.
  66:Generated_Source\PSoC4/SW_Tx_UART.c ****     *
  67:Generated_Source\PSoC4/SW_Tx_UART.c ****     * Parameters:
  68:Generated_Source\PSoC4/SW_Tx_UART.c ****     *  port:  Port number for dynamic pin assignment
  69:Generated_Source\PSoC4/SW_Tx_UART.c ****     *  pin:   Pin number for dynamic pin assignment
  70:Generated_Source\PSoC4/SW_Tx_UART.c ****     *
  71:Generated_Source\PSoC4/SW_Tx_UART.c ****     * Return:
  72:Generated_Source\PSoC4/SW_Tx_UART.c ****     *  None
  73:Generated_Source\PSoC4/SW_Tx_UART.c ****     *
  74:Generated_Source\PSoC4/SW_Tx_UART.c ****     *******************************************************************************/
  75:Generated_Source\PSoC4/SW_Tx_UART.c ****     void SW_Tx_UART_StartEx(uint8 port, uint8 pin) 
  76:Generated_Source\PSoC4/SW_Tx_UART.c ****     {
  28              		.loc 1 76 0
  29              		.cfi_startproc
  30              		@ args = 0, pretend = 0, frame = 0
  31              		@ frame_needed = 0, uses_anonymous_args = 0
  32              	.LVL0:
  33 0000 30B5     		push	{r4, r5, lr}
  34              		.cfi_def_cfa_offset 12
  35              		.cfi_offset 4, -12
  36              		.cfi_offset 5, -8
  37              		.cfi_offset 14, -4
  77:Generated_Source\PSoC4/SW_Tx_UART.c ****         uint32 portConfigAddr;
ARM GAS  C:\Users\jhkim\AppData\Local\Temp\cc9oMwCq.s 			page 3


  78:Generated_Source\PSoC4/SW_Tx_UART.c **** 
  79:Generated_Source\PSoC4/SW_Tx_UART.c ****         #if (CY_PSOC4)
  80:Generated_Source\PSoC4/SW_Tx_UART.c ****             uint32 portDataRegAddr;
  81:Generated_Source\PSoC4/SW_Tx_UART.c ****         #endif /* (CY_PSOC4) */
  82:Generated_Source\PSoC4/SW_Tx_UART.c **** 
  83:Generated_Source\PSoC4/SW_Tx_UART.c ****         if ((pin <= SW_Tx_UART_MAX_PIN_NUMBER) && (port <= SW_Tx_UART_MAX_PORT_NUMBER))
  38              		.loc 1 83 0
  39 0002 0729     		cmp	r1, #7
  40 0004 1AD8     		bhi	.L1
  41              		.loc 1 83 0 is_stmt 0 discriminator 1
  42 0006 0328     		cmp	r0, #3
  43 0008 18D8     		bhi	.L1
  84:Generated_Source\PSoC4/SW_Tx_UART.c ****         {
  85:Generated_Source\PSoC4/SW_Tx_UART.c ****             #if (!CY_PSOC4)
  86:Generated_Source\PSoC4/SW_Tx_UART.c ****                 portConfigAddr = SW_Tx_UART_PORT_CNF_BASE;
  87:Generated_Source\PSoC4/SW_Tx_UART.c ****                 portConfigAddr += ((uint32)port * (SW_Tx_UART_MAX_PIN_NUMBER + 1u)) + pin;
  88:Generated_Source\PSoC4/SW_Tx_UART.c ****                 CyPins_SetPinDriveMode(portConfigAddr, CY_PINS_DM_STRONG);
  89:Generated_Source\PSoC4/SW_Tx_UART.c ****                 CyPins_SetPin(portConfigAddr);
  90:Generated_Source\PSoC4/SW_Tx_UART.c ****                 SW_Tx_UART_pinDrAdress = portConfigAddr;
  91:Generated_Source\PSoC4/SW_Tx_UART.c ****             #else
  92:Generated_Source\PSoC4/SW_Tx_UART.c ****                 portConfigAddr = SW_Tx_UART_PORT_CNF_BASE + (SW_Tx_UART_PORT_CNF_SIZE * port) +
  93:Generated_Source\PSoC4/SW_Tx_UART.c ****                                                                                 SW_Tx_UART_PORT_CNF
  94:Generated_Source\PSoC4/SW_Tx_UART.c ****                 CY_SYS_PINS_SET_DRIVE_MODE(portConfigAddr, pin, CY_SYS_PINS_DM_STRONG);
  44              		.loc 1 94 0 is_stmt 1
  45 000a 0725     		movs	r5, #7
  46 000c 4C00     		lsls	r4, r1, #1
  47 000e 6418     		adds	r4, r4, r1
  48 0010 A540     		lsls	r5, r5, r4
  92:Generated_Source\PSoC4/SW_Tx_UART.c ****                                                                                 SW_Tx_UART_PORT_CNF
  49              		.loc 1 92 0
  50 0012 0B4B     		ldr	r3, .L4
  51 0014 C318     		adds	r3, r0, r3
  52 0016 1B02     		lsls	r3, r3, #8
  53              	.LVL1:
  54              		.loc 1 94 0
  55 0018 9A68     		ldr	r2, [r3, #8]
  56 001a AA43     		bics	r2, r5
  57 001c 1500     		movs	r5, r2
  58 001e 0622     		movs	r2, #6
  59 0020 A240     		lsls	r2, r2, r4
  60 0022 2A43     		orrs	r2, r5
  61 0024 9A60     		str	r2, [r3, #8]
  62              	.LVL2:
  95:Generated_Source\PSoC4/SW_Tx_UART.c ****                 portDataRegAddr = SW_Tx_UART_PORT_CNF_BASE + (SW_Tx_UART_PORT_CNF_SIZE * port) +
  96:Generated_Source\PSoC4/SW_Tx_UART.c ****                                                                                 SW_Tx_UART_PORT_CNF
  97:Generated_Source\PSoC4/SW_Tx_UART.c ****                 CY_SYS_PINS_SET_PIN(portDataRegAddr, pin);
  63              		.loc 1 97 0
  64 0026 0122     		movs	r2, #1
  65 0028 8A40     		lsls	r2, r2, r1
  66 002a 1C68     		ldr	r4, [r3]
  67 002c 2243     		orrs	r2, r4
  68 002e 1A60     		str	r2, [r3]
  98:Generated_Source\PSoC4/SW_Tx_UART.c ****                 SW_Tx_UART_pinDrAdress = portDataRegAddr;
  69              		.loc 1 98 0
  70 0030 044A     		ldr	r2, .L4+4
  71 0032 1360     		str	r3, [r2]
  99:Generated_Source\PSoC4/SW_Tx_UART.c ****             #endif /* (!CY_PSOC4) */
ARM GAS  C:\Users\jhkim\AppData\Local\Temp\cc9oMwCq.s 			page 4


 100:Generated_Source\PSoC4/SW_Tx_UART.c ****             SW_Tx_UART_pinNumber = pin;
  72              		.loc 1 100 0
  73 0034 044B     		ldr	r3, .L4+8
  74              	.LVL3:
  75 0036 1960     		str	r1, [r3]
 101:Generated_Source\PSoC4/SW_Tx_UART.c ****             SW_Tx_UART_pinPortNumber = port;
  76              		.loc 1 101 0
  77 0038 044B     		ldr	r3, .L4+12
  78 003a 1860     		str	r0, [r3]
  79              	.LVL4:
  80              	.L1:
 102:Generated_Source\PSoC4/SW_Tx_UART.c ****         }
 103:Generated_Source\PSoC4/SW_Tx_UART.c ****     }
  81              		.loc 1 103 0
  82              		@ sp needed
  83 003c 30BD     		pop	{r4, r5, pc}
  84              	.L5:
  85 003e C046     		.align	2
  86              	.L4:
  87 0040 00044000 		.word	4195328
  88 0044 00000000 		.word	SW_Tx_UART_pinDrAdress
  89 0048 00000000 		.word	SW_Tx_UART_pinNumber
  90 004c 00000000 		.word	SW_Tx_UART_pinPortNumber
  91              		.cfi_endproc
  92              	.LFE0:
  93              		.size	SW_Tx_UART_StartEx, .-SW_Tx_UART_StartEx
  94              		.section	.text.SW_Tx_UART_Stop,"ax",%progbits
  95              		.align	2
  96              		.global	SW_Tx_UART_Stop
  97              		.code	16
  98              		.thumb_func
  99              		.type	SW_Tx_UART_Stop, %function
 100              	SW_Tx_UART_Stop:
 101              	.LFB1:
 104:Generated_Source\PSoC4/SW_Tx_UART.c **** #endif /* (SW_Tx_UART_PIN_STATIC_MODE == 1u) */
 105:Generated_Source\PSoC4/SW_Tx_UART.c **** 
 106:Generated_Source\PSoC4/SW_Tx_UART.c **** 
 107:Generated_Source\PSoC4/SW_Tx_UART.c **** /*******************************************************************************
 108:Generated_Source\PSoC4/SW_Tx_UART.c **** * Function Name: SW_Tx_UART_Stop
 109:Generated_Source\PSoC4/SW_Tx_UART.c **** ********************************************************************************
 110:Generated_Source\PSoC4/SW_Tx_UART.c **** *
 111:Generated_Source\PSoC4/SW_Tx_UART.c **** * Summary:
 112:Generated_Source\PSoC4/SW_Tx_UART.c **** *  Empty function. Included for consistency with other components.
 113:Generated_Source\PSoC4/SW_Tx_UART.c **** *
 114:Generated_Source\PSoC4/SW_Tx_UART.c **** * Parameters:
 115:Generated_Source\PSoC4/SW_Tx_UART.c **** *  None
 116:Generated_Source\PSoC4/SW_Tx_UART.c **** *
 117:Generated_Source\PSoC4/SW_Tx_UART.c **** * Return:
 118:Generated_Source\PSoC4/SW_Tx_UART.c **** *  None
 119:Generated_Source\PSoC4/SW_Tx_UART.c **** *
 120:Generated_Source\PSoC4/SW_Tx_UART.c **** *******************************************************************************/
 121:Generated_Source\PSoC4/SW_Tx_UART.c **** void SW_Tx_UART_Stop(void) 
 122:Generated_Source\PSoC4/SW_Tx_UART.c **** {
 102              		.loc 1 122 0
 103              		.cfi_startproc
 104              		@ args = 0, pretend = 0, frame = 0
 105              		@ frame_needed = 0, uses_anonymous_args = 0
ARM GAS  C:\Users\jhkim\AppData\Local\Temp\cc9oMwCq.s 			page 5


 106              		@ link register save eliminated.
 123:Generated_Source\PSoC4/SW_Tx_UART.c **** 
 124:Generated_Source\PSoC4/SW_Tx_UART.c **** }
 107              		.loc 1 124 0
 108              		@ sp needed
 109 0000 7047     		bx	lr
 110              		.cfi_endproc
 111              	.LFE1:
 112              		.size	SW_Tx_UART_Stop, .-SW_Tx_UART_Stop
 113 0002 C046     		.section	.text.SW_Tx_UART_PutString,"ax",%progbits
 114              		.align	2
 115              		.global	SW_Tx_UART_PutString
 116              		.code	16
 117              		.thumb_func
 118              		.type	SW_Tx_UART_PutString, %function
 119              	SW_Tx_UART_PutString:
 120              	.LFB2:
 125:Generated_Source\PSoC4/SW_Tx_UART.c **** 
 126:Generated_Source\PSoC4/SW_Tx_UART.c **** 
 127:Generated_Source\PSoC4/SW_Tx_UART.c **** /*******************************************************************************
 128:Generated_Source\PSoC4/SW_Tx_UART.c **** * Function Name: SW_Tx_UART_PutString
 129:Generated_Source\PSoC4/SW_Tx_UART.c **** ********************************************************************************
 130:Generated_Source\PSoC4/SW_Tx_UART.c **** *
 131:Generated_Source\PSoC4/SW_Tx_UART.c **** * Summary:
 132:Generated_Source\PSoC4/SW_Tx_UART.c **** *  Sends a NULL terminated string via the Tx pin.
 133:Generated_Source\PSoC4/SW_Tx_UART.c **** *
 134:Generated_Source\PSoC4/SW_Tx_UART.c **** * Parameters:
 135:Generated_Source\PSoC4/SW_Tx_UART.c **** *  string: Pointer to the null terminated string to send
 136:Generated_Source\PSoC4/SW_Tx_UART.c **** *
 137:Generated_Source\PSoC4/SW_Tx_UART.c **** * Return:
 138:Generated_Source\PSoC4/SW_Tx_UART.c **** *  None
 139:Generated_Source\PSoC4/SW_Tx_UART.c **** *
 140:Generated_Source\PSoC4/SW_Tx_UART.c **** *******************************************************************************/
 141:Generated_Source\PSoC4/SW_Tx_UART.c **** void SW_Tx_UART_PutString(const char8 string[]) 
 142:Generated_Source\PSoC4/SW_Tx_UART.c **** {
 121              		.loc 1 142 0
 122              		.cfi_startproc
 123              		@ args = 0, pretend = 0, frame = 0
 124              		@ frame_needed = 0, uses_anonymous_args = 0
 125              	.LVL5:
 126 0000 70B5     		push	{r4, r5, r6, lr}
 127              		.cfi_def_cfa_offset 16
 128              		.cfi_offset 4, -16
 129              		.cfi_offset 5, -12
 130              		.cfi_offset 6, -8
 131              		.cfi_offset 14, -4
 132              		.loc 1 142 0
 133 0002 0500     		movs	r5, r0
 143:Generated_Source\PSoC4/SW_Tx_UART.c ****     uint8 stringIndex = 1u;
 144:Generated_Source\PSoC4/SW_Tx_UART.c ****     char8 current = *string;
 134              		.loc 1 144 0
 135 0004 0078     		ldrb	r0, [r0]
 136              	.LVL6:
 145:Generated_Source\PSoC4/SW_Tx_UART.c **** 
 146:Generated_Source\PSoC4/SW_Tx_UART.c ****     /* Until null is reached, print next character */
 147:Generated_Source\PSoC4/SW_Tx_UART.c ****     while((char8) '\0' != current)
 137              		.loc 1 147 0
ARM GAS  C:\Users\jhkim\AppData\Local\Temp\cc9oMwCq.s 			page 6


 138 0006 0124     		movs	r4, #1
 139 0008 0028     		cmp	r0, #0
 140 000a 06D0     		beq	.L7
 141              	.LVL7:
 142              	.L11:
 148:Generated_Source\PSoC4/SW_Tx_UART.c ****     {
 149:Generated_Source\PSoC4/SW_Tx_UART.c ****         SW_Tx_UART_PutChar((uint8)current);
 143              		.loc 1 149 0
 144 000c FFF7FEFF 		bl	SW_Tx_UART_PutChar
 145              	.LVL8:
 150:Generated_Source\PSoC4/SW_Tx_UART.c ****         current = string[stringIndex];
 146              		.loc 1 150 0
 147 0010 285D     		ldrb	r0, [r5, r4]
 148              	.LVL9:
 151:Generated_Source\PSoC4/SW_Tx_UART.c ****         stringIndex++;
 149              		.loc 1 151 0
 150 0012 0134     		adds	r4, r4, #1
 151              	.LVL10:
 152 0014 E4B2     		uxtb	r4, r4
 153              	.LVL11:
 147:Generated_Source\PSoC4/SW_Tx_UART.c ****     {
 154              		.loc 1 147 0
 155 0016 0028     		cmp	r0, #0
 156 0018 F8D1     		bne	.L11
 157              	.LVL12:
 158              	.L7:
 152:Generated_Source\PSoC4/SW_Tx_UART.c ****     }
 153:Generated_Source\PSoC4/SW_Tx_UART.c **** }
 159              		.loc 1 153 0
 160              		@ sp needed
 161              	.LVL13:
 162 001a 70BD     		pop	{r4, r5, r6, pc}
 163              		.cfi_endproc
 164              	.LFE2:
 165              		.size	SW_Tx_UART_PutString, .-SW_Tx_UART_PutString
 166              		.section	.text.SW_Tx_UART_PutArray,"ax",%progbits
 167              		.align	2
 168              		.global	SW_Tx_UART_PutArray
 169              		.code	16
 170              		.thumb_func
 171              		.type	SW_Tx_UART_PutArray, %function
 172              	SW_Tx_UART_PutArray:
 173              	.LFB3:
 154:Generated_Source\PSoC4/SW_Tx_UART.c **** 
 155:Generated_Source\PSoC4/SW_Tx_UART.c **** 
 156:Generated_Source\PSoC4/SW_Tx_UART.c **** /*******************************************************************************
 157:Generated_Source\PSoC4/SW_Tx_UART.c **** * Function Name: SW_Tx_UART_PutArray
 158:Generated_Source\PSoC4/SW_Tx_UART.c **** ********************************************************************************
 159:Generated_Source\PSoC4/SW_Tx_UART.c **** *
 160:Generated_Source\PSoC4/SW_Tx_UART.c **** * Summary:
 161:Generated_Source\PSoC4/SW_Tx_UART.c **** *  Sends byteCount bytes from a memory array via the Tx pin.
 162:Generated_Source\PSoC4/SW_Tx_UART.c **** *
 163:Generated_Source\PSoC4/SW_Tx_UART.c **** * Parameters:
 164:Generated_Source\PSoC4/SW_Tx_UART.c **** *  data: Pointer to the memory array
 165:Generated_Source\PSoC4/SW_Tx_UART.c **** *  byteCount: Number of bytes to be transmitted
 166:Generated_Source\PSoC4/SW_Tx_UART.c **** *
 167:Generated_Source\PSoC4/SW_Tx_UART.c **** * Return:
ARM GAS  C:\Users\jhkim\AppData\Local\Temp\cc9oMwCq.s 			page 7


 168:Generated_Source\PSoC4/SW_Tx_UART.c **** *  None
 169:Generated_Source\PSoC4/SW_Tx_UART.c **** *
 170:Generated_Source\PSoC4/SW_Tx_UART.c **** *******************************************************************************/
 171:Generated_Source\PSoC4/SW_Tx_UART.c **** void SW_Tx_UART_PutArray(const uint8 array[], uint32 byteCount) 
 172:Generated_Source\PSoC4/SW_Tx_UART.c **** {
 174              		.loc 1 172 0
 175              		.cfi_startproc
 176              		@ args = 0, pretend = 0, frame = 0
 177              		@ frame_needed = 0, uses_anonymous_args = 0
 178              	.LVL14:
 179 0000 70B5     		push	{r4, r5, r6, lr}
 180              		.cfi_def_cfa_offset 16
 181              		.cfi_offset 4, -16
 182              		.cfi_offset 5, -12
 183              		.cfi_offset 6, -8
 184              		.cfi_offset 14, -4
 185 0002 0400     		movs	r4, r0
 186 0004 4518     		adds	r5, r0, r1
 173:Generated_Source\PSoC4/SW_Tx_UART.c ****     uint32 arrayIndex;
 174:Generated_Source\PSoC4/SW_Tx_UART.c **** 
 175:Generated_Source\PSoC4/SW_Tx_UART.c ****     for (arrayIndex = 0u; arrayIndex < byteCount; arrayIndex++)
 187              		.loc 1 175 0
 188 0006 0029     		cmp	r1, #0
 189 0008 05D0     		beq	.L13
 190              	.LVL15:
 191              	.L17:
 176:Generated_Source\PSoC4/SW_Tx_UART.c ****     {
 177:Generated_Source\PSoC4/SW_Tx_UART.c ****         SW_Tx_UART_PutChar(array[arrayIndex]);
 192              		.loc 1 177 0 discriminator 3
 193 000a 2078     		ldrb	r0, [r4]
 194 000c 0134     		adds	r4, r4, #1
 195              	.LVL16:
 196 000e FFF7FEFF 		bl	SW_Tx_UART_PutChar
 197              	.LVL17:
 175:Generated_Source\PSoC4/SW_Tx_UART.c ****     {
 198              		.loc 1 175 0 discriminator 3
 199 0012 AC42     		cmp	r4, r5
 200 0014 F9D1     		bne	.L17
 201              	.L13:
 178:Generated_Source\PSoC4/SW_Tx_UART.c ****     }
 179:Generated_Source\PSoC4/SW_Tx_UART.c **** }
 202              		.loc 1 179 0
 203              		@ sp needed
 204 0016 70BD     		pop	{r4, r5, r6, pc}
 205              		.cfi_endproc
 206              	.LFE3:
 207              		.size	SW_Tx_UART_PutArray, .-SW_Tx_UART_PutArray
 208              		.section	.text.SW_Tx_UART_PutHexByte,"ax",%progbits
 209              		.align	2
 210              		.global	SW_Tx_UART_PutHexByte
 211              		.code	16
 212              		.thumb_func
 213              		.type	SW_Tx_UART_PutHexByte, %function
 214              	SW_Tx_UART_PutHexByte:
 215              	.LFB4:
 180:Generated_Source\PSoC4/SW_Tx_UART.c **** 
 181:Generated_Source\PSoC4/SW_Tx_UART.c **** 
ARM GAS  C:\Users\jhkim\AppData\Local\Temp\cc9oMwCq.s 			page 8


 182:Generated_Source\PSoC4/SW_Tx_UART.c **** /*******************************************************************************
 183:Generated_Source\PSoC4/SW_Tx_UART.c **** * Function Name: SW_Tx_UART_PutHexByte
 184:Generated_Source\PSoC4/SW_Tx_UART.c **** ********************************************************************************
 185:Generated_Source\PSoC4/SW_Tx_UART.c **** *
 186:Generated_Source\PSoC4/SW_Tx_UART.c **** * Summary:
 187:Generated_Source\PSoC4/SW_Tx_UART.c **** *  Sends a byte in Hex representation (two characters, uppercase for A-F) via
 188:Generated_Source\PSoC4/SW_Tx_UART.c **** *  the Tx pin.
 189:Generated_Source\PSoC4/SW_Tx_UART.c **** *
 190:Generated_Source\PSoC4/SW_Tx_UART.c **** * Parameters:
 191:Generated_Source\PSoC4/SW_Tx_UART.c **** *  TxHexByte: The byte to be converted to ASCII characters and
 192:Generated_Source\PSoC4/SW_Tx_UART.c **** *             sent via the Tx pin.
 193:Generated_Source\PSoC4/SW_Tx_UART.c **** *
 194:Generated_Source\PSoC4/SW_Tx_UART.c **** * Return:
 195:Generated_Source\PSoC4/SW_Tx_UART.c **** *  None
 196:Generated_Source\PSoC4/SW_Tx_UART.c **** *
 197:Generated_Source\PSoC4/SW_Tx_UART.c **** *******************************************************************************/
 198:Generated_Source\PSoC4/SW_Tx_UART.c **** void SW_Tx_UART_PutHexByte(uint8 txHexByte) 
 199:Generated_Source\PSoC4/SW_Tx_UART.c **** {
 216              		.loc 1 199 0
 217              		.cfi_startproc
 218              		@ args = 0, pretend = 0, frame = 0
 219              		@ frame_needed = 0, uses_anonymous_args = 0
 220              	.LVL18:
 221 0000 70B5     		push	{r4, r5, r6, lr}
 222              		.cfi_def_cfa_offset 16
 223              		.cfi_offset 4, -16
 224              		.cfi_offset 5, -12
 225              		.cfi_offset 6, -8
 226              		.cfi_offset 14, -4
 200:Generated_Source\PSoC4/SW_Tx_UART.c ****     static char8 const CYCODE SW_Tx_UART_hex[] = "0123456789ABCDEF";
 201:Generated_Source\PSoC4/SW_Tx_UART.c **** 
 202:Generated_Source\PSoC4/SW_Tx_UART.c ****     SW_Tx_UART_PutChar((uint8) SW_Tx_UART_hex[txHexByte >> SW_Tx_UART_BYTE_UPPER_NIBBLE_SHIFT]);
 227              		.loc 1 202 0
 228 0002 064D     		ldr	r5, .L20
 229 0004 0309     		lsrs	r3, r0, #4
 199:Generated_Source\PSoC4/SW_Tx_UART.c ****     static char8 const CYCODE SW_Tx_UART_hex[] = "0123456789ABCDEF";
 230              		.loc 1 199 0
 231 0006 0400     		movs	r4, r0
 232              		.loc 1 202 0
 233 0008 E85C     		ldrb	r0, [r5, r3]
 234              	.LVL19:
 235 000a FFF7FEFF 		bl	SW_Tx_UART_PutChar
 236              	.LVL20:
 203:Generated_Source\PSoC4/SW_Tx_UART.c ****     SW_Tx_UART_PutChar((uint8) SW_Tx_UART_hex[txHexByte & SW_Tx_UART_BYTE_LOWER_NIBBLE_MASK]);
 237              		.loc 1 203 0
 238 000e 0F23     		movs	r3, #15
 239 0010 1C40     		ands	r4, r3
 240 0012 285D     		ldrb	r0, [r5, r4]
 241 0014 FFF7FEFF 		bl	SW_Tx_UART_PutChar
 242              	.LVL21:
 204:Generated_Source\PSoC4/SW_Tx_UART.c **** }
 243              		.loc 1 204 0
 244              		@ sp needed
 245 0018 70BD     		pop	{r4, r5, r6, pc}
 246              	.L21:
 247 001a C046     		.align	2
 248              	.L20:
ARM GAS  C:\Users\jhkim\AppData\Local\Temp\cc9oMwCq.s 			page 9


 249 001c 00000000 		.word	.LANCHOR0
 250              		.cfi_endproc
 251              	.LFE4:
 252              		.size	SW_Tx_UART_PutHexByte, .-SW_Tx_UART_PutHexByte
 253              		.section	.text.SW_Tx_UART_PutHexInt,"ax",%progbits
 254              		.align	2
 255              		.global	SW_Tx_UART_PutHexInt
 256              		.code	16
 257              		.thumb_func
 258              		.type	SW_Tx_UART_PutHexInt, %function
 259              	SW_Tx_UART_PutHexInt:
 260              	.LFB5:
 205:Generated_Source\PSoC4/SW_Tx_UART.c **** 
 206:Generated_Source\PSoC4/SW_Tx_UART.c **** 
 207:Generated_Source\PSoC4/SW_Tx_UART.c **** /*******************************************************************************
 208:Generated_Source\PSoC4/SW_Tx_UART.c **** * Function Name: SW_Tx_UART_PutHexInt
 209:Generated_Source\PSoC4/SW_Tx_UART.c **** ********************************************************************************
 210:Generated_Source\PSoC4/SW_Tx_UART.c **** *
 211:Generated_Source\PSoC4/SW_Tx_UART.c **** * Summary:
 212:Generated_Source\PSoC4/SW_Tx_UART.c **** *  Sends a 16-bit unsigned integer in Hex representation (four characters,
 213:Generated_Source\PSoC4/SW_Tx_UART.c **** *  uppercase for A-F) via the Tx pin.
 214:Generated_Source\PSoC4/SW_Tx_UART.c **** *
 215:Generated_Source\PSoC4/SW_Tx_UART.c **** * Parameters:
 216:Generated_Source\PSoC4/SW_Tx_UART.c **** *  TxHexInt: The uint16 to be converted to ASCII characters and sent via
 217:Generated_Source\PSoC4/SW_Tx_UART.c **** *            the Tx pin.
 218:Generated_Source\PSoC4/SW_Tx_UART.c **** *
 219:Generated_Source\PSoC4/SW_Tx_UART.c **** * Return:
 220:Generated_Source\PSoC4/SW_Tx_UART.c **** *  None
 221:Generated_Source\PSoC4/SW_Tx_UART.c **** *
 222:Generated_Source\PSoC4/SW_Tx_UART.c **** *******************************************************************************/
 223:Generated_Source\PSoC4/SW_Tx_UART.c **** void SW_Tx_UART_PutHexInt(uint16 txHexInt) 
 224:Generated_Source\PSoC4/SW_Tx_UART.c **** {
 261              		.loc 1 224 0
 262              		.cfi_startproc
 263              		@ args = 0, pretend = 0, frame = 0
 264              		@ frame_needed = 0, uses_anonymous_args = 0
 265              	.LVL22:
 266 0000 F0B5     		push	{r4, r5, r6, r7, lr}
 267              		.cfi_def_cfa_offset 20
 268              		.cfi_offset 4, -20
 269              		.cfi_offset 5, -16
 270              		.cfi_offset 6, -12
 271              		.cfi_offset 7, -8
 272              		.cfi_offset 14, -4
 273 0002 4746     		mov	r7, r8
 274              	.LBB6:
 275              	.LBB7:
 202:Generated_Source\PSoC4/SW_Tx_UART.c ****     SW_Tx_UART_PutChar((uint8) SW_Tx_UART_hex[txHexByte & SW_Tx_UART_BYTE_LOWER_NIBBLE_MASK]);
 276              		.loc 1 202 0
 277 0004 0D4E     		ldr	r6, .L23
 278              	.LBE7:
 279              	.LBE6:
 280              		.loc 1 224 0
 281 0006 80B4     		push	{r7}
 282              		.cfi_def_cfa_offset 24
 283              		.cfi_offset 8, -24
 225:Generated_Source\PSoC4/SW_Tx_UART.c ****     SW_Tx_UART_PutHexByte((uint8)(txHexInt >> SW_Tx_UART_U16_UPPER_BYTE_SHIFT));
ARM GAS  C:\Users\jhkim\AppData\Local\Temp\cc9oMwCq.s 			page 10


 284              		.loc 1 225 0
 285 0008 070A     		lsrs	r7, r0, #8
 286              	.LVL23:
 287              	.LBB11:
 288              	.LBB8:
 202:Generated_Source\PSoC4/SW_Tx_UART.c ****     SW_Tx_UART_PutChar((uint8) SW_Tx_UART_hex[txHexByte & SW_Tx_UART_BYTE_LOWER_NIBBLE_MASK]);
 289              		.loc 1 202 0
 290 000a 3B09     		lsrs	r3, r7, #4
 291              	.LBE8:
 292              	.LBE11:
 224:Generated_Source\PSoC4/SW_Tx_UART.c ****     SW_Tx_UART_PutHexByte((uint8)(txHexInt >> SW_Tx_UART_U16_UPPER_BYTE_SHIFT));
 293              		.loc 1 224 0
 294 000c 0500     		movs	r5, r0
 295              	.LBB12:
 296              	.LBB9:
 202:Generated_Source\PSoC4/SW_Tx_UART.c ****     SW_Tx_UART_PutChar((uint8) SW_Tx_UART_hex[txHexByte & SW_Tx_UART_BYTE_LOWER_NIBBLE_MASK]);
 297              		.loc 1 202 0
 298 000e F05C     		ldrb	r0, [r6, r3]
 299              	.LVL24:
 300 0010 FFF7FEFF 		bl	SW_Tx_UART_PutChar
 301              	.LVL25:
 203:Generated_Source\PSoC4/SW_Tx_UART.c **** }
 302              		.loc 1 203 0
 303 0014 0F23     		movs	r3, #15
 304 0016 9846     		mov	r8, r3
 305 0018 1F40     		ands	r7, r3
 306              	.LVL26:
 307 001a F05D     		ldrb	r0, [r6, r7]
 308              	.LBE9:
 309              	.LBE12:
 226:Generated_Source\PSoC4/SW_Tx_UART.c ****     SW_Tx_UART_PutHexByte((uint8)(txHexInt & SW_Tx_UART_U16_LOWER_BYTE_MASK));
 310              		.loc 1 226 0
 311 001c ECB2     		uxtb	r4, r5
 312              	.LBB13:
 313              	.LBB10:
 203:Generated_Source\PSoC4/SW_Tx_UART.c **** }
 314              		.loc 1 203 0
 315 001e FFF7FEFF 		bl	SW_Tx_UART_PutChar
 316              	.LVL27:
 317              	.LBE10:
 318              	.LBE13:
 319              	.LBB14:
 320              	.LBB15:
 202:Generated_Source\PSoC4/SW_Tx_UART.c ****     SW_Tx_UART_PutChar((uint8) SW_Tx_UART_hex[txHexByte & SW_Tx_UART_BYTE_LOWER_NIBBLE_MASK]);
 321              		.loc 1 202 0
 322 0022 2309     		lsrs	r3, r4, #4
 323 0024 F05C     		ldrb	r0, [r6, r3]
 324 0026 FFF7FEFF 		bl	SW_Tx_UART_PutChar
 325              	.LVL28:
 203:Generated_Source\PSoC4/SW_Tx_UART.c **** }
 326              		.loc 1 203 0
 327 002a 4346     		mov	r3, r8
 328 002c 1C40     		ands	r4, r3
 329              	.LVL29:
 330 002e 305D     		ldrb	r0, [r6, r4]
 331 0030 FFF7FEFF 		bl	SW_Tx_UART_PutChar
 332              	.LVL30:
ARM GAS  C:\Users\jhkim\AppData\Local\Temp\cc9oMwCq.s 			page 11


 333              	.LBE15:
 334              	.LBE14:
 227:Generated_Source\PSoC4/SW_Tx_UART.c **** }
 335              		.loc 1 227 0
 336              		@ sp needed
 337 0034 04BC     		pop	{r2}
 338 0036 9046     		mov	r8, r2
 339 0038 F0BD     		pop	{r4, r5, r6, r7, pc}
 340              	.L24:
 341 003a C046     		.align	2
 342              	.L23:
 343 003c 00000000 		.word	.LANCHOR0
 344              		.cfi_endproc
 345              	.LFE5:
 346              		.size	SW_Tx_UART_PutHexInt, .-SW_Tx_UART_PutHexInt
 347              		.section	.text.SW_Tx_UART_PutCRLF,"ax",%progbits
 348              		.align	2
 349              		.global	SW_Tx_UART_PutCRLF
 350              		.code	16
 351              		.thumb_func
 352              		.type	SW_Tx_UART_PutCRLF, %function
 353              	SW_Tx_UART_PutCRLF:
 354              	.LFB6:
 228:Generated_Source\PSoC4/SW_Tx_UART.c **** 
 229:Generated_Source\PSoC4/SW_Tx_UART.c **** 
 230:Generated_Source\PSoC4/SW_Tx_UART.c **** /*******************************************************************************
 231:Generated_Source\PSoC4/SW_Tx_UART.c **** * Function Name: SW_Tx_UART_PutCRLF
 232:Generated_Source\PSoC4/SW_Tx_UART.c **** ********************************************************************************
 233:Generated_Source\PSoC4/SW_Tx_UART.c **** *
 234:Generated_Source\PSoC4/SW_Tx_UART.c **** * Summary:
 235:Generated_Source\PSoC4/SW_Tx_UART.c **** *  Sends a carriage return (0x0D) and a line feed (0x0A) via the Tx pin.
 236:Generated_Source\PSoC4/SW_Tx_UART.c **** *
 237:Generated_Source\PSoC4/SW_Tx_UART.c **** * Parameters:
 238:Generated_Source\PSoC4/SW_Tx_UART.c **** *  None
 239:Generated_Source\PSoC4/SW_Tx_UART.c **** *
 240:Generated_Source\PSoC4/SW_Tx_UART.c **** * Return:
 241:Generated_Source\PSoC4/SW_Tx_UART.c **** *  None
 242:Generated_Source\PSoC4/SW_Tx_UART.c **** *
 243:Generated_Source\PSoC4/SW_Tx_UART.c **** *******************************************************************************/
 244:Generated_Source\PSoC4/SW_Tx_UART.c **** void SW_Tx_UART_PutCRLF(void) 
 245:Generated_Source\PSoC4/SW_Tx_UART.c **** {
 355              		.loc 1 245 0
 356              		.cfi_startproc
 357              		@ args = 0, pretend = 0, frame = 0
 358              		@ frame_needed = 0, uses_anonymous_args = 0
 359 0000 10B5     		push	{r4, lr}
 360              		.cfi_def_cfa_offset 8
 361              		.cfi_offset 4, -8
 362              		.cfi_offset 14, -4
 246:Generated_Source\PSoC4/SW_Tx_UART.c ****     SW_Tx_UART_PutChar(0x0Du);
 363              		.loc 1 246 0
 364 0002 0D20     		movs	r0, #13
 365 0004 FFF7FEFF 		bl	SW_Tx_UART_PutChar
 366              	.LVL31:
 247:Generated_Source\PSoC4/SW_Tx_UART.c ****     SW_Tx_UART_PutChar(0x0Au);
 367              		.loc 1 247 0
 368 0008 0A20     		movs	r0, #10
ARM GAS  C:\Users\jhkim\AppData\Local\Temp\cc9oMwCq.s 			page 12


 369 000a FFF7FEFF 		bl	SW_Tx_UART_PutChar
 370              	.LVL32:
 248:Generated_Source\PSoC4/SW_Tx_UART.c **** }
 371              		.loc 1 248 0
 372              		@ sp needed
 373 000e 10BD     		pop	{r4, pc}
 374              		.cfi_endproc
 375              	.LFE6:
 376              		.size	SW_Tx_UART_PutCRLF, .-SW_Tx_UART_PutCRLF
 377              		.comm	SW_Tx_UART_pinDrAdress,4,4
 378              		.comm	SW_Tx_UART_pinPortNumber,4,4
 379              		.comm	SW_Tx_UART_pinNumber,4,4
 380              		.section	.rodata
 381              		.align	2
 382              		.set	.LANCHOR0,. + 0
 383              		.type	SW_Tx_UART_hex.4280, %object
 384              		.size	SW_Tx_UART_hex.4280, 17
 385              	SW_Tx_UART_hex.4280:
 386 0000 30313233 		.ascii	"0123456789ABCDEF\000"
 386      34353637 
 386      38394142 
 386      43444546 
 386      00
 387              		.text
 388              	.Letext0:
 389              		.file 2 "Generated_Source\\PSoC4\\cytypes.h"
 390              		.file 3 "Generated_Source\\PSoC4\\SW_Tx_UART.h"