ARM GAS  C:\Users\young\AppData\Local\Temp\cc3sLV9e.s 			page 1


   1              		.syntax unified
   2              		.cpu cortex-m0
   3              		.fpu softvfp
   4              		.eabi_attribute 20, 1
   5              		.eabi_attribute 21, 1
   6              		.eabi_attribute 23, 3
   7              		.eabi_attribute 24, 1
   8              		.eabi_attribute 25, 1
   9              		.eabi_attribute 26, 1
  10              		.eabi_attribute 30, 2
  11              		.eabi_attribute 34, 0
  12              		.eabi_attribute 18, 4
  13              		.thumb
  14              		.syntax unified
  15              		.file	"Timer_1.c"
  16              		.text
  17              	.Ltext0:
  18              		.cfi_sections	.debug_frame
  19              		.section	.text.Timer_1_Init,"ax",%progbits
  20              		.align	2
  21              		.global	Timer_1_Init
  22              		.code	16
  23              		.thumb_func
  24              		.type	Timer_1_Init, %function
  25              	Timer_1_Init:
  26              	.LFB0:
  27              		.file 1 "Generated_Source\\PSoC4\\Timer_1.c"
   1:Generated_Source\PSoC4/Timer_1.c **** /*******************************************************************************
   2:Generated_Source\PSoC4/Timer_1.c **** * File Name: Timer_1.c
   3:Generated_Source\PSoC4/Timer_1.c **** * Version 2.10
   4:Generated_Source\PSoC4/Timer_1.c **** *
   5:Generated_Source\PSoC4/Timer_1.c **** * Description:
   6:Generated_Source\PSoC4/Timer_1.c **** *  This file provides the source code to the API for the Timer_1
   7:Generated_Source\PSoC4/Timer_1.c **** *  component
   8:Generated_Source\PSoC4/Timer_1.c **** *
   9:Generated_Source\PSoC4/Timer_1.c **** * Note:
  10:Generated_Source\PSoC4/Timer_1.c **** *  None
  11:Generated_Source\PSoC4/Timer_1.c **** *
  12:Generated_Source\PSoC4/Timer_1.c **** ********************************************************************************
  13:Generated_Source\PSoC4/Timer_1.c **** * Copyright 2013-2015, Cypress Semiconductor Corporation.  All rights reserved.
  14:Generated_Source\PSoC4/Timer_1.c **** * You may use this file only in accordance with the license, terms, conditions,
  15:Generated_Source\PSoC4/Timer_1.c **** * disclaimers, and limitations in the end user license agreement accompanying
  16:Generated_Source\PSoC4/Timer_1.c **** * the software package with which this file was provided.
  17:Generated_Source\PSoC4/Timer_1.c **** *******************************************************************************/
  18:Generated_Source\PSoC4/Timer_1.c **** 
  19:Generated_Source\PSoC4/Timer_1.c **** #include "Timer_1.h"
  20:Generated_Source\PSoC4/Timer_1.c **** 
  21:Generated_Source\PSoC4/Timer_1.c **** uint8 Timer_1_initVar = 0u;
  22:Generated_Source\PSoC4/Timer_1.c **** 
  23:Generated_Source\PSoC4/Timer_1.c **** 
  24:Generated_Source\PSoC4/Timer_1.c **** /*******************************************************************************
  25:Generated_Source\PSoC4/Timer_1.c **** * Function Name: Timer_1_Init
  26:Generated_Source\PSoC4/Timer_1.c **** ********************************************************************************
  27:Generated_Source\PSoC4/Timer_1.c **** *
  28:Generated_Source\PSoC4/Timer_1.c **** * Summary:
  29:Generated_Source\PSoC4/Timer_1.c **** *  Initialize/Restore default Timer_1 configuration.
  30:Generated_Source\PSoC4/Timer_1.c **** *
ARM GAS  C:\Users\young\AppData\Local\Temp\cc3sLV9e.s 			page 2


  31:Generated_Source\PSoC4/Timer_1.c **** * Parameters:
  32:Generated_Source\PSoC4/Timer_1.c **** *  None
  33:Generated_Source\PSoC4/Timer_1.c **** *
  34:Generated_Source\PSoC4/Timer_1.c **** * Return:
  35:Generated_Source\PSoC4/Timer_1.c **** *  None
  36:Generated_Source\PSoC4/Timer_1.c **** *
  37:Generated_Source\PSoC4/Timer_1.c **** *******************************************************************************/
  38:Generated_Source\PSoC4/Timer_1.c **** void Timer_1_Init(void)
  39:Generated_Source\PSoC4/Timer_1.c **** {
  28              		.loc 1 39 0
  29              		.cfi_startproc
  30              		@ args = 0, pretend = 0, frame = 0
  31              		@ frame_needed = 0, uses_anonymous_args = 0
  32              		@ link register save eliminated.
  40:Generated_Source\PSoC4/Timer_1.c **** 
  41:Generated_Source\PSoC4/Timer_1.c ****     /* Set values from customizer to CTRL */
  42:Generated_Source\PSoC4/Timer_1.c ****     #if (Timer_1__QUAD == Timer_1_CONFIG)
  43:Generated_Source\PSoC4/Timer_1.c ****         Timer_1_CONTROL_REG = Timer_1_CTRL_QUAD_BASE_CONFIG;
  44:Generated_Source\PSoC4/Timer_1.c ****         
  45:Generated_Source\PSoC4/Timer_1.c ****         /* Set values from customizer to CTRL1 */
  46:Generated_Source\PSoC4/Timer_1.c ****         Timer_1_TRIG_CONTROL1_REG  = Timer_1_QUAD_SIGNALS_MODES;
  47:Generated_Source\PSoC4/Timer_1.c **** 
  48:Generated_Source\PSoC4/Timer_1.c ****         /* Set values from customizer to INTR */
  49:Generated_Source\PSoC4/Timer_1.c ****         Timer_1_SetInterruptMode(Timer_1_QUAD_INTERRUPT_MASK);
  50:Generated_Source\PSoC4/Timer_1.c ****         
  51:Generated_Source\PSoC4/Timer_1.c ****          /* Set other values */
  52:Generated_Source\PSoC4/Timer_1.c ****         Timer_1_SetCounterMode(Timer_1_COUNT_DOWN);
  53:Generated_Source\PSoC4/Timer_1.c ****         Timer_1_WritePeriod(Timer_1_QUAD_PERIOD_INIT_VALUE);
  54:Generated_Source\PSoC4/Timer_1.c ****         Timer_1_WriteCounter(Timer_1_QUAD_PERIOD_INIT_VALUE);
  55:Generated_Source\PSoC4/Timer_1.c ****     #endif  /* (Timer_1__QUAD == Timer_1_CONFIG) */
  56:Generated_Source\PSoC4/Timer_1.c **** 
  57:Generated_Source\PSoC4/Timer_1.c ****     #if (Timer_1__TIMER == Timer_1_CONFIG)
  58:Generated_Source\PSoC4/Timer_1.c ****         Timer_1_CONTROL_REG = Timer_1_CTRL_TIMER_BASE_CONFIG;
  33              		.loc 1 58 0
  34 0000 C022     		movs	r2, #192
  59:Generated_Source\PSoC4/Timer_1.c ****         
  60:Generated_Source\PSoC4/Timer_1.c ****         /* Set values from customizer to CTRL1 */
  61:Generated_Source\PSoC4/Timer_1.c ****         Timer_1_TRIG_CONTROL1_REG  = Timer_1_TIMER_SIGNALS_MODES;
  35              		.loc 1 61 0
  36 0002 0C21     		movs	r1, #12
  58:Generated_Source\PSoC4/Timer_1.c ****         
  37              		.loc 1 58 0
  38 0004 0E4B     		ldr	r3, .L6
  39 0006 9200     		lsls	r2, r2, #2
  40 0008 1A60     		str	r2, [r3]
  41              		.loc 1 61 0
  42 000a 0E4A     		ldr	r2, .L6+4
  43 000c 1160     		str	r1, [r2]
  44              	.LVL0:
  45              	.LBB22:
  46              	.LBB23:
  62:Generated_Source\PSoC4/Timer_1.c ****     
  63:Generated_Source\PSoC4/Timer_1.c ****         /* Set values from customizer to INTR */
  64:Generated_Source\PSoC4/Timer_1.c ****         Timer_1_SetInterruptMode(Timer_1_TC_INTERRUPT_MASK);
  65:Generated_Source\PSoC4/Timer_1.c ****         
  66:Generated_Source\PSoC4/Timer_1.c ****         /* Set other values from customizer */
  67:Generated_Source\PSoC4/Timer_1.c ****         Timer_1_WritePeriod(Timer_1_TC_PERIOD_VALUE );
ARM GAS  C:\Users\young\AppData\Local\Temp\cc3sLV9e.s 			page 3


  68:Generated_Source\PSoC4/Timer_1.c **** 
  69:Generated_Source\PSoC4/Timer_1.c ****         #if (Timer_1__COMPARE == Timer_1_TC_COMP_CAP_MODE)
  70:Generated_Source\PSoC4/Timer_1.c ****             Timer_1_WriteCompare(Timer_1_TC_COMPARE_VALUE);
  71:Generated_Source\PSoC4/Timer_1.c **** 
  72:Generated_Source\PSoC4/Timer_1.c ****             #if (1u == Timer_1_TC_COMPARE_SWAP)
  73:Generated_Source\PSoC4/Timer_1.c ****                 Timer_1_SetCompareSwap(1u);
  74:Generated_Source\PSoC4/Timer_1.c ****                 Timer_1_WriteCompareBuf(Timer_1_TC_COMPARE_BUF_VALUE);
  75:Generated_Source\PSoC4/Timer_1.c ****             #endif  /* (1u == Timer_1_TC_COMPARE_SWAP) */
  76:Generated_Source\PSoC4/Timer_1.c ****         #endif  /* (Timer_1__COMPARE == Timer_1_TC_COMP_CAP_MODE) */
  77:Generated_Source\PSoC4/Timer_1.c **** 
  78:Generated_Source\PSoC4/Timer_1.c ****         /* Initialize counter value */
  79:Generated_Source\PSoC4/Timer_1.c ****         #if (Timer_1_CY_TCPWM_V2 && Timer_1_TIMER_UPDOWN_CNT_USED && !Timer_1_CY_TCPWM_4000)
  80:Generated_Source\PSoC4/Timer_1.c ****             Timer_1_WriteCounter(1u);
  81:Generated_Source\PSoC4/Timer_1.c ****         #elif(Timer_1__COUNT_DOWN == Timer_1_TC_COUNTER_MODE)
  82:Generated_Source\PSoC4/Timer_1.c ****             Timer_1_WriteCounter(Timer_1_TC_PERIOD_VALUE);
  83:Generated_Source\PSoC4/Timer_1.c ****         #else
  84:Generated_Source\PSoC4/Timer_1.c ****             Timer_1_WriteCounter(0u);
  85:Generated_Source\PSoC4/Timer_1.c ****         #endif /* (Timer_1_CY_TCPWM_V2 && Timer_1_TIMER_UPDOWN_CNT_USED && !Timer_1_CY_TCPWM_4000) 
  86:Generated_Source\PSoC4/Timer_1.c ****     #endif  /* (Timer_1__TIMER == Timer_1_CONFIG) */
  87:Generated_Source\PSoC4/Timer_1.c **** 
  88:Generated_Source\PSoC4/Timer_1.c ****     #if (Timer_1__PWM_SEL == Timer_1_CONFIG)
  89:Generated_Source\PSoC4/Timer_1.c ****         Timer_1_CONTROL_REG = Timer_1_CTRL_PWM_BASE_CONFIG;
  90:Generated_Source\PSoC4/Timer_1.c **** 
  91:Generated_Source\PSoC4/Timer_1.c ****         #if (Timer_1__PWM_PR == Timer_1_PWM_MODE)
  92:Generated_Source\PSoC4/Timer_1.c ****             Timer_1_CONTROL_REG |= Timer_1_CTRL_PWM_RUN_MODE;
  93:Generated_Source\PSoC4/Timer_1.c ****             Timer_1_WriteCounter(Timer_1_PWM_PR_INIT_VALUE);
  94:Generated_Source\PSoC4/Timer_1.c ****         #else
  95:Generated_Source\PSoC4/Timer_1.c ****             Timer_1_CONTROL_REG |= Timer_1_CTRL_PWM_ALIGN | Timer_1_CTRL_PWM_KILL_EVENT;
  96:Generated_Source\PSoC4/Timer_1.c ****             
  97:Generated_Source\PSoC4/Timer_1.c ****             /* Initialize counter value */
  98:Generated_Source\PSoC4/Timer_1.c ****             #if (Timer_1_CY_TCPWM_V2 && Timer_1_PWM_UPDOWN_CNT_USED && !Timer_1_CY_TCPWM_4000)
  99:Generated_Source\PSoC4/Timer_1.c ****                 Timer_1_WriteCounter(1u);
 100:Generated_Source\PSoC4/Timer_1.c ****             #elif (Timer_1__RIGHT == Timer_1_PWM_ALIGN)
 101:Generated_Source\PSoC4/Timer_1.c ****                 Timer_1_WriteCounter(Timer_1_PWM_PERIOD_VALUE);
 102:Generated_Source\PSoC4/Timer_1.c ****             #else 
 103:Generated_Source\PSoC4/Timer_1.c ****                 Timer_1_WriteCounter(0u);
 104:Generated_Source\PSoC4/Timer_1.c ****             #endif  /* (Timer_1_CY_TCPWM_V2 && Timer_1_PWM_UPDOWN_CNT_USED && !Timer_1_CY_TCPWM_400
 105:Generated_Source\PSoC4/Timer_1.c ****         #endif  /* (Timer_1__PWM_PR == Timer_1_PWM_MODE) */
 106:Generated_Source\PSoC4/Timer_1.c **** 
 107:Generated_Source\PSoC4/Timer_1.c ****         #if (Timer_1__PWM_DT == Timer_1_PWM_MODE)
 108:Generated_Source\PSoC4/Timer_1.c ****             Timer_1_CONTROL_REG |= Timer_1_CTRL_PWM_DEAD_TIME_CYCLE;
 109:Generated_Source\PSoC4/Timer_1.c ****         #endif  /* (Timer_1__PWM_DT == Timer_1_PWM_MODE) */
 110:Generated_Source\PSoC4/Timer_1.c **** 
 111:Generated_Source\PSoC4/Timer_1.c ****         #if (Timer_1__PWM == Timer_1_PWM_MODE)
 112:Generated_Source\PSoC4/Timer_1.c ****             Timer_1_CONTROL_REG |= Timer_1_CTRL_PWM_PRESCALER;
 113:Generated_Source\PSoC4/Timer_1.c ****         #endif  /* (Timer_1__PWM == Timer_1_PWM_MODE) */
 114:Generated_Source\PSoC4/Timer_1.c **** 
 115:Generated_Source\PSoC4/Timer_1.c ****         /* Set values from customizer to CTRL1 */
 116:Generated_Source\PSoC4/Timer_1.c ****         Timer_1_TRIG_CONTROL1_REG  = Timer_1_PWM_SIGNALS_MODES;
 117:Generated_Source\PSoC4/Timer_1.c ****     
 118:Generated_Source\PSoC4/Timer_1.c ****         /* Set values from customizer to INTR */
 119:Generated_Source\PSoC4/Timer_1.c ****         Timer_1_SetInterruptMode(Timer_1_PWM_INTERRUPT_MASK);
 120:Generated_Source\PSoC4/Timer_1.c **** 
 121:Generated_Source\PSoC4/Timer_1.c ****         /* Set values from customizer to CTRL2 */
 122:Generated_Source\PSoC4/Timer_1.c ****         #if (Timer_1__PWM_PR == Timer_1_PWM_MODE)
 123:Generated_Source\PSoC4/Timer_1.c ****             Timer_1_TRIG_CONTROL2_REG =
 124:Generated_Source\PSoC4/Timer_1.c ****                     (Timer_1_CC_MATCH_NO_CHANGE    |
ARM GAS  C:\Users\young\AppData\Local\Temp\cc3sLV9e.s 			page 4


 125:Generated_Source\PSoC4/Timer_1.c ****                     Timer_1_OVERLOW_NO_CHANGE      |
 126:Generated_Source\PSoC4/Timer_1.c ****                     Timer_1_UNDERFLOW_NO_CHANGE);
 127:Generated_Source\PSoC4/Timer_1.c ****         #else
 128:Generated_Source\PSoC4/Timer_1.c ****             #if (Timer_1__LEFT == Timer_1_PWM_ALIGN)
 129:Generated_Source\PSoC4/Timer_1.c ****                 Timer_1_TRIG_CONTROL2_REG = Timer_1_PWM_MODE_LEFT;
 130:Generated_Source\PSoC4/Timer_1.c ****             #endif  /* ( Timer_1_PWM_LEFT == Timer_1_PWM_ALIGN) */
 131:Generated_Source\PSoC4/Timer_1.c **** 
 132:Generated_Source\PSoC4/Timer_1.c ****             #if (Timer_1__RIGHT == Timer_1_PWM_ALIGN)
 133:Generated_Source\PSoC4/Timer_1.c ****                 Timer_1_TRIG_CONTROL2_REG = Timer_1_PWM_MODE_RIGHT;
 134:Generated_Source\PSoC4/Timer_1.c ****             #endif  /* ( Timer_1_PWM_RIGHT == Timer_1_PWM_ALIGN) */
 135:Generated_Source\PSoC4/Timer_1.c **** 
 136:Generated_Source\PSoC4/Timer_1.c ****             #if (Timer_1__CENTER == Timer_1_PWM_ALIGN)
 137:Generated_Source\PSoC4/Timer_1.c ****                 Timer_1_TRIG_CONTROL2_REG = Timer_1_PWM_MODE_CENTER;
 138:Generated_Source\PSoC4/Timer_1.c ****             #endif  /* ( Timer_1_PWM_CENTER == Timer_1_PWM_ALIGN) */
 139:Generated_Source\PSoC4/Timer_1.c **** 
 140:Generated_Source\PSoC4/Timer_1.c ****             #if (Timer_1__ASYMMETRIC == Timer_1_PWM_ALIGN)
 141:Generated_Source\PSoC4/Timer_1.c ****                 Timer_1_TRIG_CONTROL2_REG = Timer_1_PWM_MODE_ASYM;
 142:Generated_Source\PSoC4/Timer_1.c ****             #endif  /* (Timer_1__ASYMMETRIC == Timer_1_PWM_ALIGN) */
 143:Generated_Source\PSoC4/Timer_1.c ****         #endif  /* (Timer_1__PWM_PR == Timer_1_PWM_MODE) */
 144:Generated_Source\PSoC4/Timer_1.c **** 
 145:Generated_Source\PSoC4/Timer_1.c ****         /* Set other values from customizer */
 146:Generated_Source\PSoC4/Timer_1.c ****         Timer_1_WritePeriod(Timer_1_PWM_PERIOD_VALUE );
 147:Generated_Source\PSoC4/Timer_1.c ****         Timer_1_WriteCompare(Timer_1_PWM_COMPARE_VALUE);
 148:Generated_Source\PSoC4/Timer_1.c **** 
 149:Generated_Source\PSoC4/Timer_1.c ****         #if (1u == Timer_1_PWM_COMPARE_SWAP)
 150:Generated_Source\PSoC4/Timer_1.c ****             Timer_1_SetCompareSwap(1u);
 151:Generated_Source\PSoC4/Timer_1.c ****             Timer_1_WriteCompareBuf(Timer_1_PWM_COMPARE_BUF_VALUE);
 152:Generated_Source\PSoC4/Timer_1.c ****         #endif  /* (1u == Timer_1_PWM_COMPARE_SWAP) */
 153:Generated_Source\PSoC4/Timer_1.c **** 
 154:Generated_Source\PSoC4/Timer_1.c ****         #if (1u == Timer_1_PWM_PERIOD_SWAP)
 155:Generated_Source\PSoC4/Timer_1.c ****             Timer_1_SetPeriodSwap(1u);
 156:Generated_Source\PSoC4/Timer_1.c ****             Timer_1_WritePeriodBuf(Timer_1_PWM_PERIOD_BUF_VALUE);
 157:Generated_Source\PSoC4/Timer_1.c ****         #endif  /* (1u == Timer_1_PWM_PERIOD_SWAP) */
 158:Generated_Source\PSoC4/Timer_1.c ****     #endif  /* (Timer_1__PWM_SEL == Timer_1_CONFIG) */
 159:Generated_Source\PSoC4/Timer_1.c ****     
 160:Generated_Source\PSoC4/Timer_1.c **** }
 161:Generated_Source\PSoC4/Timer_1.c **** 
 162:Generated_Source\PSoC4/Timer_1.c **** 
 163:Generated_Source\PSoC4/Timer_1.c **** /*******************************************************************************
 164:Generated_Source\PSoC4/Timer_1.c **** * Function Name: Timer_1_Enable
 165:Generated_Source\PSoC4/Timer_1.c **** ********************************************************************************
 166:Generated_Source\PSoC4/Timer_1.c **** *
 167:Generated_Source\PSoC4/Timer_1.c **** * Summary:
 168:Generated_Source\PSoC4/Timer_1.c **** *  Enables the Timer_1.
 169:Generated_Source\PSoC4/Timer_1.c **** *
 170:Generated_Source\PSoC4/Timer_1.c **** * Parameters:
 171:Generated_Source\PSoC4/Timer_1.c **** *  None
 172:Generated_Source\PSoC4/Timer_1.c **** *
 173:Generated_Source\PSoC4/Timer_1.c **** * Return:
 174:Generated_Source\PSoC4/Timer_1.c **** *  None
 175:Generated_Source\PSoC4/Timer_1.c **** *
 176:Generated_Source\PSoC4/Timer_1.c **** *******************************************************************************/
 177:Generated_Source\PSoC4/Timer_1.c **** void Timer_1_Enable(void)
 178:Generated_Source\PSoC4/Timer_1.c **** {
 179:Generated_Source\PSoC4/Timer_1.c ****     uint8 enableInterrupts;
 180:Generated_Source\PSoC4/Timer_1.c **** 
 181:Generated_Source\PSoC4/Timer_1.c ****     enableInterrupts = CyEnterCriticalSection();
ARM GAS  C:\Users\young\AppData\Local\Temp\cc3sLV9e.s 			page 5


 182:Generated_Source\PSoC4/Timer_1.c ****     Timer_1_BLOCK_CONTROL_REG |= Timer_1_MASK;
 183:Generated_Source\PSoC4/Timer_1.c ****     CyExitCriticalSection(enableInterrupts);
 184:Generated_Source\PSoC4/Timer_1.c **** 
 185:Generated_Source\PSoC4/Timer_1.c ****     /* Start Timer or PWM if start input is absent */
 186:Generated_Source\PSoC4/Timer_1.c ****     #if (Timer_1__PWM_SEL == Timer_1_CONFIG)
 187:Generated_Source\PSoC4/Timer_1.c ****         #if (0u == Timer_1_PWM_START_SIGNAL_PRESENT)
 188:Generated_Source\PSoC4/Timer_1.c ****             Timer_1_TriggerCommand(Timer_1_MASK, Timer_1_CMD_START);
 189:Generated_Source\PSoC4/Timer_1.c ****         #endif /* (0u == Timer_1_PWM_START_SIGNAL_PRESENT) */
 190:Generated_Source\PSoC4/Timer_1.c ****     #endif /* (Timer_1__PWM_SEL == Timer_1_CONFIG) */
 191:Generated_Source\PSoC4/Timer_1.c **** 
 192:Generated_Source\PSoC4/Timer_1.c ****     #if (Timer_1__TIMER == Timer_1_CONFIG)
 193:Generated_Source\PSoC4/Timer_1.c ****         #if (0u == Timer_1_TC_START_SIGNAL_PRESENT)
 194:Generated_Source\PSoC4/Timer_1.c ****             Timer_1_TriggerCommand(Timer_1_MASK, Timer_1_CMD_START);
 195:Generated_Source\PSoC4/Timer_1.c ****         #endif /* (0u == Timer_1_TC_START_SIGNAL_PRESENT) */
 196:Generated_Source\PSoC4/Timer_1.c ****     #endif /* (Timer_1__TIMER == Timer_1_CONFIG) */
 197:Generated_Source\PSoC4/Timer_1.c ****     
 198:Generated_Source\PSoC4/Timer_1.c ****     #if (Timer_1__QUAD == Timer_1_CONFIG)
 199:Generated_Source\PSoC4/Timer_1.c ****         #if (0u != Timer_1_QUAD_AUTO_START)
 200:Generated_Source\PSoC4/Timer_1.c ****             Timer_1_TriggerCommand(Timer_1_MASK, Timer_1_CMD_RELOAD);
 201:Generated_Source\PSoC4/Timer_1.c ****         #endif /* (0u != Timer_1_QUAD_AUTO_START) */
 202:Generated_Source\PSoC4/Timer_1.c ****     #endif  /* (Timer_1__QUAD == Timer_1_CONFIG) */
 203:Generated_Source\PSoC4/Timer_1.c **** }
 204:Generated_Source\PSoC4/Timer_1.c **** 
 205:Generated_Source\PSoC4/Timer_1.c **** 
 206:Generated_Source\PSoC4/Timer_1.c **** /*******************************************************************************
 207:Generated_Source\PSoC4/Timer_1.c **** * Function Name: Timer_1_Start
 208:Generated_Source\PSoC4/Timer_1.c **** ********************************************************************************
 209:Generated_Source\PSoC4/Timer_1.c **** *
 210:Generated_Source\PSoC4/Timer_1.c **** * Summary:
 211:Generated_Source\PSoC4/Timer_1.c **** *  Initializes the Timer_1 with default customizer
 212:Generated_Source\PSoC4/Timer_1.c **** *  values when called the first time and enables the Timer_1.
 213:Generated_Source\PSoC4/Timer_1.c **** *  For subsequent calls the configuration is left unchanged and the component is
 214:Generated_Source\PSoC4/Timer_1.c **** *  just enabled.
 215:Generated_Source\PSoC4/Timer_1.c **** *
 216:Generated_Source\PSoC4/Timer_1.c **** * Parameters:
 217:Generated_Source\PSoC4/Timer_1.c **** *  None
 218:Generated_Source\PSoC4/Timer_1.c **** *
 219:Generated_Source\PSoC4/Timer_1.c **** * Return:
 220:Generated_Source\PSoC4/Timer_1.c **** *  None
 221:Generated_Source\PSoC4/Timer_1.c **** *
 222:Generated_Source\PSoC4/Timer_1.c **** * Global variables:
 223:Generated_Source\PSoC4/Timer_1.c **** *  Timer_1_initVar: global variable is used to indicate initial
 224:Generated_Source\PSoC4/Timer_1.c **** *  configuration of this component.  The variable is initialized to zero and set
 225:Generated_Source\PSoC4/Timer_1.c **** *  to 1 the first time Timer_1_Start() is called. This allows
 226:Generated_Source\PSoC4/Timer_1.c **** *  enabling/disabling a component without re-initialization in all subsequent
 227:Generated_Source\PSoC4/Timer_1.c **** *  calls to the Timer_1_Start() routine.
 228:Generated_Source\PSoC4/Timer_1.c **** *
 229:Generated_Source\PSoC4/Timer_1.c **** *******************************************************************************/
 230:Generated_Source\PSoC4/Timer_1.c **** void Timer_1_Start(void)
 231:Generated_Source\PSoC4/Timer_1.c **** {
 232:Generated_Source\PSoC4/Timer_1.c ****     if (0u == Timer_1_initVar)
 233:Generated_Source\PSoC4/Timer_1.c ****     {
 234:Generated_Source\PSoC4/Timer_1.c ****         Timer_1_Init();
 235:Generated_Source\PSoC4/Timer_1.c ****         Timer_1_initVar = 1u;
 236:Generated_Source\PSoC4/Timer_1.c ****     }
 237:Generated_Source\PSoC4/Timer_1.c **** 
 238:Generated_Source\PSoC4/Timer_1.c ****     Timer_1_Enable();
ARM GAS  C:\Users\young\AppData\Local\Temp\cc3sLV9e.s 			page 6


 239:Generated_Source\PSoC4/Timer_1.c **** }
 240:Generated_Source\PSoC4/Timer_1.c **** 
 241:Generated_Source\PSoC4/Timer_1.c **** 
 242:Generated_Source\PSoC4/Timer_1.c **** /*******************************************************************************
 243:Generated_Source\PSoC4/Timer_1.c **** * Function Name: Timer_1_Stop
 244:Generated_Source\PSoC4/Timer_1.c **** ********************************************************************************
 245:Generated_Source\PSoC4/Timer_1.c **** *
 246:Generated_Source\PSoC4/Timer_1.c **** * Summary:
 247:Generated_Source\PSoC4/Timer_1.c **** *  Disables the Timer_1.
 248:Generated_Source\PSoC4/Timer_1.c **** *
 249:Generated_Source\PSoC4/Timer_1.c **** * Parameters:
 250:Generated_Source\PSoC4/Timer_1.c **** *  None
 251:Generated_Source\PSoC4/Timer_1.c **** *
 252:Generated_Source\PSoC4/Timer_1.c **** * Return:
 253:Generated_Source\PSoC4/Timer_1.c **** *  None
 254:Generated_Source\PSoC4/Timer_1.c **** *
 255:Generated_Source\PSoC4/Timer_1.c **** *******************************************************************************/
 256:Generated_Source\PSoC4/Timer_1.c **** void Timer_1_Stop(void)
 257:Generated_Source\PSoC4/Timer_1.c **** {
 258:Generated_Source\PSoC4/Timer_1.c ****     uint8 enableInterrupts;
 259:Generated_Source\PSoC4/Timer_1.c **** 
 260:Generated_Source\PSoC4/Timer_1.c ****     enableInterrupts = CyEnterCriticalSection();
 261:Generated_Source\PSoC4/Timer_1.c **** 
 262:Generated_Source\PSoC4/Timer_1.c ****     Timer_1_BLOCK_CONTROL_REG &= (uint32)~Timer_1_MASK;
 263:Generated_Source\PSoC4/Timer_1.c **** 
 264:Generated_Source\PSoC4/Timer_1.c ****     CyExitCriticalSection(enableInterrupts);
 265:Generated_Source\PSoC4/Timer_1.c **** }
 266:Generated_Source\PSoC4/Timer_1.c **** 
 267:Generated_Source\PSoC4/Timer_1.c **** 
 268:Generated_Source\PSoC4/Timer_1.c **** /*******************************************************************************
 269:Generated_Source\PSoC4/Timer_1.c **** * Function Name: Timer_1_SetMode
 270:Generated_Source\PSoC4/Timer_1.c **** ********************************************************************************
 271:Generated_Source\PSoC4/Timer_1.c **** *
 272:Generated_Source\PSoC4/Timer_1.c **** * Summary:
 273:Generated_Source\PSoC4/Timer_1.c **** *  Sets the operation mode of the Timer_1. This function is used when
 274:Generated_Source\PSoC4/Timer_1.c **** *  configured as a generic Timer_1 and the actual mode of operation is
 275:Generated_Source\PSoC4/Timer_1.c **** *  set at runtime. The mode must be set while the component is disabled.
 276:Generated_Source\PSoC4/Timer_1.c **** *
 277:Generated_Source\PSoC4/Timer_1.c **** * Parameters:
 278:Generated_Source\PSoC4/Timer_1.c **** *  mode: Mode for the Timer_1 to operate in
 279:Generated_Source\PSoC4/Timer_1.c **** *   Values:
 280:Generated_Source\PSoC4/Timer_1.c **** *   - Timer_1_MODE_TIMER_COMPARE - Timer / Counter with
 281:Generated_Source\PSoC4/Timer_1.c **** *                                                 compare capability
 282:Generated_Source\PSoC4/Timer_1.c **** *         - Timer_1_MODE_TIMER_CAPTURE - Timer / Counter with
 283:Generated_Source\PSoC4/Timer_1.c **** *                                                 capture capability
 284:Generated_Source\PSoC4/Timer_1.c **** *         - Timer_1_MODE_QUAD - Quadrature decoder
 285:Generated_Source\PSoC4/Timer_1.c **** *         - Timer_1_MODE_PWM - PWM
 286:Generated_Source\PSoC4/Timer_1.c **** *         - Timer_1_MODE_PWM_DT - PWM with dead time
 287:Generated_Source\PSoC4/Timer_1.c **** *         - Timer_1_MODE_PWM_PR - PWM with pseudo random capability
 288:Generated_Source\PSoC4/Timer_1.c **** *
 289:Generated_Source\PSoC4/Timer_1.c **** * Return:
 290:Generated_Source\PSoC4/Timer_1.c **** *  None
 291:Generated_Source\PSoC4/Timer_1.c **** *
 292:Generated_Source\PSoC4/Timer_1.c **** *******************************************************************************/
 293:Generated_Source\PSoC4/Timer_1.c **** void Timer_1_SetMode(uint32 mode)
 294:Generated_Source\PSoC4/Timer_1.c **** {
 295:Generated_Source\PSoC4/Timer_1.c ****     uint8 enableInterrupts;
ARM GAS  C:\Users\young\AppData\Local\Temp\cc3sLV9e.s 			page 7


 296:Generated_Source\PSoC4/Timer_1.c **** 
 297:Generated_Source\PSoC4/Timer_1.c ****     enableInterrupts = CyEnterCriticalSection();
 298:Generated_Source\PSoC4/Timer_1.c **** 
 299:Generated_Source\PSoC4/Timer_1.c ****     Timer_1_CONTROL_REG &= (uint32)~Timer_1_MODE_MASK;
 300:Generated_Source\PSoC4/Timer_1.c ****     Timer_1_CONTROL_REG |= mode;
 301:Generated_Source\PSoC4/Timer_1.c **** 
 302:Generated_Source\PSoC4/Timer_1.c ****     CyExitCriticalSection(enableInterrupts);
 303:Generated_Source\PSoC4/Timer_1.c **** }
 304:Generated_Source\PSoC4/Timer_1.c **** 
 305:Generated_Source\PSoC4/Timer_1.c **** 
 306:Generated_Source\PSoC4/Timer_1.c **** /*******************************************************************************
 307:Generated_Source\PSoC4/Timer_1.c **** * Function Name: Timer_1_SetQDMode
 308:Generated_Source\PSoC4/Timer_1.c **** ********************************************************************************
 309:Generated_Source\PSoC4/Timer_1.c **** *
 310:Generated_Source\PSoC4/Timer_1.c **** * Summary:
 311:Generated_Source\PSoC4/Timer_1.c **** *  Sets the the Quadrature Decoder to one of the 3 supported modes.
 312:Generated_Source\PSoC4/Timer_1.c **** *  Its functionality is only applicable to Quadrature Decoder operation.
 313:Generated_Source\PSoC4/Timer_1.c **** *
 314:Generated_Source\PSoC4/Timer_1.c **** * Parameters:
 315:Generated_Source\PSoC4/Timer_1.c **** *  qdMode: Quadrature Decoder mode
 316:Generated_Source\PSoC4/Timer_1.c **** *   Values:
 317:Generated_Source\PSoC4/Timer_1.c **** *         - Timer_1_MODE_X1 - Counts on phi 1 rising
 318:Generated_Source\PSoC4/Timer_1.c **** *         - Timer_1_MODE_X2 - Counts on both edges of phi1 (2x faster)
 319:Generated_Source\PSoC4/Timer_1.c **** *         - Timer_1_MODE_X4 - Counts on both edges of phi1 and phi2
 320:Generated_Source\PSoC4/Timer_1.c **** *                                        (4x faster)
 321:Generated_Source\PSoC4/Timer_1.c **** *
 322:Generated_Source\PSoC4/Timer_1.c **** * Return:
 323:Generated_Source\PSoC4/Timer_1.c **** *  None
 324:Generated_Source\PSoC4/Timer_1.c **** *
 325:Generated_Source\PSoC4/Timer_1.c **** *******************************************************************************/
 326:Generated_Source\PSoC4/Timer_1.c **** void Timer_1_SetQDMode(uint32 qdMode)
 327:Generated_Source\PSoC4/Timer_1.c **** {
 328:Generated_Source\PSoC4/Timer_1.c ****     uint8 enableInterrupts;
 329:Generated_Source\PSoC4/Timer_1.c **** 
 330:Generated_Source\PSoC4/Timer_1.c ****     enableInterrupts = CyEnterCriticalSection();
 331:Generated_Source\PSoC4/Timer_1.c **** 
 332:Generated_Source\PSoC4/Timer_1.c ****     Timer_1_CONTROL_REG &= (uint32)~Timer_1_QUAD_MODE_MASK;
 333:Generated_Source\PSoC4/Timer_1.c ****     Timer_1_CONTROL_REG |= qdMode;
 334:Generated_Source\PSoC4/Timer_1.c **** 
 335:Generated_Source\PSoC4/Timer_1.c ****     CyExitCriticalSection(enableInterrupts);
 336:Generated_Source\PSoC4/Timer_1.c **** }
 337:Generated_Source\PSoC4/Timer_1.c **** 
 338:Generated_Source\PSoC4/Timer_1.c **** 
 339:Generated_Source\PSoC4/Timer_1.c **** /*******************************************************************************
 340:Generated_Source\PSoC4/Timer_1.c **** * Function Name: Timer_1_SetPrescaler
 341:Generated_Source\PSoC4/Timer_1.c **** ********************************************************************************
 342:Generated_Source\PSoC4/Timer_1.c **** *
 343:Generated_Source\PSoC4/Timer_1.c **** * Summary:
 344:Generated_Source\PSoC4/Timer_1.c **** *  Sets the prescaler value that is applied to the clock input.  Not applicable
 345:Generated_Source\PSoC4/Timer_1.c **** *  to a PWM with the dead time mode or Quadrature Decoder mode.
 346:Generated_Source\PSoC4/Timer_1.c **** *
 347:Generated_Source\PSoC4/Timer_1.c **** * Parameters:
 348:Generated_Source\PSoC4/Timer_1.c **** *  prescaler: Prescaler divider value
 349:Generated_Source\PSoC4/Timer_1.c **** *   Values:
 350:Generated_Source\PSoC4/Timer_1.c **** *         - Timer_1_PRESCALE_DIVBY1    - Divide by 1 (no prescaling)
 351:Generated_Source\PSoC4/Timer_1.c **** *         - Timer_1_PRESCALE_DIVBY2    - Divide by 2
 352:Generated_Source\PSoC4/Timer_1.c **** *         - Timer_1_PRESCALE_DIVBY4    - Divide by 4
ARM GAS  C:\Users\young\AppData\Local\Temp\cc3sLV9e.s 			page 8


 353:Generated_Source\PSoC4/Timer_1.c **** *         - Timer_1_PRESCALE_DIVBY8    - Divide by 8
 354:Generated_Source\PSoC4/Timer_1.c **** *         - Timer_1_PRESCALE_DIVBY16   - Divide by 16
 355:Generated_Source\PSoC4/Timer_1.c **** *         - Timer_1_PRESCALE_DIVBY32   - Divide by 32
 356:Generated_Source\PSoC4/Timer_1.c **** *         - Timer_1_PRESCALE_DIVBY64   - Divide by 64
 357:Generated_Source\PSoC4/Timer_1.c **** *         - Timer_1_PRESCALE_DIVBY128  - Divide by 128
 358:Generated_Source\PSoC4/Timer_1.c **** *
 359:Generated_Source\PSoC4/Timer_1.c **** * Return:
 360:Generated_Source\PSoC4/Timer_1.c **** *  None
 361:Generated_Source\PSoC4/Timer_1.c **** *
 362:Generated_Source\PSoC4/Timer_1.c **** *******************************************************************************/
 363:Generated_Source\PSoC4/Timer_1.c **** void Timer_1_SetPrescaler(uint32 prescaler)
 364:Generated_Source\PSoC4/Timer_1.c **** {
 365:Generated_Source\PSoC4/Timer_1.c ****     uint8 enableInterrupts;
 366:Generated_Source\PSoC4/Timer_1.c **** 
 367:Generated_Source\PSoC4/Timer_1.c ****     enableInterrupts = CyEnterCriticalSection();
 368:Generated_Source\PSoC4/Timer_1.c **** 
 369:Generated_Source\PSoC4/Timer_1.c ****     Timer_1_CONTROL_REG &= (uint32)~Timer_1_PRESCALER_MASK;
 370:Generated_Source\PSoC4/Timer_1.c ****     Timer_1_CONTROL_REG |= prescaler;
 371:Generated_Source\PSoC4/Timer_1.c **** 
 372:Generated_Source\PSoC4/Timer_1.c ****     CyExitCriticalSection(enableInterrupts);
 373:Generated_Source\PSoC4/Timer_1.c **** }
 374:Generated_Source\PSoC4/Timer_1.c **** 
 375:Generated_Source\PSoC4/Timer_1.c **** 
 376:Generated_Source\PSoC4/Timer_1.c **** /*******************************************************************************
 377:Generated_Source\PSoC4/Timer_1.c **** * Function Name: Timer_1_SetOneShot
 378:Generated_Source\PSoC4/Timer_1.c **** ********************************************************************************
 379:Generated_Source\PSoC4/Timer_1.c **** *
 380:Generated_Source\PSoC4/Timer_1.c **** * Summary:
 381:Generated_Source\PSoC4/Timer_1.c **** *  Writes the register that controls whether the Timer_1 runs
 382:Generated_Source\PSoC4/Timer_1.c **** *  continuously or stops when terminal count is reached.  By default the
 383:Generated_Source\PSoC4/Timer_1.c **** *  Timer_1 operates in the continuous mode.
 384:Generated_Source\PSoC4/Timer_1.c **** *
 385:Generated_Source\PSoC4/Timer_1.c **** * Parameters:
 386:Generated_Source\PSoC4/Timer_1.c **** *  oneShotEnable
 387:Generated_Source\PSoC4/Timer_1.c **** *   Values:
 388:Generated_Source\PSoC4/Timer_1.c **** *     - 0 - Continuous
 389:Generated_Source\PSoC4/Timer_1.c **** *     - 1 - Enable One Shot
 390:Generated_Source\PSoC4/Timer_1.c **** *
 391:Generated_Source\PSoC4/Timer_1.c **** * Return:
 392:Generated_Source\PSoC4/Timer_1.c **** *  None
 393:Generated_Source\PSoC4/Timer_1.c **** *
 394:Generated_Source\PSoC4/Timer_1.c **** *******************************************************************************/
 395:Generated_Source\PSoC4/Timer_1.c **** void Timer_1_SetOneShot(uint32 oneShotEnable)
 396:Generated_Source\PSoC4/Timer_1.c **** {
 397:Generated_Source\PSoC4/Timer_1.c ****     uint8 enableInterrupts;
 398:Generated_Source\PSoC4/Timer_1.c **** 
 399:Generated_Source\PSoC4/Timer_1.c ****     enableInterrupts = CyEnterCriticalSection();
 400:Generated_Source\PSoC4/Timer_1.c **** 
 401:Generated_Source\PSoC4/Timer_1.c ****     Timer_1_CONTROL_REG &= (uint32)~Timer_1_ONESHOT_MASK;
 402:Generated_Source\PSoC4/Timer_1.c ****     Timer_1_CONTROL_REG |= ((uint32)((oneShotEnable & Timer_1_1BIT_MASK) <<
 403:Generated_Source\PSoC4/Timer_1.c ****                                                                Timer_1_ONESHOT_SHIFT));
 404:Generated_Source\PSoC4/Timer_1.c **** 
 405:Generated_Source\PSoC4/Timer_1.c ****     CyExitCriticalSection(enableInterrupts);
 406:Generated_Source\PSoC4/Timer_1.c **** }
 407:Generated_Source\PSoC4/Timer_1.c **** 
 408:Generated_Source\PSoC4/Timer_1.c **** 
 409:Generated_Source\PSoC4/Timer_1.c **** /*******************************************************************************
ARM GAS  C:\Users\young\AppData\Local\Temp\cc3sLV9e.s 			page 9


 410:Generated_Source\PSoC4/Timer_1.c **** * Function Name: Timer_1_SetPWMMode
 411:Generated_Source\PSoC4/Timer_1.c **** ********************************************************************************
 412:Generated_Source\PSoC4/Timer_1.c **** *
 413:Generated_Source\PSoC4/Timer_1.c **** * Summary:
 414:Generated_Source\PSoC4/Timer_1.c **** *  Writes the control register that determines what mode of operation the PWM
 415:Generated_Source\PSoC4/Timer_1.c **** *  output lines are driven in.  There is a setting for what to do on a
 416:Generated_Source\PSoC4/Timer_1.c **** *  comparison match (CC_MATCH), on an overflow (OVERFLOW) and on an underflow
 417:Generated_Source\PSoC4/Timer_1.c **** *  (UNDERFLOW).  The value for each of the three must be ORed together to form
 418:Generated_Source\PSoC4/Timer_1.c **** *  the mode.
 419:Generated_Source\PSoC4/Timer_1.c **** *
 420:Generated_Source\PSoC4/Timer_1.c **** * Parameters:
 421:Generated_Source\PSoC4/Timer_1.c **** *  modeMask: A combination of three mode settings.  Mask must include a value
 422:Generated_Source\PSoC4/Timer_1.c **** *  for each of the three or use one of the preconfigured PWM settings.
 423:Generated_Source\PSoC4/Timer_1.c **** *   Values:
 424:Generated_Source\PSoC4/Timer_1.c **** *     - CC_MATCH_SET        - Set on comparison match
 425:Generated_Source\PSoC4/Timer_1.c **** *     - CC_MATCH_CLEAR      - Clear on comparison match
 426:Generated_Source\PSoC4/Timer_1.c **** *     - CC_MATCH_INVERT     - Invert on comparison match
 427:Generated_Source\PSoC4/Timer_1.c **** *     - CC_MATCH_NO_CHANGE  - No change on comparison match
 428:Generated_Source\PSoC4/Timer_1.c **** *     - OVERLOW_SET         - Set on overflow
 429:Generated_Source\PSoC4/Timer_1.c **** *     - OVERLOW_CLEAR       - Clear on  overflow
 430:Generated_Source\PSoC4/Timer_1.c **** *     - OVERLOW_INVERT      - Invert on overflow
 431:Generated_Source\PSoC4/Timer_1.c **** *     - OVERLOW_NO_CHANGE   - No change on overflow
 432:Generated_Source\PSoC4/Timer_1.c **** *     - UNDERFLOW_SET       - Set on underflow
 433:Generated_Source\PSoC4/Timer_1.c **** *     - UNDERFLOW_CLEAR     - Clear on underflow
 434:Generated_Source\PSoC4/Timer_1.c **** *     - UNDERFLOW_INVERT    - Invert on underflow
 435:Generated_Source\PSoC4/Timer_1.c **** *     - UNDERFLOW_NO_CHANGE - No change on underflow
 436:Generated_Source\PSoC4/Timer_1.c **** *     - PWM_MODE_LEFT       - Setting for left aligned PWM.  Should be combined
 437:Generated_Source\PSoC4/Timer_1.c **** *                             with up counting mode
 438:Generated_Source\PSoC4/Timer_1.c **** *     - PWM_MODE_RIGHT      - Setting for right aligned PWM.  Should be combined
 439:Generated_Source\PSoC4/Timer_1.c **** *                             with down counting mode
 440:Generated_Source\PSoC4/Timer_1.c **** *     - PWM_MODE_CENTER     - Setting for center aligned PWM.  Should be
 441:Generated_Source\PSoC4/Timer_1.c **** *                             combined with up/down 0 mode
 442:Generated_Source\PSoC4/Timer_1.c **** *     - PWM_MODE_ASYM       - Setting for asymmetric PWM.  Should be combined
 443:Generated_Source\PSoC4/Timer_1.c **** *                             with up/down 1 mode
 444:Generated_Source\PSoC4/Timer_1.c **** *
 445:Generated_Source\PSoC4/Timer_1.c **** * Return:
 446:Generated_Source\PSoC4/Timer_1.c **** *  None
 447:Generated_Source\PSoC4/Timer_1.c **** *
 448:Generated_Source\PSoC4/Timer_1.c **** *******************************************************************************/
 449:Generated_Source\PSoC4/Timer_1.c **** void Timer_1_SetPWMMode(uint32 modeMask)
 450:Generated_Source\PSoC4/Timer_1.c **** {
 451:Generated_Source\PSoC4/Timer_1.c ****     Timer_1_TRIG_CONTROL2_REG = (modeMask & Timer_1_6BIT_MASK);
 452:Generated_Source\PSoC4/Timer_1.c **** }
 453:Generated_Source\PSoC4/Timer_1.c **** 
 454:Generated_Source\PSoC4/Timer_1.c **** 
 455:Generated_Source\PSoC4/Timer_1.c **** 
 456:Generated_Source\PSoC4/Timer_1.c **** /*******************************************************************************
 457:Generated_Source\PSoC4/Timer_1.c **** * Function Name: Timer_1_SetPWMSyncKill
 458:Generated_Source\PSoC4/Timer_1.c **** ********************************************************************************
 459:Generated_Source\PSoC4/Timer_1.c **** *
 460:Generated_Source\PSoC4/Timer_1.c **** * Summary:
 461:Generated_Source\PSoC4/Timer_1.c **** *  Writes the register that controls whether the PWM kill signal (stop input)
 462:Generated_Source\PSoC4/Timer_1.c **** *  causes asynchronous or synchronous kill operation.  By default the kill
 463:Generated_Source\PSoC4/Timer_1.c **** *  operation is asynchronous.  This functionality is only applicable to the PWM
 464:Generated_Source\PSoC4/Timer_1.c **** *  and PWM with dead time modes.
 465:Generated_Source\PSoC4/Timer_1.c **** *
 466:Generated_Source\PSoC4/Timer_1.c **** *  For Synchronous mode the kill signal disables both the line and line_n
ARM GAS  C:\Users\young\AppData\Local\Temp\cc3sLV9e.s 			page 10


 467:Generated_Source\PSoC4/Timer_1.c **** *  signals until the next terminal count.
 468:Generated_Source\PSoC4/Timer_1.c **** *
 469:Generated_Source\PSoC4/Timer_1.c **** *  For Asynchronous mode the kill signal disables both the line and line_n
 470:Generated_Source\PSoC4/Timer_1.c **** *  signals when the kill signal is present.  This mode should only be used
 471:Generated_Source\PSoC4/Timer_1.c **** *  when the kill signal (stop input) is configured in the pass through mode
 472:Generated_Source\PSoC4/Timer_1.c **** *  (Level sensitive signal).
 473:Generated_Source\PSoC4/Timer_1.c **** 
 474:Generated_Source\PSoC4/Timer_1.c **** *
 475:Generated_Source\PSoC4/Timer_1.c **** * Parameters:
 476:Generated_Source\PSoC4/Timer_1.c **** *  syncKillEnable
 477:Generated_Source\PSoC4/Timer_1.c **** *   Values:
 478:Generated_Source\PSoC4/Timer_1.c **** *     - 0 - Asynchronous
 479:Generated_Source\PSoC4/Timer_1.c **** *     - 1 - Synchronous
 480:Generated_Source\PSoC4/Timer_1.c **** *
 481:Generated_Source\PSoC4/Timer_1.c **** * Return:
 482:Generated_Source\PSoC4/Timer_1.c **** *  None
 483:Generated_Source\PSoC4/Timer_1.c **** *
 484:Generated_Source\PSoC4/Timer_1.c **** *******************************************************************************/
 485:Generated_Source\PSoC4/Timer_1.c **** void Timer_1_SetPWMSyncKill(uint32 syncKillEnable)
 486:Generated_Source\PSoC4/Timer_1.c **** {
 487:Generated_Source\PSoC4/Timer_1.c ****     uint8 enableInterrupts;
 488:Generated_Source\PSoC4/Timer_1.c **** 
 489:Generated_Source\PSoC4/Timer_1.c ****     enableInterrupts = CyEnterCriticalSection();
 490:Generated_Source\PSoC4/Timer_1.c **** 
 491:Generated_Source\PSoC4/Timer_1.c ****     Timer_1_CONTROL_REG &= (uint32)~Timer_1_PWM_SYNC_KILL_MASK;
 492:Generated_Source\PSoC4/Timer_1.c ****     Timer_1_CONTROL_REG |= ((uint32)((syncKillEnable & Timer_1_1BIT_MASK)  <<
 493:Generated_Source\PSoC4/Timer_1.c ****                                                Timer_1_PWM_SYNC_KILL_SHIFT));
 494:Generated_Source\PSoC4/Timer_1.c **** 
 495:Generated_Source\PSoC4/Timer_1.c ****     CyExitCriticalSection(enableInterrupts);
 496:Generated_Source\PSoC4/Timer_1.c **** }
 497:Generated_Source\PSoC4/Timer_1.c **** 
 498:Generated_Source\PSoC4/Timer_1.c **** 
 499:Generated_Source\PSoC4/Timer_1.c **** /*******************************************************************************
 500:Generated_Source\PSoC4/Timer_1.c **** * Function Name: Timer_1_SetPWMStopOnKill
 501:Generated_Source\PSoC4/Timer_1.c **** ********************************************************************************
 502:Generated_Source\PSoC4/Timer_1.c **** *
 503:Generated_Source\PSoC4/Timer_1.c **** * Summary:
 504:Generated_Source\PSoC4/Timer_1.c **** *  Writes the register that controls whether the PWM kill signal (stop input)
 505:Generated_Source\PSoC4/Timer_1.c **** *  causes the PWM counter to stop.  By default the kill operation does not stop
 506:Generated_Source\PSoC4/Timer_1.c **** *  the counter.  This functionality is only applicable to the three PWM modes.
 507:Generated_Source\PSoC4/Timer_1.c **** *
 508:Generated_Source\PSoC4/Timer_1.c **** *
 509:Generated_Source\PSoC4/Timer_1.c **** * Parameters:
 510:Generated_Source\PSoC4/Timer_1.c **** *  stopOnKillEnable
 511:Generated_Source\PSoC4/Timer_1.c **** *   Values:
 512:Generated_Source\PSoC4/Timer_1.c **** *     - 0 - Don't stop
 513:Generated_Source\PSoC4/Timer_1.c **** *     - 1 - Stop
 514:Generated_Source\PSoC4/Timer_1.c **** *
 515:Generated_Source\PSoC4/Timer_1.c **** * Return:
 516:Generated_Source\PSoC4/Timer_1.c **** *  None
 517:Generated_Source\PSoC4/Timer_1.c **** *
 518:Generated_Source\PSoC4/Timer_1.c **** *******************************************************************************/
 519:Generated_Source\PSoC4/Timer_1.c **** void Timer_1_SetPWMStopOnKill(uint32 stopOnKillEnable)
 520:Generated_Source\PSoC4/Timer_1.c **** {
 521:Generated_Source\PSoC4/Timer_1.c ****     uint8 enableInterrupts;
 522:Generated_Source\PSoC4/Timer_1.c **** 
 523:Generated_Source\PSoC4/Timer_1.c ****     enableInterrupts = CyEnterCriticalSection();
ARM GAS  C:\Users\young\AppData\Local\Temp\cc3sLV9e.s 			page 11


 524:Generated_Source\PSoC4/Timer_1.c **** 
 525:Generated_Source\PSoC4/Timer_1.c ****     Timer_1_CONTROL_REG &= (uint32)~Timer_1_PWM_STOP_KILL_MASK;
 526:Generated_Source\PSoC4/Timer_1.c ****     Timer_1_CONTROL_REG |= ((uint32)((stopOnKillEnable & Timer_1_1BIT_MASK)  <<
 527:Generated_Source\PSoC4/Timer_1.c ****                                                          Timer_1_PWM_STOP_KILL_SHIFT));
 528:Generated_Source\PSoC4/Timer_1.c **** 
 529:Generated_Source\PSoC4/Timer_1.c ****     CyExitCriticalSection(enableInterrupts);
 530:Generated_Source\PSoC4/Timer_1.c **** }
 531:Generated_Source\PSoC4/Timer_1.c **** 
 532:Generated_Source\PSoC4/Timer_1.c **** 
 533:Generated_Source\PSoC4/Timer_1.c **** /*******************************************************************************
 534:Generated_Source\PSoC4/Timer_1.c **** * Function Name: Timer_1_SetPWMDeadTime
 535:Generated_Source\PSoC4/Timer_1.c **** ********************************************************************************
 536:Generated_Source\PSoC4/Timer_1.c **** *
 537:Generated_Source\PSoC4/Timer_1.c **** * Summary:
 538:Generated_Source\PSoC4/Timer_1.c **** *  Writes the dead time control value.  This value delays the rising edge of
 539:Generated_Source\PSoC4/Timer_1.c **** *  both the line and line_n signals the designated number of cycles resulting
 540:Generated_Source\PSoC4/Timer_1.c **** *  in both signals being inactive for that many cycles.  This functionality is
 541:Generated_Source\PSoC4/Timer_1.c **** *  only applicable to the PWM in the dead time mode.
 542:Generated_Source\PSoC4/Timer_1.c **** 
 543:Generated_Source\PSoC4/Timer_1.c **** *
 544:Generated_Source\PSoC4/Timer_1.c **** * Parameters:
 545:Generated_Source\PSoC4/Timer_1.c **** *  Dead time to insert
 546:Generated_Source\PSoC4/Timer_1.c **** *   Values: 0 to 255
 547:Generated_Source\PSoC4/Timer_1.c **** *
 548:Generated_Source\PSoC4/Timer_1.c **** * Return:
 549:Generated_Source\PSoC4/Timer_1.c **** *  None
 550:Generated_Source\PSoC4/Timer_1.c **** *
 551:Generated_Source\PSoC4/Timer_1.c **** *******************************************************************************/
 552:Generated_Source\PSoC4/Timer_1.c **** void Timer_1_SetPWMDeadTime(uint32 deadTime)
 553:Generated_Source\PSoC4/Timer_1.c **** {
 554:Generated_Source\PSoC4/Timer_1.c ****     uint8 enableInterrupts;
 555:Generated_Source\PSoC4/Timer_1.c **** 
 556:Generated_Source\PSoC4/Timer_1.c ****     enableInterrupts = CyEnterCriticalSection();
 557:Generated_Source\PSoC4/Timer_1.c **** 
 558:Generated_Source\PSoC4/Timer_1.c ****     Timer_1_CONTROL_REG &= (uint32)~Timer_1_PRESCALER_MASK;
 559:Generated_Source\PSoC4/Timer_1.c ****     Timer_1_CONTROL_REG |= ((uint32)((deadTime & Timer_1_8BIT_MASK) <<
 560:Generated_Source\PSoC4/Timer_1.c ****                                                           Timer_1_PRESCALER_SHIFT));
 561:Generated_Source\PSoC4/Timer_1.c **** 
 562:Generated_Source\PSoC4/Timer_1.c ****     CyExitCriticalSection(enableInterrupts);
 563:Generated_Source\PSoC4/Timer_1.c **** }
 564:Generated_Source\PSoC4/Timer_1.c **** 
 565:Generated_Source\PSoC4/Timer_1.c **** 
 566:Generated_Source\PSoC4/Timer_1.c **** /*******************************************************************************
 567:Generated_Source\PSoC4/Timer_1.c **** * Function Name: Timer_1_SetPWMInvert
 568:Generated_Source\PSoC4/Timer_1.c **** ********************************************************************************
 569:Generated_Source\PSoC4/Timer_1.c **** *
 570:Generated_Source\PSoC4/Timer_1.c **** * Summary:
 571:Generated_Source\PSoC4/Timer_1.c **** *  Writes the bits that control whether the line and line_n outputs are
 572:Generated_Source\PSoC4/Timer_1.c **** *  inverted from their normal output values.  This functionality is only
 573:Generated_Source\PSoC4/Timer_1.c **** *  applicable to the three PWM modes.
 574:Generated_Source\PSoC4/Timer_1.c **** *
 575:Generated_Source\PSoC4/Timer_1.c **** * Parameters:
 576:Generated_Source\PSoC4/Timer_1.c **** *  mask: Mask of outputs to invert.
 577:Generated_Source\PSoC4/Timer_1.c **** *   Values:
 578:Generated_Source\PSoC4/Timer_1.c **** *         - Timer_1_INVERT_LINE   - Inverts the line output
 579:Generated_Source\PSoC4/Timer_1.c **** *         - Timer_1_INVERT_LINE_N - Inverts the line_n output
 580:Generated_Source\PSoC4/Timer_1.c **** *
ARM GAS  C:\Users\young\AppData\Local\Temp\cc3sLV9e.s 			page 12


 581:Generated_Source\PSoC4/Timer_1.c **** * Return:
 582:Generated_Source\PSoC4/Timer_1.c **** *  None
 583:Generated_Source\PSoC4/Timer_1.c **** *
 584:Generated_Source\PSoC4/Timer_1.c **** *******************************************************************************/
 585:Generated_Source\PSoC4/Timer_1.c **** void Timer_1_SetPWMInvert(uint32 mask)
 586:Generated_Source\PSoC4/Timer_1.c **** {
 587:Generated_Source\PSoC4/Timer_1.c ****     uint8 enableInterrupts;
 588:Generated_Source\PSoC4/Timer_1.c **** 
 589:Generated_Source\PSoC4/Timer_1.c ****     enableInterrupts = CyEnterCriticalSection();
 590:Generated_Source\PSoC4/Timer_1.c **** 
 591:Generated_Source\PSoC4/Timer_1.c ****     Timer_1_CONTROL_REG &= (uint32)~Timer_1_INV_OUT_MASK;
 592:Generated_Source\PSoC4/Timer_1.c ****     Timer_1_CONTROL_REG |= mask;
 593:Generated_Source\PSoC4/Timer_1.c **** 
 594:Generated_Source\PSoC4/Timer_1.c ****     CyExitCriticalSection(enableInterrupts);
 595:Generated_Source\PSoC4/Timer_1.c **** }
 596:Generated_Source\PSoC4/Timer_1.c **** 
 597:Generated_Source\PSoC4/Timer_1.c **** 
 598:Generated_Source\PSoC4/Timer_1.c **** 
 599:Generated_Source\PSoC4/Timer_1.c **** /*******************************************************************************
 600:Generated_Source\PSoC4/Timer_1.c **** * Function Name: Timer_1_WriteCounter
 601:Generated_Source\PSoC4/Timer_1.c **** ********************************************************************************
 602:Generated_Source\PSoC4/Timer_1.c **** *
 603:Generated_Source\PSoC4/Timer_1.c **** * Summary:
 604:Generated_Source\PSoC4/Timer_1.c **** *  Writes a new 16bit counter value directly into the counter register, thus
 605:Generated_Source\PSoC4/Timer_1.c **** *  setting the counter (not the period) to the value written. It is not
 606:Generated_Source\PSoC4/Timer_1.c **** *  advised to write to this field when the counter is running.
 607:Generated_Source\PSoC4/Timer_1.c **** *
 608:Generated_Source\PSoC4/Timer_1.c **** * Parameters:
 609:Generated_Source\PSoC4/Timer_1.c **** *  count: value to write
 610:Generated_Source\PSoC4/Timer_1.c **** *
 611:Generated_Source\PSoC4/Timer_1.c **** * Return:
 612:Generated_Source\PSoC4/Timer_1.c **** *  None
 613:Generated_Source\PSoC4/Timer_1.c **** *
 614:Generated_Source\PSoC4/Timer_1.c **** *******************************************************************************/
 615:Generated_Source\PSoC4/Timer_1.c **** void Timer_1_WriteCounter(uint32 count)
 616:Generated_Source\PSoC4/Timer_1.c **** {
 617:Generated_Source\PSoC4/Timer_1.c ****     Timer_1_COUNTER_REG = (count & Timer_1_16BIT_MASK);
 618:Generated_Source\PSoC4/Timer_1.c **** }
 619:Generated_Source\PSoC4/Timer_1.c **** 
 620:Generated_Source\PSoC4/Timer_1.c **** 
 621:Generated_Source\PSoC4/Timer_1.c **** /*******************************************************************************
 622:Generated_Source\PSoC4/Timer_1.c **** * Function Name: Timer_1_ReadCounter
 623:Generated_Source\PSoC4/Timer_1.c **** ********************************************************************************
 624:Generated_Source\PSoC4/Timer_1.c **** *
 625:Generated_Source\PSoC4/Timer_1.c **** * Summary:
 626:Generated_Source\PSoC4/Timer_1.c **** *  Reads the current counter value.
 627:Generated_Source\PSoC4/Timer_1.c **** *
 628:Generated_Source\PSoC4/Timer_1.c **** * Parameters:
 629:Generated_Source\PSoC4/Timer_1.c **** *  None
 630:Generated_Source\PSoC4/Timer_1.c **** *
 631:Generated_Source\PSoC4/Timer_1.c **** * Return:
 632:Generated_Source\PSoC4/Timer_1.c **** *  Current counter value
 633:Generated_Source\PSoC4/Timer_1.c **** *
 634:Generated_Source\PSoC4/Timer_1.c **** *******************************************************************************/
 635:Generated_Source\PSoC4/Timer_1.c **** uint32 Timer_1_ReadCounter(void)
 636:Generated_Source\PSoC4/Timer_1.c **** {
 637:Generated_Source\PSoC4/Timer_1.c ****     return (Timer_1_COUNTER_REG & Timer_1_16BIT_MASK);
ARM GAS  C:\Users\young\AppData\Local\Temp\cc3sLV9e.s 			page 13


 638:Generated_Source\PSoC4/Timer_1.c **** }
 639:Generated_Source\PSoC4/Timer_1.c **** 
 640:Generated_Source\PSoC4/Timer_1.c **** 
 641:Generated_Source\PSoC4/Timer_1.c **** /*******************************************************************************
 642:Generated_Source\PSoC4/Timer_1.c **** * Function Name: Timer_1_SetCounterMode
 643:Generated_Source\PSoC4/Timer_1.c **** ********************************************************************************
 644:Generated_Source\PSoC4/Timer_1.c **** *
 645:Generated_Source\PSoC4/Timer_1.c **** * Summary:
 646:Generated_Source\PSoC4/Timer_1.c **** *  Sets the counter mode.  Applicable to all modes except Quadrature Decoder
 647:Generated_Source\PSoC4/Timer_1.c **** *  and the PWM with a pseudo random output.
 648:Generated_Source\PSoC4/Timer_1.c **** *
 649:Generated_Source\PSoC4/Timer_1.c **** * Parameters:
 650:Generated_Source\PSoC4/Timer_1.c **** *  counterMode: Enumerated counter type values
 651:Generated_Source\PSoC4/Timer_1.c **** *   Values:
 652:Generated_Source\PSoC4/Timer_1.c **** *     - Timer_1_COUNT_UP       - Counts up
 653:Generated_Source\PSoC4/Timer_1.c **** *     - Timer_1_COUNT_DOWN     - Counts down
 654:Generated_Source\PSoC4/Timer_1.c **** *     - Timer_1_COUNT_UPDOWN0  - Counts up and down. Terminal count
 655:Generated_Source\PSoC4/Timer_1.c **** *                                         generated when counter reaches 0
 656:Generated_Source\PSoC4/Timer_1.c **** *     - Timer_1_COUNT_UPDOWN1  - Counts up and down. Terminal count
 657:Generated_Source\PSoC4/Timer_1.c **** *                                         generated both when counter reaches 0
 658:Generated_Source\PSoC4/Timer_1.c **** *                                         and period
 659:Generated_Source\PSoC4/Timer_1.c **** *
 660:Generated_Source\PSoC4/Timer_1.c **** * Return:
 661:Generated_Source\PSoC4/Timer_1.c **** *  None
 662:Generated_Source\PSoC4/Timer_1.c **** *
 663:Generated_Source\PSoC4/Timer_1.c **** *******************************************************************************/
 664:Generated_Source\PSoC4/Timer_1.c **** void Timer_1_SetCounterMode(uint32 counterMode)
 665:Generated_Source\PSoC4/Timer_1.c **** {
 666:Generated_Source\PSoC4/Timer_1.c ****     uint8 enableInterrupts;
 667:Generated_Source\PSoC4/Timer_1.c **** 
 668:Generated_Source\PSoC4/Timer_1.c ****     enableInterrupts = CyEnterCriticalSection();
 669:Generated_Source\PSoC4/Timer_1.c **** 
 670:Generated_Source\PSoC4/Timer_1.c ****     Timer_1_CONTROL_REG &= (uint32)~Timer_1_UPDOWN_MASK;
 671:Generated_Source\PSoC4/Timer_1.c ****     Timer_1_CONTROL_REG |= counterMode;
 672:Generated_Source\PSoC4/Timer_1.c **** 
 673:Generated_Source\PSoC4/Timer_1.c ****     CyExitCriticalSection(enableInterrupts);
 674:Generated_Source\PSoC4/Timer_1.c **** }
 675:Generated_Source\PSoC4/Timer_1.c **** 
 676:Generated_Source\PSoC4/Timer_1.c **** 
 677:Generated_Source\PSoC4/Timer_1.c **** /*******************************************************************************
 678:Generated_Source\PSoC4/Timer_1.c **** * Function Name: Timer_1_WritePeriod
 679:Generated_Source\PSoC4/Timer_1.c **** ********************************************************************************
 680:Generated_Source\PSoC4/Timer_1.c **** *
 681:Generated_Source\PSoC4/Timer_1.c **** * Summary:
 682:Generated_Source\PSoC4/Timer_1.c **** *  Writes the 16 bit period register with the new period value.
 683:Generated_Source\PSoC4/Timer_1.c **** *  To cause the counter to count for N cycles this register should be written
 684:Generated_Source\PSoC4/Timer_1.c **** *  with N-1 (counts from 0 to period inclusive).
 685:Generated_Source\PSoC4/Timer_1.c **** *
 686:Generated_Source\PSoC4/Timer_1.c **** * Parameters:
 687:Generated_Source\PSoC4/Timer_1.c **** *  period: Period value
 688:Generated_Source\PSoC4/Timer_1.c **** *
 689:Generated_Source\PSoC4/Timer_1.c **** * Return:
 690:Generated_Source\PSoC4/Timer_1.c **** *  None
 691:Generated_Source\PSoC4/Timer_1.c **** *
 692:Generated_Source\PSoC4/Timer_1.c **** *******************************************************************************/
 693:Generated_Source\PSoC4/Timer_1.c **** void Timer_1_WritePeriod(uint32 period)
 694:Generated_Source\PSoC4/Timer_1.c **** {
ARM GAS  C:\Users\young\AppData\Local\Temp\cc3sLV9e.s 			page 14


 695:Generated_Source\PSoC4/Timer_1.c ****     Timer_1_PERIOD_REG = (period & Timer_1_16BIT_MASK);
 696:Generated_Source\PSoC4/Timer_1.c **** }
 697:Generated_Source\PSoC4/Timer_1.c **** 
 698:Generated_Source\PSoC4/Timer_1.c **** 
 699:Generated_Source\PSoC4/Timer_1.c **** /*******************************************************************************
 700:Generated_Source\PSoC4/Timer_1.c **** * Function Name: Timer_1_ReadPeriod
 701:Generated_Source\PSoC4/Timer_1.c **** ********************************************************************************
 702:Generated_Source\PSoC4/Timer_1.c **** *
 703:Generated_Source\PSoC4/Timer_1.c **** * Summary:
 704:Generated_Source\PSoC4/Timer_1.c **** *  Reads the 16 bit period register.
 705:Generated_Source\PSoC4/Timer_1.c **** *
 706:Generated_Source\PSoC4/Timer_1.c **** * Parameters:
 707:Generated_Source\PSoC4/Timer_1.c **** *  None
 708:Generated_Source\PSoC4/Timer_1.c **** *
 709:Generated_Source\PSoC4/Timer_1.c **** * Return:
 710:Generated_Source\PSoC4/Timer_1.c **** *  Period value
 711:Generated_Source\PSoC4/Timer_1.c **** *
 712:Generated_Source\PSoC4/Timer_1.c **** *******************************************************************************/
 713:Generated_Source\PSoC4/Timer_1.c **** uint32 Timer_1_ReadPeriod(void)
 714:Generated_Source\PSoC4/Timer_1.c **** {
 715:Generated_Source\PSoC4/Timer_1.c ****     return (Timer_1_PERIOD_REG & Timer_1_16BIT_MASK);
 716:Generated_Source\PSoC4/Timer_1.c **** }
 717:Generated_Source\PSoC4/Timer_1.c **** 
 718:Generated_Source\PSoC4/Timer_1.c **** 
 719:Generated_Source\PSoC4/Timer_1.c **** /*******************************************************************************
 720:Generated_Source\PSoC4/Timer_1.c **** * Function Name: Timer_1_SetCompareSwap
 721:Generated_Source\PSoC4/Timer_1.c **** ********************************************************************************
 722:Generated_Source\PSoC4/Timer_1.c **** *
 723:Generated_Source\PSoC4/Timer_1.c **** * Summary:
 724:Generated_Source\PSoC4/Timer_1.c **** *  Writes the register that controls whether the compare registers are
 725:Generated_Source\PSoC4/Timer_1.c **** *  swapped. When enabled in the Timer/Counter mode(without capture) the swap
 726:Generated_Source\PSoC4/Timer_1.c **** *  occurs at a TC event. In the PWM mode the swap occurs at the next TC event
 727:Generated_Source\PSoC4/Timer_1.c **** *  following a hardware switch event.
 728:Generated_Source\PSoC4/Timer_1.c **** *
 729:Generated_Source\PSoC4/Timer_1.c **** * Parameters:
 730:Generated_Source\PSoC4/Timer_1.c **** *  swapEnable
 731:Generated_Source\PSoC4/Timer_1.c **** *   Values:
 732:Generated_Source\PSoC4/Timer_1.c **** *     - 0 - Disable swap
 733:Generated_Source\PSoC4/Timer_1.c **** *     - 1 - Enable swap
 734:Generated_Source\PSoC4/Timer_1.c **** *
 735:Generated_Source\PSoC4/Timer_1.c **** * Return:
 736:Generated_Source\PSoC4/Timer_1.c **** *  None
 737:Generated_Source\PSoC4/Timer_1.c **** *
 738:Generated_Source\PSoC4/Timer_1.c **** *******************************************************************************/
 739:Generated_Source\PSoC4/Timer_1.c **** void Timer_1_SetCompareSwap(uint32 swapEnable)
 740:Generated_Source\PSoC4/Timer_1.c **** {
 741:Generated_Source\PSoC4/Timer_1.c ****     uint8 enableInterrupts;
 742:Generated_Source\PSoC4/Timer_1.c **** 
 743:Generated_Source\PSoC4/Timer_1.c ****     enableInterrupts = CyEnterCriticalSection();
 744:Generated_Source\PSoC4/Timer_1.c **** 
 745:Generated_Source\PSoC4/Timer_1.c ****     Timer_1_CONTROL_REG &= (uint32)~Timer_1_RELOAD_CC_MASK;
 746:Generated_Source\PSoC4/Timer_1.c ****     Timer_1_CONTROL_REG |= (swapEnable & Timer_1_1BIT_MASK);
 747:Generated_Source\PSoC4/Timer_1.c **** 
 748:Generated_Source\PSoC4/Timer_1.c ****     CyExitCriticalSection(enableInterrupts);
 749:Generated_Source\PSoC4/Timer_1.c **** }
 750:Generated_Source\PSoC4/Timer_1.c **** 
 751:Generated_Source\PSoC4/Timer_1.c **** 
ARM GAS  C:\Users\young\AppData\Local\Temp\cc3sLV9e.s 			page 15


 752:Generated_Source\PSoC4/Timer_1.c **** /*******************************************************************************
 753:Generated_Source\PSoC4/Timer_1.c **** * Function Name: Timer_1_WritePeriodBuf
 754:Generated_Source\PSoC4/Timer_1.c **** ********************************************************************************
 755:Generated_Source\PSoC4/Timer_1.c **** *
 756:Generated_Source\PSoC4/Timer_1.c **** * Summary:
 757:Generated_Source\PSoC4/Timer_1.c **** *  Writes the 16 bit period buf register with the new period value.
 758:Generated_Source\PSoC4/Timer_1.c **** *
 759:Generated_Source\PSoC4/Timer_1.c **** * Parameters:
 760:Generated_Source\PSoC4/Timer_1.c **** *  periodBuf: Period value
 761:Generated_Source\PSoC4/Timer_1.c **** *
 762:Generated_Source\PSoC4/Timer_1.c **** * Return:
 763:Generated_Source\PSoC4/Timer_1.c **** *  None
 764:Generated_Source\PSoC4/Timer_1.c **** *
 765:Generated_Source\PSoC4/Timer_1.c **** *******************************************************************************/
 766:Generated_Source\PSoC4/Timer_1.c **** void Timer_1_WritePeriodBuf(uint32 periodBuf)
 767:Generated_Source\PSoC4/Timer_1.c **** {
 768:Generated_Source\PSoC4/Timer_1.c ****     Timer_1_PERIOD_BUF_REG = (periodBuf & Timer_1_16BIT_MASK);
 769:Generated_Source\PSoC4/Timer_1.c **** }
 770:Generated_Source\PSoC4/Timer_1.c **** 
 771:Generated_Source\PSoC4/Timer_1.c **** 
 772:Generated_Source\PSoC4/Timer_1.c **** /*******************************************************************************
 773:Generated_Source\PSoC4/Timer_1.c **** * Function Name: Timer_1_ReadPeriodBuf
 774:Generated_Source\PSoC4/Timer_1.c **** ********************************************************************************
 775:Generated_Source\PSoC4/Timer_1.c **** *
 776:Generated_Source\PSoC4/Timer_1.c **** * Summary:
 777:Generated_Source\PSoC4/Timer_1.c **** *  Reads the 16 bit period buf register.
 778:Generated_Source\PSoC4/Timer_1.c **** *
 779:Generated_Source\PSoC4/Timer_1.c **** * Parameters:
 780:Generated_Source\PSoC4/Timer_1.c **** *  None
 781:Generated_Source\PSoC4/Timer_1.c **** *
 782:Generated_Source\PSoC4/Timer_1.c **** * Return:
 783:Generated_Source\PSoC4/Timer_1.c **** *  Period value
 784:Generated_Source\PSoC4/Timer_1.c **** *
 785:Generated_Source\PSoC4/Timer_1.c **** *******************************************************************************/
 786:Generated_Source\PSoC4/Timer_1.c **** uint32 Timer_1_ReadPeriodBuf(void)
 787:Generated_Source\PSoC4/Timer_1.c **** {
 788:Generated_Source\PSoC4/Timer_1.c ****     return (Timer_1_PERIOD_BUF_REG & Timer_1_16BIT_MASK);
 789:Generated_Source\PSoC4/Timer_1.c **** }
 790:Generated_Source\PSoC4/Timer_1.c **** 
 791:Generated_Source\PSoC4/Timer_1.c **** 
 792:Generated_Source\PSoC4/Timer_1.c **** /*******************************************************************************
 793:Generated_Source\PSoC4/Timer_1.c **** * Function Name: Timer_1_SetPeriodSwap
 794:Generated_Source\PSoC4/Timer_1.c **** ********************************************************************************
 795:Generated_Source\PSoC4/Timer_1.c **** *
 796:Generated_Source\PSoC4/Timer_1.c **** * Summary:
 797:Generated_Source\PSoC4/Timer_1.c **** *  Writes the register that controls whether the period registers are
 798:Generated_Source\PSoC4/Timer_1.c **** *  swapped. When enabled in Timer/Counter mode the swap occurs at a TC event.
 799:Generated_Source\PSoC4/Timer_1.c **** *  In the PWM mode the swap occurs at the next TC event following a hardware
 800:Generated_Source\PSoC4/Timer_1.c **** *  switch event.
 801:Generated_Source\PSoC4/Timer_1.c **** *
 802:Generated_Source\PSoC4/Timer_1.c **** * Parameters:
 803:Generated_Source\PSoC4/Timer_1.c **** *  swapEnable
 804:Generated_Source\PSoC4/Timer_1.c **** *   Values:
 805:Generated_Source\PSoC4/Timer_1.c **** *     - 0 - Disable swap
 806:Generated_Source\PSoC4/Timer_1.c **** *     - 1 - Enable swap
 807:Generated_Source\PSoC4/Timer_1.c **** *
 808:Generated_Source\PSoC4/Timer_1.c **** * Return:
ARM GAS  C:\Users\young\AppData\Local\Temp\cc3sLV9e.s 			page 16


 809:Generated_Source\PSoC4/Timer_1.c **** *  None
 810:Generated_Source\PSoC4/Timer_1.c **** *
 811:Generated_Source\PSoC4/Timer_1.c **** *******************************************************************************/
 812:Generated_Source\PSoC4/Timer_1.c **** void Timer_1_SetPeriodSwap(uint32 swapEnable)
 813:Generated_Source\PSoC4/Timer_1.c **** {
 814:Generated_Source\PSoC4/Timer_1.c ****     uint8 enableInterrupts;
 815:Generated_Source\PSoC4/Timer_1.c **** 
 816:Generated_Source\PSoC4/Timer_1.c ****     enableInterrupts = CyEnterCriticalSection();
 817:Generated_Source\PSoC4/Timer_1.c **** 
 818:Generated_Source\PSoC4/Timer_1.c ****     Timer_1_CONTROL_REG &= (uint32)~Timer_1_RELOAD_PERIOD_MASK;
 819:Generated_Source\PSoC4/Timer_1.c ****     Timer_1_CONTROL_REG |= ((uint32)((swapEnable & Timer_1_1BIT_MASK) <<
 820:Generated_Source\PSoC4/Timer_1.c ****                                                             Timer_1_RELOAD_PERIOD_SHIFT));
 821:Generated_Source\PSoC4/Timer_1.c **** 
 822:Generated_Source\PSoC4/Timer_1.c ****     CyExitCriticalSection(enableInterrupts);
 823:Generated_Source\PSoC4/Timer_1.c **** }
 824:Generated_Source\PSoC4/Timer_1.c **** 
 825:Generated_Source\PSoC4/Timer_1.c **** 
 826:Generated_Source\PSoC4/Timer_1.c **** /*******************************************************************************
 827:Generated_Source\PSoC4/Timer_1.c **** * Function Name: Timer_1_WriteCompare
 828:Generated_Source\PSoC4/Timer_1.c **** ********************************************************************************
 829:Generated_Source\PSoC4/Timer_1.c **** *
 830:Generated_Source\PSoC4/Timer_1.c **** * Summary:
 831:Generated_Source\PSoC4/Timer_1.c **** *  Writes the 16 bit compare register with the new compare value. Not
 832:Generated_Source\PSoC4/Timer_1.c **** *  applicable for Timer/Counter with Capture or in Quadrature Decoder modes.
 833:Generated_Source\PSoC4/Timer_1.c **** *
 834:Generated_Source\PSoC4/Timer_1.c **** * Parameters:
 835:Generated_Source\PSoC4/Timer_1.c **** *  compare: Compare value
 836:Generated_Source\PSoC4/Timer_1.c **** *
 837:Generated_Source\PSoC4/Timer_1.c **** * Return:
 838:Generated_Source\PSoC4/Timer_1.c **** *  None
 839:Generated_Source\PSoC4/Timer_1.c **** *
 840:Generated_Source\PSoC4/Timer_1.c **** * Note:
 841:Generated_Source\PSoC4/Timer_1.c **** *  It is not recommended to use the value equal to "0" or equal to 
 842:Generated_Source\PSoC4/Timer_1.c **** *  "period value" in Center or Asymmetric align PWM modes on the 
 843:Generated_Source\PSoC4/Timer_1.c **** *  PSoC 4100/PSoC 4200 devices.
 844:Generated_Source\PSoC4/Timer_1.c **** *  PSoC 4000 devices write the 16 bit compare register with the decremented 
 845:Generated_Source\PSoC4/Timer_1.c **** *  compare value in the Up counting mode (except 0x0u), and the incremented 
 846:Generated_Source\PSoC4/Timer_1.c **** *  compare value in the Down counting mode (except 0xFFFFu).
 847:Generated_Source\PSoC4/Timer_1.c **** *
 848:Generated_Source\PSoC4/Timer_1.c **** *******************************************************************************/
 849:Generated_Source\PSoC4/Timer_1.c **** void Timer_1_WriteCompare(uint32 compare)
 850:Generated_Source\PSoC4/Timer_1.c **** {
 851:Generated_Source\PSoC4/Timer_1.c ****     #if (Timer_1_CY_TCPWM_4000)
 852:Generated_Source\PSoC4/Timer_1.c ****         uint32 currentMode;
 853:Generated_Source\PSoC4/Timer_1.c ****     #endif /* (Timer_1_CY_TCPWM_4000) */
 854:Generated_Source\PSoC4/Timer_1.c **** 
 855:Generated_Source\PSoC4/Timer_1.c ****     #if (Timer_1_CY_TCPWM_4000)
 856:Generated_Source\PSoC4/Timer_1.c ****         currentMode = ((Timer_1_CONTROL_REG & Timer_1_UPDOWN_MASK) >> Timer_1_UPDOWN_SHIFT);
 857:Generated_Source\PSoC4/Timer_1.c **** 
 858:Generated_Source\PSoC4/Timer_1.c ****         if (((uint32)Timer_1__COUNT_DOWN == currentMode) && (0xFFFFu != compare))
 859:Generated_Source\PSoC4/Timer_1.c ****         {
 860:Generated_Source\PSoC4/Timer_1.c ****             compare++;
 861:Generated_Source\PSoC4/Timer_1.c ****         }
 862:Generated_Source\PSoC4/Timer_1.c ****         else if (((uint32)Timer_1__COUNT_UP == currentMode) && (0u != compare))
 863:Generated_Source\PSoC4/Timer_1.c ****         {
 864:Generated_Source\PSoC4/Timer_1.c ****             compare--;
 865:Generated_Source\PSoC4/Timer_1.c ****         }
ARM GAS  C:\Users\young\AppData\Local\Temp\cc3sLV9e.s 			page 17


 866:Generated_Source\PSoC4/Timer_1.c ****         else
 867:Generated_Source\PSoC4/Timer_1.c ****         {
 868:Generated_Source\PSoC4/Timer_1.c ****         }
 869:Generated_Source\PSoC4/Timer_1.c ****         
 870:Generated_Source\PSoC4/Timer_1.c ****     
 871:Generated_Source\PSoC4/Timer_1.c ****     #endif /* (Timer_1_CY_TCPWM_4000) */
 872:Generated_Source\PSoC4/Timer_1.c ****     
 873:Generated_Source\PSoC4/Timer_1.c ****     Timer_1_COMP_CAP_REG = (compare & Timer_1_16BIT_MASK);
 874:Generated_Source\PSoC4/Timer_1.c **** }
 875:Generated_Source\PSoC4/Timer_1.c **** 
 876:Generated_Source\PSoC4/Timer_1.c **** 
 877:Generated_Source\PSoC4/Timer_1.c **** /*******************************************************************************
 878:Generated_Source\PSoC4/Timer_1.c **** * Function Name: Timer_1_ReadCompare
 879:Generated_Source\PSoC4/Timer_1.c **** ********************************************************************************
 880:Generated_Source\PSoC4/Timer_1.c **** *
 881:Generated_Source\PSoC4/Timer_1.c **** * Summary:
 882:Generated_Source\PSoC4/Timer_1.c **** *  Reads the compare register. Not applicable for Timer/Counter with Capture
 883:Generated_Source\PSoC4/Timer_1.c **** *  or in Quadrature Decoder modes.
 884:Generated_Source\PSoC4/Timer_1.c **** *  PSoC 4000 devices read the incremented compare register value in the 
 885:Generated_Source\PSoC4/Timer_1.c **** *  Up counting mode (except 0xFFFFu), and the decremented value in the 
 886:Generated_Source\PSoC4/Timer_1.c **** *  Down counting mode (except 0x0u).
 887:Generated_Source\PSoC4/Timer_1.c **** *
 888:Generated_Source\PSoC4/Timer_1.c **** * Parameters:
 889:Generated_Source\PSoC4/Timer_1.c **** *  None
 890:Generated_Source\PSoC4/Timer_1.c **** *
 891:Generated_Source\PSoC4/Timer_1.c **** * Return:
 892:Generated_Source\PSoC4/Timer_1.c **** *  Compare value
 893:Generated_Source\PSoC4/Timer_1.c **** *
 894:Generated_Source\PSoC4/Timer_1.c **** * Note:
 895:Generated_Source\PSoC4/Timer_1.c **** *  PSoC 4000 devices read the incremented compare register value in the 
 896:Generated_Source\PSoC4/Timer_1.c **** *  Up counting mode (except 0xFFFFu), and the decremented value in the 
 897:Generated_Source\PSoC4/Timer_1.c **** *  Down counting mode (except 0x0u).
 898:Generated_Source\PSoC4/Timer_1.c **** *
 899:Generated_Source\PSoC4/Timer_1.c **** *******************************************************************************/
 900:Generated_Source\PSoC4/Timer_1.c **** uint32 Timer_1_ReadCompare(void)
 901:Generated_Source\PSoC4/Timer_1.c **** {
 902:Generated_Source\PSoC4/Timer_1.c ****     #if (Timer_1_CY_TCPWM_4000)
 903:Generated_Source\PSoC4/Timer_1.c ****         uint32 currentMode;
 904:Generated_Source\PSoC4/Timer_1.c ****         uint32 regVal;
 905:Generated_Source\PSoC4/Timer_1.c ****     #endif /* (Timer_1_CY_TCPWM_4000) */
 906:Generated_Source\PSoC4/Timer_1.c **** 
 907:Generated_Source\PSoC4/Timer_1.c ****     #if (Timer_1_CY_TCPWM_4000)
 908:Generated_Source\PSoC4/Timer_1.c ****         currentMode = ((Timer_1_CONTROL_REG & Timer_1_UPDOWN_MASK) >> Timer_1_UPDOWN_SHIFT);
 909:Generated_Source\PSoC4/Timer_1.c ****         
 910:Generated_Source\PSoC4/Timer_1.c ****         regVal = Timer_1_COMP_CAP_REG;
 911:Generated_Source\PSoC4/Timer_1.c ****         
 912:Generated_Source\PSoC4/Timer_1.c ****         if (((uint32)Timer_1__COUNT_DOWN == currentMode) && (0u != regVal))
 913:Generated_Source\PSoC4/Timer_1.c ****         {
 914:Generated_Source\PSoC4/Timer_1.c ****             regVal--;
 915:Generated_Source\PSoC4/Timer_1.c ****         }
 916:Generated_Source\PSoC4/Timer_1.c ****         else if (((uint32)Timer_1__COUNT_UP == currentMode) && (0xFFFFu != regVal))
 917:Generated_Source\PSoC4/Timer_1.c ****         {
 918:Generated_Source\PSoC4/Timer_1.c ****             regVal++;
 919:Generated_Source\PSoC4/Timer_1.c ****         }
 920:Generated_Source\PSoC4/Timer_1.c ****         else
 921:Generated_Source\PSoC4/Timer_1.c ****         {
 922:Generated_Source\PSoC4/Timer_1.c ****         }
ARM GAS  C:\Users\young\AppData\Local\Temp\cc3sLV9e.s 			page 18


 923:Generated_Source\PSoC4/Timer_1.c **** 
 924:Generated_Source\PSoC4/Timer_1.c ****         return (regVal & Timer_1_16BIT_MASK);
 925:Generated_Source\PSoC4/Timer_1.c ****     #else
 926:Generated_Source\PSoC4/Timer_1.c ****         return (Timer_1_COMP_CAP_REG & Timer_1_16BIT_MASK);
 927:Generated_Source\PSoC4/Timer_1.c ****     #endif /* (Timer_1_CY_TCPWM_4000) */
 928:Generated_Source\PSoC4/Timer_1.c **** }
 929:Generated_Source\PSoC4/Timer_1.c **** 
 930:Generated_Source\PSoC4/Timer_1.c **** 
 931:Generated_Source\PSoC4/Timer_1.c **** /*******************************************************************************
 932:Generated_Source\PSoC4/Timer_1.c **** * Function Name: Timer_1_WriteCompareBuf
 933:Generated_Source\PSoC4/Timer_1.c **** ********************************************************************************
 934:Generated_Source\PSoC4/Timer_1.c **** *
 935:Generated_Source\PSoC4/Timer_1.c **** * Summary:
 936:Generated_Source\PSoC4/Timer_1.c **** *  Writes the 16 bit compare buffer register with the new compare value. Not
 937:Generated_Source\PSoC4/Timer_1.c **** *  applicable for Timer/Counter with Capture or in Quadrature Decoder modes.
 938:Generated_Source\PSoC4/Timer_1.c **** *
 939:Generated_Source\PSoC4/Timer_1.c **** * Parameters:
 940:Generated_Source\PSoC4/Timer_1.c **** *  compareBuf: Compare value
 941:Generated_Source\PSoC4/Timer_1.c **** *
 942:Generated_Source\PSoC4/Timer_1.c **** * Return:
 943:Generated_Source\PSoC4/Timer_1.c **** *  None
 944:Generated_Source\PSoC4/Timer_1.c **** *
 945:Generated_Source\PSoC4/Timer_1.c **** * Note:
 946:Generated_Source\PSoC4/Timer_1.c **** *  It is not recommended to use the value equal to "0" or equal to 
 947:Generated_Source\PSoC4/Timer_1.c **** *  "period value" in Center or Asymmetric align PWM modes on the 
 948:Generated_Source\PSoC4/Timer_1.c **** *  PSoC 4100/PSoC 4200 devices.
 949:Generated_Source\PSoC4/Timer_1.c **** *  PSoC 4000 devices write the 16 bit compare register with the decremented 
 950:Generated_Source\PSoC4/Timer_1.c **** *  compare value in the Up counting mode (except 0x0u), and the incremented 
 951:Generated_Source\PSoC4/Timer_1.c **** *  compare value in the Down counting mode (except 0xFFFFu).
 952:Generated_Source\PSoC4/Timer_1.c **** *
 953:Generated_Source\PSoC4/Timer_1.c **** *******************************************************************************/
 954:Generated_Source\PSoC4/Timer_1.c **** void Timer_1_WriteCompareBuf(uint32 compareBuf)
 955:Generated_Source\PSoC4/Timer_1.c **** {
 956:Generated_Source\PSoC4/Timer_1.c ****     #if (Timer_1_CY_TCPWM_4000)
 957:Generated_Source\PSoC4/Timer_1.c ****         uint32 currentMode;
 958:Generated_Source\PSoC4/Timer_1.c ****     #endif /* (Timer_1_CY_TCPWM_4000) */
 959:Generated_Source\PSoC4/Timer_1.c **** 
 960:Generated_Source\PSoC4/Timer_1.c ****     #if (Timer_1_CY_TCPWM_4000)
 961:Generated_Source\PSoC4/Timer_1.c ****         currentMode = ((Timer_1_CONTROL_REG & Timer_1_UPDOWN_MASK) >> Timer_1_UPDOWN_SHIFT);
 962:Generated_Source\PSoC4/Timer_1.c **** 
 963:Generated_Source\PSoC4/Timer_1.c ****         if (((uint32)Timer_1__COUNT_DOWN == currentMode) && (0xFFFFu != compareBuf))
 964:Generated_Source\PSoC4/Timer_1.c ****         {
 965:Generated_Source\PSoC4/Timer_1.c ****             compareBuf++;
 966:Generated_Source\PSoC4/Timer_1.c ****         }
 967:Generated_Source\PSoC4/Timer_1.c ****         else if (((uint32)Timer_1__COUNT_UP == currentMode) && (0u != compareBuf))
 968:Generated_Source\PSoC4/Timer_1.c ****         {
 969:Generated_Source\PSoC4/Timer_1.c ****             compareBuf --;
 970:Generated_Source\PSoC4/Timer_1.c ****         }
 971:Generated_Source\PSoC4/Timer_1.c ****         else
 972:Generated_Source\PSoC4/Timer_1.c ****         {
 973:Generated_Source\PSoC4/Timer_1.c ****         }
 974:Generated_Source\PSoC4/Timer_1.c ****     #endif /* (Timer_1_CY_TCPWM_4000) */
 975:Generated_Source\PSoC4/Timer_1.c ****     
 976:Generated_Source\PSoC4/Timer_1.c ****     Timer_1_COMP_CAP_BUF_REG = (compareBuf & Timer_1_16BIT_MASK);
 977:Generated_Source\PSoC4/Timer_1.c **** }
 978:Generated_Source\PSoC4/Timer_1.c **** 
 979:Generated_Source\PSoC4/Timer_1.c **** 
ARM GAS  C:\Users\young\AppData\Local\Temp\cc3sLV9e.s 			page 19


 980:Generated_Source\PSoC4/Timer_1.c **** /*******************************************************************************
 981:Generated_Source\PSoC4/Timer_1.c **** * Function Name: Timer_1_ReadCompareBuf
 982:Generated_Source\PSoC4/Timer_1.c **** ********************************************************************************
 983:Generated_Source\PSoC4/Timer_1.c **** *
 984:Generated_Source\PSoC4/Timer_1.c **** * Summary:
 985:Generated_Source\PSoC4/Timer_1.c **** *  Reads the compare buffer register. Not applicable for Timer/Counter with
 986:Generated_Source\PSoC4/Timer_1.c **** *  Capture or in Quadrature Decoder modes.
 987:Generated_Source\PSoC4/Timer_1.c **** *
 988:Generated_Source\PSoC4/Timer_1.c **** * Parameters:
 989:Generated_Source\PSoC4/Timer_1.c **** *  None
 990:Generated_Source\PSoC4/Timer_1.c **** *
 991:Generated_Source\PSoC4/Timer_1.c **** * Return:
 992:Generated_Source\PSoC4/Timer_1.c **** *  Compare buffer value
 993:Generated_Source\PSoC4/Timer_1.c **** *
 994:Generated_Source\PSoC4/Timer_1.c **** * Note:
 995:Generated_Source\PSoC4/Timer_1.c **** *  PSoC 4000 devices read the incremented compare register value in the 
 996:Generated_Source\PSoC4/Timer_1.c **** *  Up counting mode (except 0xFFFFu), and the decremented value in the 
 997:Generated_Source\PSoC4/Timer_1.c **** *  Down counting mode (except 0x0u).
 998:Generated_Source\PSoC4/Timer_1.c **** *
 999:Generated_Source\PSoC4/Timer_1.c **** *******************************************************************************/
1000:Generated_Source\PSoC4/Timer_1.c **** uint32 Timer_1_ReadCompareBuf(void)
1001:Generated_Source\PSoC4/Timer_1.c **** {
1002:Generated_Source\PSoC4/Timer_1.c ****     #if (Timer_1_CY_TCPWM_4000)
1003:Generated_Source\PSoC4/Timer_1.c ****         uint32 currentMode;
1004:Generated_Source\PSoC4/Timer_1.c ****         uint32 regVal;
1005:Generated_Source\PSoC4/Timer_1.c ****     #endif /* (Timer_1_CY_TCPWM_4000) */
1006:Generated_Source\PSoC4/Timer_1.c **** 
1007:Generated_Source\PSoC4/Timer_1.c ****     #if (Timer_1_CY_TCPWM_4000)
1008:Generated_Source\PSoC4/Timer_1.c ****         currentMode = ((Timer_1_CONTROL_REG & Timer_1_UPDOWN_MASK) >> Timer_1_UPDOWN_SHIFT);
1009:Generated_Source\PSoC4/Timer_1.c **** 
1010:Generated_Source\PSoC4/Timer_1.c ****         regVal = Timer_1_COMP_CAP_BUF_REG;
1011:Generated_Source\PSoC4/Timer_1.c ****         
1012:Generated_Source\PSoC4/Timer_1.c ****         if (((uint32)Timer_1__COUNT_DOWN == currentMode) && (0u != regVal))
1013:Generated_Source\PSoC4/Timer_1.c ****         {
1014:Generated_Source\PSoC4/Timer_1.c ****             regVal--;
1015:Generated_Source\PSoC4/Timer_1.c ****         }
1016:Generated_Source\PSoC4/Timer_1.c ****         else if (((uint32)Timer_1__COUNT_UP == currentMode) && (0xFFFFu != regVal))
1017:Generated_Source\PSoC4/Timer_1.c ****         {
1018:Generated_Source\PSoC4/Timer_1.c ****             regVal++;
1019:Generated_Source\PSoC4/Timer_1.c ****         }
1020:Generated_Source\PSoC4/Timer_1.c ****         else
1021:Generated_Source\PSoC4/Timer_1.c ****         {
1022:Generated_Source\PSoC4/Timer_1.c ****         }
1023:Generated_Source\PSoC4/Timer_1.c **** 
1024:Generated_Source\PSoC4/Timer_1.c ****         return (regVal & Timer_1_16BIT_MASK);
1025:Generated_Source\PSoC4/Timer_1.c ****     #else
1026:Generated_Source\PSoC4/Timer_1.c ****         return (Timer_1_COMP_CAP_BUF_REG & Timer_1_16BIT_MASK);
1027:Generated_Source\PSoC4/Timer_1.c ****     #endif /* (Timer_1_CY_TCPWM_4000) */
1028:Generated_Source\PSoC4/Timer_1.c **** }
1029:Generated_Source\PSoC4/Timer_1.c **** 
1030:Generated_Source\PSoC4/Timer_1.c **** 
1031:Generated_Source\PSoC4/Timer_1.c **** /*******************************************************************************
1032:Generated_Source\PSoC4/Timer_1.c **** * Function Name: Timer_1_ReadCapture
1033:Generated_Source\PSoC4/Timer_1.c **** ********************************************************************************
1034:Generated_Source\PSoC4/Timer_1.c **** *
1035:Generated_Source\PSoC4/Timer_1.c **** * Summary:
1036:Generated_Source\PSoC4/Timer_1.c **** *  Reads the captured counter value. This API is applicable only for
ARM GAS  C:\Users\young\AppData\Local\Temp\cc3sLV9e.s 			page 20


1037:Generated_Source\PSoC4/Timer_1.c **** *  Timer/Counter with the capture mode and Quadrature Decoder modes.
1038:Generated_Source\PSoC4/Timer_1.c **** *
1039:Generated_Source\PSoC4/Timer_1.c **** * Parameters:
1040:Generated_Source\PSoC4/Timer_1.c **** *  None
1041:Generated_Source\PSoC4/Timer_1.c **** *
1042:Generated_Source\PSoC4/Timer_1.c **** * Return:
1043:Generated_Source\PSoC4/Timer_1.c **** *  Capture value
1044:Generated_Source\PSoC4/Timer_1.c **** *
1045:Generated_Source\PSoC4/Timer_1.c **** *******************************************************************************/
1046:Generated_Source\PSoC4/Timer_1.c **** uint32 Timer_1_ReadCapture(void)
1047:Generated_Source\PSoC4/Timer_1.c **** {
1048:Generated_Source\PSoC4/Timer_1.c ****     return (Timer_1_COMP_CAP_REG & Timer_1_16BIT_MASK);
1049:Generated_Source\PSoC4/Timer_1.c **** }
1050:Generated_Source\PSoC4/Timer_1.c **** 
1051:Generated_Source\PSoC4/Timer_1.c **** 
1052:Generated_Source\PSoC4/Timer_1.c **** /*******************************************************************************
1053:Generated_Source\PSoC4/Timer_1.c **** * Function Name: Timer_1_ReadCaptureBuf
1054:Generated_Source\PSoC4/Timer_1.c **** ********************************************************************************
1055:Generated_Source\PSoC4/Timer_1.c **** *
1056:Generated_Source\PSoC4/Timer_1.c **** * Summary:
1057:Generated_Source\PSoC4/Timer_1.c **** *  Reads the capture buffer register. This API is applicable only for
1058:Generated_Source\PSoC4/Timer_1.c **** *  Timer/Counter with the capture mode and Quadrature Decoder modes.
1059:Generated_Source\PSoC4/Timer_1.c **** *
1060:Generated_Source\PSoC4/Timer_1.c **** * Parameters:
1061:Generated_Source\PSoC4/Timer_1.c **** *  None
1062:Generated_Source\PSoC4/Timer_1.c **** *
1063:Generated_Source\PSoC4/Timer_1.c **** * Return:
1064:Generated_Source\PSoC4/Timer_1.c **** *  Capture buffer value
1065:Generated_Source\PSoC4/Timer_1.c **** *
1066:Generated_Source\PSoC4/Timer_1.c **** *******************************************************************************/
1067:Generated_Source\PSoC4/Timer_1.c **** uint32 Timer_1_ReadCaptureBuf(void)
1068:Generated_Source\PSoC4/Timer_1.c **** {
1069:Generated_Source\PSoC4/Timer_1.c ****     return (Timer_1_COMP_CAP_BUF_REG & Timer_1_16BIT_MASK);
1070:Generated_Source\PSoC4/Timer_1.c **** }
1071:Generated_Source\PSoC4/Timer_1.c **** 
1072:Generated_Source\PSoC4/Timer_1.c **** 
1073:Generated_Source\PSoC4/Timer_1.c **** /*******************************************************************************
1074:Generated_Source\PSoC4/Timer_1.c **** * Function Name: Timer_1_SetCaptureMode
1075:Generated_Source\PSoC4/Timer_1.c **** ********************************************************************************
1076:Generated_Source\PSoC4/Timer_1.c **** *
1077:Generated_Source\PSoC4/Timer_1.c **** * Summary:
1078:Generated_Source\PSoC4/Timer_1.c **** *  Sets the capture trigger mode. For PWM mode this is the switch input.
1079:Generated_Source\PSoC4/Timer_1.c **** *  This input is not applicable to the Timer/Counter without Capture and
1080:Generated_Source\PSoC4/Timer_1.c **** *  Quadrature Decoder modes.
1081:Generated_Source\PSoC4/Timer_1.c **** *
1082:Generated_Source\PSoC4/Timer_1.c **** * Parameters:
1083:Generated_Source\PSoC4/Timer_1.c **** *  triggerMode: Enumerated trigger mode value
1084:Generated_Source\PSoC4/Timer_1.c **** *   Values:
1085:Generated_Source\PSoC4/Timer_1.c **** *     - Timer_1_TRIG_LEVEL     - Level
1086:Generated_Source\PSoC4/Timer_1.c **** *     - Timer_1_TRIG_RISING    - Rising edge
1087:Generated_Source\PSoC4/Timer_1.c **** *     - Timer_1_TRIG_FALLING   - Falling edge
1088:Generated_Source\PSoC4/Timer_1.c **** *     - Timer_1_TRIG_BOTH      - Both rising and falling edge
1089:Generated_Source\PSoC4/Timer_1.c **** *
1090:Generated_Source\PSoC4/Timer_1.c **** * Return:
1091:Generated_Source\PSoC4/Timer_1.c **** *  None
1092:Generated_Source\PSoC4/Timer_1.c **** *
1093:Generated_Source\PSoC4/Timer_1.c **** *******************************************************************************/
ARM GAS  C:\Users\young\AppData\Local\Temp\cc3sLV9e.s 			page 21


1094:Generated_Source\PSoC4/Timer_1.c **** void Timer_1_SetCaptureMode(uint32 triggerMode)
1095:Generated_Source\PSoC4/Timer_1.c **** {
1096:Generated_Source\PSoC4/Timer_1.c ****     uint8 enableInterrupts;
1097:Generated_Source\PSoC4/Timer_1.c **** 
1098:Generated_Source\PSoC4/Timer_1.c ****     enableInterrupts = CyEnterCriticalSection();
1099:Generated_Source\PSoC4/Timer_1.c **** 
1100:Generated_Source\PSoC4/Timer_1.c ****     Timer_1_TRIG_CONTROL1_REG &= (uint32)~Timer_1_CAPTURE_MASK;
1101:Generated_Source\PSoC4/Timer_1.c ****     Timer_1_TRIG_CONTROL1_REG |= triggerMode;
1102:Generated_Source\PSoC4/Timer_1.c **** 
1103:Generated_Source\PSoC4/Timer_1.c ****     CyExitCriticalSection(enableInterrupts);
1104:Generated_Source\PSoC4/Timer_1.c **** }
1105:Generated_Source\PSoC4/Timer_1.c **** 
1106:Generated_Source\PSoC4/Timer_1.c **** 
1107:Generated_Source\PSoC4/Timer_1.c **** /*******************************************************************************
1108:Generated_Source\PSoC4/Timer_1.c **** * Function Name: Timer_1_SetReloadMode
1109:Generated_Source\PSoC4/Timer_1.c **** ********************************************************************************
1110:Generated_Source\PSoC4/Timer_1.c **** *
1111:Generated_Source\PSoC4/Timer_1.c **** * Summary:
1112:Generated_Source\PSoC4/Timer_1.c **** *  Sets the reload trigger mode. For Quadrature Decoder mode this is the index
1113:Generated_Source\PSoC4/Timer_1.c **** *  input.
1114:Generated_Source\PSoC4/Timer_1.c **** *
1115:Generated_Source\PSoC4/Timer_1.c **** * Parameters:
1116:Generated_Source\PSoC4/Timer_1.c **** *  triggerMode: Enumerated trigger mode value
1117:Generated_Source\PSoC4/Timer_1.c **** *   Values:
1118:Generated_Source\PSoC4/Timer_1.c **** *     - Timer_1_TRIG_LEVEL     - Level
1119:Generated_Source\PSoC4/Timer_1.c **** *     - Timer_1_TRIG_RISING    - Rising edge
1120:Generated_Source\PSoC4/Timer_1.c **** *     - Timer_1_TRIG_FALLING   - Falling edge
1121:Generated_Source\PSoC4/Timer_1.c **** *     - Timer_1_TRIG_BOTH      - Both rising and falling edge
1122:Generated_Source\PSoC4/Timer_1.c **** *
1123:Generated_Source\PSoC4/Timer_1.c **** * Return:
1124:Generated_Source\PSoC4/Timer_1.c **** *  None
1125:Generated_Source\PSoC4/Timer_1.c **** *
1126:Generated_Source\PSoC4/Timer_1.c **** *******************************************************************************/
1127:Generated_Source\PSoC4/Timer_1.c **** void Timer_1_SetReloadMode(uint32 triggerMode)
1128:Generated_Source\PSoC4/Timer_1.c **** {
1129:Generated_Source\PSoC4/Timer_1.c ****     uint8 enableInterrupts;
1130:Generated_Source\PSoC4/Timer_1.c **** 
1131:Generated_Source\PSoC4/Timer_1.c ****     enableInterrupts = CyEnterCriticalSection();
1132:Generated_Source\PSoC4/Timer_1.c **** 
1133:Generated_Source\PSoC4/Timer_1.c ****     Timer_1_TRIG_CONTROL1_REG &= (uint32)~Timer_1_RELOAD_MASK;
1134:Generated_Source\PSoC4/Timer_1.c ****     Timer_1_TRIG_CONTROL1_REG |= ((uint32)(triggerMode << Timer_1_RELOAD_SHIFT));
1135:Generated_Source\PSoC4/Timer_1.c **** 
1136:Generated_Source\PSoC4/Timer_1.c ****     CyExitCriticalSection(enableInterrupts);
1137:Generated_Source\PSoC4/Timer_1.c **** }
1138:Generated_Source\PSoC4/Timer_1.c **** 
1139:Generated_Source\PSoC4/Timer_1.c **** 
1140:Generated_Source\PSoC4/Timer_1.c **** /*******************************************************************************
1141:Generated_Source\PSoC4/Timer_1.c **** * Function Name: Timer_1_SetStartMode
1142:Generated_Source\PSoC4/Timer_1.c **** ********************************************************************************
1143:Generated_Source\PSoC4/Timer_1.c **** *
1144:Generated_Source\PSoC4/Timer_1.c **** * Summary:
1145:Generated_Source\PSoC4/Timer_1.c **** *  Sets the start trigger mode. For Quadrature Decoder mode this is the
1146:Generated_Source\PSoC4/Timer_1.c **** *  phiB input.
1147:Generated_Source\PSoC4/Timer_1.c **** *
1148:Generated_Source\PSoC4/Timer_1.c **** * Parameters:
1149:Generated_Source\PSoC4/Timer_1.c **** *  triggerMode: Enumerated trigger mode value
1150:Generated_Source\PSoC4/Timer_1.c **** *   Values:
ARM GAS  C:\Users\young\AppData\Local\Temp\cc3sLV9e.s 			page 22


1151:Generated_Source\PSoC4/Timer_1.c **** *     - Timer_1_TRIG_LEVEL     - Level
1152:Generated_Source\PSoC4/Timer_1.c **** *     - Timer_1_TRIG_RISING    - Rising edge
1153:Generated_Source\PSoC4/Timer_1.c **** *     - Timer_1_TRIG_FALLING   - Falling edge
1154:Generated_Source\PSoC4/Timer_1.c **** *     - Timer_1_TRIG_BOTH      - Both rising and falling edge
1155:Generated_Source\PSoC4/Timer_1.c **** *
1156:Generated_Source\PSoC4/Timer_1.c **** * Return:
1157:Generated_Source\PSoC4/Timer_1.c **** *  None
1158:Generated_Source\PSoC4/Timer_1.c **** *
1159:Generated_Source\PSoC4/Timer_1.c **** *******************************************************************************/
1160:Generated_Source\PSoC4/Timer_1.c **** void Timer_1_SetStartMode(uint32 triggerMode)
1161:Generated_Source\PSoC4/Timer_1.c **** {
1162:Generated_Source\PSoC4/Timer_1.c ****     uint8 enableInterrupts;
1163:Generated_Source\PSoC4/Timer_1.c **** 
1164:Generated_Source\PSoC4/Timer_1.c ****     enableInterrupts = CyEnterCriticalSection();
1165:Generated_Source\PSoC4/Timer_1.c **** 
1166:Generated_Source\PSoC4/Timer_1.c ****     Timer_1_TRIG_CONTROL1_REG &= (uint32)~Timer_1_START_MASK;
1167:Generated_Source\PSoC4/Timer_1.c ****     Timer_1_TRIG_CONTROL1_REG |= ((uint32)(triggerMode << Timer_1_START_SHIFT));
1168:Generated_Source\PSoC4/Timer_1.c **** 
1169:Generated_Source\PSoC4/Timer_1.c ****     CyExitCriticalSection(enableInterrupts);
1170:Generated_Source\PSoC4/Timer_1.c **** }
1171:Generated_Source\PSoC4/Timer_1.c **** 
1172:Generated_Source\PSoC4/Timer_1.c **** 
1173:Generated_Source\PSoC4/Timer_1.c **** /*******************************************************************************
1174:Generated_Source\PSoC4/Timer_1.c **** * Function Name: Timer_1_SetStopMode
1175:Generated_Source\PSoC4/Timer_1.c **** ********************************************************************************
1176:Generated_Source\PSoC4/Timer_1.c **** *
1177:Generated_Source\PSoC4/Timer_1.c **** * Summary:
1178:Generated_Source\PSoC4/Timer_1.c **** *  Sets the stop trigger mode. For PWM mode this is the kill input.
1179:Generated_Source\PSoC4/Timer_1.c **** *
1180:Generated_Source\PSoC4/Timer_1.c **** * Parameters:
1181:Generated_Source\PSoC4/Timer_1.c **** *  triggerMode: Enumerated trigger mode value
1182:Generated_Source\PSoC4/Timer_1.c **** *   Values:
1183:Generated_Source\PSoC4/Timer_1.c **** *     - Timer_1_TRIG_LEVEL     - Level
1184:Generated_Source\PSoC4/Timer_1.c **** *     - Timer_1_TRIG_RISING    - Rising edge
1185:Generated_Source\PSoC4/Timer_1.c **** *     - Timer_1_TRIG_FALLING   - Falling edge
1186:Generated_Source\PSoC4/Timer_1.c **** *     - Timer_1_TRIG_BOTH      - Both rising and falling edge
1187:Generated_Source\PSoC4/Timer_1.c **** *
1188:Generated_Source\PSoC4/Timer_1.c **** * Return:
1189:Generated_Source\PSoC4/Timer_1.c **** *  None
1190:Generated_Source\PSoC4/Timer_1.c **** *
1191:Generated_Source\PSoC4/Timer_1.c **** *******************************************************************************/
1192:Generated_Source\PSoC4/Timer_1.c **** void Timer_1_SetStopMode(uint32 triggerMode)
1193:Generated_Source\PSoC4/Timer_1.c **** {
1194:Generated_Source\PSoC4/Timer_1.c ****     uint8 enableInterrupts;
1195:Generated_Source\PSoC4/Timer_1.c **** 
1196:Generated_Source\PSoC4/Timer_1.c ****     enableInterrupts = CyEnterCriticalSection();
1197:Generated_Source\PSoC4/Timer_1.c **** 
1198:Generated_Source\PSoC4/Timer_1.c ****     Timer_1_TRIG_CONTROL1_REG &= (uint32)~Timer_1_STOP_MASK;
1199:Generated_Source\PSoC4/Timer_1.c ****     Timer_1_TRIG_CONTROL1_REG |= ((uint32)(triggerMode << Timer_1_STOP_SHIFT));
1200:Generated_Source\PSoC4/Timer_1.c **** 
1201:Generated_Source\PSoC4/Timer_1.c ****     CyExitCriticalSection(enableInterrupts);
1202:Generated_Source\PSoC4/Timer_1.c **** }
1203:Generated_Source\PSoC4/Timer_1.c **** 
1204:Generated_Source\PSoC4/Timer_1.c **** 
1205:Generated_Source\PSoC4/Timer_1.c **** /*******************************************************************************
1206:Generated_Source\PSoC4/Timer_1.c **** * Function Name: Timer_1_SetCountMode
1207:Generated_Source\PSoC4/Timer_1.c **** ********************************************************************************
ARM GAS  C:\Users\young\AppData\Local\Temp\cc3sLV9e.s 			page 23


1208:Generated_Source\PSoC4/Timer_1.c **** *
1209:Generated_Source\PSoC4/Timer_1.c **** * Summary:
1210:Generated_Source\PSoC4/Timer_1.c **** *  Sets the count trigger mode. For Quadrature Decoder mode this is the phiA
1211:Generated_Source\PSoC4/Timer_1.c **** *  input.
1212:Generated_Source\PSoC4/Timer_1.c **** *
1213:Generated_Source\PSoC4/Timer_1.c **** * Parameters:
1214:Generated_Source\PSoC4/Timer_1.c **** *  triggerMode: Enumerated trigger mode value
1215:Generated_Source\PSoC4/Timer_1.c **** *   Values:
1216:Generated_Source\PSoC4/Timer_1.c **** *     - Timer_1_TRIG_LEVEL     - Level
1217:Generated_Source\PSoC4/Timer_1.c **** *     - Timer_1_TRIG_RISING    - Rising edge
1218:Generated_Source\PSoC4/Timer_1.c **** *     - Timer_1_TRIG_FALLING   - Falling edge
1219:Generated_Source\PSoC4/Timer_1.c **** *     - Timer_1_TRIG_BOTH      - Both rising and falling edge
1220:Generated_Source\PSoC4/Timer_1.c **** *
1221:Generated_Source\PSoC4/Timer_1.c **** * Return:
1222:Generated_Source\PSoC4/Timer_1.c **** *  None
1223:Generated_Source\PSoC4/Timer_1.c **** *
1224:Generated_Source\PSoC4/Timer_1.c **** *******************************************************************************/
1225:Generated_Source\PSoC4/Timer_1.c **** void Timer_1_SetCountMode(uint32 triggerMode)
1226:Generated_Source\PSoC4/Timer_1.c **** {
1227:Generated_Source\PSoC4/Timer_1.c ****     uint8 enableInterrupts;
1228:Generated_Source\PSoC4/Timer_1.c **** 
1229:Generated_Source\PSoC4/Timer_1.c ****     enableInterrupts = CyEnterCriticalSection();
1230:Generated_Source\PSoC4/Timer_1.c **** 
1231:Generated_Source\PSoC4/Timer_1.c ****     Timer_1_TRIG_CONTROL1_REG &= (uint32)~Timer_1_COUNT_MASK;
1232:Generated_Source\PSoC4/Timer_1.c ****     Timer_1_TRIG_CONTROL1_REG |= ((uint32)(triggerMode << Timer_1_COUNT_SHIFT));
1233:Generated_Source\PSoC4/Timer_1.c **** 
1234:Generated_Source\PSoC4/Timer_1.c ****     CyExitCriticalSection(enableInterrupts);
1235:Generated_Source\PSoC4/Timer_1.c **** }
1236:Generated_Source\PSoC4/Timer_1.c **** 
1237:Generated_Source\PSoC4/Timer_1.c **** 
1238:Generated_Source\PSoC4/Timer_1.c **** /*******************************************************************************
1239:Generated_Source\PSoC4/Timer_1.c **** * Function Name: Timer_1_TriggerCommand
1240:Generated_Source\PSoC4/Timer_1.c **** ********************************************************************************
1241:Generated_Source\PSoC4/Timer_1.c **** *
1242:Generated_Source\PSoC4/Timer_1.c **** * Summary:
1243:Generated_Source\PSoC4/Timer_1.c **** *  Triggers the designated command to occur on the designated TCPWM instances.
1244:Generated_Source\PSoC4/Timer_1.c **** *  The mask can be used to apply this command simultaneously to more than one
1245:Generated_Source\PSoC4/Timer_1.c **** *  instance.  This allows multiple TCPWM instances to be synchronized.
1246:Generated_Source\PSoC4/Timer_1.c **** *
1247:Generated_Source\PSoC4/Timer_1.c **** * Parameters:
1248:Generated_Source\PSoC4/Timer_1.c **** *  mask: A combination of mask bits for each instance of the TCPWM that the
1249:Generated_Source\PSoC4/Timer_1.c **** *        command should apply to.  This function from one instance can be used
1250:Generated_Source\PSoC4/Timer_1.c **** *        to apply the command to any of the instances in the design.
1251:Generated_Source\PSoC4/Timer_1.c **** *        The mask value for a specific instance is available with the MASK
1252:Generated_Source\PSoC4/Timer_1.c **** *        define.
1253:Generated_Source\PSoC4/Timer_1.c **** *  command: Enumerated command values. Capture command only applicable for
1254:Generated_Source\PSoC4/Timer_1.c **** *           Timer/Counter with Capture and PWM modes.
1255:Generated_Source\PSoC4/Timer_1.c **** *   Values:
1256:Generated_Source\PSoC4/Timer_1.c **** *     - Timer_1_CMD_CAPTURE    - Trigger Capture/Switch command
1257:Generated_Source\PSoC4/Timer_1.c **** *     - Timer_1_CMD_RELOAD     - Trigger Reload/Index command
1258:Generated_Source\PSoC4/Timer_1.c **** *     - Timer_1_CMD_STOP       - Trigger Stop/Kill command
1259:Generated_Source\PSoC4/Timer_1.c **** *     - Timer_1_CMD_START      - Trigger Start/phiB command
1260:Generated_Source\PSoC4/Timer_1.c **** *
1261:Generated_Source\PSoC4/Timer_1.c **** * Return:
1262:Generated_Source\PSoC4/Timer_1.c **** *  None
1263:Generated_Source\PSoC4/Timer_1.c **** *
1264:Generated_Source\PSoC4/Timer_1.c **** *******************************************************************************/
ARM GAS  C:\Users\young\AppData\Local\Temp\cc3sLV9e.s 			page 24


1265:Generated_Source\PSoC4/Timer_1.c **** void Timer_1_TriggerCommand(uint32 mask, uint32 command)
1266:Generated_Source\PSoC4/Timer_1.c **** {
1267:Generated_Source\PSoC4/Timer_1.c ****     uint8 enableInterrupts;
1268:Generated_Source\PSoC4/Timer_1.c **** 
1269:Generated_Source\PSoC4/Timer_1.c ****     enableInterrupts = CyEnterCriticalSection();
1270:Generated_Source\PSoC4/Timer_1.c **** 
1271:Generated_Source\PSoC4/Timer_1.c ****     Timer_1_COMMAND_REG = ((uint32)(mask << command));
1272:Generated_Source\PSoC4/Timer_1.c **** 
1273:Generated_Source\PSoC4/Timer_1.c ****     CyExitCriticalSection(enableInterrupts);
1274:Generated_Source\PSoC4/Timer_1.c **** }
1275:Generated_Source\PSoC4/Timer_1.c **** 
1276:Generated_Source\PSoC4/Timer_1.c **** 
1277:Generated_Source\PSoC4/Timer_1.c **** /*******************************************************************************
1278:Generated_Source\PSoC4/Timer_1.c **** * Function Name: Timer_1_ReadStatus
1279:Generated_Source\PSoC4/Timer_1.c **** ********************************************************************************
1280:Generated_Source\PSoC4/Timer_1.c **** *
1281:Generated_Source\PSoC4/Timer_1.c **** * Summary:
1282:Generated_Source\PSoC4/Timer_1.c **** *  Reads the status of the Timer_1.
1283:Generated_Source\PSoC4/Timer_1.c **** *
1284:Generated_Source\PSoC4/Timer_1.c **** * Parameters:
1285:Generated_Source\PSoC4/Timer_1.c **** *  None
1286:Generated_Source\PSoC4/Timer_1.c **** *
1287:Generated_Source\PSoC4/Timer_1.c **** * Return:
1288:Generated_Source\PSoC4/Timer_1.c **** *  Status
1289:Generated_Source\PSoC4/Timer_1.c **** *   Values:
1290:Generated_Source\PSoC4/Timer_1.c **** *     - Timer_1_STATUS_DOWN    - Set if counting down
1291:Generated_Source\PSoC4/Timer_1.c **** *     - Timer_1_STATUS_RUNNING - Set if counter is running
1292:Generated_Source\PSoC4/Timer_1.c **** *
1293:Generated_Source\PSoC4/Timer_1.c **** *******************************************************************************/
1294:Generated_Source\PSoC4/Timer_1.c **** uint32 Timer_1_ReadStatus(void)
1295:Generated_Source\PSoC4/Timer_1.c **** {
1296:Generated_Source\PSoC4/Timer_1.c ****     return ((Timer_1_STATUS_REG >> Timer_1_RUNNING_STATUS_SHIFT) |
1297:Generated_Source\PSoC4/Timer_1.c ****             (Timer_1_STATUS_REG & Timer_1_STATUS_DOWN));
1298:Generated_Source\PSoC4/Timer_1.c **** }
1299:Generated_Source\PSoC4/Timer_1.c **** 
1300:Generated_Source\PSoC4/Timer_1.c **** 
1301:Generated_Source\PSoC4/Timer_1.c **** /*******************************************************************************
1302:Generated_Source\PSoC4/Timer_1.c **** * Function Name: Timer_1_SetInterruptMode
1303:Generated_Source\PSoC4/Timer_1.c **** ********************************************************************************
1304:Generated_Source\PSoC4/Timer_1.c **** *
1305:Generated_Source\PSoC4/Timer_1.c **** * Summary:
1306:Generated_Source\PSoC4/Timer_1.c **** *  Sets the interrupt mask to control which interrupt
1307:Generated_Source\PSoC4/Timer_1.c **** *  requests generate the interrupt signal.
1308:Generated_Source\PSoC4/Timer_1.c **** *
1309:Generated_Source\PSoC4/Timer_1.c **** * Parameters:
1310:Generated_Source\PSoC4/Timer_1.c **** *   interruptMask: Mask of bits to be enabled
1311:Generated_Source\PSoC4/Timer_1.c **** *   Values:
1312:Generated_Source\PSoC4/Timer_1.c **** *     - Timer_1_INTR_MASK_TC       - Terminal count mask
1313:Generated_Source\PSoC4/Timer_1.c **** *     - Timer_1_INTR_MASK_CC_MATCH - Compare count / capture mask
1314:Generated_Source\PSoC4/Timer_1.c **** *
1315:Generated_Source\PSoC4/Timer_1.c **** * Return:
1316:Generated_Source\PSoC4/Timer_1.c **** *  None
1317:Generated_Source\PSoC4/Timer_1.c **** *
1318:Generated_Source\PSoC4/Timer_1.c **** *******************************************************************************/
1319:Generated_Source\PSoC4/Timer_1.c **** void Timer_1_SetInterruptMode(uint32 interruptMask)
1320:Generated_Source\PSoC4/Timer_1.c **** {
1321:Generated_Source\PSoC4/Timer_1.c ****     Timer_1_INTERRUPT_MASK_REG =  interruptMask;
ARM GAS  C:\Users\young\AppData\Local\Temp\cc3sLV9e.s 			page 25


  47              		.loc 1 1321 0
  48 000e 0E4A     		ldr	r2, .L6+8
  49 0010 0A39     		subs	r1, r1, #10
  50 0012 1160     		str	r1, [r2]
  51              	.LVL1:
  52              	.LBE23:
  53              	.LBE22:
  54              	.LBB24:
  55              	.LBB25:
 695:Generated_Source\PSoC4/Timer_1.c **** }
  56              		.loc 1 695 0
  57 0014 0D49     		ldr	r1, .L6+12
  58 0016 0E4A     		ldr	r2, .L6+16
  59 0018 1160     		str	r1, [r2]
  60              	.LVL2:
  61              	.LBE25:
  62              	.LBE24:
  63              	.LBB26:
  64              	.LBB27:
 856:Generated_Source\PSoC4/Timer_1.c **** 
  65              		.loc 1 856 0
  66 001a 1B68     		ldr	r3, [r3]
  67 001c 9B03     		lsls	r3, r3, #14
  68 001e 9B0F     		lsrs	r3, r3, #30
  69              	.LVL3:
 858:Generated_Source\PSoC4/Timer_1.c ****         {
  70              		.loc 1 858 0
  71 0020 012B     		cmp	r3, #1
  72 0022 0AD0     		beq	.L3
 864:Generated_Source\PSoC4/Timer_1.c ****         }
  73              		.loc 1 864 0
  74 0024 5A1E     		subs	r2, r3, #1
  75 0026 9341     		sbcs	r3, r3, r2
  76              	.LVL4:
  77 0028 0A4A     		ldr	r2, .L6+20
  78 002a 9446     		mov	ip, r2
  79 002c 6344     		add	r3, r3, ip
  80              	.L2:
  81              	.LVL5:
 873:Generated_Source\PSoC4/Timer_1.c **** }
  82              		.loc 1 873 0
  83 002e 0A4A     		ldr	r2, .L6+24
  84              	.LBE27:
  85              	.LBE26:
 160:Generated_Source\PSoC4/Timer_1.c **** 
  86              		.loc 1 160 0
  87              		@ sp needed
  88              	.LBB30:
  89              	.LBB28:
 873:Generated_Source\PSoC4/Timer_1.c **** }
  90              		.loc 1 873 0
  91 0030 1360     		str	r3, [r2]
  92              	.LVL6:
  93              	.LBE28:
  94              	.LBE30:
  95              	.LBB31:
  96              	.LBB32:
ARM GAS  C:\Users\young\AppData\Local\Temp\cc3sLV9e.s 			page 26


 617:Generated_Source\PSoC4/Timer_1.c **** }
  97              		.loc 1 617 0
  98 0032 0022     		movs	r2, #0
  99 0034 094B     		ldr	r3, .L6+28
 100 0036 1A60     		str	r2, [r3]
 101              	.LVL7:
 102              	.LBE32:
 103              	.LBE31:
 160:Generated_Source\PSoC4/Timer_1.c **** 
 104              		.loc 1 160 0
 105 0038 7047     		bx	lr
 106              	.LVL8:
 107              	.L3:
 108              	.LBB33:
 109              	.LBB29:
 860:Generated_Source\PSoC4/Timer_1.c ****         }
 110              		.loc 1 860 0
 111 003a 094B     		ldr	r3, .L6+32
 112              	.LVL9:
 113 003c F7E7     		b	.L2
 114              	.L7:
 115 003e C046     		.align	2
 116              	.L6:
 117 0040 00010540 		.word	1074069760
 118 0044 24010540 		.word	1074069796
 119 0048 38010540 		.word	1074069816
 120 004c A60E0000 		.word	3750
 121 0050 14010540 		.word	1074069780
 122 0054 A50E0000 		.word	3749
 123 0058 0C010540 		.word	1074069772
 124 005c 08010540 		.word	1074069768
 125 0060 A70E0000 		.word	3751
 126              	.LBE29:
 127              	.LBE33:
 128              		.cfi_endproc
 129              	.LFE0:
 130              		.size	Timer_1_Init, .-Timer_1_Init
 131              		.section	.text.Timer_1_Enable,"ax",%progbits
 132              		.align	2
 133              		.global	Timer_1_Enable
 134              		.code	16
 135              		.thumb_func
 136              		.type	Timer_1_Enable, %function
 137              	Timer_1_Enable:
 138              	.LFB1:
 178:Generated_Source\PSoC4/Timer_1.c ****     uint8 enableInterrupts;
 139              		.loc 1 178 0
 140              		.cfi_startproc
 141              		@ args = 0, pretend = 0, frame = 0
 142              		@ frame_needed = 0, uses_anonymous_args = 0
 143 0000 10B5     		push	{r4, lr}
 144              		.cfi_def_cfa_offset 8
 145              		.cfi_offset 4, -8
 146              		.cfi_offset 14, -4
 181:Generated_Source\PSoC4/Timer_1.c ****     Timer_1_BLOCK_CONTROL_REG |= Timer_1_MASK;
 147              		.loc 1 181 0
 148 0002 FFF7FEFF 		bl	CyEnterCriticalSection
ARM GAS  C:\Users\young\AppData\Local\Temp\cc3sLV9e.s 			page 27


 149              	.LVL10:
 182:Generated_Source\PSoC4/Timer_1.c ****     CyExitCriticalSection(enableInterrupts);
 150              		.loc 1 182 0
 151 0006 0123     		movs	r3, #1
 152 0008 074A     		ldr	r2, .L9
 203:Generated_Source\PSoC4/Timer_1.c **** 
 153              		.loc 1 203 0
 154              		@ sp needed
 182:Generated_Source\PSoC4/Timer_1.c ****     CyExitCriticalSection(enableInterrupts);
 155              		.loc 1 182 0
 156 000a 1168     		ldr	r1, [r2]
 157 000c 0B43     		orrs	r3, r1
 158 000e 1360     		str	r3, [r2]
 183:Generated_Source\PSoC4/Timer_1.c **** 
 159              		.loc 1 183 0
 160 0010 FFF7FEFF 		bl	CyExitCriticalSection
 161              	.LVL11:
 162              	.LBB36:
 163              	.LBB37:
1269:Generated_Source\PSoC4/Timer_1.c **** 
 164              		.loc 1 1269 0
 165 0014 FFF7FEFF 		bl	CyEnterCriticalSection
 166              	.LVL12:
1271:Generated_Source\PSoC4/Timer_1.c **** 
 167              		.loc 1 1271 0
 168 0018 8022     		movs	r2, #128
 169 001a 044B     		ldr	r3, .L9+4
 170 001c 5204     		lsls	r2, r2, #17
 171 001e 1A60     		str	r2, [r3]
1273:Generated_Source\PSoC4/Timer_1.c **** }
 172              		.loc 1 1273 0
 173 0020 FFF7FEFF 		bl	CyExitCriticalSection
 174              	.LVL13:
 175              	.LBE37:
 176              	.LBE36:
 203:Generated_Source\PSoC4/Timer_1.c **** 
 177              		.loc 1 203 0
 178 0024 10BD     		pop	{r4, pc}
 179              	.L10:
 180 0026 C046     		.align	2
 181              	.L9:
 182 0028 00000540 		.word	1074069504
 183 002c 08000540 		.word	1074069512
 184              		.cfi_endproc
 185              	.LFE1:
 186              		.size	Timer_1_Enable, .-Timer_1_Enable
 187              		.section	.text.Timer_1_Start,"ax",%progbits
 188              		.align	2
 189              		.global	Timer_1_Start
 190              		.code	16
 191              		.thumb_func
 192              		.type	Timer_1_Start, %function
 193              	Timer_1_Start:
 194              	.LFB2:
 231:Generated_Source\PSoC4/Timer_1.c ****     if (0u == Timer_1_initVar)
 195              		.loc 1 231 0
 196              		.cfi_startproc
ARM GAS  C:\Users\young\AppData\Local\Temp\cc3sLV9e.s 			page 28


 197              		@ args = 0, pretend = 0, frame = 0
 198              		@ frame_needed = 0, uses_anonymous_args = 0
 199 0000 10B5     		push	{r4, lr}
 200              		.cfi_def_cfa_offset 8
 201              		.cfi_offset 4, -8
 202              		.cfi_offset 14, -4
 232:Generated_Source\PSoC4/Timer_1.c ****     {
 203              		.loc 1 232 0
 204 0002 1B4A     		ldr	r2, .L16
 205 0004 1378     		ldrb	r3, [r2]
 206 0006 002B     		cmp	r3, #0
 207 0008 1DD1     		bne	.L12
 208              	.LBB52:
 209              	.LBB53:
  58:Generated_Source\PSoC4/Timer_1.c ****         
 210              		.loc 1 58 0
 211 000a C021     		movs	r1, #192
  61:Generated_Source\PSoC4/Timer_1.c ****     
 212              		.loc 1 61 0
 213 000c 0C20     		movs	r0, #12
  58:Generated_Source\PSoC4/Timer_1.c ****         
 214              		.loc 1 58 0
 215 000e 194B     		ldr	r3, .L16+4
 216 0010 8900     		lsls	r1, r1, #2
 217 0012 1960     		str	r1, [r3]
  61:Generated_Source\PSoC4/Timer_1.c ****     
 218              		.loc 1 61 0
 219 0014 1849     		ldr	r1, .L16+8
 220 0016 0860     		str	r0, [r1]
 221              	.LVL14:
 222              	.LBB54:
 223              	.LBB55:
 224              		.loc 1 1321 0
 225 0018 1849     		ldr	r1, .L16+12
 226 001a 0A38     		subs	r0, r0, #10
 227 001c 0860     		str	r0, [r1]
 228              	.LVL15:
 229              	.LBE55:
 230              	.LBE54:
 231              	.LBB56:
 232              	.LBB57:
 695:Generated_Source\PSoC4/Timer_1.c **** }
 233              		.loc 1 695 0
 234 001e 1848     		ldr	r0, .L16+16
 235 0020 1849     		ldr	r1, .L16+20
 236 0022 0860     		str	r0, [r1]
 237              	.LVL16:
 238              	.LBE57:
 239              	.LBE56:
 240              	.LBB58:
 241              	.LBB59:
 856:Generated_Source\PSoC4/Timer_1.c **** 
 242              		.loc 1 856 0
 243 0024 1B68     		ldr	r3, [r3]
 244 0026 9B03     		lsls	r3, r3, #14
 245 0028 9B0F     		lsrs	r3, r3, #30
 246              	.LVL17:
ARM GAS  C:\Users\young\AppData\Local\Temp\cc3sLV9e.s 			page 29


 858:Generated_Source\PSoC4/Timer_1.c ****         {
 247              		.loc 1 858 0
 248 002a 012B     		cmp	r3, #1
 249 002c 1DD0     		beq	.L14
 864:Generated_Source\PSoC4/Timer_1.c ****         }
 250              		.loc 1 864 0
 251 002e 591E     		subs	r1, r3, #1
 252 0030 8B41     		sbcs	r3, r3, r1
 253              	.LVL18:
 254 0032 1549     		ldr	r1, .L16+24
 255 0034 8C46     		mov	ip, r1
 256 0036 6344     		add	r3, r3, ip
 257              	.L13:
 258              	.LVL19:
 873:Generated_Source\PSoC4/Timer_1.c **** }
 259              		.loc 1 873 0
 260 0038 1449     		ldr	r1, .L16+28
 261 003a 0B60     		str	r3, [r1]
 262              	.LVL20:
 263              	.LBE59:
 264              	.LBE58:
 265              	.LBB61:
 266              	.LBB62:
 617:Generated_Source\PSoC4/Timer_1.c **** }
 267              		.loc 1 617 0
 268 003c 0021     		movs	r1, #0
 269 003e 144B     		ldr	r3, .L16+32
 270 0040 1960     		str	r1, [r3]
 271              	.LVL21:
 272              	.LBE62:
 273              	.LBE61:
 274              	.LBE53:
 275              	.LBE52:
 235:Generated_Source\PSoC4/Timer_1.c ****     }
 276              		.loc 1 235 0
 277 0042 0123     		movs	r3, #1
 278 0044 1370     		strb	r3, [r2]
 279              	.L12:
 280              	.LBB65:
 281              	.LBB66:
 181:Generated_Source\PSoC4/Timer_1.c ****     Timer_1_BLOCK_CONTROL_REG |= Timer_1_MASK;
 282              		.loc 1 181 0
 283 0046 FFF7FEFF 		bl	CyEnterCriticalSection
 284              	.LVL22:
 182:Generated_Source\PSoC4/Timer_1.c ****     CyExitCriticalSection(enableInterrupts);
 285              		.loc 1 182 0
 286 004a 0123     		movs	r3, #1
 287 004c 114A     		ldr	r2, .L16+36
 288              	.LBE66:
 289              	.LBE65:
 239:Generated_Source\PSoC4/Timer_1.c **** 
 290              		.loc 1 239 0
 291              		@ sp needed
 292              	.LBB70:
 293              	.LBB69:
 182:Generated_Source\PSoC4/Timer_1.c ****     CyExitCriticalSection(enableInterrupts);
 294              		.loc 1 182 0
ARM GAS  C:\Users\young\AppData\Local\Temp\cc3sLV9e.s 			page 30


 295 004e 1168     		ldr	r1, [r2]
 296 0050 0B43     		orrs	r3, r1
 297 0052 1360     		str	r3, [r2]
 183:Generated_Source\PSoC4/Timer_1.c **** 
 298              		.loc 1 183 0
 299 0054 FFF7FEFF 		bl	CyExitCriticalSection
 300              	.LVL23:
 301              	.LBB67:
 302              	.LBB68:
1269:Generated_Source\PSoC4/Timer_1.c **** 
 303              		.loc 1 1269 0
 304 0058 FFF7FEFF 		bl	CyEnterCriticalSection
 305              	.LVL24:
1271:Generated_Source\PSoC4/Timer_1.c **** 
 306              		.loc 1 1271 0
 307 005c 8022     		movs	r2, #128
 308 005e 0E4B     		ldr	r3, .L16+40
 309 0060 5204     		lsls	r2, r2, #17
 310 0062 1A60     		str	r2, [r3]
1273:Generated_Source\PSoC4/Timer_1.c **** }
 311              		.loc 1 1273 0
 312 0064 FFF7FEFF 		bl	CyExitCriticalSection
 313              	.LVL25:
 314              	.LBE68:
 315              	.LBE67:
 316              	.LBE69:
 317              	.LBE70:
 239:Generated_Source\PSoC4/Timer_1.c **** 
 318              		.loc 1 239 0
 319 0068 10BD     		pop	{r4, pc}
 320              	.LVL26:
 321              	.L14:
 322              	.LBB71:
 323              	.LBB64:
 324              	.LBB63:
 325              	.LBB60:
 860:Generated_Source\PSoC4/Timer_1.c ****         }
 326              		.loc 1 860 0
 327 006a 0C4B     		ldr	r3, .L16+44
 328              	.LVL27:
 329 006c E4E7     		b	.L13
 330              	.L17:
 331 006e C046     		.align	2
 332              	.L16:
 333 0070 00000000 		.word	.LANCHOR0
 334 0074 00010540 		.word	1074069760
 335 0078 24010540 		.word	1074069796
 336 007c 38010540 		.word	1074069816
 337 0080 A60E0000 		.word	3750
 338 0084 14010540 		.word	1074069780
 339 0088 A50E0000 		.word	3749
 340 008c 0C010540 		.word	1074069772
 341 0090 08010540 		.word	1074069768
 342 0094 00000540 		.word	1074069504
 343 0098 08000540 		.word	1074069512
 344 009c A70E0000 		.word	3751
 345              	.LBE60:
ARM GAS  C:\Users\young\AppData\Local\Temp\cc3sLV9e.s 			page 31


 346              	.LBE63:
 347              	.LBE64:
 348              	.LBE71:
 349              		.cfi_endproc
 350              	.LFE2:
 351              		.size	Timer_1_Start, .-Timer_1_Start
 352              		.section	.text.Timer_1_Stop,"ax",%progbits
 353              		.align	2
 354              		.global	Timer_1_Stop
 355              		.code	16
 356              		.thumb_func
 357              		.type	Timer_1_Stop, %function
 358              	Timer_1_Stop:
 359              	.LFB3:
 257:Generated_Source\PSoC4/Timer_1.c ****     uint8 enableInterrupts;
 360              		.loc 1 257 0
 361              		.cfi_startproc
 362              		@ args = 0, pretend = 0, frame = 0
 363              		@ frame_needed = 0, uses_anonymous_args = 0
 364 0000 10B5     		push	{r4, lr}
 365              		.cfi_def_cfa_offset 8
 366              		.cfi_offset 4, -8
 367              		.cfi_offset 14, -4
 260:Generated_Source\PSoC4/Timer_1.c **** 
 368              		.loc 1 260 0
 369 0002 FFF7FEFF 		bl	CyEnterCriticalSection
 370              	.LVL28:
 262:Generated_Source\PSoC4/Timer_1.c **** 
 371              		.loc 1 262 0
 372 0006 0121     		movs	r1, #1
 373 0008 034A     		ldr	r2, .L19
 265:Generated_Source\PSoC4/Timer_1.c **** 
 374              		.loc 1 265 0
 375              		@ sp needed
 262:Generated_Source\PSoC4/Timer_1.c **** 
 376              		.loc 1 262 0
 377 000a 1368     		ldr	r3, [r2]
 378 000c 8B43     		bics	r3, r1
 379 000e 1360     		str	r3, [r2]
 264:Generated_Source\PSoC4/Timer_1.c **** }
 380              		.loc 1 264 0
 381 0010 FFF7FEFF 		bl	CyExitCriticalSection
 382              	.LVL29:
 265:Generated_Source\PSoC4/Timer_1.c **** 
 383              		.loc 1 265 0
 384 0014 10BD     		pop	{r4, pc}
 385              	.L20:
 386 0016 C046     		.align	2
 387              	.L19:
 388 0018 00000540 		.word	1074069504
 389              		.cfi_endproc
 390              	.LFE3:
 391              		.size	Timer_1_Stop, .-Timer_1_Stop
 392              		.section	.text.Timer_1_SetMode,"ax",%progbits
 393              		.align	2
 394              		.global	Timer_1_SetMode
 395              		.code	16
ARM GAS  C:\Users\young\AppData\Local\Temp\cc3sLV9e.s 			page 32


 396              		.thumb_func
 397              		.type	Timer_1_SetMode, %function
 398              	Timer_1_SetMode:
 399              	.LFB4:
 294:Generated_Source\PSoC4/Timer_1.c ****     uint8 enableInterrupts;
 400              		.loc 1 294 0
 401              		.cfi_startproc
 402              		@ args = 0, pretend = 0, frame = 0
 403              		@ frame_needed = 0, uses_anonymous_args = 0
 404              	.LVL30:
 405 0000 10B5     		push	{r4, lr}
 406              		.cfi_def_cfa_offset 8
 407              		.cfi_offset 4, -8
 408              		.cfi_offset 14, -4
 294:Generated_Source\PSoC4/Timer_1.c ****     uint8 enableInterrupts;
 409              		.loc 1 294 0
 410 0002 0400     		movs	r4, r0
 297:Generated_Source\PSoC4/Timer_1.c **** 
 411              		.loc 1 297 0
 412 0004 FFF7FEFF 		bl	CyEnterCriticalSection
 413              	.LVL31:
 299:Generated_Source\PSoC4/Timer_1.c ****     Timer_1_CONTROL_REG |= mode;
 414              		.loc 1 299 0
 415 0008 054B     		ldr	r3, .L22
 416 000a 064A     		ldr	r2, .L22+4
 417 000c 1968     		ldr	r1, [r3]
 303:Generated_Source\PSoC4/Timer_1.c **** 
 418              		.loc 1 303 0
 419              		@ sp needed
 299:Generated_Source\PSoC4/Timer_1.c ****     Timer_1_CONTROL_REG |= mode;
 420              		.loc 1 299 0
 421 000e 0A40     		ands	r2, r1
 422 0010 1A60     		str	r2, [r3]
 300:Generated_Source\PSoC4/Timer_1.c **** 
 423              		.loc 1 300 0
 424 0012 1A68     		ldr	r2, [r3]
 425 0014 1443     		orrs	r4, r2
 426              	.LVL32:
 427 0016 1C60     		str	r4, [r3]
 302:Generated_Source\PSoC4/Timer_1.c **** }
 428              		.loc 1 302 0
 429 0018 FFF7FEFF 		bl	CyExitCriticalSection
 430              	.LVL33:
 303:Generated_Source\PSoC4/Timer_1.c **** 
 431              		.loc 1 303 0
 432 001c 10BD     		pop	{r4, pc}
 433              	.L23:
 434 001e C046     		.align	2
 435              	.L22:
 436 0020 00010540 		.word	1074069760
 437 0024 FFFFFFF8 		.word	-117440513
 438              		.cfi_endproc
 439              	.LFE4:
 440              		.size	Timer_1_SetMode, .-Timer_1_SetMode
 441              		.section	.text.Timer_1_SetQDMode,"ax",%progbits
 442              		.align	2
 443              		.global	Timer_1_SetQDMode
ARM GAS  C:\Users\young\AppData\Local\Temp\cc3sLV9e.s 			page 33


 444              		.code	16
 445              		.thumb_func
 446              		.type	Timer_1_SetQDMode, %function
 447              	Timer_1_SetQDMode:
 448              	.LFB5:
 327:Generated_Source\PSoC4/Timer_1.c ****     uint8 enableInterrupts;
 449              		.loc 1 327 0
 450              		.cfi_startproc
 451              		@ args = 0, pretend = 0, frame = 0
 452              		@ frame_needed = 0, uses_anonymous_args = 0
 453              	.LVL34:
 454 0000 10B5     		push	{r4, lr}
 455              		.cfi_def_cfa_offset 8
 456              		.cfi_offset 4, -8
 457              		.cfi_offset 14, -4
 327:Generated_Source\PSoC4/Timer_1.c ****     uint8 enableInterrupts;
 458              		.loc 1 327 0
 459 0002 0400     		movs	r4, r0
 330:Generated_Source\PSoC4/Timer_1.c **** 
 460              		.loc 1 330 0
 461 0004 FFF7FEFF 		bl	CyEnterCriticalSection
 462              	.LVL35:
 332:Generated_Source\PSoC4/Timer_1.c ****     Timer_1_CONTROL_REG |= qdMode;
 463              		.loc 1 332 0
 464 0008 054B     		ldr	r3, .L25
 465 000a 064A     		ldr	r2, .L25+4
 466 000c 1968     		ldr	r1, [r3]
 336:Generated_Source\PSoC4/Timer_1.c **** 
 467              		.loc 1 336 0
 468              		@ sp needed
 332:Generated_Source\PSoC4/Timer_1.c ****     Timer_1_CONTROL_REG |= qdMode;
 469              		.loc 1 332 0
 470 000e 0A40     		ands	r2, r1
 471 0010 1A60     		str	r2, [r3]
 333:Generated_Source\PSoC4/Timer_1.c **** 
 472              		.loc 1 333 0
 473 0012 1A68     		ldr	r2, [r3]
 474 0014 1443     		orrs	r4, r2
 475              	.LVL36:
 476 0016 1C60     		str	r4, [r3]
 335:Generated_Source\PSoC4/Timer_1.c **** }
 477              		.loc 1 335 0
 478 0018 FFF7FEFF 		bl	CyExitCriticalSection
 479              	.LVL37:
 336:Generated_Source\PSoC4/Timer_1.c **** 
 480              		.loc 1 336 0
 481 001c 10BD     		pop	{r4, pc}
 482              	.L26:
 483 001e C046     		.align	2
 484              	.L25:
 485 0020 00010540 		.word	1074069760
 486 0024 FFFF8FFF 		.word	-7340033
 487              		.cfi_endproc
 488              	.LFE5:
 489              		.size	Timer_1_SetQDMode, .-Timer_1_SetQDMode
 490              		.section	.text.Timer_1_SetPrescaler,"ax",%progbits
 491              		.align	2
ARM GAS  C:\Users\young\AppData\Local\Temp\cc3sLV9e.s 			page 34


 492              		.global	Timer_1_SetPrescaler
 493              		.code	16
 494              		.thumb_func
 495              		.type	Timer_1_SetPrescaler, %function
 496              	Timer_1_SetPrescaler:
 497              	.LFB6:
 364:Generated_Source\PSoC4/Timer_1.c ****     uint8 enableInterrupts;
 498              		.loc 1 364 0
 499              		.cfi_startproc
 500              		@ args = 0, pretend = 0, frame = 0
 501              		@ frame_needed = 0, uses_anonymous_args = 0
 502              	.LVL38:
 503 0000 10B5     		push	{r4, lr}
 504              		.cfi_def_cfa_offset 8
 505              		.cfi_offset 4, -8
 506              		.cfi_offset 14, -4
 364:Generated_Source\PSoC4/Timer_1.c ****     uint8 enableInterrupts;
 507              		.loc 1 364 0
 508 0002 0400     		movs	r4, r0
 367:Generated_Source\PSoC4/Timer_1.c **** 
 509              		.loc 1 367 0
 510 0004 FFF7FEFF 		bl	CyEnterCriticalSection
 511              	.LVL39:
 369:Generated_Source\PSoC4/Timer_1.c ****     Timer_1_CONTROL_REG |= prescaler;
 512              		.loc 1 369 0
 513 0008 054B     		ldr	r3, .L28
 514 000a 064A     		ldr	r2, .L28+4
 515 000c 1968     		ldr	r1, [r3]
 373:Generated_Source\PSoC4/Timer_1.c **** 
 516              		.loc 1 373 0
 517              		@ sp needed
 369:Generated_Source\PSoC4/Timer_1.c ****     Timer_1_CONTROL_REG |= prescaler;
 518              		.loc 1 369 0
 519 000e 0A40     		ands	r2, r1
 520 0010 1A60     		str	r2, [r3]
 370:Generated_Source\PSoC4/Timer_1.c **** 
 521              		.loc 1 370 0
 522 0012 1A68     		ldr	r2, [r3]
 523 0014 1443     		orrs	r4, r2
 524              	.LVL40:
 525 0016 1C60     		str	r4, [r3]
 372:Generated_Source\PSoC4/Timer_1.c **** }
 526              		.loc 1 372 0
 527 0018 FFF7FEFF 		bl	CyExitCriticalSection
 528              	.LVL41:
 373:Generated_Source\PSoC4/Timer_1.c **** 
 529              		.loc 1 373 0
 530 001c 10BD     		pop	{r4, pc}
 531              	.L29:
 532 001e C046     		.align	2
 533              	.L28:
 534 0020 00010540 		.word	1074069760
 535 0024 FF00FFFF 		.word	-65281
 536              		.cfi_endproc
 537              	.LFE6:
 538              		.size	Timer_1_SetPrescaler, .-Timer_1_SetPrescaler
 539              		.section	.text.Timer_1_SetOneShot,"ax",%progbits
ARM GAS  C:\Users\young\AppData\Local\Temp\cc3sLV9e.s 			page 35


 540              		.align	2
 541              		.global	Timer_1_SetOneShot
 542              		.code	16
 543              		.thumb_func
 544              		.type	Timer_1_SetOneShot, %function
 545              	Timer_1_SetOneShot:
 546              	.LFB7:
 396:Generated_Source\PSoC4/Timer_1.c ****     uint8 enableInterrupts;
 547              		.loc 1 396 0
 548              		.cfi_startproc
 549              		@ args = 0, pretend = 0, frame = 0
 550              		@ frame_needed = 0, uses_anonymous_args = 0
 551              	.LVL42:
 552 0000 10B5     		push	{r4, lr}
 553              		.cfi_def_cfa_offset 8
 554              		.cfi_offset 4, -8
 555              		.cfi_offset 14, -4
 396:Generated_Source\PSoC4/Timer_1.c ****     uint8 enableInterrupts;
 556              		.loc 1 396 0
 557 0002 0400     		movs	r4, r0
 399:Generated_Source\PSoC4/Timer_1.c **** 
 558              		.loc 1 399 0
 559 0004 FFF7FEFF 		bl	CyEnterCriticalSection
 560              	.LVL43:
 401:Generated_Source\PSoC4/Timer_1.c ****     Timer_1_CONTROL_REG |= ((uint32)((oneShotEnable & Timer_1_1BIT_MASK) <<
 561              		.loc 1 401 0
 562 0008 074B     		ldr	r3, .L31
 563 000a 084A     		ldr	r2, .L31+4
 564 000c 1968     		ldr	r1, [r3]
 406:Generated_Source\PSoC4/Timer_1.c **** 
 565              		.loc 1 406 0
 566              		@ sp needed
 401:Generated_Source\PSoC4/Timer_1.c ****     Timer_1_CONTROL_REG |= ((uint32)((oneShotEnable & Timer_1_1BIT_MASK) <<
 567              		.loc 1 401 0
 568 000e 0A40     		ands	r2, r1
 569 0010 1A60     		str	r2, [r3]
 402:Generated_Source\PSoC4/Timer_1.c ****                                                                Timer_1_ONESHOT_SHIFT));
 570              		.loc 1 402 0
 571 0012 A204     		lsls	r2, r4, #18
 572 0014 8024     		movs	r4, #128
 573              	.LVL44:
 574 0016 1968     		ldr	r1, [r3]
 575 0018 E402     		lsls	r4, r4, #11
 576 001a 2240     		ands	r2, r4
 577 001c 0A43     		orrs	r2, r1
 578 001e 1A60     		str	r2, [r3]
 405:Generated_Source\PSoC4/Timer_1.c **** }
 579              		.loc 1 405 0
 580 0020 FFF7FEFF 		bl	CyExitCriticalSection
 581              	.LVL45:
 406:Generated_Source\PSoC4/Timer_1.c **** 
 582              		.loc 1 406 0
 583 0024 10BD     		pop	{r4, pc}
 584              	.L32:
 585 0026 C046     		.align	2
 586              	.L31:
 587 0028 00010540 		.word	1074069760
ARM GAS  C:\Users\young\AppData\Local\Temp\cc3sLV9e.s 			page 36


 588 002c FFFFFBFF 		.word	-262145
 589              		.cfi_endproc
 590              	.LFE7:
 591              		.size	Timer_1_SetOneShot, .-Timer_1_SetOneShot
 592              		.section	.text.Timer_1_SetPWMMode,"ax",%progbits
 593              		.align	2
 594              		.global	Timer_1_SetPWMMode
 595              		.code	16
 596              		.thumb_func
 597              		.type	Timer_1_SetPWMMode, %function
 598              	Timer_1_SetPWMMode:
 599              	.LFB8:
 450:Generated_Source\PSoC4/Timer_1.c ****     Timer_1_TRIG_CONTROL2_REG = (modeMask & Timer_1_6BIT_MASK);
 600              		.loc 1 450 0
 601              		.cfi_startproc
 602              		@ args = 0, pretend = 0, frame = 0
 603              		@ frame_needed = 0, uses_anonymous_args = 0
 604              		@ link register save eliminated.
 605              	.LVL46:
 451:Generated_Source\PSoC4/Timer_1.c **** }
 606              		.loc 1 451 0
 607 0000 3F23     		movs	r3, #63
 608 0002 1840     		ands	r0, r3
 609              	.LVL47:
 610 0004 014B     		ldr	r3, .L34
 452:Generated_Source\PSoC4/Timer_1.c **** 
 611              		.loc 1 452 0
 612              		@ sp needed
 451:Generated_Source\PSoC4/Timer_1.c **** }
 613              		.loc 1 451 0
 614 0006 1860     		str	r0, [r3]
 452:Generated_Source\PSoC4/Timer_1.c **** 
 615              		.loc 1 452 0
 616 0008 7047     		bx	lr
 617              	.L35:
 618 000a C046     		.align	2
 619              	.L34:
 620 000c 28010540 		.word	1074069800
 621              		.cfi_endproc
 622              	.LFE8:
 623              		.size	Timer_1_SetPWMMode, .-Timer_1_SetPWMMode
 624              		.section	.text.Timer_1_SetPWMSyncKill,"ax",%progbits
 625              		.align	2
 626              		.global	Timer_1_SetPWMSyncKill
 627              		.code	16
 628              		.thumb_func
 629              		.type	Timer_1_SetPWMSyncKill, %function
 630              	Timer_1_SetPWMSyncKill:
 631              	.LFB9:
 486:Generated_Source\PSoC4/Timer_1.c ****     uint8 enableInterrupts;
 632              		.loc 1 486 0
 633              		.cfi_startproc
 634              		@ args = 0, pretend = 0, frame = 0
 635              		@ frame_needed = 0, uses_anonymous_args = 0
 636              	.LVL48:
 637 0000 10B5     		push	{r4, lr}
 638              		.cfi_def_cfa_offset 8
ARM GAS  C:\Users\young\AppData\Local\Temp\cc3sLV9e.s 			page 37


 639              		.cfi_offset 4, -8
 640              		.cfi_offset 14, -4
 486:Generated_Source\PSoC4/Timer_1.c ****     uint8 enableInterrupts;
 641              		.loc 1 486 0
 642 0002 0400     		movs	r4, r0
 489:Generated_Source\PSoC4/Timer_1.c **** 
 643              		.loc 1 489 0
 644 0004 FFF7FEFF 		bl	CyEnterCriticalSection
 645              	.LVL49:
 491:Generated_Source\PSoC4/Timer_1.c ****     Timer_1_CONTROL_REG |= ((uint32)((syncKillEnable & Timer_1_1BIT_MASK)  <<
 646              		.loc 1 491 0
 647 0008 0421     		movs	r1, #4
 648 000a 064B     		ldr	r3, .L37
 492:Generated_Source\PSoC4/Timer_1.c ****                                                Timer_1_PWM_SYNC_KILL_SHIFT));
 649              		.loc 1 492 0
 650 000c A400     		lsls	r4, r4, #2
 651              	.LVL50:
 491:Generated_Source\PSoC4/Timer_1.c ****     Timer_1_CONTROL_REG |= ((uint32)((syncKillEnable & Timer_1_1BIT_MASK)  <<
 652              		.loc 1 491 0
 653 000e 1A68     		ldr	r2, [r3]
 492:Generated_Source\PSoC4/Timer_1.c ****                                                Timer_1_PWM_SYNC_KILL_SHIFT));
 654              		.loc 1 492 0
 655 0010 0C40     		ands	r4, r1
 491:Generated_Source\PSoC4/Timer_1.c ****     Timer_1_CONTROL_REG |= ((uint32)((syncKillEnable & Timer_1_1BIT_MASK)  <<
 656              		.loc 1 491 0
 657 0012 8A43     		bics	r2, r1
 658 0014 1A60     		str	r2, [r3]
 492:Generated_Source\PSoC4/Timer_1.c ****                                                Timer_1_PWM_SYNC_KILL_SHIFT));
 659              		.loc 1 492 0
 660 0016 1A68     		ldr	r2, [r3]
 496:Generated_Source\PSoC4/Timer_1.c **** 
 661              		.loc 1 496 0
 662              		@ sp needed
 492:Generated_Source\PSoC4/Timer_1.c ****                                                Timer_1_PWM_SYNC_KILL_SHIFT));
 663              		.loc 1 492 0
 664 0018 1443     		orrs	r4, r2
 665 001a 1C60     		str	r4, [r3]
 495:Generated_Source\PSoC4/Timer_1.c **** }
 666              		.loc 1 495 0
 667 001c FFF7FEFF 		bl	CyExitCriticalSection
 668              	.LVL51:
 496:Generated_Source\PSoC4/Timer_1.c **** 
 669              		.loc 1 496 0
 670 0020 10BD     		pop	{r4, pc}
 671              	.L38:
 672 0022 C046     		.align	2
 673              	.L37:
 674 0024 00010540 		.word	1074069760
 675              		.cfi_endproc
 676              	.LFE9:
 677              		.size	Timer_1_SetPWMSyncKill, .-Timer_1_SetPWMSyncKill
 678              		.section	.text.Timer_1_SetPWMStopOnKill,"ax",%progbits
 679              		.align	2
 680              		.global	Timer_1_SetPWMStopOnKill
 681              		.code	16
 682              		.thumb_func
 683              		.type	Timer_1_SetPWMStopOnKill, %function
ARM GAS  C:\Users\young\AppData\Local\Temp\cc3sLV9e.s 			page 38


 684              	Timer_1_SetPWMStopOnKill:
 685              	.LFB10:
 520:Generated_Source\PSoC4/Timer_1.c ****     uint8 enableInterrupts;
 686              		.loc 1 520 0
 687              		.cfi_startproc
 688              		@ args = 0, pretend = 0, frame = 0
 689              		@ frame_needed = 0, uses_anonymous_args = 0
 690              	.LVL52:
 691 0000 10B5     		push	{r4, lr}
 692              		.cfi_def_cfa_offset 8
 693              		.cfi_offset 4, -8
 694              		.cfi_offset 14, -4
 520:Generated_Source\PSoC4/Timer_1.c ****     uint8 enableInterrupts;
 695              		.loc 1 520 0
 696 0002 0400     		movs	r4, r0
 523:Generated_Source\PSoC4/Timer_1.c **** 
 697              		.loc 1 523 0
 698 0004 FFF7FEFF 		bl	CyEnterCriticalSection
 699              	.LVL53:
 525:Generated_Source\PSoC4/Timer_1.c ****     Timer_1_CONTROL_REG |= ((uint32)((stopOnKillEnable & Timer_1_1BIT_MASK)  <<
 700              		.loc 1 525 0
 701 0008 0821     		movs	r1, #8
 702 000a 064B     		ldr	r3, .L40
 526:Generated_Source\PSoC4/Timer_1.c ****                                                          Timer_1_PWM_STOP_KILL_SHIFT));
 703              		.loc 1 526 0
 704 000c E400     		lsls	r4, r4, #3
 705              	.LVL54:
 525:Generated_Source\PSoC4/Timer_1.c ****     Timer_1_CONTROL_REG |= ((uint32)((stopOnKillEnable & Timer_1_1BIT_MASK)  <<
 706              		.loc 1 525 0
 707 000e 1A68     		ldr	r2, [r3]
 526:Generated_Source\PSoC4/Timer_1.c ****                                                          Timer_1_PWM_STOP_KILL_SHIFT));
 708              		.loc 1 526 0
 709 0010 0C40     		ands	r4, r1
 525:Generated_Source\PSoC4/Timer_1.c ****     Timer_1_CONTROL_REG |= ((uint32)((stopOnKillEnable & Timer_1_1BIT_MASK)  <<
 710              		.loc 1 525 0
 711 0012 8A43     		bics	r2, r1
 712 0014 1A60     		str	r2, [r3]
 526:Generated_Source\PSoC4/Timer_1.c ****                                                          Timer_1_PWM_STOP_KILL_SHIFT));
 713              		.loc 1 526 0
 714 0016 1A68     		ldr	r2, [r3]
 530:Generated_Source\PSoC4/Timer_1.c **** 
 715              		.loc 1 530 0
 716              		@ sp needed
 526:Generated_Source\PSoC4/Timer_1.c ****                                                          Timer_1_PWM_STOP_KILL_SHIFT));
 717              		.loc 1 526 0
 718 0018 1443     		orrs	r4, r2
 719 001a 1C60     		str	r4, [r3]
 529:Generated_Source\PSoC4/Timer_1.c **** }
 720              		.loc 1 529 0
 721 001c FFF7FEFF 		bl	CyExitCriticalSection
 722              	.LVL55:
 530:Generated_Source\PSoC4/Timer_1.c **** 
 723              		.loc 1 530 0
 724 0020 10BD     		pop	{r4, pc}
 725              	.L41:
 726 0022 C046     		.align	2
 727              	.L40:
ARM GAS  C:\Users\young\AppData\Local\Temp\cc3sLV9e.s 			page 39


 728 0024 00010540 		.word	1074069760
 729              		.cfi_endproc
 730              	.LFE10:
 731              		.size	Timer_1_SetPWMStopOnKill, .-Timer_1_SetPWMStopOnKill
 732              		.section	.text.Timer_1_SetPWMDeadTime,"ax",%progbits
 733              		.align	2
 734              		.global	Timer_1_SetPWMDeadTime
 735              		.code	16
 736              		.thumb_func
 737              		.type	Timer_1_SetPWMDeadTime, %function
 738              	Timer_1_SetPWMDeadTime:
 739              	.LFB11:
 553:Generated_Source\PSoC4/Timer_1.c ****     uint8 enableInterrupts;
 740              		.loc 1 553 0
 741              		.cfi_startproc
 742              		@ args = 0, pretend = 0, frame = 0
 743              		@ frame_needed = 0, uses_anonymous_args = 0
 744              	.LVL56:
 745 0000 10B5     		push	{r4, lr}
 746              		.cfi_def_cfa_offset 8
 747              		.cfi_offset 4, -8
 748              		.cfi_offset 14, -4
 553:Generated_Source\PSoC4/Timer_1.c ****     uint8 enableInterrupts;
 749              		.loc 1 553 0
 750 0002 0400     		movs	r4, r0
 556:Generated_Source\PSoC4/Timer_1.c **** 
 751              		.loc 1 556 0
 752 0004 FFF7FEFF 		bl	CyEnterCriticalSection
 753              	.LVL57:
 558:Generated_Source\PSoC4/Timer_1.c ****     Timer_1_CONTROL_REG |= ((uint32)((deadTime & Timer_1_8BIT_MASK) <<
 754              		.loc 1 558 0
 755 0008 064B     		ldr	r3, .L43
 756 000a 074A     		ldr	r2, .L43+4
 757 000c 1968     		ldr	r1, [r3]
 559:Generated_Source\PSoC4/Timer_1.c ****                                                           Timer_1_PRESCALER_SHIFT));
 758              		.loc 1 559 0
 759 000e 2406     		lsls	r4, r4, #24
 760              	.LVL58:
 558:Generated_Source\PSoC4/Timer_1.c ****     Timer_1_CONTROL_REG |= ((uint32)((deadTime & Timer_1_8BIT_MASK) <<
 761              		.loc 1 558 0
 762 0010 0A40     		ands	r2, r1
 763 0012 1A60     		str	r2, [r3]
 559:Generated_Source\PSoC4/Timer_1.c ****                                                           Timer_1_PRESCALER_SHIFT));
 764              		.loc 1 559 0
 765 0014 1A68     		ldr	r2, [r3]
 766 0016 240C     		lsrs	r4, r4, #16
 767 0018 1443     		orrs	r4, r2
 768 001a 1C60     		str	r4, [r3]
 562:Generated_Source\PSoC4/Timer_1.c **** }
 769              		.loc 1 562 0
 770 001c FFF7FEFF 		bl	CyExitCriticalSection
 771              	.LVL59:
 563:Generated_Source\PSoC4/Timer_1.c **** 
 772              		.loc 1 563 0
 773              		@ sp needed
 774 0020 10BD     		pop	{r4, pc}
 775              	.L44:
ARM GAS  C:\Users\young\AppData\Local\Temp\cc3sLV9e.s 			page 40


 776 0022 C046     		.align	2
 777              	.L43:
 778 0024 00010540 		.word	1074069760
 779 0028 FF00FFFF 		.word	-65281
 780              		.cfi_endproc
 781              	.LFE11:
 782              		.size	Timer_1_SetPWMDeadTime, .-Timer_1_SetPWMDeadTime
 783              		.section	.text.Timer_1_SetPWMInvert,"ax",%progbits
 784              		.align	2
 785              		.global	Timer_1_SetPWMInvert
 786              		.code	16
 787              		.thumb_func
 788              		.type	Timer_1_SetPWMInvert, %function
 789              	Timer_1_SetPWMInvert:
 790              	.LFB12:
 586:Generated_Source\PSoC4/Timer_1.c ****     uint8 enableInterrupts;
 791              		.loc 1 586 0
 792              		.cfi_startproc
 793              		@ args = 0, pretend = 0, frame = 0
 794              		@ frame_needed = 0, uses_anonymous_args = 0
 795              	.LVL60:
 796 0000 10B5     		push	{r4, lr}
 797              		.cfi_def_cfa_offset 8
 798              		.cfi_offset 4, -8
 799              		.cfi_offset 14, -4
 586:Generated_Source\PSoC4/Timer_1.c ****     uint8 enableInterrupts;
 800              		.loc 1 586 0
 801 0002 0400     		movs	r4, r0
 589:Generated_Source\PSoC4/Timer_1.c **** 
 802              		.loc 1 589 0
 803 0004 FFF7FEFF 		bl	CyEnterCriticalSection
 804              	.LVL61:
 591:Generated_Source\PSoC4/Timer_1.c ****     Timer_1_CONTROL_REG |= mask;
 805              		.loc 1 591 0
 806 0008 054B     		ldr	r3, .L46
 807 000a 064A     		ldr	r2, .L46+4
 808 000c 1968     		ldr	r1, [r3]
 595:Generated_Source\PSoC4/Timer_1.c **** 
 809              		.loc 1 595 0
 810              		@ sp needed
 591:Generated_Source\PSoC4/Timer_1.c ****     Timer_1_CONTROL_REG |= mask;
 811              		.loc 1 591 0
 812 000e 0A40     		ands	r2, r1
 813 0010 1A60     		str	r2, [r3]
 592:Generated_Source\PSoC4/Timer_1.c **** 
 814              		.loc 1 592 0
 815 0012 1A68     		ldr	r2, [r3]
 816 0014 1443     		orrs	r4, r2
 817              	.LVL62:
 818 0016 1C60     		str	r4, [r3]
 594:Generated_Source\PSoC4/Timer_1.c **** }
 819              		.loc 1 594 0
 820 0018 FFF7FEFF 		bl	CyExitCriticalSection
 821              	.LVL63:
 595:Generated_Source\PSoC4/Timer_1.c **** 
 822              		.loc 1 595 0
 823 001c 10BD     		pop	{r4, pc}
ARM GAS  C:\Users\young\AppData\Local\Temp\cc3sLV9e.s 			page 41


 824              	.L47:
 825 001e C046     		.align	2
 826              	.L46:
 827 0020 00010540 		.word	1074069760
 828 0024 FFFFCFFF 		.word	-3145729
 829              		.cfi_endproc
 830              	.LFE12:
 831              		.size	Timer_1_SetPWMInvert, .-Timer_1_SetPWMInvert
 832              		.section	.text.Timer_1_WriteCounter,"ax",%progbits
 833              		.align	2
 834              		.global	Timer_1_WriteCounter
 835              		.code	16
 836              		.thumb_func
 837              		.type	Timer_1_WriteCounter, %function
 838              	Timer_1_WriteCounter:
 839              	.LFB13:
 616:Generated_Source\PSoC4/Timer_1.c ****     Timer_1_COUNTER_REG = (count & Timer_1_16BIT_MASK);
 840              		.loc 1 616 0
 841              		.cfi_startproc
 842              		@ args = 0, pretend = 0, frame = 0
 843              		@ frame_needed = 0, uses_anonymous_args = 0
 844              		@ link register save eliminated.
 845              	.LVL64:
 617:Generated_Source\PSoC4/Timer_1.c **** }
 846              		.loc 1 617 0
 847 0000 024B     		ldr	r3, .L49
 848 0002 0004     		lsls	r0, r0, #16
 849              	.LVL65:
 850 0004 000C     		lsrs	r0, r0, #16
 851 0006 1860     		str	r0, [r3]
 618:Generated_Source\PSoC4/Timer_1.c **** 
 852              		.loc 1 618 0
 853              		@ sp needed
 854 0008 7047     		bx	lr
 855              	.L50:
 856 000a C046     		.align	2
 857              	.L49:
 858 000c 08010540 		.word	1074069768
 859              		.cfi_endproc
 860              	.LFE13:
 861              		.size	Timer_1_WriteCounter, .-Timer_1_WriteCounter
 862              		.section	.text.Timer_1_ReadCounter,"ax",%progbits
 863              		.align	2
 864              		.global	Timer_1_ReadCounter
 865              		.code	16
 866              		.thumb_func
 867              		.type	Timer_1_ReadCounter, %function
 868              	Timer_1_ReadCounter:
 869              	.LFB14:
 636:Generated_Source\PSoC4/Timer_1.c ****     return (Timer_1_COUNTER_REG & Timer_1_16BIT_MASK);
 870              		.loc 1 636 0
 871              		.cfi_startproc
 872              		@ args = 0, pretend = 0, frame = 0
 873              		@ frame_needed = 0, uses_anonymous_args = 0
 874              		@ link register save eliminated.
 637:Generated_Source\PSoC4/Timer_1.c **** }
 875              		.loc 1 637 0
ARM GAS  C:\Users\young\AppData\Local\Temp\cc3sLV9e.s 			page 42


 876 0000 024B     		ldr	r3, .L52
 638:Generated_Source\PSoC4/Timer_1.c **** 
 877              		.loc 1 638 0
 878              		@ sp needed
 637:Generated_Source\PSoC4/Timer_1.c **** }
 879              		.loc 1 637 0
 880 0002 1868     		ldr	r0, [r3]
 881 0004 0004     		lsls	r0, r0, #16
 882 0006 000C     		lsrs	r0, r0, #16
 638:Generated_Source\PSoC4/Timer_1.c **** 
 883              		.loc 1 638 0
 884 0008 7047     		bx	lr
 885              	.L53:
 886 000a C046     		.align	2
 887              	.L52:
 888 000c 08010540 		.word	1074069768
 889              		.cfi_endproc
 890              	.LFE14:
 891              		.size	Timer_1_ReadCounter, .-Timer_1_ReadCounter
 892              		.section	.text.Timer_1_SetCounterMode,"ax",%progbits
 893              		.align	2
 894              		.global	Timer_1_SetCounterMode
 895              		.code	16
 896              		.thumb_func
 897              		.type	Timer_1_SetCounterMode, %function
 898              	Timer_1_SetCounterMode:
 899              	.LFB15:
 665:Generated_Source\PSoC4/Timer_1.c ****     uint8 enableInterrupts;
 900              		.loc 1 665 0
 901              		.cfi_startproc
 902              		@ args = 0, pretend = 0, frame = 0
 903              		@ frame_needed = 0, uses_anonymous_args = 0
 904              	.LVL66:
 905 0000 10B5     		push	{r4, lr}
 906              		.cfi_def_cfa_offset 8
 907              		.cfi_offset 4, -8
 908              		.cfi_offset 14, -4
 665:Generated_Source\PSoC4/Timer_1.c ****     uint8 enableInterrupts;
 909              		.loc 1 665 0
 910 0002 0400     		movs	r4, r0
 668:Generated_Source\PSoC4/Timer_1.c **** 
 911              		.loc 1 668 0
 912 0004 FFF7FEFF 		bl	CyEnterCriticalSection
 913              	.LVL67:
 670:Generated_Source\PSoC4/Timer_1.c ****     Timer_1_CONTROL_REG |= counterMode;
 914              		.loc 1 670 0
 915 0008 054B     		ldr	r3, .L55
 916 000a 064A     		ldr	r2, .L55+4
 917 000c 1968     		ldr	r1, [r3]
 674:Generated_Source\PSoC4/Timer_1.c **** 
 918              		.loc 1 674 0
 919              		@ sp needed
 670:Generated_Source\PSoC4/Timer_1.c ****     Timer_1_CONTROL_REG |= counterMode;
 920              		.loc 1 670 0
 921 000e 0A40     		ands	r2, r1
 922 0010 1A60     		str	r2, [r3]
 671:Generated_Source\PSoC4/Timer_1.c **** 
ARM GAS  C:\Users\young\AppData\Local\Temp\cc3sLV9e.s 			page 43


 923              		.loc 1 671 0
 924 0012 1A68     		ldr	r2, [r3]
 925 0014 1443     		orrs	r4, r2
 926              	.LVL68:
 927 0016 1C60     		str	r4, [r3]
 673:Generated_Source\PSoC4/Timer_1.c **** }
 928              		.loc 1 673 0
 929 0018 FFF7FEFF 		bl	CyExitCriticalSection
 930              	.LVL69:
 674:Generated_Source\PSoC4/Timer_1.c **** 
 931              		.loc 1 674 0
 932 001c 10BD     		pop	{r4, pc}
 933              	.L56:
 934 001e C046     		.align	2
 935              	.L55:
 936 0020 00010540 		.word	1074069760
 937 0024 FFFFFCFF 		.word	-196609
 938              		.cfi_endproc
 939              	.LFE15:
 940              		.size	Timer_1_SetCounterMode, .-Timer_1_SetCounterMode
 941              		.section	.text.Timer_1_WritePeriod,"ax",%progbits
 942              		.align	2
 943              		.global	Timer_1_WritePeriod
 944              		.code	16
 945              		.thumb_func
 946              		.type	Timer_1_WritePeriod, %function
 947              	Timer_1_WritePeriod:
 948              	.LFB16:
 694:Generated_Source\PSoC4/Timer_1.c ****     Timer_1_PERIOD_REG = (period & Timer_1_16BIT_MASK);
 949              		.loc 1 694 0
 950              		.cfi_startproc
 951              		@ args = 0, pretend = 0, frame = 0
 952              		@ frame_needed = 0, uses_anonymous_args = 0
 953              		@ link register save eliminated.
 954              	.LVL70:
 695:Generated_Source\PSoC4/Timer_1.c **** }
 955              		.loc 1 695 0
 956 0000 024B     		ldr	r3, .L58
 957 0002 0004     		lsls	r0, r0, #16
 958              	.LVL71:
 959 0004 000C     		lsrs	r0, r0, #16
 960 0006 1860     		str	r0, [r3]
 696:Generated_Source\PSoC4/Timer_1.c **** 
 961              		.loc 1 696 0
 962              		@ sp needed
 963 0008 7047     		bx	lr
 964              	.L59:
 965 000a C046     		.align	2
 966              	.L58:
 967 000c 14010540 		.word	1074069780
 968              		.cfi_endproc
 969              	.LFE16:
 970              		.size	Timer_1_WritePeriod, .-Timer_1_WritePeriod
 971              		.section	.text.Timer_1_ReadPeriod,"ax",%progbits
 972              		.align	2
 973              		.global	Timer_1_ReadPeriod
 974              		.code	16
ARM GAS  C:\Users\young\AppData\Local\Temp\cc3sLV9e.s 			page 44


 975              		.thumb_func
 976              		.type	Timer_1_ReadPeriod, %function
 977              	Timer_1_ReadPeriod:
 978              	.LFB17:
 714:Generated_Source\PSoC4/Timer_1.c ****     return (Timer_1_PERIOD_REG & Timer_1_16BIT_MASK);
 979              		.loc 1 714 0
 980              		.cfi_startproc
 981              		@ args = 0, pretend = 0, frame = 0
 982              		@ frame_needed = 0, uses_anonymous_args = 0
 983              		@ link register save eliminated.
 715:Generated_Source\PSoC4/Timer_1.c **** }
 984              		.loc 1 715 0
 985 0000 024B     		ldr	r3, .L61
 716:Generated_Source\PSoC4/Timer_1.c **** 
 986              		.loc 1 716 0
 987              		@ sp needed
 715:Generated_Source\PSoC4/Timer_1.c **** }
 988              		.loc 1 715 0
 989 0002 1868     		ldr	r0, [r3]
 990 0004 0004     		lsls	r0, r0, #16
 991 0006 000C     		lsrs	r0, r0, #16
 716:Generated_Source\PSoC4/Timer_1.c **** 
 992              		.loc 1 716 0
 993 0008 7047     		bx	lr
 994              	.L62:
 995 000a C046     		.align	2
 996              	.L61:
 997 000c 14010540 		.word	1074069780
 998              		.cfi_endproc
 999              	.LFE17:
 1000              		.size	Timer_1_ReadPeriod, .-Timer_1_ReadPeriod
 1001              		.section	.text.Timer_1_SetCompareSwap,"ax",%progbits
 1002              		.align	2
 1003              		.global	Timer_1_SetCompareSwap
 1004              		.code	16
 1005              		.thumb_func
 1006              		.type	Timer_1_SetCompareSwap, %function
 1007              	Timer_1_SetCompareSwap:
 1008              	.LFB18:
 740:Generated_Source\PSoC4/Timer_1.c ****     uint8 enableInterrupts;
 1009              		.loc 1 740 0
 1010              		.cfi_startproc
 1011              		@ args = 0, pretend = 0, frame = 0
 1012              		@ frame_needed = 0, uses_anonymous_args = 0
 1013              	.LVL72:
 1014 0000 10B5     		push	{r4, lr}
 1015              		.cfi_def_cfa_offset 8
 1016              		.cfi_offset 4, -8
 1017              		.cfi_offset 14, -4
 740:Generated_Source\PSoC4/Timer_1.c ****     uint8 enableInterrupts;
 1018              		.loc 1 740 0
 1019 0002 0400     		movs	r4, r0
 743:Generated_Source\PSoC4/Timer_1.c **** 
 1020              		.loc 1 743 0
 1021 0004 FFF7FEFF 		bl	CyEnterCriticalSection
 1022              	.LVL73:
 745:Generated_Source\PSoC4/Timer_1.c ****     Timer_1_CONTROL_REG |= (swapEnable & Timer_1_1BIT_MASK);
ARM GAS  C:\Users\young\AppData\Local\Temp\cc3sLV9e.s 			page 45


 1023              		.loc 1 745 0
 1024 0008 0122     		movs	r2, #1
 1025 000a 054B     		ldr	r3, .L64
 749:Generated_Source\PSoC4/Timer_1.c **** 
 1026              		.loc 1 749 0
 1027              		@ sp needed
 745:Generated_Source\PSoC4/Timer_1.c ****     Timer_1_CONTROL_REG |= (swapEnable & Timer_1_1BIT_MASK);
 1028              		.loc 1 745 0
 1029 000c 1968     		ldr	r1, [r3]
 1030 000e 9143     		bics	r1, r2
 1031 0010 1960     		str	r1, [r3]
 746:Generated_Source\PSoC4/Timer_1.c **** 
 1032              		.loc 1 746 0
 1033 0012 1968     		ldr	r1, [r3]
 1034 0014 2240     		ands	r2, r4
 1035 0016 0A43     		orrs	r2, r1
 1036 0018 1A60     		str	r2, [r3]
 748:Generated_Source\PSoC4/Timer_1.c **** }
 1037              		.loc 1 748 0
 1038 001a FFF7FEFF 		bl	CyExitCriticalSection
 1039              	.LVL74:
 1040              	.LVL75:
 749:Generated_Source\PSoC4/Timer_1.c **** 
 1041              		.loc 1 749 0
 1042 001e 10BD     		pop	{r4, pc}
 1043              	.L65:
 1044              		.align	2
 1045              	.L64:
 1046 0020 00010540 		.word	1074069760
 1047              		.cfi_endproc
 1048              	.LFE18:
 1049              		.size	Timer_1_SetCompareSwap, .-Timer_1_SetCompareSwap
 1050              		.section	.text.Timer_1_WritePeriodBuf,"ax",%progbits
 1051              		.align	2
 1052              		.global	Timer_1_WritePeriodBuf
 1053              		.code	16
 1054              		.thumb_func
 1055              		.type	Timer_1_WritePeriodBuf, %function
 1056              	Timer_1_WritePeriodBuf:
 1057              	.LFB19:
 767:Generated_Source\PSoC4/Timer_1.c ****     Timer_1_PERIOD_BUF_REG = (periodBuf & Timer_1_16BIT_MASK);
 1058              		.loc 1 767 0
 1059              		.cfi_startproc
 1060              		@ args = 0, pretend = 0, frame = 0
 1061              		@ frame_needed = 0, uses_anonymous_args = 0
 1062              		@ link register save eliminated.
 1063              	.LVL76:
 768:Generated_Source\PSoC4/Timer_1.c **** }
 1064              		.loc 1 768 0
 1065 0000 024B     		ldr	r3, .L67
 1066 0002 0004     		lsls	r0, r0, #16
 1067              	.LVL77:
 1068 0004 000C     		lsrs	r0, r0, #16
 1069 0006 1860     		str	r0, [r3]
 769:Generated_Source\PSoC4/Timer_1.c **** 
 1070              		.loc 1 769 0
 1071              		@ sp needed
ARM GAS  C:\Users\young\AppData\Local\Temp\cc3sLV9e.s 			page 46


 1072 0008 7047     		bx	lr
 1073              	.L68:
 1074 000a C046     		.align	2
 1075              	.L67:
 1076 000c 18010540 		.word	1074069784
 1077              		.cfi_endproc
 1078              	.LFE19:
 1079              		.size	Timer_1_WritePeriodBuf, .-Timer_1_WritePeriodBuf
 1080              		.section	.text.Timer_1_ReadPeriodBuf,"ax",%progbits
 1081              		.align	2
 1082              		.global	Timer_1_ReadPeriodBuf
 1083              		.code	16
 1084              		.thumb_func
 1085              		.type	Timer_1_ReadPeriodBuf, %function
 1086              	Timer_1_ReadPeriodBuf:
 1087              	.LFB20:
 787:Generated_Source\PSoC4/Timer_1.c ****     return (Timer_1_PERIOD_BUF_REG & Timer_1_16BIT_MASK);
 1088              		.loc 1 787 0
 1089              		.cfi_startproc
 1090              		@ args = 0, pretend = 0, frame = 0
 1091              		@ frame_needed = 0, uses_anonymous_args = 0
 1092              		@ link register save eliminated.
 788:Generated_Source\PSoC4/Timer_1.c **** }
 1093              		.loc 1 788 0
 1094 0000 024B     		ldr	r3, .L70
 789:Generated_Source\PSoC4/Timer_1.c **** 
 1095              		.loc 1 789 0
 1096              		@ sp needed
 788:Generated_Source\PSoC4/Timer_1.c **** }
 1097              		.loc 1 788 0
 1098 0002 1868     		ldr	r0, [r3]
 1099 0004 0004     		lsls	r0, r0, #16
 1100 0006 000C     		lsrs	r0, r0, #16
 789:Generated_Source\PSoC4/Timer_1.c **** 
 1101              		.loc 1 789 0
 1102 0008 7047     		bx	lr
 1103              	.L71:
 1104 000a C046     		.align	2
 1105              	.L70:
 1106 000c 18010540 		.word	1074069784
 1107              		.cfi_endproc
 1108              	.LFE20:
 1109              		.size	Timer_1_ReadPeriodBuf, .-Timer_1_ReadPeriodBuf
 1110              		.section	.text.Timer_1_SetPeriodSwap,"ax",%progbits
 1111              		.align	2
 1112              		.global	Timer_1_SetPeriodSwap
 1113              		.code	16
 1114              		.thumb_func
 1115              		.type	Timer_1_SetPeriodSwap, %function
 1116              	Timer_1_SetPeriodSwap:
 1117              	.LFB21:
 813:Generated_Source\PSoC4/Timer_1.c ****     uint8 enableInterrupts;
 1118              		.loc 1 813 0
 1119              		.cfi_startproc
 1120              		@ args = 0, pretend = 0, frame = 0
 1121              		@ frame_needed = 0, uses_anonymous_args = 0
 1122              	.LVL78:
ARM GAS  C:\Users\young\AppData\Local\Temp\cc3sLV9e.s 			page 47


 1123 0000 10B5     		push	{r4, lr}
 1124              		.cfi_def_cfa_offset 8
 1125              		.cfi_offset 4, -8
 1126              		.cfi_offset 14, -4
 813:Generated_Source\PSoC4/Timer_1.c ****     uint8 enableInterrupts;
 1127              		.loc 1 813 0
 1128 0002 0400     		movs	r4, r0
 816:Generated_Source\PSoC4/Timer_1.c **** 
 1129              		.loc 1 816 0
 1130 0004 FFF7FEFF 		bl	CyEnterCriticalSection
 1131              	.LVL79:
 818:Generated_Source\PSoC4/Timer_1.c ****     Timer_1_CONTROL_REG |= ((uint32)((swapEnable & Timer_1_1BIT_MASK) <<
 1132              		.loc 1 818 0
 1133 0008 0221     		movs	r1, #2
 1134 000a 064B     		ldr	r3, .L73
 819:Generated_Source\PSoC4/Timer_1.c ****                                                             Timer_1_RELOAD_PERIOD_SHIFT));
 1135              		.loc 1 819 0
 1136 000c 6400     		lsls	r4, r4, #1
 1137              	.LVL80:
 818:Generated_Source\PSoC4/Timer_1.c ****     Timer_1_CONTROL_REG |= ((uint32)((swapEnable & Timer_1_1BIT_MASK) <<
 1138              		.loc 1 818 0
 1139 000e 1A68     		ldr	r2, [r3]
 819:Generated_Source\PSoC4/Timer_1.c ****                                                             Timer_1_RELOAD_PERIOD_SHIFT));
 1140              		.loc 1 819 0
 1141 0010 0C40     		ands	r4, r1
 818:Generated_Source\PSoC4/Timer_1.c ****     Timer_1_CONTROL_REG |= ((uint32)((swapEnable & Timer_1_1BIT_MASK) <<
 1142              		.loc 1 818 0
 1143 0012 8A43     		bics	r2, r1
 1144 0014 1A60     		str	r2, [r3]
 819:Generated_Source\PSoC4/Timer_1.c ****                                                             Timer_1_RELOAD_PERIOD_SHIFT));
 1145              		.loc 1 819 0
 1146 0016 1A68     		ldr	r2, [r3]
 823:Generated_Source\PSoC4/Timer_1.c **** 
 1147              		.loc 1 823 0
 1148              		@ sp needed
 819:Generated_Source\PSoC4/Timer_1.c ****                                                             Timer_1_RELOAD_PERIOD_SHIFT));
 1149              		.loc 1 819 0
 1150 0018 1443     		orrs	r4, r2
 1151 001a 1C60     		str	r4, [r3]
 822:Generated_Source\PSoC4/Timer_1.c **** }
 1152              		.loc 1 822 0
 1153 001c FFF7FEFF 		bl	CyExitCriticalSection
 1154              	.LVL81:
 823:Generated_Source\PSoC4/Timer_1.c **** 
 1155              		.loc 1 823 0
 1156 0020 10BD     		pop	{r4, pc}
 1157              	.L74:
 1158 0022 C046     		.align	2
 1159              	.L73:
 1160 0024 00010540 		.word	1074069760
 1161              		.cfi_endproc
 1162              	.LFE21:
 1163              		.size	Timer_1_SetPeriodSwap, .-Timer_1_SetPeriodSwap
 1164              		.section	.text.Timer_1_WriteCompare,"ax",%progbits
 1165              		.align	2
 1166              		.global	Timer_1_WriteCompare
 1167              		.code	16
ARM GAS  C:\Users\young\AppData\Local\Temp\cc3sLV9e.s 			page 48


 1168              		.thumb_func
 1169              		.type	Timer_1_WriteCompare, %function
 1170              	Timer_1_WriteCompare:
 1171              	.LFB22:
 850:Generated_Source\PSoC4/Timer_1.c ****     #if (Timer_1_CY_TCPWM_4000)
 1172              		.loc 1 850 0
 1173              		.cfi_startproc
 1174              		@ args = 0, pretend = 0, frame = 0
 1175              		@ frame_needed = 0, uses_anonymous_args = 0
 1176              		@ link register save eliminated.
 1177              	.LVL82:
 856:Generated_Source\PSoC4/Timer_1.c **** 
 1178              		.loc 1 856 0
 1179 0000 0C4B     		ldr	r3, .L84
 1180 0002 1B68     		ldr	r3, [r3]
 1181 0004 9B03     		lsls	r3, r3, #14
 1182 0006 9B0F     		lsrs	r3, r3, #30
 1183              	.LVL83:
 858:Generated_Source\PSoC4/Timer_1.c ****         {
 1184              		.loc 1 858 0
 1185 0008 012B     		cmp	r3, #1
 1186 000a 0AD0     		beq	.L83
 862:Generated_Source\PSoC4/Timer_1.c ****         {
 1187              		.loc 1 862 0
 1188 000c 002B     		cmp	r3, #0
 1189 000e 03D1     		bne	.L82
 1190 0010 0023     		movs	r3, #0
 1191              	.LVL84:
 862:Generated_Source\PSoC4/Timer_1.c ****         {
 1192              		.loc 1 862 0 is_stmt 0 discriminator 1
 1193 0012 0028     		cmp	r0, #0
 1194 0014 02D0     		beq	.L77
 1195              	.LVL85:
 1196 0016 0138     		subs	r0, r0, #1
 1197              	.LVL86:
 1198              	.L82:
 1199 0018 0004     		lsls	r0, r0, #16
 1200              	.LVL87:
 1201 001a 030C     		lsrs	r3, r0, #16
 1202              	.L77:
 873:Generated_Source\PSoC4/Timer_1.c **** }
 1203              		.loc 1 873 0 is_stmt 1
 1204 001c 064A     		ldr	r2, .L84+4
 874:Generated_Source\PSoC4/Timer_1.c **** 
 1205              		.loc 1 874 0
 1206              		@ sp needed
 873:Generated_Source\PSoC4/Timer_1.c **** }
 1207              		.loc 1 873 0
 1208 001e 1360     		str	r3, [r2]
 874:Generated_Source\PSoC4/Timer_1.c **** 
 1209              		.loc 1 874 0
 1210 0020 7047     		bx	lr
 1211              	.LVL88:
 1212              	.L83:
 858:Generated_Source\PSoC4/Timer_1.c ****         {
 1213              		.loc 1 858 0 discriminator 1
 1214 0022 064A     		ldr	r2, .L84+8
ARM GAS  C:\Users\young\AppData\Local\Temp\cc3sLV9e.s 			page 49


 1215 0024 0300     		movs	r3, r0
 1216              	.LVL89:
 1217 0026 9042     		cmp	r0, r2
 1218 0028 F8D0     		beq	.L77
 1219              	.LVL90:
 1220 002a 0130     		adds	r0, r0, #1
 1221              	.LVL91:
 1222 002c 0004     		lsls	r0, r0, #16
 1223              	.LVL92:
 1224 002e 030C     		lsrs	r3, r0, #16
 1225              	.LVL93:
 860:Generated_Source\PSoC4/Timer_1.c ****         }
 1226              		.loc 1 860 0
 1227 0030 F4E7     		b	.L77
 1228              	.L85:
 1229 0032 C046     		.align	2
 1230              	.L84:
 1231 0034 00010540 		.word	1074069760
 1232 0038 0C010540 		.word	1074069772
 1233 003c FFFF0000 		.word	65535
 1234              		.cfi_endproc
 1235              	.LFE22:
 1236              		.size	Timer_1_WriteCompare, .-Timer_1_WriteCompare
 1237              		.section	.text.Timer_1_ReadCompare,"ax",%progbits
 1238              		.align	2
 1239              		.global	Timer_1_ReadCompare
 1240              		.code	16
 1241              		.thumb_func
 1242              		.type	Timer_1_ReadCompare, %function
 1243              	Timer_1_ReadCompare:
 1244              	.LFB23:
 901:Generated_Source\PSoC4/Timer_1.c ****     #if (Timer_1_CY_TCPWM_4000)
 1245              		.loc 1 901 0
 1246              		.cfi_startproc
 1247              		@ args = 0, pretend = 0, frame = 0
 1248              		@ frame_needed = 0, uses_anonymous_args = 0
 1249              		@ link register save eliminated.
 908:Generated_Source\PSoC4/Timer_1.c ****         
 1250              		.loc 1 908 0
 1251 0000 0E4B     		ldr	r3, .L95
 910:Generated_Source\PSoC4/Timer_1.c ****         
 1252              		.loc 1 910 0
 1253 0002 0F4A     		ldr	r2, .L95+4
 908:Generated_Source\PSoC4/Timer_1.c ****         
 1254              		.loc 1 908 0
 1255 0004 1B68     		ldr	r3, [r3]
 910:Generated_Source\PSoC4/Timer_1.c ****         
 1256              		.loc 1 910 0
 1257 0006 1268     		ldr	r2, [r2]
 908:Generated_Source\PSoC4/Timer_1.c ****         
 1258              		.loc 1 908 0
 1259 0008 9B03     		lsls	r3, r3, #14
 1260 000a 9B0F     		lsrs	r3, r3, #30
 1261              	.LVL94:
 912:Generated_Source\PSoC4/Timer_1.c ****         {
 1262              		.loc 1 912 0
 1263 000c 012B     		cmp	r3, #1
ARM GAS  C:\Users\young\AppData\Local\Temp\cc3sLV9e.s 			page 50


 1264 000e 08D0     		beq	.L93
 916:Generated_Source\PSoC4/Timer_1.c ****         {
 1265              		.loc 1 916 0
 1266 0010 002B     		cmp	r3, #0
 1267 0012 0FD1     		bne	.L94
 916:Generated_Source\PSoC4/Timer_1.c ****         {
 1268              		.loc 1 916 0 is_stmt 0 discriminator 1
 1269 0014 0B4B     		ldr	r3, .L95+8
 1270              	.LVL95:
 1271 0016 9A42     		cmp	r2, r3
 1272 0018 0AD0     		beq	.L91
 1273              	.LVL96:
 1274 001a 501C     		adds	r0, r2, #1
 1275              	.LVL97:
 1276 001c 0004     		lsls	r0, r0, #16
 1277              	.LVL98:
 1278 001e 000C     		lsrs	r0, r0, #16
 1279              	.LVL99:
 1280              	.L88:
 928:Generated_Source\PSoC4/Timer_1.c **** 
 1281              		.loc 1 928 0 is_stmt 1
 1282              		@ sp needed
 1283 0020 7047     		bx	lr
 1284              	.LVL100:
 1285              	.L93:
 1286 0022 0020     		movs	r0, #0
 912:Generated_Source\PSoC4/Timer_1.c ****         {
 1287              		.loc 1 912 0 discriminator 1
 1288 0024 002A     		cmp	r2, #0
 1289 0026 FBD0     		beq	.L88
 1290              	.LVL101:
 1291 0028 501E     		subs	r0, r2, #1
 1292              	.LVL102:
 1293 002a 0004     		lsls	r0, r0, #16
 1294              	.LVL103:
 1295 002c 000C     		lsrs	r0, r0, #16
 914:Generated_Source\PSoC4/Timer_1.c ****         }
 1296              		.loc 1 914 0
 1297 002e F7E7     		b	.L88
 1298              	.LVL104:
 1299              	.L91:
 1300 0030 1000     		movs	r0, r2
 1301 0032 F5E7     		b	.L88
 1302              	.LVL105:
 1303              	.L94:
 1304 0034 1204     		lsls	r2, r2, #16
 1305              	.LVL106:
 1306 0036 100C     		lsrs	r0, r2, #16
 1307 0038 F2E7     		b	.L88
 1308              	.L96:
 1309 003a C046     		.align	2
 1310              	.L95:
 1311 003c 00010540 		.word	1074069760
 1312 0040 0C010540 		.word	1074069772
 1313 0044 FFFF0000 		.word	65535
 1314              		.cfi_endproc
 1315              	.LFE23:
ARM GAS  C:\Users\young\AppData\Local\Temp\cc3sLV9e.s 			page 51


 1316              		.size	Timer_1_ReadCompare, .-Timer_1_ReadCompare
 1317              		.section	.text.Timer_1_WriteCompareBuf,"ax",%progbits
 1318              		.align	2
 1319              		.global	Timer_1_WriteCompareBuf
 1320              		.code	16
 1321              		.thumb_func
 1322              		.type	Timer_1_WriteCompareBuf, %function
 1323              	Timer_1_WriteCompareBuf:
 1324              	.LFB24:
 955:Generated_Source\PSoC4/Timer_1.c ****     #if (Timer_1_CY_TCPWM_4000)
 1325              		.loc 1 955 0
 1326              		.cfi_startproc
 1327              		@ args = 0, pretend = 0, frame = 0
 1328              		@ frame_needed = 0, uses_anonymous_args = 0
 1329              		@ link register save eliminated.
 1330              	.LVL107:
 961:Generated_Source\PSoC4/Timer_1.c **** 
 1331              		.loc 1 961 0
 1332 0000 0C4B     		ldr	r3, .L106
 1333 0002 1B68     		ldr	r3, [r3]
 1334 0004 9B03     		lsls	r3, r3, #14
 1335 0006 9B0F     		lsrs	r3, r3, #30
 1336              	.LVL108:
 963:Generated_Source\PSoC4/Timer_1.c ****         {
 1337              		.loc 1 963 0
 1338 0008 012B     		cmp	r3, #1
 1339 000a 0AD0     		beq	.L105
 967:Generated_Source\PSoC4/Timer_1.c ****         {
 1340              		.loc 1 967 0
 1341 000c 002B     		cmp	r3, #0
 1342 000e 03D1     		bne	.L104
 1343 0010 0023     		movs	r3, #0
 1344              	.LVL109:
 967:Generated_Source\PSoC4/Timer_1.c ****         {
 1345              		.loc 1 967 0 is_stmt 0 discriminator 1
 1346 0012 0028     		cmp	r0, #0
 1347 0014 02D0     		beq	.L99
 1348              	.LVL110:
 1349 0016 0138     		subs	r0, r0, #1
 1350              	.LVL111:
 1351              	.L104:
 1352 0018 0004     		lsls	r0, r0, #16
 1353              	.LVL112:
 1354 001a 030C     		lsrs	r3, r0, #16
 1355              	.L99:
 976:Generated_Source\PSoC4/Timer_1.c **** }
 1356              		.loc 1 976 0 is_stmt 1
 1357 001c 064A     		ldr	r2, .L106+4
 977:Generated_Source\PSoC4/Timer_1.c **** 
 1358              		.loc 1 977 0
 1359              		@ sp needed
 976:Generated_Source\PSoC4/Timer_1.c **** }
 1360              		.loc 1 976 0
 1361 001e 1360     		str	r3, [r2]
 977:Generated_Source\PSoC4/Timer_1.c **** 
 1362              		.loc 1 977 0
 1363 0020 7047     		bx	lr
ARM GAS  C:\Users\young\AppData\Local\Temp\cc3sLV9e.s 			page 52


 1364              	.LVL113:
 1365              	.L105:
 963:Generated_Source\PSoC4/Timer_1.c ****         {
 1366              		.loc 1 963 0 discriminator 1
 1367 0022 064A     		ldr	r2, .L106+8
 1368 0024 0300     		movs	r3, r0
 1369              	.LVL114:
 1370 0026 9042     		cmp	r0, r2
 1371 0028 F8D0     		beq	.L99
 1372              	.LVL115:
 1373 002a 0130     		adds	r0, r0, #1
 1374              	.LVL116:
 1375 002c 0004     		lsls	r0, r0, #16
 1376              	.LVL117:
 1377 002e 030C     		lsrs	r3, r0, #16
 1378              	.LVL118:
 965:Generated_Source\PSoC4/Timer_1.c ****         }
 1379              		.loc 1 965 0
 1380 0030 F4E7     		b	.L99
 1381              	.L107:
 1382 0032 C046     		.align	2
 1383              	.L106:
 1384 0034 00010540 		.word	1074069760
 1385 0038 10010540 		.word	1074069776
 1386 003c FFFF0000 		.word	65535
 1387              		.cfi_endproc
 1388              	.LFE24:
 1389              		.size	Timer_1_WriteCompareBuf, .-Timer_1_WriteCompareBuf
 1390              		.section	.text.Timer_1_ReadCompareBuf,"ax",%progbits
 1391              		.align	2
 1392              		.global	Timer_1_ReadCompareBuf
 1393              		.code	16
 1394              		.thumb_func
 1395              		.type	Timer_1_ReadCompareBuf, %function
 1396              	Timer_1_ReadCompareBuf:
 1397              	.LFB25:
1001:Generated_Source\PSoC4/Timer_1.c ****     #if (Timer_1_CY_TCPWM_4000)
 1398              		.loc 1 1001 0
 1399              		.cfi_startproc
 1400              		@ args = 0, pretend = 0, frame = 0
 1401              		@ frame_needed = 0, uses_anonymous_args = 0
 1402              		@ link register save eliminated.
1008:Generated_Source\PSoC4/Timer_1.c **** 
 1403              		.loc 1 1008 0
 1404 0000 0E4B     		ldr	r3, .L117
1010:Generated_Source\PSoC4/Timer_1.c ****         
 1405              		.loc 1 1010 0
 1406 0002 0F4A     		ldr	r2, .L117+4
1008:Generated_Source\PSoC4/Timer_1.c **** 
 1407              		.loc 1 1008 0
 1408 0004 1B68     		ldr	r3, [r3]
1010:Generated_Source\PSoC4/Timer_1.c ****         
 1409              		.loc 1 1010 0
 1410 0006 1268     		ldr	r2, [r2]
1008:Generated_Source\PSoC4/Timer_1.c **** 
 1411              		.loc 1 1008 0
 1412 0008 9B03     		lsls	r3, r3, #14
ARM GAS  C:\Users\young\AppData\Local\Temp\cc3sLV9e.s 			page 53


 1413 000a 9B0F     		lsrs	r3, r3, #30
 1414              	.LVL119:
1012:Generated_Source\PSoC4/Timer_1.c ****         {
 1415              		.loc 1 1012 0
 1416 000c 012B     		cmp	r3, #1
 1417 000e 08D0     		beq	.L115
1016:Generated_Source\PSoC4/Timer_1.c ****         {
 1418              		.loc 1 1016 0
 1419 0010 002B     		cmp	r3, #0
 1420 0012 0FD1     		bne	.L116
1016:Generated_Source\PSoC4/Timer_1.c ****         {
 1421              		.loc 1 1016 0 is_stmt 0 discriminator 1
 1422 0014 0B4B     		ldr	r3, .L117+8
 1423              	.LVL120:
 1424 0016 9A42     		cmp	r2, r3
 1425 0018 0AD0     		beq	.L113
 1426              	.LVL121:
 1427 001a 501C     		adds	r0, r2, #1
 1428              	.LVL122:
 1429 001c 0004     		lsls	r0, r0, #16
 1430              	.LVL123:
 1431 001e 000C     		lsrs	r0, r0, #16
 1432              	.LVL124:
 1433              	.L110:
1028:Generated_Source\PSoC4/Timer_1.c **** 
 1434              		.loc 1 1028 0 is_stmt 1
 1435              		@ sp needed
 1436 0020 7047     		bx	lr
 1437              	.LVL125:
 1438              	.L115:
 1439 0022 0020     		movs	r0, #0
1012:Generated_Source\PSoC4/Timer_1.c ****         {
 1440              		.loc 1 1012 0 discriminator 1
 1441 0024 002A     		cmp	r2, #0
 1442 0026 FBD0     		beq	.L110
 1443              	.LVL126:
 1444 0028 501E     		subs	r0, r2, #1
 1445              	.LVL127:
 1446 002a 0004     		lsls	r0, r0, #16
 1447              	.LVL128:
 1448 002c 000C     		lsrs	r0, r0, #16
1014:Generated_Source\PSoC4/Timer_1.c ****         }
 1449              		.loc 1 1014 0
 1450 002e F7E7     		b	.L110
 1451              	.LVL129:
 1452              	.L113:
 1453 0030 1000     		movs	r0, r2
 1454 0032 F5E7     		b	.L110
 1455              	.LVL130:
 1456              	.L116:
 1457 0034 1204     		lsls	r2, r2, #16
 1458              	.LVL131:
 1459 0036 100C     		lsrs	r0, r2, #16
 1460 0038 F2E7     		b	.L110
 1461              	.L118:
 1462 003a C046     		.align	2
 1463              	.L117:
ARM GAS  C:\Users\young\AppData\Local\Temp\cc3sLV9e.s 			page 54


 1464 003c 00010540 		.word	1074069760
 1465 0040 10010540 		.word	1074069776
 1466 0044 FFFF0000 		.word	65535
 1467              		.cfi_endproc
 1468              	.LFE25:
 1469              		.size	Timer_1_ReadCompareBuf, .-Timer_1_ReadCompareBuf
 1470              		.section	.text.Timer_1_ReadCapture,"ax",%progbits
 1471              		.align	2
 1472              		.global	Timer_1_ReadCapture
 1473              		.code	16
 1474              		.thumb_func
 1475              		.type	Timer_1_ReadCapture, %function
 1476              	Timer_1_ReadCapture:
 1477              	.LFB26:
1047:Generated_Source\PSoC4/Timer_1.c ****     return (Timer_1_COMP_CAP_REG & Timer_1_16BIT_MASK);
 1478              		.loc 1 1047 0
 1479              		.cfi_startproc
 1480              		@ args = 0, pretend = 0, frame = 0
 1481              		@ frame_needed = 0, uses_anonymous_args = 0
 1482              		@ link register save eliminated.
1048:Generated_Source\PSoC4/Timer_1.c **** }
 1483              		.loc 1 1048 0
 1484 0000 024B     		ldr	r3, .L120
1049:Generated_Source\PSoC4/Timer_1.c **** 
 1485              		.loc 1 1049 0
 1486              		@ sp needed
1048:Generated_Source\PSoC4/Timer_1.c **** }
 1487              		.loc 1 1048 0
 1488 0002 1868     		ldr	r0, [r3]
 1489 0004 0004     		lsls	r0, r0, #16
 1490 0006 000C     		lsrs	r0, r0, #16
1049:Generated_Source\PSoC4/Timer_1.c **** 
 1491              		.loc 1 1049 0
 1492 0008 7047     		bx	lr
 1493              	.L121:
 1494 000a C046     		.align	2
 1495              	.L120:
 1496 000c 0C010540 		.word	1074069772
 1497              		.cfi_endproc
 1498              	.LFE26:
 1499              		.size	Timer_1_ReadCapture, .-Timer_1_ReadCapture
 1500              		.section	.text.Timer_1_ReadCaptureBuf,"ax",%progbits
 1501              		.align	2
 1502              		.global	Timer_1_ReadCaptureBuf
 1503              		.code	16
 1504              		.thumb_func
 1505              		.type	Timer_1_ReadCaptureBuf, %function
 1506              	Timer_1_ReadCaptureBuf:
 1507              	.LFB27:
1068:Generated_Source\PSoC4/Timer_1.c ****     return (Timer_1_COMP_CAP_BUF_REG & Timer_1_16BIT_MASK);
 1508              		.loc 1 1068 0
 1509              		.cfi_startproc
 1510              		@ args = 0, pretend = 0, frame = 0
 1511              		@ frame_needed = 0, uses_anonymous_args = 0
 1512              		@ link register save eliminated.
1069:Generated_Source\PSoC4/Timer_1.c **** }
 1513              		.loc 1 1069 0
ARM GAS  C:\Users\young\AppData\Local\Temp\cc3sLV9e.s 			page 55


 1514 0000 024B     		ldr	r3, .L123
1070:Generated_Source\PSoC4/Timer_1.c **** 
 1515              		.loc 1 1070 0
 1516              		@ sp needed
1069:Generated_Source\PSoC4/Timer_1.c **** }
 1517              		.loc 1 1069 0
 1518 0002 1868     		ldr	r0, [r3]
 1519 0004 0004     		lsls	r0, r0, #16
 1520 0006 000C     		lsrs	r0, r0, #16
1070:Generated_Source\PSoC4/Timer_1.c **** 
 1521              		.loc 1 1070 0
 1522 0008 7047     		bx	lr
 1523              	.L124:
 1524 000a C046     		.align	2
 1525              	.L123:
 1526 000c 10010540 		.word	1074069776
 1527              		.cfi_endproc
 1528              	.LFE27:
 1529              		.size	Timer_1_ReadCaptureBuf, .-Timer_1_ReadCaptureBuf
 1530              		.section	.text.Timer_1_SetCaptureMode,"ax",%progbits
 1531              		.align	2
 1532              		.global	Timer_1_SetCaptureMode
 1533              		.code	16
 1534              		.thumb_func
 1535              		.type	Timer_1_SetCaptureMode, %function
 1536              	Timer_1_SetCaptureMode:
 1537              	.LFB28:
1095:Generated_Source\PSoC4/Timer_1.c ****     uint8 enableInterrupts;
 1538              		.loc 1 1095 0
 1539              		.cfi_startproc
 1540              		@ args = 0, pretend = 0, frame = 0
 1541              		@ frame_needed = 0, uses_anonymous_args = 0
 1542              	.LVL132:
 1543 0000 10B5     		push	{r4, lr}
 1544              		.cfi_def_cfa_offset 8
 1545              		.cfi_offset 4, -8
 1546              		.cfi_offset 14, -4
1095:Generated_Source\PSoC4/Timer_1.c ****     uint8 enableInterrupts;
 1547              		.loc 1 1095 0
 1548 0002 0400     		movs	r4, r0
1098:Generated_Source\PSoC4/Timer_1.c **** 
 1549              		.loc 1 1098 0
 1550 0004 FFF7FEFF 		bl	CyEnterCriticalSection
 1551              	.LVL133:
1100:Generated_Source\PSoC4/Timer_1.c ****     Timer_1_TRIG_CONTROL1_REG |= triggerMode;
 1552              		.loc 1 1100 0
 1553 0008 0321     		movs	r1, #3
 1554 000a 054B     		ldr	r3, .L126
1104:Generated_Source\PSoC4/Timer_1.c **** 
 1555              		.loc 1 1104 0
 1556              		@ sp needed
1100:Generated_Source\PSoC4/Timer_1.c ****     Timer_1_TRIG_CONTROL1_REG |= triggerMode;
 1557              		.loc 1 1100 0
 1558 000c 1A68     		ldr	r2, [r3]
 1559 000e 8A43     		bics	r2, r1
 1560 0010 1A60     		str	r2, [r3]
1101:Generated_Source\PSoC4/Timer_1.c **** 
ARM GAS  C:\Users\young\AppData\Local\Temp\cc3sLV9e.s 			page 56


 1561              		.loc 1 1101 0
 1562 0012 1A68     		ldr	r2, [r3]
 1563 0014 1443     		orrs	r4, r2
 1564              	.LVL134:
 1565 0016 1C60     		str	r4, [r3]
1103:Generated_Source\PSoC4/Timer_1.c **** }
 1566              		.loc 1 1103 0
 1567 0018 FFF7FEFF 		bl	CyExitCriticalSection
 1568              	.LVL135:
1104:Generated_Source\PSoC4/Timer_1.c **** 
 1569              		.loc 1 1104 0
 1570 001c 10BD     		pop	{r4, pc}
 1571              	.L127:
 1572 001e C046     		.align	2
 1573              	.L126:
 1574 0020 24010540 		.word	1074069796
 1575              		.cfi_endproc
 1576              	.LFE28:
 1577              		.size	Timer_1_SetCaptureMode, .-Timer_1_SetCaptureMode
 1578              		.section	.text.Timer_1_SetReloadMode,"ax",%progbits
 1579              		.align	2
 1580              		.global	Timer_1_SetReloadMode
 1581              		.code	16
 1582              		.thumb_func
 1583              		.type	Timer_1_SetReloadMode, %function
 1584              	Timer_1_SetReloadMode:
 1585              	.LFB29:
1128:Generated_Source\PSoC4/Timer_1.c ****     uint8 enableInterrupts;
 1586              		.loc 1 1128 0
 1587              		.cfi_startproc
 1588              		@ args = 0, pretend = 0, frame = 0
 1589              		@ frame_needed = 0, uses_anonymous_args = 0
 1590              	.LVL136:
 1591 0000 10B5     		push	{r4, lr}
 1592              		.cfi_def_cfa_offset 8
 1593              		.cfi_offset 4, -8
 1594              		.cfi_offset 14, -4
1128:Generated_Source\PSoC4/Timer_1.c ****     uint8 enableInterrupts;
 1595              		.loc 1 1128 0
 1596 0002 0400     		movs	r4, r0
1131:Generated_Source\PSoC4/Timer_1.c **** 
 1597              		.loc 1 1131 0
 1598 0004 FFF7FEFF 		bl	CyEnterCriticalSection
 1599              	.LVL137:
1133:Generated_Source\PSoC4/Timer_1.c ****     Timer_1_TRIG_CONTROL1_REG |= ((uint32)(triggerMode << Timer_1_RELOAD_SHIFT));
 1600              		.loc 1 1133 0
 1601 0008 3021     		movs	r1, #48
 1602 000a 054B     		ldr	r3, .L129
1137:Generated_Source\PSoC4/Timer_1.c **** 
 1603              		.loc 1 1137 0
 1604              		@ sp needed
1133:Generated_Source\PSoC4/Timer_1.c ****     Timer_1_TRIG_CONTROL1_REG |= ((uint32)(triggerMode << Timer_1_RELOAD_SHIFT));
 1605              		.loc 1 1133 0
 1606 000c 1A68     		ldr	r2, [r3]
 1607 000e 8A43     		bics	r2, r1
 1608 0010 1A60     		str	r2, [r3]
1134:Generated_Source\PSoC4/Timer_1.c **** 
ARM GAS  C:\Users\young\AppData\Local\Temp\cc3sLV9e.s 			page 57


 1609              		.loc 1 1134 0
 1610 0012 1968     		ldr	r1, [r3]
 1611 0014 2201     		lsls	r2, r4, #4
 1612 0016 0A43     		orrs	r2, r1
 1613 0018 1A60     		str	r2, [r3]
1136:Generated_Source\PSoC4/Timer_1.c **** }
 1614              		.loc 1 1136 0
 1615 001a FFF7FEFF 		bl	CyExitCriticalSection
 1616              	.LVL138:
 1617              	.LVL139:
1137:Generated_Source\PSoC4/Timer_1.c **** 
 1618              		.loc 1 1137 0
 1619 001e 10BD     		pop	{r4, pc}
 1620              	.L130:
 1621              		.align	2
 1622              	.L129:
 1623 0020 24010540 		.word	1074069796
 1624              		.cfi_endproc
 1625              	.LFE29:
 1626              		.size	Timer_1_SetReloadMode, .-Timer_1_SetReloadMode
 1627              		.section	.text.Timer_1_SetStartMode,"ax",%progbits
 1628              		.align	2
 1629              		.global	Timer_1_SetStartMode
 1630              		.code	16
 1631              		.thumb_func
 1632              		.type	Timer_1_SetStartMode, %function
 1633              	Timer_1_SetStartMode:
 1634              	.LFB30:
1161:Generated_Source\PSoC4/Timer_1.c ****     uint8 enableInterrupts;
 1635              		.loc 1 1161 0
 1636              		.cfi_startproc
 1637              		@ args = 0, pretend = 0, frame = 0
 1638              		@ frame_needed = 0, uses_anonymous_args = 0
 1639              	.LVL140:
 1640 0000 10B5     		push	{r4, lr}
 1641              		.cfi_def_cfa_offset 8
 1642              		.cfi_offset 4, -8
 1643              		.cfi_offset 14, -4
1161:Generated_Source\PSoC4/Timer_1.c ****     uint8 enableInterrupts;
 1644              		.loc 1 1161 0
 1645 0002 0400     		movs	r4, r0
1164:Generated_Source\PSoC4/Timer_1.c **** 
 1646              		.loc 1 1164 0
 1647 0004 FFF7FEFF 		bl	CyEnterCriticalSection
 1648              	.LVL141:
1166:Generated_Source\PSoC4/Timer_1.c ****     Timer_1_TRIG_CONTROL1_REG |= ((uint32)(triggerMode << Timer_1_START_SHIFT));
 1649              		.loc 1 1166 0
 1650 0008 054B     		ldr	r3, .L132
 1651 000a 064A     		ldr	r2, .L132+4
 1652 000c 1968     		ldr	r1, [r3]
1170:Generated_Source\PSoC4/Timer_1.c **** 
 1653              		.loc 1 1170 0
 1654              		@ sp needed
1166:Generated_Source\PSoC4/Timer_1.c ****     Timer_1_TRIG_CONTROL1_REG |= ((uint32)(triggerMode << Timer_1_START_SHIFT));
 1655              		.loc 1 1166 0
 1656 000e 0A40     		ands	r2, r1
 1657 0010 1A60     		str	r2, [r3]
ARM GAS  C:\Users\young\AppData\Local\Temp\cc3sLV9e.s 			page 58


1167:Generated_Source\PSoC4/Timer_1.c **** 
 1658              		.loc 1 1167 0
 1659 0012 1968     		ldr	r1, [r3]
 1660 0014 2202     		lsls	r2, r4, #8
 1661 0016 0A43     		orrs	r2, r1
 1662 0018 1A60     		str	r2, [r3]
1169:Generated_Source\PSoC4/Timer_1.c **** }
 1663              		.loc 1 1169 0
 1664 001a FFF7FEFF 		bl	CyExitCriticalSection
 1665              	.LVL142:
 1666              	.LVL143:
1170:Generated_Source\PSoC4/Timer_1.c **** 
 1667              		.loc 1 1170 0
 1668 001e 10BD     		pop	{r4, pc}
 1669              	.L133:
 1670              		.align	2
 1671              	.L132:
 1672 0020 24010540 		.word	1074069796
 1673 0024 FFFCFFFF 		.word	-769
 1674              		.cfi_endproc
 1675              	.LFE30:
 1676              		.size	Timer_1_SetStartMode, .-Timer_1_SetStartMode
 1677              		.section	.text.Timer_1_SetStopMode,"ax",%progbits
 1678              		.align	2
 1679              		.global	Timer_1_SetStopMode
 1680              		.code	16
 1681              		.thumb_func
 1682              		.type	Timer_1_SetStopMode, %function
 1683              	Timer_1_SetStopMode:
 1684              	.LFB31:
1193:Generated_Source\PSoC4/Timer_1.c ****     uint8 enableInterrupts;
 1685              		.loc 1 1193 0
 1686              		.cfi_startproc
 1687              		@ args = 0, pretend = 0, frame = 0
 1688              		@ frame_needed = 0, uses_anonymous_args = 0
 1689              	.LVL144:
 1690 0000 10B5     		push	{r4, lr}
 1691              		.cfi_def_cfa_offset 8
 1692              		.cfi_offset 4, -8
 1693              		.cfi_offset 14, -4
1193:Generated_Source\PSoC4/Timer_1.c ****     uint8 enableInterrupts;
 1694              		.loc 1 1193 0
 1695 0002 0400     		movs	r4, r0
1196:Generated_Source\PSoC4/Timer_1.c **** 
 1696              		.loc 1 1196 0
 1697 0004 FFF7FEFF 		bl	CyEnterCriticalSection
 1698              	.LVL145:
1198:Generated_Source\PSoC4/Timer_1.c ****     Timer_1_TRIG_CONTROL1_REG |= ((uint32)(triggerMode << Timer_1_STOP_SHIFT));
 1699              		.loc 1 1198 0
 1700 0008 C021     		movs	r1, #192
 1701 000a 054B     		ldr	r3, .L135
1202:Generated_Source\PSoC4/Timer_1.c **** 
 1702              		.loc 1 1202 0
 1703              		@ sp needed
1198:Generated_Source\PSoC4/Timer_1.c ****     Timer_1_TRIG_CONTROL1_REG |= ((uint32)(triggerMode << Timer_1_STOP_SHIFT));
 1704              		.loc 1 1198 0
 1705 000c 1A68     		ldr	r2, [r3]
ARM GAS  C:\Users\young\AppData\Local\Temp\cc3sLV9e.s 			page 59


 1706 000e 8A43     		bics	r2, r1
 1707 0010 1A60     		str	r2, [r3]
1199:Generated_Source\PSoC4/Timer_1.c **** 
 1708              		.loc 1 1199 0
 1709 0012 1968     		ldr	r1, [r3]
 1710 0014 A201     		lsls	r2, r4, #6
 1711 0016 0A43     		orrs	r2, r1
 1712 0018 1A60     		str	r2, [r3]
1201:Generated_Source\PSoC4/Timer_1.c **** }
 1713              		.loc 1 1201 0
 1714 001a FFF7FEFF 		bl	CyExitCriticalSection
 1715              	.LVL146:
 1716              	.LVL147:
1202:Generated_Source\PSoC4/Timer_1.c **** 
 1717              		.loc 1 1202 0
 1718 001e 10BD     		pop	{r4, pc}
 1719              	.L136:
 1720              		.align	2
 1721              	.L135:
 1722 0020 24010540 		.word	1074069796
 1723              		.cfi_endproc
 1724              	.LFE31:
 1725              		.size	Timer_1_SetStopMode, .-Timer_1_SetStopMode
 1726              		.section	.text.Timer_1_SetCountMode,"ax",%progbits
 1727              		.align	2
 1728              		.global	Timer_1_SetCountMode
 1729              		.code	16
 1730              		.thumb_func
 1731              		.type	Timer_1_SetCountMode, %function
 1732              	Timer_1_SetCountMode:
 1733              	.LFB32:
1226:Generated_Source\PSoC4/Timer_1.c ****     uint8 enableInterrupts;
 1734              		.loc 1 1226 0
 1735              		.cfi_startproc
 1736              		@ args = 0, pretend = 0, frame = 0
 1737              		@ frame_needed = 0, uses_anonymous_args = 0
 1738              	.LVL148:
 1739 0000 10B5     		push	{r4, lr}
 1740              		.cfi_def_cfa_offset 8
 1741              		.cfi_offset 4, -8
 1742              		.cfi_offset 14, -4
1226:Generated_Source\PSoC4/Timer_1.c ****     uint8 enableInterrupts;
 1743              		.loc 1 1226 0
 1744 0002 0400     		movs	r4, r0
1229:Generated_Source\PSoC4/Timer_1.c **** 
 1745              		.loc 1 1229 0
 1746 0004 FFF7FEFF 		bl	CyEnterCriticalSection
 1747              	.LVL149:
1231:Generated_Source\PSoC4/Timer_1.c ****     Timer_1_TRIG_CONTROL1_REG |= ((uint32)(triggerMode << Timer_1_COUNT_SHIFT));
 1748              		.loc 1 1231 0
 1749 0008 0C21     		movs	r1, #12
 1750 000a 054B     		ldr	r3, .L138
1235:Generated_Source\PSoC4/Timer_1.c **** 
 1751              		.loc 1 1235 0
 1752              		@ sp needed
1231:Generated_Source\PSoC4/Timer_1.c ****     Timer_1_TRIG_CONTROL1_REG |= ((uint32)(triggerMode << Timer_1_COUNT_SHIFT));
 1753              		.loc 1 1231 0
ARM GAS  C:\Users\young\AppData\Local\Temp\cc3sLV9e.s 			page 60


 1754 000c 1A68     		ldr	r2, [r3]
 1755 000e 8A43     		bics	r2, r1
 1756 0010 1A60     		str	r2, [r3]
1232:Generated_Source\PSoC4/Timer_1.c **** 
 1757              		.loc 1 1232 0
 1758 0012 1968     		ldr	r1, [r3]
 1759 0014 A200     		lsls	r2, r4, #2
 1760 0016 0A43     		orrs	r2, r1
 1761 0018 1A60     		str	r2, [r3]
1234:Generated_Source\PSoC4/Timer_1.c **** }
 1762              		.loc 1 1234 0
 1763 001a FFF7FEFF 		bl	CyExitCriticalSection
 1764              	.LVL150:
 1765              	.LVL151:
1235:Generated_Source\PSoC4/Timer_1.c **** 
 1766              		.loc 1 1235 0
 1767 001e 10BD     		pop	{r4, pc}
 1768              	.L139:
 1769              		.align	2
 1770              	.L138:
 1771 0020 24010540 		.word	1074069796
 1772              		.cfi_endproc
 1773              	.LFE32:
 1774              		.size	Timer_1_SetCountMode, .-Timer_1_SetCountMode
 1775              		.section	.text.Timer_1_TriggerCommand,"ax",%progbits
 1776              		.align	2
 1777              		.global	Timer_1_TriggerCommand
 1778              		.code	16
 1779              		.thumb_func
 1780              		.type	Timer_1_TriggerCommand, %function
 1781              	Timer_1_TriggerCommand:
 1782              	.LFB33:
1266:Generated_Source\PSoC4/Timer_1.c ****     uint8 enableInterrupts;
 1783              		.loc 1 1266 0
 1784              		.cfi_startproc
 1785              		@ args = 0, pretend = 0, frame = 0
 1786              		@ frame_needed = 0, uses_anonymous_args = 0
 1787              	.LVL152:
 1788 0000 70B5     		push	{r4, r5, r6, lr}
 1789              		.cfi_def_cfa_offset 16
 1790              		.cfi_offset 4, -16
 1791              		.cfi_offset 5, -12
 1792              		.cfi_offset 6, -8
 1793              		.cfi_offset 14, -4
1266:Generated_Source\PSoC4/Timer_1.c ****     uint8 enableInterrupts;
 1794              		.loc 1 1266 0
 1795 0002 0D00     		movs	r5, r1
 1796 0004 0400     		movs	r4, r0
1271:Generated_Source\PSoC4/Timer_1.c **** 
 1797              		.loc 1 1271 0
 1798 0006 AC40     		lsls	r4, r4, r5
1269:Generated_Source\PSoC4/Timer_1.c **** 
 1799              		.loc 1 1269 0
 1800 0008 FFF7FEFF 		bl	CyEnterCriticalSection
 1801              	.LVL153:
1271:Generated_Source\PSoC4/Timer_1.c **** 
 1802              		.loc 1 1271 0
ARM GAS  C:\Users\young\AppData\Local\Temp\cc3sLV9e.s 			page 61


 1803 000c 024B     		ldr	r3, .L141
1274:Generated_Source\PSoC4/Timer_1.c **** 
 1804              		.loc 1 1274 0
 1805              		@ sp needed
1271:Generated_Source\PSoC4/Timer_1.c **** 
 1806              		.loc 1 1271 0
 1807 000e 1C60     		str	r4, [r3]
1273:Generated_Source\PSoC4/Timer_1.c **** }
 1808              		.loc 1 1273 0
 1809 0010 FFF7FEFF 		bl	CyExitCriticalSection
 1810              	.LVL154:
 1811              	.LVL155:
1274:Generated_Source\PSoC4/Timer_1.c **** 
 1812              		.loc 1 1274 0
 1813 0014 70BD     		pop	{r4, r5, r6, pc}
 1814              	.L142:
 1815 0016 C046     		.align	2
 1816              	.L141:
 1817 0018 08000540 		.word	1074069512
 1818              		.cfi_endproc
 1819              	.LFE33:
 1820              		.size	Timer_1_TriggerCommand, .-Timer_1_TriggerCommand
 1821              		.section	.text.Timer_1_ReadStatus,"ax",%progbits
 1822              		.align	2
 1823              		.global	Timer_1_ReadStatus
 1824              		.code	16
 1825              		.thumb_func
 1826              		.type	Timer_1_ReadStatus, %function
 1827              	Timer_1_ReadStatus:
 1828              	.LFB34:
1295:Generated_Source\PSoC4/Timer_1.c ****     return ((Timer_1_STATUS_REG >> Timer_1_RUNNING_STATUS_SHIFT) |
 1829              		.loc 1 1295 0
 1830              		.cfi_startproc
 1831              		@ args = 0, pretend = 0, frame = 0
 1832              		@ frame_needed = 0, uses_anonymous_args = 0
 1833              		@ link register save eliminated.
1296:Generated_Source\PSoC4/Timer_1.c ****             (Timer_1_STATUS_REG & Timer_1_STATUS_DOWN));
 1834              		.loc 1 1296 0
 1835 0000 034B     		ldr	r3, .L144
1298:Generated_Source\PSoC4/Timer_1.c **** 
 1836              		.loc 1 1298 0
 1837              		@ sp needed
1296:Generated_Source\PSoC4/Timer_1.c ****             (Timer_1_STATUS_REG & Timer_1_STATUS_DOWN));
 1838              		.loc 1 1296 0
 1839 0002 1868     		ldr	r0, [r3]
1297:Generated_Source\PSoC4/Timer_1.c **** }
 1840              		.loc 1 1297 0
 1841 0004 1B68     		ldr	r3, [r3]
1296:Generated_Source\PSoC4/Timer_1.c ****             (Timer_1_STATUS_REG & Timer_1_STATUS_DOWN));
 1842              		.loc 1 1296 0
 1843 0006 820F     		lsrs	r2, r0, #30
 1844 0008 0120     		movs	r0, #1
 1845 000a 1840     		ands	r0, r3
 1846 000c 1043     		orrs	r0, r2
1298:Generated_Source\PSoC4/Timer_1.c **** 
 1847              		.loc 1 1298 0
 1848 000e 7047     		bx	lr
ARM GAS  C:\Users\young\AppData\Local\Temp\cc3sLV9e.s 			page 62


 1849              	.L145:
 1850              		.align	2
 1851              	.L144:
 1852 0010 04010540 		.word	1074069764
 1853              		.cfi_endproc
 1854              	.LFE34:
 1855              		.size	Timer_1_ReadStatus, .-Timer_1_ReadStatus
 1856              		.section	.text.Timer_1_SetInterruptMode,"ax",%progbits
 1857              		.align	2
 1858              		.global	Timer_1_SetInterruptMode
 1859              		.code	16
 1860              		.thumb_func
 1861              		.type	Timer_1_SetInterruptMode, %function
 1862              	Timer_1_SetInterruptMode:
 1863              	.LFB35:
1320:Generated_Source\PSoC4/Timer_1.c ****     Timer_1_INTERRUPT_MASK_REG =  interruptMask;
 1864              		.loc 1 1320 0
 1865              		.cfi_startproc
 1866              		@ args = 0, pretend = 0, frame = 0
 1867              		@ frame_needed = 0, uses_anonymous_args = 0
 1868              		@ link register save eliminated.
 1869              	.LVL156:
 1870              		.loc 1 1321 0
 1871 0000 014B     		ldr	r3, .L147
1322:Generated_Source\PSoC4/Timer_1.c **** }
 1872              		.loc 1 1322 0
 1873              		@ sp needed
1321:Generated_Source\PSoC4/Timer_1.c **** }
 1874              		.loc 1 1321 0
 1875 0002 1860     		str	r0, [r3]
 1876              		.loc 1 1322 0
 1877 0004 7047     		bx	lr
 1878              	.L148:
 1879 0006 C046     		.align	2
 1880              	.L147:
 1881 0008 38010540 		.word	1074069816
 1882              		.cfi_endproc
 1883              	.LFE35:
 1884              		.size	Timer_1_SetInterruptMode, .-Timer_1_SetInterruptMode
 1885              		.section	.text.Timer_1_GetInterruptSourceMasked,"ax",%progbits
 1886              		.align	2
 1887              		.global	Timer_1_GetInterruptSourceMasked
 1888              		.code	16
 1889              		.thumb_func
 1890              		.type	Timer_1_GetInterruptSourceMasked, %function
 1891              	Timer_1_GetInterruptSourceMasked:
 1892              	.LFB36:
1323:Generated_Source\PSoC4/Timer_1.c **** 
1324:Generated_Source\PSoC4/Timer_1.c **** 
1325:Generated_Source\PSoC4/Timer_1.c **** /*******************************************************************************
1326:Generated_Source\PSoC4/Timer_1.c **** * Function Name: Timer_1_GetInterruptSourceMasked
1327:Generated_Source\PSoC4/Timer_1.c **** ********************************************************************************
1328:Generated_Source\PSoC4/Timer_1.c **** *
1329:Generated_Source\PSoC4/Timer_1.c **** * Summary:
1330:Generated_Source\PSoC4/Timer_1.c **** *  Gets the interrupt requests masked by the interrupt mask.
1331:Generated_Source\PSoC4/Timer_1.c **** *
1332:Generated_Source\PSoC4/Timer_1.c **** * Parameters:
ARM GAS  C:\Users\young\AppData\Local\Temp\cc3sLV9e.s 			page 63


1333:Generated_Source\PSoC4/Timer_1.c **** *   None
1334:Generated_Source\PSoC4/Timer_1.c **** *
1335:Generated_Source\PSoC4/Timer_1.c **** * Return:
1336:Generated_Source\PSoC4/Timer_1.c **** *  Masked interrupt source
1337:Generated_Source\PSoC4/Timer_1.c **** *   Values:
1338:Generated_Source\PSoC4/Timer_1.c **** *     - Timer_1_INTR_MASK_TC       - Terminal count mask
1339:Generated_Source\PSoC4/Timer_1.c **** *     - Timer_1_INTR_MASK_CC_MATCH - Compare count / capture mask
1340:Generated_Source\PSoC4/Timer_1.c **** *
1341:Generated_Source\PSoC4/Timer_1.c **** *******************************************************************************/
1342:Generated_Source\PSoC4/Timer_1.c **** uint32 Timer_1_GetInterruptSourceMasked(void)
1343:Generated_Source\PSoC4/Timer_1.c **** {
 1893              		.loc 1 1343 0
 1894              		.cfi_startproc
 1895              		@ args = 0, pretend = 0, frame = 0
 1896              		@ frame_needed = 0, uses_anonymous_args = 0
 1897              		@ link register save eliminated.
1344:Generated_Source\PSoC4/Timer_1.c ****     return (Timer_1_INTERRUPT_MASKED_REG);
 1898              		.loc 1 1344 0
 1899 0000 014B     		ldr	r3, .L150
1345:Generated_Source\PSoC4/Timer_1.c **** }
 1900              		.loc 1 1345 0
 1901              		@ sp needed
1344:Generated_Source\PSoC4/Timer_1.c ****     return (Timer_1_INTERRUPT_MASKED_REG);
 1902              		.loc 1 1344 0
 1903 0002 1868     		ldr	r0, [r3]
 1904              		.loc 1 1345 0
 1905 0004 7047     		bx	lr
 1906              	.L151:
 1907 0006 C046     		.align	2
 1908              	.L150:
 1909 0008 3C010540 		.word	1074069820
 1910              		.cfi_endproc
 1911              	.LFE36:
 1912              		.size	Timer_1_GetInterruptSourceMasked, .-Timer_1_GetInterruptSourceMasked
 1913              		.section	.text.Timer_1_GetInterruptSource,"ax",%progbits
 1914              		.align	2
 1915              		.global	Timer_1_GetInterruptSource
 1916              		.code	16
 1917              		.thumb_func
 1918              		.type	Timer_1_GetInterruptSource, %function
 1919              	Timer_1_GetInterruptSource:
 1920              	.LFB37:
1346:Generated_Source\PSoC4/Timer_1.c **** 
1347:Generated_Source\PSoC4/Timer_1.c **** 
1348:Generated_Source\PSoC4/Timer_1.c **** /*******************************************************************************
1349:Generated_Source\PSoC4/Timer_1.c **** * Function Name: Timer_1_GetInterruptSource
1350:Generated_Source\PSoC4/Timer_1.c **** ********************************************************************************
1351:Generated_Source\PSoC4/Timer_1.c **** *
1352:Generated_Source\PSoC4/Timer_1.c **** * Summary:
1353:Generated_Source\PSoC4/Timer_1.c **** *  Gets the interrupt requests (without masking).
1354:Generated_Source\PSoC4/Timer_1.c **** *
1355:Generated_Source\PSoC4/Timer_1.c **** * Parameters:
1356:Generated_Source\PSoC4/Timer_1.c **** *  None
1357:Generated_Source\PSoC4/Timer_1.c **** *
1358:Generated_Source\PSoC4/Timer_1.c **** * Return:
1359:Generated_Source\PSoC4/Timer_1.c **** *  Interrupt request value
1360:Generated_Source\PSoC4/Timer_1.c **** *   Values:
ARM GAS  C:\Users\young\AppData\Local\Temp\cc3sLV9e.s 			page 64


1361:Generated_Source\PSoC4/Timer_1.c **** *     - Timer_1_INTR_MASK_TC       - Terminal count mask
1362:Generated_Source\PSoC4/Timer_1.c **** *     - Timer_1_INTR_MASK_CC_MATCH - Compare count / capture mask
1363:Generated_Source\PSoC4/Timer_1.c **** *
1364:Generated_Source\PSoC4/Timer_1.c **** *******************************************************************************/
1365:Generated_Source\PSoC4/Timer_1.c **** uint32 Timer_1_GetInterruptSource(void)
1366:Generated_Source\PSoC4/Timer_1.c **** {
 1921              		.loc 1 1366 0
 1922              		.cfi_startproc
 1923              		@ args = 0, pretend = 0, frame = 0
 1924              		@ frame_needed = 0, uses_anonymous_args = 0
 1925              		@ link register save eliminated.
1367:Generated_Source\PSoC4/Timer_1.c ****     return (Timer_1_INTERRUPT_REQ_REG);
 1926              		.loc 1 1367 0
 1927 0000 014B     		ldr	r3, .L153
1368:Generated_Source\PSoC4/Timer_1.c **** }
 1928              		.loc 1 1368 0
 1929              		@ sp needed
1367:Generated_Source\PSoC4/Timer_1.c ****     return (Timer_1_INTERRUPT_REQ_REG);
 1930              		.loc 1 1367 0
 1931 0002 1868     		ldr	r0, [r3]
 1932              		.loc 1 1368 0
 1933 0004 7047     		bx	lr
 1934              	.L154:
 1935 0006 C046     		.align	2
 1936              	.L153:
 1937 0008 30010540 		.word	1074069808
 1938              		.cfi_endproc
 1939              	.LFE37:
 1940              		.size	Timer_1_GetInterruptSource, .-Timer_1_GetInterruptSource
 1941              		.section	.text.Timer_1_ClearInterrupt,"ax",%progbits
 1942              		.align	2
 1943              		.global	Timer_1_ClearInterrupt
 1944              		.code	16
 1945              		.thumb_func
 1946              		.type	Timer_1_ClearInterrupt, %function
 1947              	Timer_1_ClearInterrupt:
 1948              	.LFB38:
1369:Generated_Source\PSoC4/Timer_1.c **** 
1370:Generated_Source\PSoC4/Timer_1.c **** 
1371:Generated_Source\PSoC4/Timer_1.c **** /*******************************************************************************
1372:Generated_Source\PSoC4/Timer_1.c **** * Function Name: Timer_1_ClearInterrupt
1373:Generated_Source\PSoC4/Timer_1.c **** ********************************************************************************
1374:Generated_Source\PSoC4/Timer_1.c **** *
1375:Generated_Source\PSoC4/Timer_1.c **** * Summary:
1376:Generated_Source\PSoC4/Timer_1.c **** *  Clears the interrupt request.
1377:Generated_Source\PSoC4/Timer_1.c **** *
1378:Generated_Source\PSoC4/Timer_1.c **** * Parameters:
1379:Generated_Source\PSoC4/Timer_1.c **** *   interruptMask: Mask of interrupts to clear
1380:Generated_Source\PSoC4/Timer_1.c **** *   Values:
1381:Generated_Source\PSoC4/Timer_1.c **** *     - Timer_1_INTR_MASK_TC       - Terminal count mask
1382:Generated_Source\PSoC4/Timer_1.c **** *     - Timer_1_INTR_MASK_CC_MATCH - Compare count / capture mask
1383:Generated_Source\PSoC4/Timer_1.c **** *
1384:Generated_Source\PSoC4/Timer_1.c **** * Return:
1385:Generated_Source\PSoC4/Timer_1.c **** *  None
1386:Generated_Source\PSoC4/Timer_1.c **** *
1387:Generated_Source\PSoC4/Timer_1.c **** *******************************************************************************/
1388:Generated_Source\PSoC4/Timer_1.c **** void Timer_1_ClearInterrupt(uint32 interruptMask)
ARM GAS  C:\Users\young\AppData\Local\Temp\cc3sLV9e.s 			page 65


1389:Generated_Source\PSoC4/Timer_1.c **** {
 1949              		.loc 1 1389 0
 1950              		.cfi_startproc
 1951              		@ args = 0, pretend = 0, frame = 0
 1952              		@ frame_needed = 0, uses_anonymous_args = 0
 1953              		@ link register save eliminated.
 1954              	.LVL157:
1390:Generated_Source\PSoC4/Timer_1.c ****     Timer_1_INTERRUPT_REQ_REG = interruptMask;
 1955              		.loc 1 1390 0
 1956 0000 014B     		ldr	r3, .L156
1391:Generated_Source\PSoC4/Timer_1.c **** }
 1957              		.loc 1 1391 0
 1958              		@ sp needed
1390:Generated_Source\PSoC4/Timer_1.c ****     Timer_1_INTERRUPT_REQ_REG = interruptMask;
 1959              		.loc 1 1390 0
 1960 0002 1860     		str	r0, [r3]
 1961              		.loc 1 1391 0
 1962 0004 7047     		bx	lr
 1963              	.L157:
 1964 0006 C046     		.align	2
 1965              	.L156:
 1966 0008 30010540 		.word	1074069808
 1967              		.cfi_endproc
 1968              	.LFE38:
 1969              		.size	Timer_1_ClearInterrupt, .-Timer_1_ClearInterrupt
 1970              		.section	.text.Timer_1_SetInterrupt,"ax",%progbits
 1971              		.align	2
 1972              		.global	Timer_1_SetInterrupt
 1973              		.code	16
 1974              		.thumb_func
 1975              		.type	Timer_1_SetInterrupt, %function
 1976              	Timer_1_SetInterrupt:
 1977              	.LFB39:
1392:Generated_Source\PSoC4/Timer_1.c **** 
1393:Generated_Source\PSoC4/Timer_1.c **** 
1394:Generated_Source\PSoC4/Timer_1.c **** /*******************************************************************************
1395:Generated_Source\PSoC4/Timer_1.c **** * Function Name: Timer_1_SetInterrupt
1396:Generated_Source\PSoC4/Timer_1.c **** ********************************************************************************
1397:Generated_Source\PSoC4/Timer_1.c **** *
1398:Generated_Source\PSoC4/Timer_1.c **** * Summary:
1399:Generated_Source\PSoC4/Timer_1.c **** *  Sets a software interrupt request.
1400:Generated_Source\PSoC4/Timer_1.c **** *
1401:Generated_Source\PSoC4/Timer_1.c **** * Parameters:
1402:Generated_Source\PSoC4/Timer_1.c **** *   interruptMask: Mask of interrupts to set
1403:Generated_Source\PSoC4/Timer_1.c **** *   Values:
1404:Generated_Source\PSoC4/Timer_1.c **** *     - Timer_1_INTR_MASK_TC       - Terminal count mask
1405:Generated_Source\PSoC4/Timer_1.c **** *     - Timer_1_INTR_MASK_CC_MATCH - Compare count / capture mask
1406:Generated_Source\PSoC4/Timer_1.c **** *
1407:Generated_Source\PSoC4/Timer_1.c **** * Return:
1408:Generated_Source\PSoC4/Timer_1.c **** *  None
1409:Generated_Source\PSoC4/Timer_1.c **** *
1410:Generated_Source\PSoC4/Timer_1.c **** *******************************************************************************/
1411:Generated_Source\PSoC4/Timer_1.c **** void Timer_1_SetInterrupt(uint32 interruptMask)
1412:Generated_Source\PSoC4/Timer_1.c **** {
 1978              		.loc 1 1412 0
 1979              		.cfi_startproc
 1980              		@ args = 0, pretend = 0, frame = 0
ARM GAS  C:\Users\young\AppData\Local\Temp\cc3sLV9e.s 			page 66


 1981              		@ frame_needed = 0, uses_anonymous_args = 0
 1982              		@ link register save eliminated.
 1983              	.LVL158:
1413:Generated_Source\PSoC4/Timer_1.c ****     Timer_1_INTERRUPT_SET_REG = interruptMask;
 1984              		.loc 1 1413 0
 1985 0000 014B     		ldr	r3, .L159
1414:Generated_Source\PSoC4/Timer_1.c **** }
 1986              		.loc 1 1414 0
 1987              		@ sp needed
1413:Generated_Source\PSoC4/Timer_1.c ****     Timer_1_INTERRUPT_SET_REG = interruptMask;
 1988              		.loc 1 1413 0
 1989 0002 1860     		str	r0, [r3]
 1990              		.loc 1 1414 0
 1991 0004 7047     		bx	lr
 1992              	.L160:
 1993 0006 C046     		.align	2
 1994              	.L159:
 1995 0008 34010540 		.word	1074069812
 1996              		.cfi_endproc
 1997              	.LFE39:
 1998              		.size	Timer_1_SetInterrupt, .-Timer_1_SetInterrupt
 1999              		.global	Timer_1_initVar
 2000              		.bss
 2001              		.set	.LANCHOR0,. + 0
 2002              		.type	Timer_1_initVar, %object
 2003              		.size	Timer_1_initVar, 1
 2004              	Timer_1_initVar:
 2005 0000 00       		.space	1
 2006              		.text
 2007              	.Letext0:
 2008              		.file 2 "Generated_Source\\PSoC4\\cytypes.h"
 2009              		.file 3 "Generated_Source\\PSoC4\\CyLib.h"
 2010              		.section	.debug_info,"",%progbits
 2011              	.Ldebug_info0:
 2012 0000 4D0B0000 		.4byte	0xb4d
 2013 0004 0400     		.2byte	0x4
 2014 0006 00000000 		.4byte	.Ldebug_abbrev0
 2015 000a 04       		.byte	0x4
 2016 000b 01       		.uleb128 0x1
 2017 000c 9B000000 		.4byte	.LASF80
 2018 0010 0C       		.byte	0xc
 2019 0011 19020000 		.4byte	.LASF81
 2020 0015 BA030000 		.4byte	.LASF82
 2021 0019 68000000 		.4byte	.Ldebug_ranges0+0x68
 2022 001d 00000000 		.4byte	0
 2023 0021 00000000 		.4byte	.Ldebug_line0
 2024 0025 02       		.uleb128 0x2
 2025 0026 01       		.byte	0x1
 2026 0027 06       		.byte	0x6
 2027 0028 37010000 		.4byte	.LASF0
 2028 002c 02       		.uleb128 0x2
 2029 002d 01       		.byte	0x1
 2030 002e 08       		.byte	0x8
 2031 002f E4040000 		.4byte	.LASF1
 2032 0033 02       		.uleb128 0x2
 2033 0034 02       		.byte	0x2
 2034 0035 05       		.byte	0x5
ARM GAS  C:\Users\young\AppData\Local\Temp\cc3sLV9e.s 			page 67


 2035 0036 16050000 		.4byte	.LASF2
 2036 003a 02       		.uleb128 0x2
 2037 003b 02       		.byte	0x2
 2038 003c 07       		.byte	0x7
 2039 003d CF020000 		.4byte	.LASF3
 2040 0041 02       		.uleb128 0x2
 2041 0042 04       		.byte	0x4
 2042 0043 05       		.byte	0x5
 2043 0044 75010000 		.4byte	.LASF4
 2044 0048 02       		.uleb128 0x2
 2045 0049 04       		.byte	0x4
 2046 004a 07       		.byte	0x7
 2047 004b 56020000 		.4byte	.LASF5
 2048 004f 02       		.uleb128 0x2
 2049 0050 08       		.byte	0x8
 2050 0051 05       		.byte	0x5
 2051 0052 29010000 		.4byte	.LASF6
 2052 0056 02       		.uleb128 0x2
 2053 0057 08       		.byte	0x8
 2054 0058 07       		.byte	0x7
 2055 0059 62000000 		.4byte	.LASF7
 2056 005d 03       		.uleb128 0x3
 2057 005e 04       		.byte	0x4
 2058 005f 05       		.byte	0x5
 2059 0060 696E7400 		.ascii	"int\000"
 2060 0064 02       		.uleb128 0x2
 2061 0065 04       		.byte	0x4
 2062 0066 07       		.byte	0x7
 2063 0067 0C020000 		.4byte	.LASF8
 2064 006b 04       		.uleb128 0x4
 2065 006c 89010000 		.4byte	.LASF9
 2066 0070 02       		.byte	0x2
 2067 0071 D201     		.2byte	0x1d2
 2068 0073 2C000000 		.4byte	0x2c
 2069 0077 04       		.uleb128 0x4
 2070 0078 DB010000 		.4byte	.LASF10
 2071 007c 02       		.byte	0x2
 2072 007d D401     		.2byte	0x1d4
 2073 007f 48000000 		.4byte	0x48
 2074 0083 02       		.uleb128 0x2
 2075 0084 04       		.byte	0x4
 2076 0085 04       		.byte	0x4
 2077 0086 84040000 		.4byte	.LASF11
 2078 008a 02       		.uleb128 0x2
 2079 008b 08       		.byte	0x8
 2080 008c 04       		.byte	0x4
 2081 008d 8F010000 		.4byte	.LASF12
 2082 0091 02       		.uleb128 0x2
 2083 0092 01       		.byte	0x1
 2084 0093 08       		.byte	0x8
 2085 0094 70050000 		.4byte	.LASF13
 2086 0098 04       		.uleb128 0x4
 2087 0099 72030000 		.4byte	.LASF14
 2088 009d 02       		.byte	0x2
 2089 009e 7E02     		.2byte	0x27e
 2090 00a0 A4000000 		.4byte	0xa4
 2091 00a4 05       		.uleb128 0x5
ARM GAS  C:\Users\young\AppData\Local\Temp\cc3sLV9e.s 			page 68


 2092 00a5 77000000 		.4byte	0x77
 2093 00a9 02       		.uleb128 0x2
 2094 00aa 08       		.byte	0x8
 2095 00ab 04       		.byte	0x4
 2096 00ac 98030000 		.4byte	.LASF15
 2097 00b0 02       		.uleb128 0x2
 2098 00b1 04       		.byte	0x4
 2099 00b2 07       		.byte	0x7
 2100 00b3 78030000 		.4byte	.LASF16
 2101 00b7 06       		.uleb128 0x6
 2102 00b8 E1050000 		.4byte	.LASF19
 2103 00bc 01       		.byte	0x1
 2104 00bd F104     		.2byte	0x4f1
 2105 00bf 01       		.byte	0x1
 2106 00c0 E9000000 		.4byte	0xe9
 2107 00c4 07       		.uleb128 0x7
 2108 00c5 EE010000 		.4byte	.LASF17
 2109 00c9 01       		.byte	0x1
 2110 00ca F104     		.2byte	0x4f1
 2111 00cc 77000000 		.4byte	0x77
 2112 00d0 07       		.uleb128 0x7
 2113 00d1 4E020000 		.4byte	.LASF18
 2114 00d5 01       		.byte	0x1
 2115 00d6 F104     		.2byte	0x4f1
 2116 00d8 77000000 		.4byte	0x77
 2117 00dc 08       		.uleb128 0x8
 2118 00dd F8050000 		.4byte	.LASF24
 2119 00e1 01       		.byte	0x1
 2120 00e2 F304     		.2byte	0x4f3
 2121 00e4 6B000000 		.4byte	0x6b
 2122 00e8 00       		.byte	0
 2123 00e9 06       		.uleb128 0x6
 2124 00ea 96010000 		.4byte	.LASF20
 2125 00ee 01       		.byte	0x1
 2126 00ef 6702     		.2byte	0x267
 2127 00f1 01       		.byte	0x1
 2128 00f2 03010000 		.4byte	0x103
 2129 00f6 07       		.uleb128 0x7
 2130 00f7 00000000 		.4byte	.LASF21
 2131 00fb 01       		.byte	0x1
 2132 00fc 6702     		.2byte	0x267
 2133 00fe 77000000 		.4byte	0x77
 2134 0102 00       		.byte	0
 2135 0103 06       		.uleb128 0x6
 2136 0104 86000000 		.4byte	.LASF22
 2137 0108 01       		.byte	0x1
 2138 0109 5103     		.2byte	0x351
 2139 010b 01       		.byte	0x1
 2140 010c 29010000 		.4byte	0x129
 2141 0110 07       		.uleb128 0x7
 2142 0111 3C040000 		.4byte	.LASF23
 2143 0115 01       		.byte	0x1
 2144 0116 5103     		.2byte	0x351
 2145 0118 77000000 		.4byte	0x77
 2146 011c 08       		.uleb128 0x8
 2147 011d 18030000 		.4byte	.LASF25
 2148 0121 01       		.byte	0x1
ARM GAS  C:\Users\young\AppData\Local\Temp\cc3sLV9e.s 			page 69


 2149 0122 5403     		.2byte	0x354
 2150 0124 77000000 		.4byte	0x77
 2151 0128 00       		.byte	0
 2152 0129 06       		.uleb128 0x6
 2153 012a 5A010000 		.4byte	.LASF26
 2154 012e 01       		.byte	0x1
 2155 012f B502     		.2byte	0x2b5
 2156 0131 01       		.byte	0x1
 2157 0132 43010000 		.4byte	0x143
 2158 0136 07       		.uleb128 0x7
 2159 0137 5B000000 		.4byte	.LASF27
 2160 013b 01       		.byte	0x1
 2161 013c B502     		.2byte	0x2b5
 2162 013e 77000000 		.4byte	0x77
 2163 0142 00       		.byte	0
 2164 0143 06       		.uleb128 0x6
 2165 0144 8E050000 		.4byte	.LASF28
 2166 0148 01       		.byte	0x1
 2167 0149 2705     		.2byte	0x527
 2168 014b 01       		.byte	0x1
 2169 014c 5D010000 		.4byte	0x15d
 2170 0150 07       		.uleb128 0x7
 2171 0151 20050000 		.4byte	.LASF29
 2172 0155 01       		.byte	0x1
 2173 0156 2705     		.2byte	0x527
 2174 0158 77000000 		.4byte	0x77
 2175 015c 00       		.byte	0
 2176 015d 09       		.uleb128 0x9
 2177 015e 79000000 		.4byte	.LASF83
 2178 0162 01       		.byte	0x1
 2179 0163 26       		.byte	0x26
 2180 0164 01       		.byte	0x1
 2181 0165 0A       		.uleb128 0xa
 2182 0166 5D010000 		.4byte	0x15d
 2183 016a 00000000 		.4byte	.LFB0
 2184 016e 64000000 		.4byte	.LFE0-.LFB0
 2185 0172 01       		.uleb128 0x1
 2186 0173 9C       		.byte	0x9c
 2187 0174 F8010000 		.4byte	0x1f8
 2188 0178 0B       		.uleb128 0xb
 2189 0179 43010000 		.4byte	0x143
 2190 017d 0E000000 		.4byte	.LBB22
 2191 0181 06000000 		.4byte	.LBE22-.LBB22
 2192 0185 01       		.byte	0x1
 2193 0186 40       		.byte	0x40
 2194 0187 95010000 		.4byte	0x195
 2195 018b 0C       		.uleb128 0xc
 2196 018c 50010000 		.4byte	0x150
 2197 0190 00000000 		.4byte	.LLST0
 2198 0194 00       		.byte	0
 2199 0195 0B       		.uleb128 0xb
 2200 0196 29010000 		.4byte	0x129
 2201 019a 14000000 		.4byte	.LBB24
 2202 019e 06000000 		.4byte	.LBE24-.LBB24
 2203 01a2 01       		.byte	0x1
 2204 01a3 43       		.byte	0x43
 2205 01a4 B2010000 		.4byte	0x1b2
ARM GAS  C:\Users\young\AppData\Local\Temp\cc3sLV9e.s 			page 70


 2206 01a8 0C       		.uleb128 0xc
 2207 01a9 36010000 		.4byte	0x136
 2208 01ad 14000000 		.4byte	.LLST1
 2209 01b1 00       		.byte	0
 2210 01b2 0D       		.uleb128 0xd
 2211 01b3 03010000 		.4byte	0x103
 2212 01b7 1A000000 		.4byte	.LBB26
 2213 01bb 00000000 		.4byte	.Ldebug_ranges0+0
 2214 01bf 01       		.byte	0x1
 2215 01c0 46       		.byte	0x46
 2216 01c1 DE010000 		.4byte	0x1de
 2217 01c5 0C       		.uleb128 0xc
 2218 01c6 10010000 		.4byte	0x110
 2219 01ca 2A000000 		.4byte	.LLST2
 2220 01ce 0E       		.uleb128 0xe
 2221 01cf 00000000 		.4byte	.Ldebug_ranges0+0
 2222 01d3 0F       		.uleb128 0xf
 2223 01d4 1C010000 		.4byte	0x11c
 2224 01d8 59000000 		.4byte	.LLST3
 2225 01dc 00       		.byte	0
 2226 01dd 00       		.byte	0
 2227 01de 10       		.uleb128 0x10
 2228 01df E9000000 		.4byte	0xe9
 2229 01e3 32000000 		.4byte	.LBB31
 2230 01e7 06000000 		.4byte	.LBE31-.LBB31
 2231 01eb 01       		.byte	0x1
 2232 01ec 54       		.byte	0x54
 2233 01ed 0C       		.uleb128 0xc
 2234 01ee F6000000 		.4byte	0xf6
 2235 01f2 77000000 		.4byte	.LLST4
 2236 01f6 00       		.byte	0
 2237 01f7 00       		.byte	0
 2238 01f8 11       		.uleb128 0x11
 2239 01f9 BE040000 		.4byte	.LASF30
 2240 01fd 01       		.byte	0x1
 2241 01fe B1       		.byte	0xb1
 2242 01ff 01       		.byte	0x1
 2243 0200 10020000 		.4byte	0x210
 2244 0204 12       		.uleb128 0x12
 2245 0205 F8050000 		.4byte	.LASF24
 2246 0209 01       		.byte	0x1
 2247 020a B3       		.byte	0xb3
 2248 020b 6B000000 		.4byte	0x6b
 2249 020f 00       		.byte	0
 2250 0210 0A       		.uleb128 0xa
 2251 0211 F8010000 		.4byte	0x1f8
 2252 0215 00000000 		.4byte	.LFB1
 2253 0219 30000000 		.4byte	.LFE1-.LFB1
 2254 021d 01       		.uleb128 0x1
 2255 021e 9C       		.byte	0x9c
 2256 021f 8A020000 		.4byte	0x28a
 2257 0223 0F       		.uleb128 0xf
 2258 0224 04020000 		.4byte	0x204
 2259 0228 8B000000 		.4byte	.LLST5
 2260 022c 0B       		.uleb128 0xb
 2261 022d B7000000 		.4byte	0xb7
 2262 0231 14000000 		.4byte	.LBB36
ARM GAS  C:\Users\young\AppData\Local\Temp\cc3sLV9e.s 			page 71


 2263 0235 10000000 		.4byte	.LBE36-.LBB36
 2264 0239 01       		.byte	0x1
 2265 023a C2       		.byte	0xc2
 2266 023b 77020000 		.4byte	0x277
 2267 023f 0C       		.uleb128 0xc
 2268 0240 D0000000 		.4byte	0xd0
 2269 0244 9E000000 		.4byte	.LLST6
 2270 0248 0C       		.uleb128 0xc
 2271 0249 C4000000 		.4byte	0xc4
 2272 024d B2000000 		.4byte	.LLST7
 2273 0251 13       		.uleb128 0x13
 2274 0252 14000000 		.4byte	.LBB37
 2275 0256 10000000 		.4byte	.LBE37-.LBB37
 2276 025a 0F       		.uleb128 0xf
 2277 025b DC000000 		.4byte	0xdc
 2278 025f C6000000 		.4byte	.LLST8
 2279 0263 14       		.uleb128 0x14
 2280 0264 18000000 		.4byte	.LVL12
 2281 0268 3A0B0000 		.4byte	0xb3a
 2282 026c 14       		.uleb128 0x14
 2283 026d 24000000 		.4byte	.LVL13
 2284 0271 450B0000 		.4byte	0xb45
 2285 0275 00       		.byte	0
 2286 0276 00       		.byte	0
 2287 0277 14       		.uleb128 0x14
 2288 0278 06000000 		.4byte	.LVL10
 2289 027c 3A0B0000 		.4byte	0xb3a
 2290 0280 14       		.uleb128 0x14
 2291 0281 14000000 		.4byte	.LVL11
 2292 0285 450B0000 		.4byte	0xb45
 2293 0289 00       		.byte	0
 2294 028a 15       		.uleb128 0x15
 2295 028b 71020000 		.4byte	.LASF31
 2296 028f 01       		.byte	0x1
 2297 0290 E6       		.byte	0xe6
 2298 0291 00000000 		.4byte	.LFB2
 2299 0295 A0000000 		.4byte	.LFE2-.LFB2
 2300 0299 01       		.uleb128 0x1
 2301 029a 9C       		.byte	0x9c
 2302 029b AF030000 		.4byte	0x3af
 2303 029f 0D       		.uleb128 0xd
 2304 02a0 5D010000 		.4byte	0x15d
 2305 02a4 0A000000 		.4byte	.LBB52
 2306 02a8 20000000 		.4byte	.Ldebug_ranges0+0x20
 2307 02ac 01       		.byte	0x1
 2308 02ad EA       		.byte	0xea
 2309 02ae 32030000 		.4byte	0x332
 2310 02b2 0B       		.uleb128 0xb
 2311 02b3 43010000 		.4byte	0x143
 2312 02b7 18000000 		.4byte	.LBB54
 2313 02bb 06000000 		.4byte	.LBE54-.LBB54
 2314 02bf 01       		.byte	0x1
 2315 02c0 40       		.byte	0x40
 2316 02c1 CF020000 		.4byte	0x2cf
 2317 02c5 0C       		.uleb128 0xc
 2318 02c6 50010000 		.4byte	0x150
 2319 02ca D9000000 		.4byte	.LLST9
ARM GAS  C:\Users\young\AppData\Local\Temp\cc3sLV9e.s 			page 72


 2320 02ce 00       		.byte	0
 2321 02cf 0B       		.uleb128 0xb
 2322 02d0 29010000 		.4byte	0x129
 2323 02d4 1E000000 		.4byte	.LBB56
 2324 02d8 06000000 		.4byte	.LBE56-.LBB56
 2325 02dc 01       		.byte	0x1
 2326 02dd 43       		.byte	0x43
 2327 02de EC020000 		.4byte	0x2ec
 2328 02e2 0C       		.uleb128 0xc
 2329 02e3 36010000 		.4byte	0x136
 2330 02e7 ED000000 		.4byte	.LLST10
 2331 02eb 00       		.byte	0
 2332 02ec 0D       		.uleb128 0xd
 2333 02ed 03010000 		.4byte	0x103
 2334 02f1 24000000 		.4byte	.LBB58
 2335 02f5 38000000 		.4byte	.Ldebug_ranges0+0x38
 2336 02f9 01       		.byte	0x1
 2337 02fa 46       		.byte	0x46
 2338 02fb 18030000 		.4byte	0x318
 2339 02ff 0C       		.uleb128 0xc
 2340 0300 10010000 		.4byte	0x110
 2341 0304 03010000 		.4byte	.LLST11
 2342 0308 0E       		.uleb128 0xe
 2343 0309 38000000 		.4byte	.Ldebug_ranges0+0x38
 2344 030d 0F       		.uleb128 0xf
 2345 030e 1C010000 		.4byte	0x11c
 2346 0312 32010000 		.4byte	.LLST12
 2347 0316 00       		.byte	0
 2348 0317 00       		.byte	0
 2349 0318 10       		.uleb128 0x10
 2350 0319 E9000000 		.4byte	0xe9
 2351 031d 3C000000 		.4byte	.LBB61
 2352 0321 06000000 		.4byte	.LBE61-.LBB61
 2353 0325 01       		.byte	0x1
 2354 0326 54       		.byte	0x54
 2355 0327 0C       		.uleb128 0xc
 2356 0328 F6000000 		.4byte	0xf6
 2357 032c 50010000 		.4byte	.LLST13
 2358 0330 00       		.byte	0
 2359 0331 00       		.byte	0
 2360 0332 16       		.uleb128 0x16
 2361 0333 F8010000 		.4byte	0x1f8
 2362 0337 46000000 		.4byte	.LBB65
 2363 033b 50000000 		.4byte	.Ldebug_ranges0+0x50
 2364 033f 01       		.byte	0x1
 2365 0340 EE       		.byte	0xee
 2366 0341 0E       		.uleb128 0xe
 2367 0342 50000000 		.4byte	.Ldebug_ranges0+0x50
 2368 0346 0F       		.uleb128 0xf
 2369 0347 04020000 		.4byte	0x204
 2370 034b 64010000 		.4byte	.LLST14
 2371 034f 0B       		.uleb128 0xb
 2372 0350 B7000000 		.4byte	0xb7
 2373 0354 58000000 		.4byte	.LBB67
 2374 0358 10000000 		.4byte	.LBE67-.LBB67
 2375 035c 01       		.byte	0x1
 2376 035d C2       		.byte	0xc2
ARM GAS  C:\Users\young\AppData\Local\Temp\cc3sLV9e.s 			page 73


 2377 035e 9A030000 		.4byte	0x39a
 2378 0362 0C       		.uleb128 0xc
 2379 0363 D0000000 		.4byte	0xd0
 2380 0367 77010000 		.4byte	.LLST15
 2381 036b 0C       		.uleb128 0xc
 2382 036c C4000000 		.4byte	0xc4
 2383 0370 8B010000 		.4byte	.LLST16
 2384 0374 13       		.uleb128 0x13
 2385 0375 58000000 		.4byte	.LBB68
 2386 0379 10000000 		.4byte	.LBE68-.LBB68
 2387 037d 0F       		.uleb128 0xf
 2388 037e DC000000 		.4byte	0xdc
 2389 0382 9F010000 		.4byte	.LLST17
 2390 0386 14       		.uleb128 0x14
 2391 0387 5C000000 		.4byte	.LVL24
 2392 038b 3A0B0000 		.4byte	0xb3a
 2393 038f 14       		.uleb128 0x14
 2394 0390 68000000 		.4byte	.LVL25
 2395 0394 450B0000 		.4byte	0xb45
 2396 0398 00       		.byte	0
 2397 0399 00       		.byte	0
 2398 039a 14       		.uleb128 0x14
 2399 039b 4A000000 		.4byte	.LVL22
 2400 039f 3A0B0000 		.4byte	0xb3a
 2401 03a3 14       		.uleb128 0x14
 2402 03a4 58000000 		.4byte	.LVL23
 2403 03a8 450B0000 		.4byte	0xb45
 2404 03ac 00       		.byte	0
 2405 03ad 00       		.byte	0
 2406 03ae 00       		.byte	0
 2407 03af 17       		.uleb128 0x17
 2408 03b0 96020000 		.4byte	.LASF32
 2409 03b4 01       		.byte	0x1
 2410 03b5 0001     		.2byte	0x100
 2411 03b7 00000000 		.4byte	.LFB3
 2412 03bb 1C000000 		.4byte	.LFE3-.LFB3
 2413 03bf 01       		.uleb128 0x1
 2414 03c0 9C       		.byte	0x9c
 2415 03c1 E8030000 		.4byte	0x3e8
 2416 03c5 18       		.uleb128 0x18
 2417 03c6 F8050000 		.4byte	.LASF24
 2418 03ca 01       		.byte	0x1
 2419 03cb 0201     		.2byte	0x102
 2420 03cd 6B000000 		.4byte	0x6b
 2421 03d1 B2010000 		.4byte	.LLST18
 2422 03d5 14       		.uleb128 0x14
 2423 03d6 06000000 		.4byte	.LVL28
 2424 03da 3A0B0000 		.4byte	0xb3a
 2425 03de 14       		.uleb128 0x14
 2426 03df 14000000 		.4byte	.LVL29
 2427 03e3 450B0000 		.4byte	0xb45
 2428 03e7 00       		.byte	0
 2429 03e8 17       		.uleb128 0x17
 2430 03e9 32030000 		.4byte	.LASF33
 2431 03ed 01       		.byte	0x1
 2432 03ee 2501     		.2byte	0x125
 2433 03f0 00000000 		.4byte	.LFB4
ARM GAS  C:\Users\young\AppData\Local\Temp\cc3sLV9e.s 			page 74


 2434 03f4 28000000 		.4byte	.LFE4-.LFB4
 2435 03f8 01       		.uleb128 0x1
 2436 03f9 9C       		.byte	0x9c
 2437 03fa 31040000 		.4byte	0x431
 2438 03fe 19       		.uleb128 0x19
 2439 03ff 75050000 		.4byte	.LASF35
 2440 0403 01       		.byte	0x1
 2441 0404 2501     		.2byte	0x125
 2442 0406 77000000 		.4byte	0x77
 2443 040a C5010000 		.4byte	.LLST19
 2444 040e 18       		.uleb128 0x18
 2445 040f F8050000 		.4byte	.LASF24
 2446 0413 01       		.byte	0x1
 2447 0414 2701     		.2byte	0x127
 2448 0416 6B000000 		.4byte	0x6b
 2449 041a F1010000 		.4byte	.LLST20
 2450 041e 14       		.uleb128 0x14
 2451 041f 08000000 		.4byte	.LVL31
 2452 0423 3A0B0000 		.4byte	0xb3a
 2453 0427 14       		.uleb128 0x14
 2454 0428 1C000000 		.4byte	.LVL33
 2455 042c 450B0000 		.4byte	0xb45
 2456 0430 00       		.byte	0
 2457 0431 17       		.uleb128 0x17
 2458 0432 AC040000 		.4byte	.LASF34
 2459 0436 01       		.byte	0x1
 2460 0437 4601     		.2byte	0x146
 2461 0439 00000000 		.4byte	.LFB5
 2462 043d 28000000 		.4byte	.LFE5-.LFB5
 2463 0441 01       		.uleb128 0x1
 2464 0442 9C       		.byte	0x9c
 2465 0443 7A040000 		.4byte	0x47a
 2466 0447 19       		.uleb128 0x19
 2467 0448 6E010000 		.4byte	.LASF36
 2468 044c 01       		.byte	0x1
 2469 044d 4601     		.2byte	0x146
 2470 044f 77000000 		.4byte	0x77
 2471 0453 04020000 		.4byte	.LLST21
 2472 0457 18       		.uleb128 0x18
 2473 0458 F8050000 		.4byte	.LASF24
 2474 045c 01       		.byte	0x1
 2475 045d 4801     		.2byte	0x148
 2476 045f 6B000000 		.4byte	0x6b
 2477 0463 30020000 		.4byte	.LLST22
 2478 0467 14       		.uleb128 0x14
 2479 0468 08000000 		.4byte	.LVL35
 2480 046c 3A0B0000 		.4byte	0xb3a
 2481 0470 14       		.uleb128 0x14
 2482 0471 1C000000 		.4byte	.LVL37
 2483 0475 450B0000 		.4byte	0xb45
 2484 0479 00       		.byte	0
 2485 047a 17       		.uleb128 0x17
 2486 047b 44040000 		.4byte	.LASF37
 2487 047f 01       		.byte	0x1
 2488 0480 6B01     		.2byte	0x16b
 2489 0482 00000000 		.4byte	.LFB6
 2490 0486 28000000 		.4byte	.LFE6-.LFB6
ARM GAS  C:\Users\young\AppData\Local\Temp\cc3sLV9e.s 			page 75


 2491 048a 01       		.uleb128 0x1
 2492 048b 9C       		.byte	0x9c
 2493 048c C3040000 		.4byte	0x4c3
 2494 0490 19       		.uleb128 0x19
 2495 0491 8A040000 		.4byte	.LASF38
 2496 0495 01       		.byte	0x1
 2497 0496 6B01     		.2byte	0x16b
 2498 0498 77000000 		.4byte	0x77
 2499 049c 43020000 		.4byte	.LLST23
 2500 04a0 18       		.uleb128 0x18
 2501 04a1 F8050000 		.4byte	.LASF24
 2502 04a5 01       		.byte	0x1
 2503 04a6 6D01     		.2byte	0x16d
 2504 04a8 6B000000 		.4byte	0x6b
 2505 04ac 6F020000 		.4byte	.LLST24
 2506 04b0 14       		.uleb128 0x14
 2507 04b1 08000000 		.4byte	.LVL39
 2508 04b5 3A0B0000 		.4byte	0xb3a
 2509 04b9 14       		.uleb128 0x14
 2510 04ba 1C000000 		.4byte	.LVL41
 2511 04be 450B0000 		.4byte	0xb45
 2512 04c2 00       		.byte	0
 2513 04c3 17       		.uleb128 0x17
 2514 04c4 31000000 		.4byte	.LASF39
 2515 04c8 01       		.byte	0x1
 2516 04c9 8B01     		.2byte	0x18b
 2517 04cb 00000000 		.4byte	.LFB7
 2518 04cf 30000000 		.4byte	.LFE7-.LFB7
 2519 04d3 01       		.uleb128 0x1
 2520 04d4 9C       		.byte	0x9c
 2521 04d5 0C050000 		.4byte	0x50c
 2522 04d9 19       		.uleb128 0x19
 2523 04da 24030000 		.4byte	.LASF40
 2524 04de 01       		.byte	0x1
 2525 04df 8B01     		.2byte	0x18b
 2526 04e1 77000000 		.4byte	0x77
 2527 04e5 82020000 		.4byte	.LLST25
 2528 04e9 18       		.uleb128 0x18
 2529 04ea F8050000 		.4byte	.LASF24
 2530 04ee 01       		.byte	0x1
 2531 04ef 8D01     		.2byte	0x18d
 2532 04f1 6B000000 		.4byte	0x6b
 2533 04f5 AE020000 		.4byte	.LLST26
 2534 04f9 14       		.uleb128 0x14
 2535 04fa 08000000 		.4byte	.LVL43
 2536 04fe 3A0B0000 		.4byte	0xb3a
 2537 0502 14       		.uleb128 0x14
 2538 0503 24000000 		.4byte	.LVL45
 2539 0507 450B0000 		.4byte	0xb45
 2540 050b 00       		.byte	0
 2541 050c 17       		.uleb128 0x17
 2542 050d CE050000 		.4byte	.LASF41
 2543 0511 01       		.byte	0x1
 2544 0512 C101     		.2byte	0x1c1
 2545 0514 00000000 		.4byte	.LFB8
 2546 0518 10000000 		.4byte	.LFE8-.LFB8
 2547 051c 01       		.uleb128 0x1
ARM GAS  C:\Users\young\AppData\Local\Temp\cc3sLV9e.s 			page 76


 2548 051d 9C       		.byte	0x9c
 2549 051e 33050000 		.4byte	0x533
 2550 0522 19       		.uleb128 0x19
 2551 0523 68020000 		.4byte	.LASF42
 2552 0527 01       		.byte	0x1
 2553 0528 C101     		.2byte	0x1c1
 2554 052a 77000000 		.4byte	0x77
 2555 052e C1020000 		.4byte	.LLST27
 2556 0532 00       		.byte	0
 2557 0533 17       		.uleb128 0x17
 2558 0534 45050000 		.4byte	.LASF43
 2559 0538 01       		.byte	0x1
 2560 0539 E501     		.2byte	0x1e5
 2561 053b 00000000 		.4byte	.LFB9
 2562 053f 28000000 		.4byte	.LFE9-.LFB9
 2563 0543 01       		.uleb128 0x1
 2564 0544 9C       		.byte	0x9c
 2565 0545 7C050000 		.4byte	0x57c
 2566 0549 19       		.uleb128 0x19
 2567 054a 1E060000 		.4byte	.LASF44
 2568 054e 01       		.byte	0x1
 2569 054f E501     		.2byte	0x1e5
 2570 0551 77000000 		.4byte	0x77
 2571 0555 E2020000 		.4byte	.LLST28
 2572 0559 18       		.uleb128 0x18
 2573 055a F8050000 		.4byte	.LASF24
 2574 055e 01       		.byte	0x1
 2575 055f E701     		.2byte	0x1e7
 2576 0561 6B000000 		.4byte	0x6b
 2577 0565 0E030000 		.4byte	.LLST29
 2578 0569 14       		.uleb128 0x14
 2579 056a 08000000 		.4byte	.LVL49
 2580 056e 3A0B0000 		.4byte	0xb3a
 2581 0572 14       		.uleb128 0x14
 2582 0573 20000000 		.4byte	.LVL51
 2583 0577 450B0000 		.4byte	0xb45
 2584 057b 00       		.byte	0
 2585 057c 17       		.uleb128 0x17
 2586 057d AB010000 		.4byte	.LASF45
 2587 0581 01       		.byte	0x1
 2588 0582 0702     		.2byte	0x207
 2589 0584 00000000 		.4byte	.LFB10
 2590 0588 28000000 		.4byte	.LFE10-.LFB10
 2591 058c 01       		.uleb128 0x1
 2592 058d 9C       		.byte	0x9c
 2593 058e C5050000 		.4byte	0x5c5
 2594 0592 19       		.uleb128 0x19
 2595 0593 F2040000 		.4byte	.LASF46
 2596 0597 01       		.byte	0x1
 2597 0598 0702     		.2byte	0x207
 2598 059a 77000000 		.4byte	0x77
 2599 059e 21030000 		.4byte	.LLST30
 2600 05a2 18       		.uleb128 0x18
 2601 05a3 F8050000 		.4byte	.LASF24
 2602 05a7 01       		.byte	0x1
 2603 05a8 0902     		.2byte	0x209
 2604 05aa 6B000000 		.4byte	0x6b
ARM GAS  C:\Users\young\AppData\Local\Temp\cc3sLV9e.s 			page 77


 2605 05ae 4D030000 		.4byte	.LLST31
 2606 05b2 14       		.uleb128 0x14
 2607 05b3 08000000 		.4byte	.LVL53
 2608 05b7 3A0B0000 		.4byte	0xb3a
 2609 05bb 14       		.uleb128 0x14
 2610 05bc 20000000 		.4byte	.LVL55
 2611 05c0 450B0000 		.4byte	0xb45
 2612 05c4 00       		.byte	0
 2613 05c5 17       		.uleb128 0x17
 2614 05c6 2E050000 		.4byte	.LASF47
 2615 05ca 01       		.byte	0x1
 2616 05cb 2802     		.2byte	0x228
 2617 05cd 00000000 		.4byte	.LFB11
 2618 05d1 2C000000 		.4byte	.LFE11-.LFB11
 2619 05d5 01       		.uleb128 0x1
 2620 05d6 9C       		.byte	0x9c
 2621 05d7 0E060000 		.4byte	0x60e
 2622 05db 19       		.uleb128 0x19
 2623 05dc F3010000 		.4byte	.LASF48
 2624 05e0 01       		.byte	0x1
 2625 05e1 2802     		.2byte	0x228
 2626 05e3 77000000 		.4byte	0x77
 2627 05e7 60030000 		.4byte	.LLST32
 2628 05eb 18       		.uleb128 0x18
 2629 05ec F8050000 		.4byte	.LASF24
 2630 05f0 01       		.byte	0x1
 2631 05f1 2A02     		.2byte	0x22a
 2632 05f3 6B000000 		.4byte	0x6b
 2633 05f7 8C030000 		.4byte	.LLST33
 2634 05fb 14       		.uleb128 0x14
 2635 05fc 08000000 		.4byte	.LVL57
 2636 0600 3A0B0000 		.4byte	0xb3a
 2637 0604 14       		.uleb128 0x14
 2638 0605 20000000 		.4byte	.LVL59
 2639 0609 450B0000 		.4byte	0xb45
 2640 060d 00       		.byte	0
 2641 060e 17       		.uleb128 0x17
 2642 060f A3020000 		.4byte	.LASF49
 2643 0613 01       		.byte	0x1
 2644 0614 4902     		.2byte	0x249
 2645 0616 00000000 		.4byte	.LFB12
 2646 061a 28000000 		.4byte	.LFE12-.LFB12
 2647 061e 01       		.uleb128 0x1
 2648 061f 9C       		.byte	0x9c
 2649 0620 57060000 		.4byte	0x657
 2650 0624 19       		.uleb128 0x19
 2651 0625 EE010000 		.4byte	.LASF17
 2652 0629 01       		.byte	0x1
 2653 062a 4902     		.2byte	0x249
 2654 062c 77000000 		.4byte	0x77
 2655 0630 9F030000 		.4byte	.LLST34
 2656 0634 18       		.uleb128 0x18
 2657 0635 F8050000 		.4byte	.LASF24
 2658 0639 01       		.byte	0x1
 2659 063a 4B02     		.2byte	0x24b
 2660 063c 6B000000 		.4byte	0x6b
 2661 0640 CB030000 		.4byte	.LLST35
ARM GAS  C:\Users\young\AppData\Local\Temp\cc3sLV9e.s 			page 78


 2662 0644 14       		.uleb128 0x14
 2663 0645 08000000 		.4byte	.LVL61
 2664 0649 3A0B0000 		.4byte	0xb3a
 2665 064d 14       		.uleb128 0x14
 2666 064e 1C000000 		.4byte	.LVL63
 2667 0652 450B0000 		.4byte	0xb45
 2668 0656 00       		.byte	0
 2669 0657 0A       		.uleb128 0xa
 2670 0658 E9000000 		.4byte	0xe9
 2671 065c 00000000 		.4byte	.LFB13
 2672 0660 10000000 		.4byte	.LFE13-.LFB13
 2673 0664 01       		.uleb128 0x1
 2674 0665 9C       		.byte	0x9c
 2675 0666 74060000 		.4byte	0x674
 2676 066a 0C       		.uleb128 0xc
 2677 066b F6000000 		.4byte	0xf6
 2678 066f DE030000 		.4byte	.LLST36
 2679 0673 00       		.byte	0
 2680 0674 1A       		.uleb128 0x1a
 2681 0675 59040000 		.4byte	.LASF52
 2682 0679 01       		.byte	0x1
 2683 067a 7B02     		.2byte	0x27b
 2684 067c 77000000 		.4byte	0x77
 2685 0680 00000000 		.4byte	.LFB14
 2686 0684 10000000 		.4byte	.LFE14-.LFB14
 2687 0688 01       		.uleb128 0x1
 2688 0689 9C       		.byte	0x9c
 2689 068a 17       		.uleb128 0x17
 2690 068b B8020000 		.4byte	.LASF50
 2691 068f 01       		.byte	0x1
 2692 0690 9802     		.2byte	0x298
 2693 0692 00000000 		.4byte	.LFB15
 2694 0696 28000000 		.4byte	.LFE15-.LFB15
 2695 069a 01       		.uleb128 0x1
 2696 069b 9C       		.byte	0x9c
 2697 069c D3060000 		.4byte	0x6d3
 2698 06a0 19       		.uleb128 0x19
 2699 06a1 A7050000 		.4byte	.LASF51
 2700 06a5 01       		.byte	0x1
 2701 06a6 9802     		.2byte	0x298
 2702 06a8 77000000 		.4byte	0x77
 2703 06ac FF030000 		.4byte	.LLST37
 2704 06b0 18       		.uleb128 0x18
 2705 06b1 F8050000 		.4byte	.LASF24
 2706 06b5 01       		.byte	0x1
 2707 06b6 9A02     		.2byte	0x29a
 2708 06b8 6B000000 		.4byte	0x6b
 2709 06bc 2B040000 		.4byte	.LLST38
 2710 06c0 14       		.uleb128 0x14
 2711 06c1 08000000 		.4byte	.LVL67
 2712 06c5 3A0B0000 		.4byte	0xb3a
 2713 06c9 14       		.uleb128 0x14
 2714 06ca 1C000000 		.4byte	.LVL69
 2715 06ce 450B0000 		.4byte	0xb45
 2716 06d2 00       		.byte	0
 2717 06d3 0A       		.uleb128 0xa
 2718 06d4 29010000 		.4byte	0x129
ARM GAS  C:\Users\young\AppData\Local\Temp\cc3sLV9e.s 			page 79


 2719 06d8 00000000 		.4byte	.LFB16
 2720 06dc 10000000 		.4byte	.LFE16-.LFB16
 2721 06e0 01       		.uleb128 0x1
 2722 06e1 9C       		.byte	0x9c
 2723 06e2 F0060000 		.4byte	0x6f0
 2724 06e6 0C       		.uleb128 0xc
 2725 06e7 36010000 		.4byte	0x136
 2726 06eb 3E040000 		.4byte	.LLST39
 2727 06ef 00       		.byte	0
 2728 06f0 1A       		.uleb128 0x1a
 2729 06f1 03050000 		.4byte	.LASF53
 2730 06f5 01       		.byte	0x1
 2731 06f6 C902     		.2byte	0x2c9
 2732 06f8 77000000 		.4byte	0x77
 2733 06fc 00000000 		.4byte	.LFB17
 2734 0700 10000000 		.4byte	.LFE17-.LFB17
 2735 0704 01       		.uleb128 0x1
 2736 0705 9C       		.byte	0x9c
 2737 0706 17       		.uleb128 0x17
 2738 0707 44000000 		.4byte	.LASF54
 2739 070b 01       		.byte	0x1
 2740 070c E302     		.2byte	0x2e3
 2741 070e 00000000 		.4byte	.LFB18
 2742 0712 24000000 		.4byte	.LFE18-.LFB18
 2743 0716 01       		.uleb128 0x1
 2744 0717 9C       		.byte	0x9c
 2745 0718 4F070000 		.4byte	0x74f
 2746 071c 19       		.uleb128 0x19
 2747 071d 2D060000 		.4byte	.LASF55
 2748 0721 01       		.byte	0x1
 2749 0722 E302     		.2byte	0x2e3
 2750 0724 77000000 		.4byte	0x77
 2751 0728 5F040000 		.4byte	.LLST40
 2752 072c 18       		.uleb128 0x18
 2753 072d F8050000 		.4byte	.LASF24
 2754 0731 01       		.byte	0x1
 2755 0732 E502     		.2byte	0x2e5
 2756 0734 6B000000 		.4byte	0x6b
 2757 0738 8B040000 		.4byte	.LLST41
 2758 073c 14       		.uleb128 0x14
 2759 073d 08000000 		.4byte	.LVL73
 2760 0741 3A0B0000 		.4byte	0xb3a
 2761 0745 14       		.uleb128 0x14
 2762 0746 1E000000 		.4byte	.LVL74
 2763 074a 450B0000 		.4byte	0xb45
 2764 074e 00       		.byte	0
 2765 074f 17       		.uleb128 0x17
 2766 0750 43010000 		.4byte	.LASF56
 2767 0754 01       		.byte	0x1
 2768 0755 FE02     		.2byte	0x2fe
 2769 0757 00000000 		.4byte	.LFB19
 2770 075b 10000000 		.4byte	.LFE19-.LFB19
 2771 075f 01       		.uleb128 0x1
 2772 0760 9C       		.byte	0x9c
 2773 0761 76070000 		.4byte	0x776
 2774 0765 19       		.uleb128 0x19
 2775 0766 38060000 		.4byte	.LASF57
ARM GAS  C:\Users\young\AppData\Local\Temp\cc3sLV9e.s 			page 80


 2776 076a 01       		.byte	0x1
 2777 076b FE02     		.2byte	0x2fe
 2778 076d 77000000 		.4byte	0x77
 2779 0771 9E040000 		.4byte	.LLST42
 2780 0775 00       		.byte	0
 2781 0776 1A       		.uleb128 0x1a
 2782 0777 49030000 		.4byte	.LASF58
 2783 077b 01       		.byte	0x1
 2784 077c 1203     		.2byte	0x312
 2785 077e 77000000 		.4byte	0x77
 2786 0782 00000000 		.4byte	.LFB20
 2787 0786 10000000 		.4byte	.LFE20-.LFB20
 2788 078a 01       		.uleb128 0x1
 2789 078b 9C       		.byte	0x9c
 2790 078c 17       		.uleb128 0x17
 2791 078d 26040000 		.4byte	.LASF59
 2792 0791 01       		.byte	0x1
 2793 0792 2C03     		.2byte	0x32c
 2794 0794 00000000 		.4byte	.LFB21
 2795 0798 28000000 		.4byte	.LFE21-.LFB21
 2796 079c 01       		.uleb128 0x1
 2797 079d 9C       		.byte	0x9c
 2798 079e D5070000 		.4byte	0x7d5
 2799 07a2 19       		.uleb128 0x19
 2800 07a3 2D060000 		.4byte	.LASF55
 2801 07a7 01       		.byte	0x1
 2802 07a8 2C03     		.2byte	0x32c
 2803 07aa 77000000 		.4byte	0x77
 2804 07ae BF040000 		.4byte	.LLST43
 2805 07b2 18       		.uleb128 0x18
 2806 07b3 F8050000 		.4byte	.LASF24
 2807 07b7 01       		.byte	0x1
 2808 07b8 2E03     		.2byte	0x32e
 2809 07ba 6B000000 		.4byte	0x6b
 2810 07be EB040000 		.4byte	.LLST44
 2811 07c2 14       		.uleb128 0x14
 2812 07c3 08000000 		.4byte	.LVL79
 2813 07c7 3A0B0000 		.4byte	0xb3a
 2814 07cb 14       		.uleb128 0x14
 2815 07cc 20000000 		.4byte	.LVL81
 2816 07d0 450B0000 		.4byte	0xb45
 2817 07d4 00       		.byte	0
 2818 07d5 0A       		.uleb128 0xa
 2819 07d6 03010000 		.4byte	0x103
 2820 07da 00000000 		.4byte	.LFB22
 2821 07de 40000000 		.4byte	.LFE22-.LFB22
 2822 07e2 01       		.uleb128 0x1
 2823 07e3 9C       		.byte	0x9c
 2824 07e4 FB070000 		.4byte	0x7fb
 2825 07e8 0C       		.uleb128 0xc
 2826 07e9 10010000 		.4byte	0x110
 2827 07ed FE040000 		.4byte	.LLST45
 2828 07f1 0F       		.uleb128 0xf
 2829 07f2 1C010000 		.4byte	0x11c
 2830 07f6 69050000 		.4byte	.LLST46
 2831 07fa 00       		.byte	0
 2832 07fb 1B       		.uleb128 0x1b
ARM GAS  C:\Users\young\AppData\Local\Temp\cc3sLV9e.s 			page 81


 2833 07fc 7A050000 		.4byte	.LASF63
 2834 0800 01       		.byte	0x1
 2835 0801 8403     		.2byte	0x384
 2836 0803 77000000 		.4byte	0x77
 2837 0807 00000000 		.4byte	.LFB23
 2838 080b 48000000 		.4byte	.LFE23-.LFB23
 2839 080f 01       		.uleb128 0x1
 2840 0810 9C       		.byte	0x9c
 2841 0811 36080000 		.4byte	0x836
 2842 0815 18       		.uleb128 0x18
 2843 0816 18030000 		.4byte	.LASF25
 2844 081a 01       		.byte	0x1
 2845 081b 8703     		.2byte	0x387
 2846 081d 77000000 		.4byte	0x77
 2847 0821 87050000 		.4byte	.LLST47
 2848 0825 18       		.uleb128 0x18
 2849 0826 42030000 		.4byte	.LASF60
 2850 082a 01       		.byte	0x1
 2851 082b 8803     		.2byte	0x388
 2852 082d 77000000 		.4byte	0x77
 2853 0831 B0050000 		.4byte	.LLST48
 2854 0835 00       		.byte	0
 2855 0836 17       		.uleb128 0x17
 2856 0837 94040000 		.4byte	.LASF61
 2857 083b 01       		.byte	0x1
 2858 083c BA03     		.2byte	0x3ba
 2859 083e 00000000 		.4byte	.LFB24
 2860 0842 40000000 		.4byte	.LFE24-.LFB24
 2861 0846 01       		.uleb128 0x1
 2862 0847 9C       		.byte	0x9c
 2863 0848 6D080000 		.4byte	0x86d
 2864 084c 19       		.uleb128 0x19
 2865 084d 7E010000 		.4byte	.LASF62
 2866 0851 01       		.byte	0x1
 2867 0852 BA03     		.2byte	0x3ba
 2868 0854 77000000 		.4byte	0x77
 2869 0858 23060000 		.4byte	.LLST49
 2870 085c 18       		.uleb128 0x18
 2871 085d 18030000 		.4byte	.LASF25
 2872 0861 01       		.byte	0x1
 2873 0862 BD03     		.2byte	0x3bd
 2874 0864 77000000 		.4byte	0x77
 2875 0868 8E060000 		.4byte	.LLST50
 2876 086c 00       		.byte	0
 2877 086d 1B       		.uleb128 0x1b
 2878 086e CD040000 		.4byte	.LASF64
 2879 0872 01       		.byte	0x1
 2880 0873 E803     		.2byte	0x3e8
 2881 0875 77000000 		.4byte	0x77
 2882 0879 00000000 		.4byte	.LFB25
 2883 087d 48000000 		.4byte	.LFE25-.LFB25
 2884 0881 01       		.uleb128 0x1
 2885 0882 9C       		.byte	0x9c
 2886 0883 A8080000 		.4byte	0x8a8
 2887 0887 18       		.uleb128 0x18
 2888 0888 18030000 		.4byte	.LASF25
 2889 088c 01       		.byte	0x1
ARM GAS  C:\Users\young\AppData\Local\Temp\cc3sLV9e.s 			page 82


 2890 088d EB03     		.2byte	0x3eb
 2891 088f 77000000 		.4byte	0x77
 2892 0893 AC060000 		.4byte	.LLST51
 2893 0897 18       		.uleb128 0x18
 2894 0898 42030000 		.4byte	.LASF60
 2895 089c 01       		.byte	0x1
 2896 089d EC03     		.2byte	0x3ec
 2897 089f 77000000 		.4byte	0x77
 2898 08a3 D5060000 		.4byte	.LLST52
 2899 08a7 00       		.byte	0
 2900 08a8 1A       		.uleb128 0x1a
 2901 08a9 3A020000 		.4byte	.LASF65
 2902 08ad 01       		.byte	0x1
 2903 08ae 1604     		.2byte	0x416
 2904 08b0 77000000 		.4byte	0x77
 2905 08b4 00000000 		.4byte	.LFB26
 2906 08b8 10000000 		.4byte	.LFE26-.LFB26
 2907 08bc 01       		.uleb128 0x1
 2908 08bd 9C       		.byte	0x9c
 2909 08be 1A       		.uleb128 0x1a
 2910 08bf C4010000 		.4byte	.LASF66
 2911 08c3 01       		.byte	0x1
 2912 08c4 2B04     		.2byte	0x42b
 2913 08c6 77000000 		.4byte	0x77
 2914 08ca 00000000 		.4byte	.LFB27
 2915 08ce 10000000 		.4byte	.LFE27-.LFB27
 2916 08d2 01       		.uleb128 0x1
 2917 08d3 9C       		.byte	0x9c
 2918 08d4 17       		.uleb128 0x17
 2919 08d5 81030000 		.4byte	.LASF67
 2920 08d9 01       		.byte	0x1
 2921 08da 4604     		.2byte	0x446
 2922 08dc 00000000 		.4byte	.LFB28
 2923 08e0 24000000 		.4byte	.LFE28-.LFB28
 2924 08e4 01       		.uleb128 0x1
 2925 08e5 9C       		.byte	0x9c
 2926 08e6 1D090000 		.4byte	0x91d
 2927 08ea 19       		.uleb128 0x19
 2928 08eb E2010000 		.4byte	.LASF68
 2929 08ef 01       		.byte	0x1
 2930 08f0 4604     		.2byte	0x446
 2931 08f2 77000000 		.4byte	0x77
 2932 08f6 48070000 		.4byte	.LLST53
 2933 08fa 18       		.uleb128 0x18
 2934 08fb F8050000 		.4byte	.LASF24
 2935 08ff 01       		.byte	0x1
 2936 0900 4804     		.2byte	0x448
 2937 0902 6B000000 		.4byte	0x6b
 2938 0906 74070000 		.4byte	.LLST54
 2939 090a 14       		.uleb128 0x14
 2940 090b 08000000 		.4byte	.LVL133
 2941 090f 3A0B0000 		.4byte	0xb3a
 2942 0913 14       		.uleb128 0x14
 2943 0914 1C000000 		.4byte	.LVL135
 2944 0918 450B0000 		.4byte	0xb45
 2945 091c 00       		.byte	0
 2946 091d 17       		.uleb128 0x17
ARM GAS  C:\Users\young\AppData\Local\Temp\cc3sLV9e.s 			page 83


 2947 091e A4030000 		.4byte	.LASF69
 2948 0922 01       		.byte	0x1
 2949 0923 6704     		.2byte	0x467
 2950 0925 00000000 		.4byte	.LFB29
 2951 0929 24000000 		.4byte	.LFE29-.LFB29
 2952 092d 01       		.uleb128 0x1
 2953 092e 9C       		.byte	0x9c
 2954 092f 66090000 		.4byte	0x966
 2955 0933 19       		.uleb128 0x19
 2956 0934 E2010000 		.4byte	.LASF68
 2957 0938 01       		.byte	0x1
 2958 0939 6704     		.2byte	0x467
 2959 093b 77000000 		.4byte	0x77
 2960 093f 87070000 		.4byte	.LLST55
 2961 0943 18       		.uleb128 0x18
 2962 0944 F8050000 		.4byte	.LASF24
 2963 0948 01       		.byte	0x1
 2964 0949 6904     		.2byte	0x469
 2965 094b 6B000000 		.4byte	0x6b
 2966 094f B3070000 		.4byte	.LLST56
 2967 0953 14       		.uleb128 0x14
 2968 0954 08000000 		.4byte	.LVL137
 2969 0958 3A0B0000 		.4byte	0xb3a
 2970 095c 14       		.uleb128 0x14
 2971 095d 1E000000 		.4byte	.LVL138
 2972 0961 450B0000 		.4byte	0xb45
 2973 0965 00       		.byte	0
 2974 0966 17       		.uleb128 0x17
 2975 0967 E2020000 		.4byte	.LASF70
 2976 096b 01       		.byte	0x1
 2977 096c 8804     		.2byte	0x488
 2978 096e 00000000 		.4byte	.LFB30
 2979 0972 28000000 		.4byte	.LFE30-.LFB30
 2980 0976 01       		.uleb128 0x1
 2981 0977 9C       		.byte	0x9c
 2982 0978 AF090000 		.4byte	0x9af
 2983 097c 19       		.uleb128 0x19
 2984 097d E2010000 		.4byte	.LASF68
 2985 0981 01       		.byte	0x1
 2986 0982 8804     		.2byte	0x488
 2987 0984 77000000 		.4byte	0x77
 2988 0988 C6070000 		.4byte	.LLST57
 2989 098c 18       		.uleb128 0x18
 2990 098d F8050000 		.4byte	.LASF24
 2991 0991 01       		.byte	0x1
 2992 0992 8A04     		.2byte	0x48a
 2993 0994 6B000000 		.4byte	0x6b
 2994 0998 F2070000 		.4byte	.LLST58
 2995 099c 14       		.uleb128 0x14
 2996 099d 08000000 		.4byte	.LVL141
 2997 09a1 3A0B0000 		.4byte	0xb3a
 2998 09a5 14       		.uleb128 0x14
 2999 09a6 1E000000 		.4byte	.LVL142
 3000 09aa 450B0000 		.4byte	0xb45
 3001 09ae 00       		.byte	0
 3002 09af 17       		.uleb128 0x17
 3003 09b0 5C050000 		.4byte	.LASF71
ARM GAS  C:\Users\young\AppData\Local\Temp\cc3sLV9e.s 			page 84


 3004 09b4 01       		.byte	0x1
 3005 09b5 A804     		.2byte	0x4a8
 3006 09b7 00000000 		.4byte	.LFB31
 3007 09bb 24000000 		.4byte	.LFE31-.LFB31
 3008 09bf 01       		.uleb128 0x1
 3009 09c0 9C       		.byte	0x9c
 3010 09c1 F8090000 		.4byte	0x9f8
 3011 09c5 19       		.uleb128 0x19
 3012 09c6 E2010000 		.4byte	.LASF68
 3013 09ca 01       		.byte	0x1
 3014 09cb A804     		.2byte	0x4a8
 3015 09cd 77000000 		.4byte	0x77
 3016 09d1 05080000 		.4byte	.LLST59
 3017 09d5 18       		.uleb128 0x18
 3018 09d6 F8050000 		.4byte	.LASF24
 3019 09da 01       		.byte	0x1
 3020 09db AA04     		.2byte	0x4aa
 3021 09dd 6B000000 		.4byte	0x6b
 3022 09e1 31080000 		.4byte	.LLST60
 3023 09e5 14       		.uleb128 0x14
 3024 09e6 08000000 		.4byte	.LVL145
 3025 09ea 3A0B0000 		.4byte	0xb3a
 3026 09ee 14       		.uleb128 0x14
 3027 09ef 1E000000 		.4byte	.LVL146
 3028 09f3 450B0000 		.4byte	0xb45
 3029 09f7 00       		.byte	0
 3030 09f8 17       		.uleb128 0x17
 3031 09f9 1C000000 		.4byte	.LASF72
 3032 09fd 01       		.byte	0x1
 3033 09fe C904     		.2byte	0x4c9
 3034 0a00 00000000 		.4byte	.LFB32
 3035 0a04 24000000 		.4byte	.LFE32-.LFB32
 3036 0a08 01       		.uleb128 0x1
 3037 0a09 9C       		.byte	0x9c
 3038 0a0a 410A0000 		.4byte	0xa41
 3039 0a0e 19       		.uleb128 0x19
 3040 0a0f E2010000 		.4byte	.LASF68
 3041 0a13 01       		.byte	0x1
 3042 0a14 C904     		.2byte	0x4c9
 3043 0a16 77000000 		.4byte	0x77
 3044 0a1a 44080000 		.4byte	.LLST61
 3045 0a1e 18       		.uleb128 0x18
 3046 0a1f F8050000 		.4byte	.LASF24
 3047 0a23 01       		.byte	0x1
 3048 0a24 CB04     		.2byte	0x4cb
 3049 0a26 6B000000 		.4byte	0x6b
 3050 0a2a 70080000 		.4byte	.LLST62
 3051 0a2e 14       		.uleb128 0x14
 3052 0a2f 08000000 		.4byte	.LVL149
 3053 0a33 3A0B0000 		.4byte	0xb3a
 3054 0a37 14       		.uleb128 0x14
 3055 0a38 1E000000 		.4byte	.LVL150
 3056 0a3c 450B0000 		.4byte	0xb45
 3057 0a40 00       		.byte	0
 3058 0a41 0A       		.uleb128 0xa
 3059 0a42 B7000000 		.4byte	0xb7
 3060 0a46 00000000 		.4byte	.LFB33
ARM GAS  C:\Users\young\AppData\Local\Temp\cc3sLV9e.s 			page 85


 3061 0a4a 1C000000 		.4byte	.LFE33-.LFB33
 3062 0a4e 01       		.uleb128 0x1
 3063 0a4f 9C       		.byte	0x9c
 3064 0a50 820A0000 		.4byte	0xa82
 3065 0a54 0C       		.uleb128 0xc
 3066 0a55 C4000000 		.4byte	0xc4
 3067 0a59 83080000 		.4byte	.LLST63
 3068 0a5d 0C       		.uleb128 0xc
 3069 0a5e D0000000 		.4byte	0xd0
 3070 0a62 A4080000 		.4byte	.LLST64
 3071 0a66 0F       		.uleb128 0xf
 3072 0a67 DC000000 		.4byte	0xdc
 3073 0a6b D0080000 		.4byte	.LLST65
 3074 0a6f 14       		.uleb128 0x14
 3075 0a70 0C000000 		.4byte	.LVL153
 3076 0a74 3A0B0000 		.4byte	0xb3a
 3077 0a78 14       		.uleb128 0x14
 3078 0a79 14000000 		.4byte	.LVL154
 3079 0a7d 450B0000 		.4byte	0xb45
 3080 0a81 00       		.byte	0
 3081 0a82 1A       		.uleb128 0x1a
 3082 0a83 5F030000 		.4byte	.LASF73
 3083 0a87 01       		.byte	0x1
 3084 0a88 0E05     		.2byte	0x50e
 3085 0a8a 77000000 		.4byte	0x77
 3086 0a8e 00000000 		.4byte	.LFB34
 3087 0a92 14000000 		.4byte	.LFE34-.LFB34
 3088 0a96 01       		.uleb128 0x1
 3089 0a97 9C       		.byte	0x9c
 3090 0a98 0A       		.uleb128 0xa
 3091 0a99 43010000 		.4byte	0x143
 3092 0a9d 00000000 		.4byte	.LFB35
 3093 0aa1 0C000000 		.4byte	.LFE35-.LFB35
 3094 0aa5 01       		.uleb128 0x1
 3095 0aa6 9C       		.byte	0x9c
 3096 0aa7 B30A0000 		.4byte	0xab3
 3097 0aab 1C       		.uleb128 0x1c
 3098 0aac 50010000 		.4byte	0x150
 3099 0ab0 01       		.uleb128 0x1
 3100 0ab1 50       		.byte	0x50
 3101 0ab2 00       		.byte	0
 3102 0ab3 1A       		.uleb128 0x1a
 3103 0ab4 F7020000 		.4byte	.LASF74
 3104 0ab8 01       		.byte	0x1
 3105 0ab9 3E05     		.2byte	0x53e
 3106 0abb 77000000 		.4byte	0x77
 3107 0abf 00000000 		.4byte	.LFB36
 3108 0ac3 0C000000 		.4byte	.LFE36-.LFB36
 3109 0ac7 01       		.uleb128 0x1
 3110 0ac8 9C       		.byte	0x9c
 3111 0ac9 1A       		.uleb128 0x1a
 3112 0aca B3050000 		.4byte	.LASF75
 3113 0ace 01       		.byte	0x1
 3114 0acf 5505     		.2byte	0x555
 3115 0ad1 77000000 		.4byte	0x77
 3116 0ad5 00000000 		.4byte	.LFB37
 3117 0ad9 0C000000 		.4byte	.LFE37-.LFB37
ARM GAS  C:\Users\young\AppData\Local\Temp\cc3sLV9e.s 			page 86


 3118 0add 01       		.uleb128 0x1
 3119 0ade 9C       		.byte	0x9c
 3120 0adf 17       		.uleb128 0x17
 3121 0ae0 6D040000 		.4byte	.LASF76
 3122 0ae4 01       		.byte	0x1
 3123 0ae5 6C05     		.2byte	0x56c
 3124 0ae7 00000000 		.4byte	.LFB38
 3125 0aeb 0C000000 		.4byte	.LFE38-.LFB38
 3126 0aef 01       		.uleb128 0x1
 3127 0af0 9C       		.byte	0x9c
 3128 0af1 040B0000 		.4byte	0xb04
 3129 0af5 1D       		.uleb128 0x1d
 3130 0af6 20050000 		.4byte	.LASF29
 3131 0afa 01       		.byte	0x1
 3132 0afb 6C05     		.2byte	0x56c
 3133 0afd 77000000 		.4byte	0x77
 3134 0b01 01       		.uleb128 0x1
 3135 0b02 50       		.byte	0x50
 3136 0b03 00       		.byte	0
 3137 0b04 17       		.uleb128 0x17
 3138 0b05 09060000 		.4byte	.LASF77
 3139 0b09 01       		.byte	0x1
 3140 0b0a 8305     		.2byte	0x583
 3141 0b0c 00000000 		.4byte	.LFB39
 3142 0b10 0C000000 		.4byte	.LFE39-.LFB39
 3143 0b14 01       		.uleb128 0x1
 3144 0b15 9C       		.byte	0x9c
 3145 0b16 290B0000 		.4byte	0xb29
 3146 0b1a 1D       		.uleb128 0x1d
 3147 0b1b 20050000 		.4byte	.LASF29
 3148 0b1f 01       		.byte	0x1
 3149 0b20 8305     		.2byte	0x583
 3150 0b22 77000000 		.4byte	0x77
 3151 0b26 01       		.uleb128 0x1
 3152 0b27 50       		.byte	0x50
 3153 0b28 00       		.byte	0
 3154 0b29 1E       		.uleb128 0x1e
 3155 0b2a FC010000 		.4byte	.LASF84
 3156 0b2e 01       		.byte	0x1
 3157 0b2f 15       		.byte	0x15
 3158 0b30 6B000000 		.4byte	0x6b
 3159 0b34 05       		.uleb128 0x5
 3160 0b35 03       		.byte	0x3
 3161 0b36 00000000 		.4byte	Timer_1_initVar
 3162 0b3a 1F       		.uleb128 0x1f
 3163 0b3b 7F020000 		.4byte	.LASF78
 3164 0b3f 7F020000 		.4byte	.LASF78
 3165 0b43 03       		.byte	0x3
 3166 0b44 E5       		.byte	0xe5
 3167 0b45 1F       		.uleb128 0x1f
 3168 0b46 06000000 		.4byte	.LASF79
 3169 0b4a 06000000 		.4byte	.LASF79
 3170 0b4e 03       		.byte	0x3
 3171 0b4f E6       		.byte	0xe6
 3172 0b50 00       		.byte	0
 3173              		.section	.debug_abbrev,"",%progbits
 3174              	.Ldebug_abbrev0:
ARM GAS  C:\Users\young\AppData\Local\Temp\cc3sLV9e.s 			page 87


 3175 0000 01       		.uleb128 0x1
 3176 0001 11       		.uleb128 0x11
 3177 0002 01       		.byte	0x1
 3178 0003 25       		.uleb128 0x25
 3179 0004 0E       		.uleb128 0xe
 3180 0005 13       		.uleb128 0x13
 3181 0006 0B       		.uleb128 0xb
 3182 0007 03       		.uleb128 0x3
 3183 0008 0E       		.uleb128 0xe
 3184 0009 1B       		.uleb128 0x1b
 3185 000a 0E       		.uleb128 0xe
 3186 000b 55       		.uleb128 0x55
 3187 000c 17       		.uleb128 0x17
 3188 000d 11       		.uleb128 0x11
 3189 000e 01       		.uleb128 0x1
 3190 000f 10       		.uleb128 0x10
 3191 0010 17       		.uleb128 0x17
 3192 0011 00       		.byte	0
 3193 0012 00       		.byte	0
 3194 0013 02       		.uleb128 0x2
 3195 0014 24       		.uleb128 0x24
 3196 0015 00       		.byte	0
 3197 0016 0B       		.uleb128 0xb
 3198 0017 0B       		.uleb128 0xb
 3199 0018 3E       		.uleb128 0x3e
 3200 0019 0B       		.uleb128 0xb
 3201 001a 03       		.uleb128 0x3
 3202 001b 0E       		.uleb128 0xe
 3203 001c 00       		.byte	0
 3204 001d 00       		.byte	0
 3205 001e 03       		.uleb128 0x3
 3206 001f 24       		.uleb128 0x24
 3207 0020 00       		.byte	0
 3208 0021 0B       		.uleb128 0xb
 3209 0022 0B       		.uleb128 0xb
 3210 0023 3E       		.uleb128 0x3e
 3211 0024 0B       		.uleb128 0xb
 3212 0025 03       		.uleb128 0x3
 3213 0026 08       		.uleb128 0x8
 3214 0027 00       		.byte	0
 3215 0028 00       		.byte	0
 3216 0029 04       		.uleb128 0x4
 3217 002a 16       		.uleb128 0x16
 3218 002b 00       		.byte	0
 3219 002c 03       		.uleb128 0x3
 3220 002d 0E       		.uleb128 0xe
 3221 002e 3A       		.uleb128 0x3a
 3222 002f 0B       		.uleb128 0xb
 3223 0030 3B       		.uleb128 0x3b
 3224 0031 05       		.uleb128 0x5
 3225 0032 49       		.uleb128 0x49
 3226 0033 13       		.uleb128 0x13
 3227 0034 00       		.byte	0
 3228 0035 00       		.byte	0
 3229 0036 05       		.uleb128 0x5
 3230 0037 35       		.uleb128 0x35
 3231 0038 00       		.byte	0
ARM GAS  C:\Users\young\AppData\Local\Temp\cc3sLV9e.s 			page 88


 3232 0039 49       		.uleb128 0x49
 3233 003a 13       		.uleb128 0x13
 3234 003b 00       		.byte	0
 3235 003c 00       		.byte	0
 3236 003d 06       		.uleb128 0x6
 3237 003e 2E       		.uleb128 0x2e
 3238 003f 01       		.byte	0x1
 3239 0040 3F       		.uleb128 0x3f
 3240 0041 19       		.uleb128 0x19
 3241 0042 03       		.uleb128 0x3
 3242 0043 0E       		.uleb128 0xe
 3243 0044 3A       		.uleb128 0x3a
 3244 0045 0B       		.uleb128 0xb
 3245 0046 3B       		.uleb128 0x3b
 3246 0047 05       		.uleb128 0x5
 3247 0048 27       		.uleb128 0x27
 3248 0049 19       		.uleb128 0x19
 3249 004a 20       		.uleb128 0x20
 3250 004b 0B       		.uleb128 0xb
 3251 004c 01       		.uleb128 0x1
 3252 004d 13       		.uleb128 0x13
 3253 004e 00       		.byte	0
 3254 004f 00       		.byte	0
 3255 0050 07       		.uleb128 0x7
 3256 0051 05       		.uleb128 0x5
 3257 0052 00       		.byte	0
 3258 0053 03       		.uleb128 0x3
 3259 0054 0E       		.uleb128 0xe
 3260 0055 3A       		.uleb128 0x3a
 3261 0056 0B       		.uleb128 0xb
 3262 0057 3B       		.uleb128 0x3b
 3263 0058 05       		.uleb128 0x5
 3264 0059 49       		.uleb128 0x49
 3265 005a 13       		.uleb128 0x13
 3266 005b 00       		.byte	0
 3267 005c 00       		.byte	0
 3268 005d 08       		.uleb128 0x8
 3269 005e 34       		.uleb128 0x34
 3270 005f 00       		.byte	0
 3271 0060 03       		.uleb128 0x3
 3272 0061 0E       		.uleb128 0xe
 3273 0062 3A       		.uleb128 0x3a
 3274 0063 0B       		.uleb128 0xb
 3275 0064 3B       		.uleb128 0x3b
 3276 0065 05       		.uleb128 0x5
 3277 0066 49       		.uleb128 0x49
 3278 0067 13       		.uleb128 0x13
 3279 0068 00       		.byte	0
 3280 0069 00       		.byte	0
 3281 006a 09       		.uleb128 0x9
 3282 006b 2E       		.uleb128 0x2e
 3283 006c 00       		.byte	0
 3284 006d 3F       		.uleb128 0x3f
 3285 006e 19       		.uleb128 0x19
 3286 006f 03       		.uleb128 0x3
 3287 0070 0E       		.uleb128 0xe
 3288 0071 3A       		.uleb128 0x3a
ARM GAS  C:\Users\young\AppData\Local\Temp\cc3sLV9e.s 			page 89


 3289 0072 0B       		.uleb128 0xb
 3290 0073 3B       		.uleb128 0x3b
 3291 0074 0B       		.uleb128 0xb
 3292 0075 27       		.uleb128 0x27
 3293 0076 19       		.uleb128 0x19
 3294 0077 20       		.uleb128 0x20
 3295 0078 0B       		.uleb128 0xb
 3296 0079 00       		.byte	0
 3297 007a 00       		.byte	0
 3298 007b 0A       		.uleb128 0xa
 3299 007c 2E       		.uleb128 0x2e
 3300 007d 01       		.byte	0x1
 3301 007e 31       		.uleb128 0x31
 3302 007f 13       		.uleb128 0x13
 3303 0080 11       		.uleb128 0x11
 3304 0081 01       		.uleb128 0x1
 3305 0082 12       		.uleb128 0x12
 3306 0083 06       		.uleb128 0x6
 3307 0084 40       		.uleb128 0x40
 3308 0085 18       		.uleb128 0x18
 3309 0086 9742     		.uleb128 0x2117
 3310 0088 19       		.uleb128 0x19
 3311 0089 01       		.uleb128 0x1
 3312 008a 13       		.uleb128 0x13
 3313 008b 00       		.byte	0
 3314 008c 00       		.byte	0
 3315 008d 0B       		.uleb128 0xb
 3316 008e 1D       		.uleb128 0x1d
 3317 008f 01       		.byte	0x1
 3318 0090 31       		.uleb128 0x31
 3319 0091 13       		.uleb128 0x13
 3320 0092 11       		.uleb128 0x11
 3321 0093 01       		.uleb128 0x1
 3322 0094 12       		.uleb128 0x12
 3323 0095 06       		.uleb128 0x6
 3324 0096 58       		.uleb128 0x58
 3325 0097 0B       		.uleb128 0xb
 3326 0098 59       		.uleb128 0x59
 3327 0099 0B       		.uleb128 0xb
 3328 009a 01       		.uleb128 0x1
 3329 009b 13       		.uleb128 0x13
 3330 009c 00       		.byte	0
 3331 009d 00       		.byte	0
 3332 009e 0C       		.uleb128 0xc
 3333 009f 05       		.uleb128 0x5
 3334 00a0 00       		.byte	0
 3335 00a1 31       		.uleb128 0x31
 3336 00a2 13       		.uleb128 0x13
 3337 00a3 02       		.uleb128 0x2
 3338 00a4 17       		.uleb128 0x17
 3339 00a5 00       		.byte	0
 3340 00a6 00       		.byte	0
 3341 00a7 0D       		.uleb128 0xd
 3342 00a8 1D       		.uleb128 0x1d
 3343 00a9 01       		.byte	0x1
 3344 00aa 31       		.uleb128 0x31
 3345 00ab 13       		.uleb128 0x13
ARM GAS  C:\Users\young\AppData\Local\Temp\cc3sLV9e.s 			page 90


 3346 00ac 52       		.uleb128 0x52
 3347 00ad 01       		.uleb128 0x1
 3348 00ae 55       		.uleb128 0x55
 3349 00af 17       		.uleb128 0x17
 3350 00b0 58       		.uleb128 0x58
 3351 00b1 0B       		.uleb128 0xb
 3352 00b2 59       		.uleb128 0x59
 3353 00b3 0B       		.uleb128 0xb
 3354 00b4 01       		.uleb128 0x1
 3355 00b5 13       		.uleb128 0x13
 3356 00b6 00       		.byte	0
 3357 00b7 00       		.byte	0
 3358 00b8 0E       		.uleb128 0xe
 3359 00b9 0B       		.uleb128 0xb
 3360 00ba 01       		.byte	0x1
 3361 00bb 55       		.uleb128 0x55
 3362 00bc 17       		.uleb128 0x17
 3363 00bd 00       		.byte	0
 3364 00be 00       		.byte	0
 3365 00bf 0F       		.uleb128 0xf
 3366 00c0 34       		.uleb128 0x34
 3367 00c1 00       		.byte	0
 3368 00c2 31       		.uleb128 0x31
 3369 00c3 13       		.uleb128 0x13
 3370 00c4 02       		.uleb128 0x2
 3371 00c5 17       		.uleb128 0x17
 3372 00c6 00       		.byte	0
 3373 00c7 00       		.byte	0
 3374 00c8 10       		.uleb128 0x10
 3375 00c9 1D       		.uleb128 0x1d
 3376 00ca 01       		.byte	0x1
 3377 00cb 31       		.uleb128 0x31
 3378 00cc 13       		.uleb128 0x13
 3379 00cd 11       		.uleb128 0x11
 3380 00ce 01       		.uleb128 0x1
 3381 00cf 12       		.uleb128 0x12
 3382 00d0 06       		.uleb128 0x6
 3383 00d1 58       		.uleb128 0x58
 3384 00d2 0B       		.uleb128 0xb
 3385 00d3 59       		.uleb128 0x59
 3386 00d4 0B       		.uleb128 0xb
 3387 00d5 00       		.byte	0
 3388 00d6 00       		.byte	0
 3389 00d7 11       		.uleb128 0x11
 3390 00d8 2E       		.uleb128 0x2e
 3391 00d9 01       		.byte	0x1
 3392 00da 3F       		.uleb128 0x3f
 3393 00db 19       		.uleb128 0x19
 3394 00dc 03       		.uleb128 0x3
 3395 00dd 0E       		.uleb128 0xe
 3396 00de 3A       		.uleb128 0x3a
 3397 00df 0B       		.uleb128 0xb
 3398 00e0 3B       		.uleb128 0x3b
 3399 00e1 0B       		.uleb128 0xb
 3400 00e2 27       		.uleb128 0x27
 3401 00e3 19       		.uleb128 0x19
 3402 00e4 20       		.uleb128 0x20
ARM GAS  C:\Users\young\AppData\Local\Temp\cc3sLV9e.s 			page 91


 3403 00e5 0B       		.uleb128 0xb
 3404 00e6 01       		.uleb128 0x1
 3405 00e7 13       		.uleb128 0x13
 3406 00e8 00       		.byte	0
 3407 00e9 00       		.byte	0
 3408 00ea 12       		.uleb128 0x12
 3409 00eb 34       		.uleb128 0x34
 3410 00ec 00       		.byte	0
 3411 00ed 03       		.uleb128 0x3
 3412 00ee 0E       		.uleb128 0xe
 3413 00ef 3A       		.uleb128 0x3a
 3414 00f0 0B       		.uleb128 0xb
 3415 00f1 3B       		.uleb128 0x3b
 3416 00f2 0B       		.uleb128 0xb
 3417 00f3 49       		.uleb128 0x49
 3418 00f4 13       		.uleb128 0x13
 3419 00f5 00       		.byte	0
 3420 00f6 00       		.byte	0
 3421 00f7 13       		.uleb128 0x13
 3422 00f8 0B       		.uleb128 0xb
 3423 00f9 01       		.byte	0x1
 3424 00fa 11       		.uleb128 0x11
 3425 00fb 01       		.uleb128 0x1
 3426 00fc 12       		.uleb128 0x12
 3427 00fd 06       		.uleb128 0x6
 3428 00fe 00       		.byte	0
 3429 00ff 00       		.byte	0
 3430 0100 14       		.uleb128 0x14
 3431 0101 898201   		.uleb128 0x4109
 3432 0104 00       		.byte	0
 3433 0105 11       		.uleb128 0x11
 3434 0106 01       		.uleb128 0x1
 3435 0107 31       		.uleb128 0x31
 3436 0108 13       		.uleb128 0x13
 3437 0109 00       		.byte	0
 3438 010a 00       		.byte	0
 3439 010b 15       		.uleb128 0x15
 3440 010c 2E       		.uleb128 0x2e
 3441 010d 01       		.byte	0x1
 3442 010e 3F       		.uleb128 0x3f
 3443 010f 19       		.uleb128 0x19
 3444 0110 03       		.uleb128 0x3
 3445 0111 0E       		.uleb128 0xe
 3446 0112 3A       		.uleb128 0x3a
 3447 0113 0B       		.uleb128 0xb
 3448 0114 3B       		.uleb128 0x3b
 3449 0115 0B       		.uleb128 0xb
 3450 0116 27       		.uleb128 0x27
 3451 0117 19       		.uleb128 0x19
 3452 0118 11       		.uleb128 0x11
 3453 0119 01       		.uleb128 0x1
 3454 011a 12       		.uleb128 0x12
 3455 011b 06       		.uleb128 0x6
 3456 011c 40       		.uleb128 0x40
 3457 011d 18       		.uleb128 0x18
 3458 011e 9742     		.uleb128 0x2117
 3459 0120 19       		.uleb128 0x19
ARM GAS  C:\Users\young\AppData\Local\Temp\cc3sLV9e.s 			page 92


 3460 0121 01       		.uleb128 0x1
 3461 0122 13       		.uleb128 0x13
 3462 0123 00       		.byte	0
 3463 0124 00       		.byte	0
 3464 0125 16       		.uleb128 0x16
 3465 0126 1D       		.uleb128 0x1d
 3466 0127 01       		.byte	0x1
 3467 0128 31       		.uleb128 0x31
 3468 0129 13       		.uleb128 0x13
 3469 012a 52       		.uleb128 0x52
 3470 012b 01       		.uleb128 0x1
 3471 012c 55       		.uleb128 0x55
 3472 012d 17       		.uleb128 0x17
 3473 012e 58       		.uleb128 0x58
 3474 012f 0B       		.uleb128 0xb
 3475 0130 59       		.uleb128 0x59
 3476 0131 0B       		.uleb128 0xb
 3477 0132 00       		.byte	0
 3478 0133 00       		.byte	0
 3479 0134 17       		.uleb128 0x17
 3480 0135 2E       		.uleb128 0x2e
 3481 0136 01       		.byte	0x1
 3482 0137 3F       		.uleb128 0x3f
 3483 0138 19       		.uleb128 0x19
 3484 0139 03       		.uleb128 0x3
 3485 013a 0E       		.uleb128 0xe
 3486 013b 3A       		.uleb128 0x3a
 3487 013c 0B       		.uleb128 0xb
 3488 013d 3B       		.uleb128 0x3b
 3489 013e 05       		.uleb128 0x5
 3490 013f 27       		.uleb128 0x27
 3491 0140 19       		.uleb128 0x19
 3492 0141 11       		.uleb128 0x11
 3493 0142 01       		.uleb128 0x1
 3494 0143 12       		.uleb128 0x12
 3495 0144 06       		.uleb128 0x6
 3496 0145 40       		.uleb128 0x40
 3497 0146 18       		.uleb128 0x18
 3498 0147 9742     		.uleb128 0x2117
 3499 0149 19       		.uleb128 0x19
 3500 014a 01       		.uleb128 0x1
 3501 014b 13       		.uleb128 0x13
 3502 014c 00       		.byte	0
 3503 014d 00       		.byte	0
 3504 014e 18       		.uleb128 0x18
 3505 014f 34       		.uleb128 0x34
 3506 0150 00       		.byte	0
 3507 0151 03       		.uleb128 0x3
 3508 0152 0E       		.uleb128 0xe
 3509 0153 3A       		.uleb128 0x3a
 3510 0154 0B       		.uleb128 0xb
 3511 0155 3B       		.uleb128 0x3b
 3512 0156 05       		.uleb128 0x5
 3513 0157 49       		.uleb128 0x49
 3514 0158 13       		.uleb128 0x13
 3515 0159 02       		.uleb128 0x2
 3516 015a 17       		.uleb128 0x17
ARM GAS  C:\Users\young\AppData\Local\Temp\cc3sLV9e.s 			page 93


 3517 015b 00       		.byte	0
 3518 015c 00       		.byte	0
 3519 015d 19       		.uleb128 0x19
 3520 015e 05       		.uleb128 0x5
 3521 015f 00       		.byte	0
 3522 0160 03       		.uleb128 0x3
 3523 0161 0E       		.uleb128 0xe
 3524 0162 3A       		.uleb128 0x3a
 3525 0163 0B       		.uleb128 0xb
 3526 0164 3B       		.uleb128 0x3b
 3527 0165 05       		.uleb128 0x5
 3528 0166 49       		.uleb128 0x49
 3529 0167 13       		.uleb128 0x13
 3530 0168 02       		.uleb128 0x2
 3531 0169 17       		.uleb128 0x17
 3532 016a 00       		.byte	0
 3533 016b 00       		.byte	0
 3534 016c 1A       		.uleb128 0x1a
 3535 016d 2E       		.uleb128 0x2e
 3536 016e 00       		.byte	0
 3537 016f 3F       		.uleb128 0x3f
 3538 0170 19       		.uleb128 0x19
 3539 0171 03       		.uleb128 0x3
 3540 0172 0E       		.uleb128 0xe
 3541 0173 3A       		.uleb128 0x3a
 3542 0174 0B       		.uleb128 0xb
 3543 0175 3B       		.uleb128 0x3b
 3544 0176 05       		.uleb128 0x5
 3545 0177 27       		.uleb128 0x27
 3546 0178 19       		.uleb128 0x19
 3547 0179 49       		.uleb128 0x49
 3548 017a 13       		.uleb128 0x13
 3549 017b 11       		.uleb128 0x11
 3550 017c 01       		.uleb128 0x1
 3551 017d 12       		.uleb128 0x12
 3552 017e 06       		.uleb128 0x6
 3553 017f 40       		.uleb128 0x40
 3554 0180 18       		.uleb128 0x18
 3555 0181 9742     		.uleb128 0x2117
 3556 0183 19       		.uleb128 0x19
 3557 0184 00       		.byte	0
 3558 0185 00       		.byte	0
 3559 0186 1B       		.uleb128 0x1b
 3560 0187 2E       		.uleb128 0x2e
 3561 0188 01       		.byte	0x1
 3562 0189 3F       		.uleb128 0x3f
 3563 018a 19       		.uleb128 0x19
 3564 018b 03       		.uleb128 0x3
 3565 018c 0E       		.uleb128 0xe
 3566 018d 3A       		.uleb128 0x3a
 3567 018e 0B       		.uleb128 0xb
 3568 018f 3B       		.uleb128 0x3b
 3569 0190 05       		.uleb128 0x5
 3570 0191 27       		.uleb128 0x27
 3571 0192 19       		.uleb128 0x19
 3572 0193 49       		.uleb128 0x49
 3573 0194 13       		.uleb128 0x13
ARM GAS  C:\Users\young\AppData\Local\Temp\cc3sLV9e.s 			page 94


 3574 0195 11       		.uleb128 0x11
 3575 0196 01       		.uleb128 0x1
 3576 0197 12       		.uleb128 0x12
 3577 0198 06       		.uleb128 0x6
 3578 0199 40       		.uleb128 0x40
 3579 019a 18       		.uleb128 0x18
 3580 019b 9742     		.uleb128 0x2117
 3581 019d 19       		.uleb128 0x19
 3582 019e 01       		.uleb128 0x1
 3583 019f 13       		.uleb128 0x13
 3584 01a0 00       		.byte	0
 3585 01a1 00       		.byte	0
 3586 01a2 1C       		.uleb128 0x1c
 3587 01a3 05       		.uleb128 0x5
 3588 01a4 00       		.byte	0
 3589 01a5 31       		.uleb128 0x31
 3590 01a6 13       		.uleb128 0x13
 3591 01a7 02       		.uleb128 0x2
 3592 01a8 18       		.uleb128 0x18
 3593 01a9 00       		.byte	0
 3594 01aa 00       		.byte	0
 3595 01ab 1D       		.uleb128 0x1d
 3596 01ac 05       		.uleb128 0x5
 3597 01ad 00       		.byte	0
 3598 01ae 03       		.uleb128 0x3
 3599 01af 0E       		.uleb128 0xe
 3600 01b0 3A       		.uleb128 0x3a
 3601 01b1 0B       		.uleb128 0xb
 3602 01b2 3B       		.uleb128 0x3b
 3603 01b3 05       		.uleb128 0x5
 3604 01b4 49       		.uleb128 0x49
 3605 01b5 13       		.uleb128 0x13
 3606 01b6 02       		.uleb128 0x2
 3607 01b7 18       		.uleb128 0x18
 3608 01b8 00       		.byte	0
 3609 01b9 00       		.byte	0
 3610 01ba 1E       		.uleb128 0x1e
 3611 01bb 34       		.uleb128 0x34
 3612 01bc 00       		.byte	0
 3613 01bd 03       		.uleb128 0x3
 3614 01be 0E       		.uleb128 0xe
 3615 01bf 3A       		.uleb128 0x3a
 3616 01c0 0B       		.uleb128 0xb
 3617 01c1 3B       		.uleb128 0x3b
 3618 01c2 0B       		.uleb128 0xb
 3619 01c3 49       		.uleb128 0x49
 3620 01c4 13       		.uleb128 0x13
 3621 01c5 3F       		.uleb128 0x3f
 3622 01c6 19       		.uleb128 0x19
 3623 01c7 02       		.uleb128 0x2
 3624 01c8 18       		.uleb128 0x18
 3625 01c9 00       		.byte	0
 3626 01ca 00       		.byte	0
 3627 01cb 1F       		.uleb128 0x1f
 3628 01cc 2E       		.uleb128 0x2e
 3629 01cd 00       		.byte	0
 3630 01ce 3F       		.uleb128 0x3f
ARM GAS  C:\Users\young\AppData\Local\Temp\cc3sLV9e.s 			page 95


 3631 01cf 19       		.uleb128 0x19
 3632 01d0 3C       		.uleb128 0x3c
 3633 01d1 19       		.uleb128 0x19
 3634 01d2 6E       		.uleb128 0x6e
 3635 01d3 0E       		.uleb128 0xe
 3636 01d4 03       		.uleb128 0x3
 3637 01d5 0E       		.uleb128 0xe
 3638 01d6 3A       		.uleb128 0x3a
 3639 01d7 0B       		.uleb128 0xb
 3640 01d8 3B       		.uleb128 0x3b
 3641 01d9 0B       		.uleb128 0xb
 3642 01da 00       		.byte	0
 3643 01db 00       		.byte	0
 3644 01dc 00       		.byte	0
 3645              		.section	.debug_loc,"",%progbits
 3646              	.Ldebug_loc0:
 3647              	.LLST0:
 3648 0000 0E000000 		.4byte	.LVL0
 3649 0004 14000000 		.4byte	.LVL1
 3650 0008 0200     		.2byte	0x2
 3651 000a 32       		.byte	0x32
 3652 000b 9F       		.byte	0x9f
 3653 000c 00000000 		.4byte	0
 3654 0010 00000000 		.4byte	0
 3655              	.LLST1:
 3656 0014 14000000 		.4byte	.LVL1
 3657 0018 1A000000 		.4byte	.LVL2
 3658 001c 0400     		.2byte	0x4
 3659 001e 0A       		.byte	0xa
 3660 001f A60E     		.2byte	0xea6
 3661 0021 9F       		.byte	0x9f
 3662 0022 00000000 		.4byte	0
 3663 0026 00000000 		.4byte	0
 3664              	.LLST2:
 3665 002a 1A000000 		.4byte	.LVL2
 3666 002e 2E000000 		.4byte	.LVL5
 3667 0032 0400     		.2byte	0x4
 3668 0034 0A       		.byte	0xa
 3669 0035 A60E     		.2byte	0xea6
 3670 0037 9F       		.byte	0x9f
 3671 0038 2E000000 		.4byte	.LVL5
 3672 003c 32000000 		.4byte	.LVL6
 3673 0040 0100     		.2byte	0x1
 3674 0042 53       		.byte	0x53
 3675 0043 3A000000 		.4byte	.LVL8
 3676 0047 64000000 		.4byte	.LFE0
 3677 004b 0400     		.2byte	0x4
 3678 004d 0A       		.byte	0xa
 3679 004e A60E     		.2byte	0xea6
 3680 0050 9F       		.byte	0x9f
 3681 0051 00000000 		.4byte	0
 3682 0055 00000000 		.4byte	0
 3683              	.LLST3:
 3684 0059 20000000 		.4byte	.LVL3
 3685 005d 28000000 		.4byte	.LVL4
 3686 0061 0100     		.2byte	0x1
 3687 0063 53       		.byte	0x53
ARM GAS  C:\Users\young\AppData\Local\Temp\cc3sLV9e.s 			page 96


 3688 0064 3A000000 		.4byte	.LVL8
 3689 0068 3C000000 		.4byte	.LVL9
 3690 006c 0100     		.2byte	0x1
 3691 006e 53       		.byte	0x53
 3692 006f 00000000 		.4byte	0
 3693 0073 00000000 		.4byte	0
 3694              	.LLST4:
 3695 0077 32000000 		.4byte	.LVL6
 3696 007b 38000000 		.4byte	.LVL7
 3697 007f 0200     		.2byte	0x2
 3698 0081 30       		.byte	0x30
 3699 0082 9F       		.byte	0x9f
 3700 0083 00000000 		.4byte	0
 3701 0087 00000000 		.4byte	0
 3702              	.LLST5:
 3703 008b 06000000 		.4byte	.LVL10
 3704 008f 13000000 		.4byte	.LVL11-1
 3705 0093 0100     		.2byte	0x1
 3706 0095 50       		.byte	0x50
 3707 0096 00000000 		.4byte	0
 3708 009a 00000000 		.4byte	0
 3709              	.LLST6:
 3710 009e 14000000 		.4byte	.LVL11
 3711 00a2 24000000 		.4byte	.LVL13
 3712 00a6 0200     		.2byte	0x2
 3713 00a8 48       		.byte	0x48
 3714 00a9 9F       		.byte	0x9f
 3715 00aa 00000000 		.4byte	0
 3716 00ae 00000000 		.4byte	0
 3717              	.LLST7:
 3718 00b2 14000000 		.4byte	.LVL11
 3719 00b6 24000000 		.4byte	.LVL13
 3720 00ba 0200     		.2byte	0x2
 3721 00bc 31       		.byte	0x31
 3722 00bd 9F       		.byte	0x9f
 3723 00be 00000000 		.4byte	0
 3724 00c2 00000000 		.4byte	0
 3725              	.LLST8:
 3726 00c6 18000000 		.4byte	.LVL12
 3727 00ca 23000000 		.4byte	.LVL13-1
 3728 00ce 0100     		.2byte	0x1
 3729 00d0 50       		.byte	0x50
 3730 00d1 00000000 		.4byte	0
 3731 00d5 00000000 		.4byte	0
 3732              	.LLST9:
 3733 00d9 18000000 		.4byte	.LVL14
 3734 00dd 1E000000 		.4byte	.LVL15
 3735 00e1 0200     		.2byte	0x2
 3736 00e3 32       		.byte	0x32
 3737 00e4 9F       		.byte	0x9f
 3738 00e5 00000000 		.4byte	0
 3739 00e9 00000000 		.4byte	0
 3740              	.LLST10:
 3741 00ed 1E000000 		.4byte	.LVL15
 3742 00f1 24000000 		.4byte	.LVL16
 3743 00f5 0400     		.2byte	0x4
 3744 00f7 0A       		.byte	0xa
ARM GAS  C:\Users\young\AppData\Local\Temp\cc3sLV9e.s 			page 97


 3745 00f8 A60E     		.2byte	0xea6
 3746 00fa 9F       		.byte	0x9f
 3747 00fb 00000000 		.4byte	0
 3748 00ff 00000000 		.4byte	0
 3749              	.LLST11:
 3750 0103 24000000 		.4byte	.LVL16
 3751 0107 38000000 		.4byte	.LVL19
 3752 010b 0400     		.2byte	0x4
 3753 010d 0A       		.byte	0xa
 3754 010e A60E     		.2byte	0xea6
 3755 0110 9F       		.byte	0x9f
 3756 0111 38000000 		.4byte	.LVL19
 3757 0115 3C000000 		.4byte	.LVL20
 3758 0119 0100     		.2byte	0x1
 3759 011b 53       		.byte	0x53
 3760 011c 6A000000 		.4byte	.LVL26
 3761 0120 A0000000 		.4byte	.LFE2
 3762 0124 0400     		.2byte	0x4
 3763 0126 0A       		.byte	0xa
 3764 0127 A60E     		.2byte	0xea6
 3765 0129 9F       		.byte	0x9f
 3766 012a 00000000 		.4byte	0
 3767 012e 00000000 		.4byte	0
 3768              	.LLST12:
 3769 0132 2A000000 		.4byte	.LVL17
 3770 0136 32000000 		.4byte	.LVL18
 3771 013a 0100     		.2byte	0x1
 3772 013c 53       		.byte	0x53
 3773 013d 6A000000 		.4byte	.LVL26
 3774 0141 6C000000 		.4byte	.LVL27
 3775 0145 0100     		.2byte	0x1
 3776 0147 53       		.byte	0x53
 3777 0148 00000000 		.4byte	0
 3778 014c 00000000 		.4byte	0
 3779              	.LLST13:
 3780 0150 3C000000 		.4byte	.LVL20
 3781 0154 42000000 		.4byte	.LVL21
 3782 0158 0200     		.2byte	0x2
 3783 015a 30       		.byte	0x30
 3784 015b 9F       		.byte	0x9f
 3785 015c 00000000 		.4byte	0
 3786 0160 00000000 		.4byte	0
 3787              	.LLST14:
 3788 0164 4A000000 		.4byte	.LVL22
 3789 0168 57000000 		.4byte	.LVL23-1
 3790 016c 0100     		.2byte	0x1
 3791 016e 50       		.byte	0x50
 3792 016f 00000000 		.4byte	0
 3793 0173 00000000 		.4byte	0
 3794              	.LLST15:
 3795 0177 58000000 		.4byte	.LVL23
 3796 017b 68000000 		.4byte	.LVL25
 3797 017f 0200     		.2byte	0x2
 3798 0181 48       		.byte	0x48
 3799 0182 9F       		.byte	0x9f
 3800 0183 00000000 		.4byte	0
 3801 0187 00000000 		.4byte	0
ARM GAS  C:\Users\young\AppData\Local\Temp\cc3sLV9e.s 			page 98


 3802              	.LLST16:
 3803 018b 58000000 		.4byte	.LVL23
 3804 018f 68000000 		.4byte	.LVL25
 3805 0193 0200     		.2byte	0x2
 3806 0195 31       		.byte	0x31
 3807 0196 9F       		.byte	0x9f
 3808 0197 00000000 		.4byte	0
 3809 019b 00000000 		.4byte	0
 3810              	.LLST17:
 3811 019f 5C000000 		.4byte	.LVL24
 3812 01a3 67000000 		.4byte	.LVL25-1
 3813 01a7 0100     		.2byte	0x1
 3814 01a9 50       		.byte	0x50
 3815 01aa 00000000 		.4byte	0
 3816 01ae 00000000 		.4byte	0
 3817              	.LLST18:
 3818 01b2 06000000 		.4byte	.LVL28
 3819 01b6 13000000 		.4byte	.LVL29-1
 3820 01ba 0100     		.2byte	0x1
 3821 01bc 50       		.byte	0x50
 3822 01bd 00000000 		.4byte	0
 3823 01c1 00000000 		.4byte	0
 3824              	.LLST19:
 3825 01c5 00000000 		.4byte	.LVL30
 3826 01c9 07000000 		.4byte	.LVL31-1
 3827 01cd 0100     		.2byte	0x1
 3828 01cf 50       		.byte	0x50
 3829 01d0 07000000 		.4byte	.LVL31-1
 3830 01d4 16000000 		.4byte	.LVL32
 3831 01d8 0100     		.2byte	0x1
 3832 01da 54       		.byte	0x54
 3833 01db 16000000 		.4byte	.LVL32
 3834 01df 28000000 		.4byte	.LFE4
 3835 01e3 0400     		.2byte	0x4
 3836 01e5 F3       		.byte	0xf3
 3837 01e6 01       		.uleb128 0x1
 3838 01e7 50       		.byte	0x50
 3839 01e8 9F       		.byte	0x9f
 3840 01e9 00000000 		.4byte	0
 3841 01ed 00000000 		.4byte	0
 3842              	.LLST20:
 3843 01f1 08000000 		.4byte	.LVL31
 3844 01f5 1B000000 		.4byte	.LVL33-1
 3845 01f9 0100     		.2byte	0x1
 3846 01fb 50       		.byte	0x50
 3847 01fc 00000000 		.4byte	0
 3848 0200 00000000 		.4byte	0
 3849              	.LLST21:
 3850 0204 00000000 		.4byte	.LVL34
 3851 0208 07000000 		.4byte	.LVL35-1
 3852 020c 0100     		.2byte	0x1
 3853 020e 50       		.byte	0x50
 3854 020f 07000000 		.4byte	.LVL35-1
 3855 0213 16000000 		.4byte	.LVL36
 3856 0217 0100     		.2byte	0x1
 3857 0219 54       		.byte	0x54
 3858 021a 16000000 		.4byte	.LVL36
ARM GAS  C:\Users\young\AppData\Local\Temp\cc3sLV9e.s 			page 99


 3859 021e 28000000 		.4byte	.LFE5
 3860 0222 0400     		.2byte	0x4
 3861 0224 F3       		.byte	0xf3
 3862 0225 01       		.uleb128 0x1
 3863 0226 50       		.byte	0x50
 3864 0227 9F       		.byte	0x9f
 3865 0228 00000000 		.4byte	0
 3866 022c 00000000 		.4byte	0
 3867              	.LLST22:
 3868 0230 08000000 		.4byte	.LVL35
 3869 0234 1B000000 		.4byte	.LVL37-1
 3870 0238 0100     		.2byte	0x1
 3871 023a 50       		.byte	0x50
 3872 023b 00000000 		.4byte	0
 3873 023f 00000000 		.4byte	0
 3874              	.LLST23:
 3875 0243 00000000 		.4byte	.LVL38
 3876 0247 07000000 		.4byte	.LVL39-1
 3877 024b 0100     		.2byte	0x1
 3878 024d 50       		.byte	0x50
 3879 024e 07000000 		.4byte	.LVL39-1
 3880 0252 16000000 		.4byte	.LVL40
 3881 0256 0100     		.2byte	0x1
 3882 0258 54       		.byte	0x54
 3883 0259 16000000 		.4byte	.LVL40
 3884 025d 28000000 		.4byte	.LFE6
 3885 0261 0400     		.2byte	0x4
 3886 0263 F3       		.byte	0xf3
 3887 0264 01       		.uleb128 0x1
 3888 0265 50       		.byte	0x50
 3889 0266 9F       		.byte	0x9f
 3890 0267 00000000 		.4byte	0
 3891 026b 00000000 		.4byte	0
 3892              	.LLST24:
 3893 026f 08000000 		.4byte	.LVL39
 3894 0273 1B000000 		.4byte	.LVL41-1
 3895 0277 0100     		.2byte	0x1
 3896 0279 50       		.byte	0x50
 3897 027a 00000000 		.4byte	0
 3898 027e 00000000 		.4byte	0
 3899              	.LLST25:
 3900 0282 00000000 		.4byte	.LVL42
 3901 0286 07000000 		.4byte	.LVL43-1
 3902 028a 0100     		.2byte	0x1
 3903 028c 50       		.byte	0x50
 3904 028d 07000000 		.4byte	.LVL43-1
 3905 0291 16000000 		.4byte	.LVL44
 3906 0295 0100     		.2byte	0x1
 3907 0297 54       		.byte	0x54
 3908 0298 16000000 		.4byte	.LVL44
 3909 029c 30000000 		.4byte	.LFE7
 3910 02a0 0400     		.2byte	0x4
 3911 02a2 F3       		.byte	0xf3
 3912 02a3 01       		.uleb128 0x1
 3913 02a4 50       		.byte	0x50
 3914 02a5 9F       		.byte	0x9f
 3915 02a6 00000000 		.4byte	0
ARM GAS  C:\Users\young\AppData\Local\Temp\cc3sLV9e.s 			page 100


 3916 02aa 00000000 		.4byte	0
 3917              	.LLST26:
 3918 02ae 08000000 		.4byte	.LVL43
 3919 02b2 23000000 		.4byte	.LVL45-1
 3920 02b6 0100     		.2byte	0x1
 3921 02b8 50       		.byte	0x50
 3922 02b9 00000000 		.4byte	0
 3923 02bd 00000000 		.4byte	0
 3924              	.LLST27:
 3925 02c1 00000000 		.4byte	.LVL46
 3926 02c5 04000000 		.4byte	.LVL47
 3927 02c9 0100     		.2byte	0x1
 3928 02cb 50       		.byte	0x50
 3929 02cc 04000000 		.4byte	.LVL47
 3930 02d0 10000000 		.4byte	.LFE8
 3931 02d4 0400     		.2byte	0x4
 3932 02d6 F3       		.byte	0xf3
 3933 02d7 01       		.uleb128 0x1
 3934 02d8 50       		.byte	0x50
 3935 02d9 9F       		.byte	0x9f
 3936 02da 00000000 		.4byte	0
 3937 02de 00000000 		.4byte	0
 3938              	.LLST28:
 3939 02e2 00000000 		.4byte	.LVL48
 3940 02e6 07000000 		.4byte	.LVL49-1
 3941 02ea 0100     		.2byte	0x1
 3942 02ec 50       		.byte	0x50
 3943 02ed 07000000 		.4byte	.LVL49-1
 3944 02f1 0E000000 		.4byte	.LVL50
 3945 02f5 0100     		.2byte	0x1
 3946 02f7 54       		.byte	0x54
 3947 02f8 0E000000 		.4byte	.LVL50
 3948 02fc 28000000 		.4byte	.LFE9
 3949 0300 0400     		.2byte	0x4
 3950 0302 F3       		.byte	0xf3
 3951 0303 01       		.uleb128 0x1
 3952 0304 50       		.byte	0x50
 3953 0305 9F       		.byte	0x9f
 3954 0306 00000000 		.4byte	0
 3955 030a 00000000 		.4byte	0
 3956              	.LLST29:
 3957 030e 08000000 		.4byte	.LVL49
 3958 0312 1F000000 		.4byte	.LVL51-1
 3959 0316 0100     		.2byte	0x1
 3960 0318 50       		.byte	0x50
 3961 0319 00000000 		.4byte	0
 3962 031d 00000000 		.4byte	0
 3963              	.LLST30:
 3964 0321 00000000 		.4byte	.LVL52
 3965 0325 07000000 		.4byte	.LVL53-1
 3966 0329 0100     		.2byte	0x1
 3967 032b 50       		.byte	0x50
 3968 032c 07000000 		.4byte	.LVL53-1
 3969 0330 0E000000 		.4byte	.LVL54
 3970 0334 0100     		.2byte	0x1
 3971 0336 54       		.byte	0x54
 3972 0337 0E000000 		.4byte	.LVL54
ARM GAS  C:\Users\young\AppData\Local\Temp\cc3sLV9e.s 			page 101


 3973 033b 28000000 		.4byte	.LFE10
 3974 033f 0400     		.2byte	0x4
 3975 0341 F3       		.byte	0xf3
 3976 0342 01       		.uleb128 0x1
 3977 0343 50       		.byte	0x50
 3978 0344 9F       		.byte	0x9f
 3979 0345 00000000 		.4byte	0
 3980 0349 00000000 		.4byte	0
 3981              	.LLST31:
 3982 034d 08000000 		.4byte	.LVL53
 3983 0351 1F000000 		.4byte	.LVL55-1
 3984 0355 0100     		.2byte	0x1
 3985 0357 50       		.byte	0x50
 3986 0358 00000000 		.4byte	0
 3987 035c 00000000 		.4byte	0
 3988              	.LLST32:
 3989 0360 00000000 		.4byte	.LVL56
 3990 0364 07000000 		.4byte	.LVL57-1
 3991 0368 0100     		.2byte	0x1
 3992 036a 50       		.byte	0x50
 3993 036b 07000000 		.4byte	.LVL57-1
 3994 036f 10000000 		.4byte	.LVL58
 3995 0373 0100     		.2byte	0x1
 3996 0375 54       		.byte	0x54
 3997 0376 10000000 		.4byte	.LVL58
 3998 037a 2C000000 		.4byte	.LFE11
 3999 037e 0400     		.2byte	0x4
 4000 0380 F3       		.byte	0xf3
 4001 0381 01       		.uleb128 0x1
 4002 0382 50       		.byte	0x50
 4003 0383 9F       		.byte	0x9f
 4004 0384 00000000 		.4byte	0
 4005 0388 00000000 		.4byte	0
 4006              	.LLST33:
 4007 038c 08000000 		.4byte	.LVL57
 4008 0390 1F000000 		.4byte	.LVL59-1
 4009 0394 0100     		.2byte	0x1
 4010 0396 50       		.byte	0x50
 4011 0397 00000000 		.4byte	0
 4012 039b 00000000 		.4byte	0
 4013              	.LLST34:
 4014 039f 00000000 		.4byte	.LVL60
 4015 03a3 07000000 		.4byte	.LVL61-1
 4016 03a7 0100     		.2byte	0x1
 4017 03a9 50       		.byte	0x50
 4018 03aa 07000000 		.4byte	.LVL61-1
 4019 03ae 16000000 		.4byte	.LVL62
 4020 03b2 0100     		.2byte	0x1
 4021 03b4 54       		.byte	0x54
 4022 03b5 16000000 		.4byte	.LVL62
 4023 03b9 28000000 		.4byte	.LFE12
 4024 03bd 0400     		.2byte	0x4
 4025 03bf F3       		.byte	0xf3
 4026 03c0 01       		.uleb128 0x1
 4027 03c1 50       		.byte	0x50
 4028 03c2 9F       		.byte	0x9f
 4029 03c3 00000000 		.4byte	0
ARM GAS  C:\Users\young\AppData\Local\Temp\cc3sLV9e.s 			page 102


 4030 03c7 00000000 		.4byte	0
 4031              	.LLST35:
 4032 03cb 08000000 		.4byte	.LVL61
 4033 03cf 1B000000 		.4byte	.LVL63-1
 4034 03d3 0100     		.2byte	0x1
 4035 03d5 50       		.byte	0x50
 4036 03d6 00000000 		.4byte	0
 4037 03da 00000000 		.4byte	0
 4038              	.LLST36:
 4039 03de 00000000 		.4byte	.LVL64
 4040 03e2 04000000 		.4byte	.LVL65
 4041 03e6 0100     		.2byte	0x1
 4042 03e8 50       		.byte	0x50
 4043 03e9 04000000 		.4byte	.LVL65
 4044 03ed 10000000 		.4byte	.LFE13
 4045 03f1 0400     		.2byte	0x4
 4046 03f3 F3       		.byte	0xf3
 4047 03f4 01       		.uleb128 0x1
 4048 03f5 50       		.byte	0x50
 4049 03f6 9F       		.byte	0x9f
 4050 03f7 00000000 		.4byte	0
 4051 03fb 00000000 		.4byte	0
 4052              	.LLST37:
 4053 03ff 00000000 		.4byte	.LVL66
 4054 0403 07000000 		.4byte	.LVL67-1
 4055 0407 0100     		.2byte	0x1
 4056 0409 50       		.byte	0x50
 4057 040a 07000000 		.4byte	.LVL67-1
 4058 040e 16000000 		.4byte	.LVL68
 4059 0412 0100     		.2byte	0x1
 4060 0414 54       		.byte	0x54
 4061 0415 16000000 		.4byte	.LVL68
 4062 0419 28000000 		.4byte	.LFE15
 4063 041d 0400     		.2byte	0x4
 4064 041f F3       		.byte	0xf3
 4065 0420 01       		.uleb128 0x1
 4066 0421 50       		.byte	0x50
 4067 0422 9F       		.byte	0x9f
 4068 0423 00000000 		.4byte	0
 4069 0427 00000000 		.4byte	0
 4070              	.LLST38:
 4071 042b 08000000 		.4byte	.LVL67
 4072 042f 1B000000 		.4byte	.LVL69-1
 4073 0433 0100     		.2byte	0x1
 4074 0435 50       		.byte	0x50
 4075 0436 00000000 		.4byte	0
 4076 043a 00000000 		.4byte	0
 4077              	.LLST39:
 4078 043e 00000000 		.4byte	.LVL70
 4079 0442 04000000 		.4byte	.LVL71
 4080 0446 0100     		.2byte	0x1
 4081 0448 50       		.byte	0x50
 4082 0449 04000000 		.4byte	.LVL71
 4083 044d 10000000 		.4byte	.LFE16
 4084 0451 0400     		.2byte	0x4
 4085 0453 F3       		.byte	0xf3
 4086 0454 01       		.uleb128 0x1
ARM GAS  C:\Users\young\AppData\Local\Temp\cc3sLV9e.s 			page 103


 4087 0455 50       		.byte	0x50
 4088 0456 9F       		.byte	0x9f
 4089 0457 00000000 		.4byte	0
 4090 045b 00000000 		.4byte	0
 4091              	.LLST40:
 4092 045f 00000000 		.4byte	.LVL72
 4093 0463 07000000 		.4byte	.LVL73-1
 4094 0467 0100     		.2byte	0x1
 4095 0469 50       		.byte	0x50
 4096 046a 07000000 		.4byte	.LVL73-1
 4097 046e 1E000000 		.4byte	.LVL75
 4098 0472 0100     		.2byte	0x1
 4099 0474 54       		.byte	0x54
 4100 0475 1E000000 		.4byte	.LVL75
 4101 0479 24000000 		.4byte	.LFE18
 4102 047d 0400     		.2byte	0x4
 4103 047f F3       		.byte	0xf3
 4104 0480 01       		.uleb128 0x1
 4105 0481 50       		.byte	0x50
 4106 0482 9F       		.byte	0x9f
 4107 0483 00000000 		.4byte	0
 4108 0487 00000000 		.4byte	0
 4109              	.LLST41:
 4110 048b 08000000 		.4byte	.LVL73
 4111 048f 1D000000 		.4byte	.LVL74-1
 4112 0493 0100     		.2byte	0x1
 4113 0495 50       		.byte	0x50
 4114 0496 00000000 		.4byte	0
 4115 049a 00000000 		.4byte	0
 4116              	.LLST42:
 4117 049e 00000000 		.4byte	.LVL76
 4118 04a2 04000000 		.4byte	.LVL77
 4119 04a6 0100     		.2byte	0x1
 4120 04a8 50       		.byte	0x50
 4121 04a9 04000000 		.4byte	.LVL77
 4122 04ad 10000000 		.4byte	.LFE19
 4123 04b1 0400     		.2byte	0x4
 4124 04b3 F3       		.byte	0xf3
 4125 04b4 01       		.uleb128 0x1
 4126 04b5 50       		.byte	0x50
 4127 04b6 9F       		.byte	0x9f
 4128 04b7 00000000 		.4byte	0
 4129 04bb 00000000 		.4byte	0
 4130              	.LLST43:
 4131 04bf 00000000 		.4byte	.LVL78
 4132 04c3 07000000 		.4byte	.LVL79-1
 4133 04c7 0100     		.2byte	0x1
 4134 04c9 50       		.byte	0x50
 4135 04ca 07000000 		.4byte	.LVL79-1
 4136 04ce 0E000000 		.4byte	.LVL80
 4137 04d2 0100     		.2byte	0x1
 4138 04d4 54       		.byte	0x54
 4139 04d5 0E000000 		.4byte	.LVL80
 4140 04d9 28000000 		.4byte	.LFE21
 4141 04dd 0400     		.2byte	0x4
 4142 04df F3       		.byte	0xf3
 4143 04e0 01       		.uleb128 0x1
ARM GAS  C:\Users\young\AppData\Local\Temp\cc3sLV9e.s 			page 104


 4144 04e1 50       		.byte	0x50
 4145 04e2 9F       		.byte	0x9f
 4146 04e3 00000000 		.4byte	0
 4147 04e7 00000000 		.4byte	0
 4148              	.LLST44:
 4149 04eb 08000000 		.4byte	.LVL79
 4150 04ef 1F000000 		.4byte	.LVL81-1
 4151 04f3 0100     		.2byte	0x1
 4152 04f5 50       		.byte	0x50
 4153 04f6 00000000 		.4byte	0
 4154 04fa 00000000 		.4byte	0
 4155              	.LLST45:
 4156 04fe 00000000 		.4byte	.LVL82
 4157 0502 16000000 		.4byte	.LVL85
 4158 0506 0100     		.2byte	0x1
 4159 0508 50       		.byte	0x50
 4160 0509 16000000 		.4byte	.LVL85
 4161 050d 18000000 		.4byte	.LVL86
 4162 0511 0300     		.2byte	0x3
 4163 0513 70       		.byte	0x70
 4164 0514 7F       		.sleb128 -1
 4165 0515 9F       		.byte	0x9f
 4166 0516 18000000 		.4byte	.LVL86
 4167 051a 1A000000 		.4byte	.LVL87
 4168 051e 0100     		.2byte	0x1
 4169 0520 50       		.byte	0x50
 4170 0521 22000000 		.4byte	.LVL88
 4171 0525 2A000000 		.4byte	.LVL90
 4172 0529 0100     		.2byte	0x1
 4173 052b 50       		.byte	0x50
 4174 052c 2A000000 		.4byte	.LVL90
 4175 0530 2C000000 		.4byte	.LVL91
 4176 0534 0300     		.2byte	0x3
 4177 0536 70       		.byte	0x70
 4178 0537 01       		.sleb128 1
 4179 0538 9F       		.byte	0x9f
 4180 0539 2C000000 		.4byte	.LVL91
 4181 053d 2E000000 		.4byte	.LVL92
 4182 0541 0100     		.2byte	0x1
 4183 0543 50       		.byte	0x50
 4184 0544 2E000000 		.4byte	.LVL92
 4185 0548 30000000 		.4byte	.LVL93
 4186 054c 0300     		.2byte	0x3
 4187 054e 73       		.byte	0x73
 4188 054f 01       		.sleb128 1
 4189 0550 9F       		.byte	0x9f
 4190 0551 30000000 		.4byte	.LVL93
 4191 0555 40000000 		.4byte	.LFE22
 4192 0559 0600     		.2byte	0x6
 4193 055b F3       		.byte	0xf3
 4194 055c 01       		.uleb128 0x1
 4195 055d 50       		.byte	0x50
 4196 055e 23       		.byte	0x23
 4197 055f 01       		.uleb128 0x1
 4198 0560 9F       		.byte	0x9f
 4199 0561 00000000 		.4byte	0
 4200 0565 00000000 		.4byte	0
ARM GAS  C:\Users\young\AppData\Local\Temp\cc3sLV9e.s 			page 105


 4201              	.LLST46:
 4202 0569 08000000 		.4byte	.LVL83
 4203 056d 12000000 		.4byte	.LVL84
 4204 0571 0100     		.2byte	0x1
 4205 0573 53       		.byte	0x53
 4206 0574 22000000 		.4byte	.LVL88
 4207 0578 26000000 		.4byte	.LVL89
 4208 057c 0100     		.2byte	0x1
 4209 057e 53       		.byte	0x53
 4210 057f 00000000 		.4byte	0
 4211 0583 00000000 		.4byte	0
 4212              	.LLST47:
 4213 0587 0C000000 		.4byte	.LVL94
 4214 058b 16000000 		.4byte	.LVL95
 4215 058f 0100     		.2byte	0x1
 4216 0591 53       		.byte	0x53
 4217 0592 22000000 		.4byte	.LVL100
 4218 0596 30000000 		.4byte	.LVL104
 4219 059a 0100     		.2byte	0x1
 4220 059c 53       		.byte	0x53
 4221 059d 34000000 		.4byte	.LVL105
 4222 05a1 48000000 		.4byte	.LFE23
 4223 05a5 0100     		.2byte	0x1
 4224 05a7 53       		.byte	0x53
 4225 05a8 00000000 		.4byte	0
 4226 05ac 00000000 		.4byte	0
 4227              	.LLST48:
 4228 05b0 0C000000 		.4byte	.LVL94
 4229 05b4 1A000000 		.4byte	.LVL96
 4230 05b8 0100     		.2byte	0x1
 4231 05ba 52       		.byte	0x52
 4232 05bb 1A000000 		.4byte	.LVL96
 4233 05bf 1C000000 		.4byte	.LVL97
 4234 05c3 0300     		.2byte	0x3
 4235 05c5 72       		.byte	0x72
 4236 05c6 01       		.sleb128 1
 4237 05c7 9F       		.byte	0x9f
 4238 05c8 1C000000 		.4byte	.LVL97
 4239 05cc 1E000000 		.4byte	.LVL98
 4240 05d0 0100     		.2byte	0x1
 4241 05d2 50       		.byte	0x50
 4242 05d3 1E000000 		.4byte	.LVL98
 4243 05d7 20000000 		.4byte	.LVL99
 4244 05db 0300     		.2byte	0x3
 4245 05dd 72       		.byte	0x72
 4246 05de 01       		.sleb128 1
 4247 05df 9F       		.byte	0x9f
 4248 05e0 22000000 		.4byte	.LVL100
 4249 05e4 28000000 		.4byte	.LVL101
 4250 05e8 0100     		.2byte	0x1
 4251 05ea 52       		.byte	0x52
 4252 05eb 28000000 		.4byte	.LVL101
 4253 05ef 2A000000 		.4byte	.LVL102
 4254 05f3 0300     		.2byte	0x3
 4255 05f5 72       		.byte	0x72
 4256 05f6 7F       		.sleb128 -1
 4257 05f7 9F       		.byte	0x9f
ARM GAS  C:\Users\young\AppData\Local\Temp\cc3sLV9e.s 			page 106


 4258 05f8 2A000000 		.4byte	.LVL102
 4259 05fc 2C000000 		.4byte	.LVL103
 4260 0600 0100     		.2byte	0x1
 4261 0602 50       		.byte	0x50
 4262 0603 2C000000 		.4byte	.LVL103
 4263 0607 30000000 		.4byte	.LVL104
 4264 060b 0300     		.2byte	0x3
 4265 060d 72       		.byte	0x72
 4266 060e 7F       		.sleb128 -1
 4267 060f 9F       		.byte	0x9f
 4268 0610 30000000 		.4byte	.LVL104
 4269 0614 36000000 		.4byte	.LVL106
 4270 0618 0100     		.2byte	0x1
 4271 061a 52       		.byte	0x52
 4272 061b 00000000 		.4byte	0
 4273 061f 00000000 		.4byte	0
 4274              	.LLST49:
 4275 0623 00000000 		.4byte	.LVL107
 4276 0627 16000000 		.4byte	.LVL110
 4277 062b 0100     		.2byte	0x1
 4278 062d 50       		.byte	0x50
 4279 062e 16000000 		.4byte	.LVL110
 4280 0632 18000000 		.4byte	.LVL111
 4281 0636 0300     		.2byte	0x3
 4282 0638 70       		.byte	0x70
 4283 0639 7F       		.sleb128 -1
 4284 063a 9F       		.byte	0x9f
 4285 063b 18000000 		.4byte	.LVL111
 4286 063f 1A000000 		.4byte	.LVL112
 4287 0643 0100     		.2byte	0x1
 4288 0645 50       		.byte	0x50
 4289 0646 22000000 		.4byte	.LVL113
 4290 064a 2A000000 		.4byte	.LVL115
 4291 064e 0100     		.2byte	0x1
 4292 0650 50       		.byte	0x50
 4293 0651 2A000000 		.4byte	.LVL115
 4294 0655 2C000000 		.4byte	.LVL116
 4295 0659 0300     		.2byte	0x3
 4296 065b 70       		.byte	0x70
 4297 065c 01       		.sleb128 1
 4298 065d 9F       		.byte	0x9f
 4299 065e 2C000000 		.4byte	.LVL116
 4300 0662 2E000000 		.4byte	.LVL117
 4301 0666 0100     		.2byte	0x1
 4302 0668 50       		.byte	0x50
 4303 0669 2E000000 		.4byte	.LVL117
 4304 066d 30000000 		.4byte	.LVL118
 4305 0671 0300     		.2byte	0x3
 4306 0673 73       		.byte	0x73
 4307 0674 01       		.sleb128 1
 4308 0675 9F       		.byte	0x9f
 4309 0676 30000000 		.4byte	.LVL118
 4310 067a 40000000 		.4byte	.LFE24
 4311 067e 0600     		.2byte	0x6
 4312 0680 F3       		.byte	0xf3
 4313 0681 01       		.uleb128 0x1
 4314 0682 50       		.byte	0x50
ARM GAS  C:\Users\young\AppData\Local\Temp\cc3sLV9e.s 			page 107


 4315 0683 23       		.byte	0x23
 4316 0684 01       		.uleb128 0x1
 4317 0685 9F       		.byte	0x9f
 4318 0686 00000000 		.4byte	0
 4319 068a 00000000 		.4byte	0
 4320              	.LLST50:
 4321 068e 08000000 		.4byte	.LVL108
 4322 0692 12000000 		.4byte	.LVL109
 4323 0696 0100     		.2byte	0x1
 4324 0698 53       		.byte	0x53
 4325 0699 22000000 		.4byte	.LVL113
 4326 069d 26000000 		.4byte	.LVL114
 4327 06a1 0100     		.2byte	0x1
 4328 06a3 53       		.byte	0x53
 4329 06a4 00000000 		.4byte	0
 4330 06a8 00000000 		.4byte	0
 4331              	.LLST51:
 4332 06ac 0C000000 		.4byte	.LVL119
 4333 06b0 16000000 		.4byte	.LVL120
 4334 06b4 0100     		.2byte	0x1
 4335 06b6 53       		.byte	0x53
 4336 06b7 22000000 		.4byte	.LVL125
 4337 06bb 30000000 		.4byte	.LVL129
 4338 06bf 0100     		.2byte	0x1
 4339 06c1 53       		.byte	0x53
 4340 06c2 34000000 		.4byte	.LVL130
 4341 06c6 48000000 		.4byte	.LFE25
 4342 06ca 0100     		.2byte	0x1
 4343 06cc 53       		.byte	0x53
 4344 06cd 00000000 		.4byte	0
 4345 06d1 00000000 		.4byte	0
 4346              	.LLST52:
 4347 06d5 0C000000 		.4byte	.LVL119
 4348 06d9 1A000000 		.4byte	.LVL121
 4349 06dd 0100     		.2byte	0x1
 4350 06df 52       		.byte	0x52
 4351 06e0 1A000000 		.4byte	.LVL121
 4352 06e4 1C000000 		.4byte	.LVL122
 4353 06e8 0300     		.2byte	0x3
 4354 06ea 72       		.byte	0x72
 4355 06eb 01       		.sleb128 1
 4356 06ec 9F       		.byte	0x9f
 4357 06ed 1C000000 		.4byte	.LVL122
 4358 06f1 1E000000 		.4byte	.LVL123
 4359 06f5 0100     		.2byte	0x1
 4360 06f7 50       		.byte	0x50
 4361 06f8 1E000000 		.4byte	.LVL123
 4362 06fc 20000000 		.4byte	.LVL124
 4363 0700 0300     		.2byte	0x3
 4364 0702 72       		.byte	0x72
 4365 0703 01       		.sleb128 1
 4366 0704 9F       		.byte	0x9f
 4367 0705 22000000 		.4byte	.LVL125
 4368 0709 28000000 		.4byte	.LVL126
 4369 070d 0100     		.2byte	0x1
 4370 070f 52       		.byte	0x52
 4371 0710 28000000 		.4byte	.LVL126
ARM GAS  C:\Users\young\AppData\Local\Temp\cc3sLV9e.s 			page 108


 4372 0714 2A000000 		.4byte	.LVL127
 4373 0718 0300     		.2byte	0x3
 4374 071a 72       		.byte	0x72
 4375 071b 7F       		.sleb128 -1
 4376 071c 9F       		.byte	0x9f
 4377 071d 2A000000 		.4byte	.LVL127
 4378 0721 2C000000 		.4byte	.LVL128
 4379 0725 0100     		.2byte	0x1
 4380 0727 50       		.byte	0x50
 4381 0728 2C000000 		.4byte	.LVL128
 4382 072c 30000000 		.4byte	.LVL129
 4383 0730 0300     		.2byte	0x3
 4384 0732 72       		.byte	0x72
 4385 0733 7F       		.sleb128 -1
 4386 0734 9F       		.byte	0x9f
 4387 0735 30000000 		.4byte	.LVL129
 4388 0739 36000000 		.4byte	.LVL131
 4389 073d 0100     		.2byte	0x1
 4390 073f 52       		.byte	0x52
 4391 0740 00000000 		.4byte	0
 4392 0744 00000000 		.4byte	0
 4393              	.LLST53:
 4394 0748 00000000 		.4byte	.LVL132
 4395 074c 07000000 		.4byte	.LVL133-1
 4396 0750 0100     		.2byte	0x1
 4397 0752 50       		.byte	0x50
 4398 0753 07000000 		.4byte	.LVL133-1
 4399 0757 16000000 		.4byte	.LVL134
 4400 075b 0100     		.2byte	0x1
 4401 075d 54       		.byte	0x54
 4402 075e 16000000 		.4byte	.LVL134
 4403 0762 24000000 		.4byte	.LFE28
 4404 0766 0400     		.2byte	0x4
 4405 0768 F3       		.byte	0xf3
 4406 0769 01       		.uleb128 0x1
 4407 076a 50       		.byte	0x50
 4408 076b 9F       		.byte	0x9f
 4409 076c 00000000 		.4byte	0
 4410 0770 00000000 		.4byte	0
 4411              	.LLST54:
 4412 0774 08000000 		.4byte	.LVL133
 4413 0778 1B000000 		.4byte	.LVL135-1
 4414 077c 0100     		.2byte	0x1
 4415 077e 50       		.byte	0x50
 4416 077f 00000000 		.4byte	0
 4417 0783 00000000 		.4byte	0
 4418              	.LLST55:
 4419 0787 00000000 		.4byte	.LVL136
 4420 078b 07000000 		.4byte	.LVL137-1
 4421 078f 0100     		.2byte	0x1
 4422 0791 50       		.byte	0x50
 4423 0792 07000000 		.4byte	.LVL137-1
 4424 0796 1E000000 		.4byte	.LVL139
 4425 079a 0100     		.2byte	0x1
 4426 079c 54       		.byte	0x54
 4427 079d 1E000000 		.4byte	.LVL139
 4428 07a1 24000000 		.4byte	.LFE29
ARM GAS  C:\Users\young\AppData\Local\Temp\cc3sLV9e.s 			page 109


 4429 07a5 0400     		.2byte	0x4
 4430 07a7 F3       		.byte	0xf3
 4431 07a8 01       		.uleb128 0x1
 4432 07a9 50       		.byte	0x50
 4433 07aa 9F       		.byte	0x9f
 4434 07ab 00000000 		.4byte	0
 4435 07af 00000000 		.4byte	0
 4436              	.LLST56:
 4437 07b3 08000000 		.4byte	.LVL137
 4438 07b7 1D000000 		.4byte	.LVL138-1
 4439 07bb 0100     		.2byte	0x1
 4440 07bd 50       		.byte	0x50
 4441 07be 00000000 		.4byte	0
 4442 07c2 00000000 		.4byte	0
 4443              	.LLST57:
 4444 07c6 00000000 		.4byte	.LVL140
 4445 07ca 07000000 		.4byte	.LVL141-1
 4446 07ce 0100     		.2byte	0x1
 4447 07d0 50       		.byte	0x50
 4448 07d1 07000000 		.4byte	.LVL141-1
 4449 07d5 1E000000 		.4byte	.LVL143
 4450 07d9 0100     		.2byte	0x1
 4451 07db 54       		.byte	0x54
 4452 07dc 1E000000 		.4byte	.LVL143
 4453 07e0 28000000 		.4byte	.LFE30
 4454 07e4 0400     		.2byte	0x4
 4455 07e6 F3       		.byte	0xf3
 4456 07e7 01       		.uleb128 0x1
 4457 07e8 50       		.byte	0x50
 4458 07e9 9F       		.byte	0x9f
 4459 07ea 00000000 		.4byte	0
 4460 07ee 00000000 		.4byte	0
 4461              	.LLST58:
 4462 07f2 08000000 		.4byte	.LVL141
 4463 07f6 1D000000 		.4byte	.LVL142-1
 4464 07fa 0100     		.2byte	0x1
 4465 07fc 50       		.byte	0x50
 4466 07fd 00000000 		.4byte	0
 4467 0801 00000000 		.4byte	0
 4468              	.LLST59:
 4469 0805 00000000 		.4byte	.LVL144
 4470 0809 07000000 		.4byte	.LVL145-1
 4471 080d 0100     		.2byte	0x1
 4472 080f 50       		.byte	0x50
 4473 0810 07000000 		.4byte	.LVL145-1
 4474 0814 1E000000 		.4byte	.LVL147
 4475 0818 0100     		.2byte	0x1
 4476 081a 54       		.byte	0x54
 4477 081b 1E000000 		.4byte	.LVL147
 4478 081f 24000000 		.4byte	.LFE31
 4479 0823 0400     		.2byte	0x4
 4480 0825 F3       		.byte	0xf3
 4481 0826 01       		.uleb128 0x1
 4482 0827 50       		.byte	0x50
 4483 0828 9F       		.byte	0x9f
 4484 0829 00000000 		.4byte	0
 4485 082d 00000000 		.4byte	0
ARM GAS  C:\Users\young\AppData\Local\Temp\cc3sLV9e.s 			page 110


 4486              	.LLST60:
 4487 0831 08000000 		.4byte	.LVL145
 4488 0835 1D000000 		.4byte	.LVL146-1
 4489 0839 0100     		.2byte	0x1
 4490 083b 50       		.byte	0x50
 4491 083c 00000000 		.4byte	0
 4492 0840 00000000 		.4byte	0
 4493              	.LLST61:
 4494 0844 00000000 		.4byte	.LVL148
 4495 0848 07000000 		.4byte	.LVL149-1
 4496 084c 0100     		.2byte	0x1
 4497 084e 50       		.byte	0x50
 4498 084f 07000000 		.4byte	.LVL149-1
 4499 0853 1E000000 		.4byte	.LVL151
 4500 0857 0100     		.2byte	0x1
 4501 0859 54       		.byte	0x54
 4502 085a 1E000000 		.4byte	.LVL151
 4503 085e 24000000 		.4byte	.LFE32
 4504 0862 0400     		.2byte	0x4
 4505 0864 F3       		.byte	0xf3
 4506 0865 01       		.uleb128 0x1
 4507 0866 50       		.byte	0x50
 4508 0867 9F       		.byte	0x9f
 4509 0868 00000000 		.4byte	0
 4510 086c 00000000 		.4byte	0
 4511              	.LLST62:
 4512 0870 08000000 		.4byte	.LVL149
 4513 0874 1D000000 		.4byte	.LVL150-1
 4514 0878 0100     		.2byte	0x1
 4515 087a 50       		.byte	0x50
 4516 087b 00000000 		.4byte	0
 4517 087f 00000000 		.4byte	0
 4518              	.LLST63:
 4519 0883 00000000 		.4byte	.LVL152
 4520 0887 0B000000 		.4byte	.LVL153-1
 4521 088b 0100     		.2byte	0x1
 4522 088d 50       		.byte	0x50
 4523 088e 0B000000 		.4byte	.LVL153-1
 4524 0892 1C000000 		.4byte	.LFE33
 4525 0896 0400     		.2byte	0x4
 4526 0898 F3       		.byte	0xf3
 4527 0899 01       		.uleb128 0x1
 4528 089a 50       		.byte	0x50
 4529 089b 9F       		.byte	0x9f
 4530 089c 00000000 		.4byte	0
 4531 08a0 00000000 		.4byte	0
 4532              	.LLST64:
 4533 08a4 00000000 		.4byte	.LVL152
 4534 08a8 0B000000 		.4byte	.LVL153-1
 4535 08ac 0100     		.2byte	0x1
 4536 08ae 51       		.byte	0x51
 4537 08af 0B000000 		.4byte	.LVL153-1
 4538 08b3 14000000 		.4byte	.LVL155
 4539 08b7 0100     		.2byte	0x1
 4540 08b9 55       		.byte	0x55
 4541 08ba 14000000 		.4byte	.LVL155
 4542 08be 1C000000 		.4byte	.LFE33
ARM GAS  C:\Users\young\AppData\Local\Temp\cc3sLV9e.s 			page 111


 4543 08c2 0400     		.2byte	0x4
 4544 08c4 F3       		.byte	0xf3
 4545 08c5 01       		.uleb128 0x1
 4546 08c6 51       		.byte	0x51
 4547 08c7 9F       		.byte	0x9f
 4548 08c8 00000000 		.4byte	0
 4549 08cc 00000000 		.4byte	0
 4550              	.LLST65:
 4551 08d0 0C000000 		.4byte	.LVL153
 4552 08d4 13000000 		.4byte	.LVL154-1
 4553 08d8 0100     		.2byte	0x1
 4554 08da 50       		.byte	0x50
 4555 08db 00000000 		.4byte	0
 4556 08df 00000000 		.4byte	0
 4557              		.section	.debug_aranges,"",%progbits
 4558 0000 54010000 		.4byte	0x154
 4559 0004 0200     		.2byte	0x2
 4560 0006 00000000 		.4byte	.Ldebug_info0
 4561 000a 04       		.byte	0x4
 4562 000b 00       		.byte	0
 4563 000c 0000     		.2byte	0
 4564 000e 0000     		.2byte	0
 4565 0010 00000000 		.4byte	.LFB0
 4566 0014 64000000 		.4byte	.LFE0-.LFB0
 4567 0018 00000000 		.4byte	.LFB1
 4568 001c 30000000 		.4byte	.LFE1-.LFB1
 4569 0020 00000000 		.4byte	.LFB2
 4570 0024 A0000000 		.4byte	.LFE2-.LFB2
 4571 0028 00000000 		.4byte	.LFB3
 4572 002c 1C000000 		.4byte	.LFE3-.LFB3
 4573 0030 00000000 		.4byte	.LFB4
 4574 0034 28000000 		.4byte	.LFE4-.LFB4
 4575 0038 00000000 		.4byte	.LFB5
 4576 003c 28000000 		.4byte	.LFE5-.LFB5
 4577 0040 00000000 		.4byte	.LFB6
 4578 0044 28000000 		.4byte	.LFE6-.LFB6
 4579 0048 00000000 		.4byte	.LFB7
 4580 004c 30000000 		.4byte	.LFE7-.LFB7
 4581 0050 00000000 		.4byte	.LFB8
 4582 0054 10000000 		.4byte	.LFE8-.LFB8
 4583 0058 00000000 		.4byte	.LFB9
 4584 005c 28000000 		.4byte	.LFE9-.LFB9
 4585 0060 00000000 		.4byte	.LFB10
 4586 0064 28000000 		.4byte	.LFE10-.LFB10
 4587 0068 00000000 		.4byte	.LFB11
 4588 006c 2C000000 		.4byte	.LFE11-.LFB11
 4589 0070 00000000 		.4byte	.LFB12
 4590 0074 28000000 		.4byte	.LFE12-.LFB12
 4591 0078 00000000 		.4byte	.LFB13
 4592 007c 10000000 		.4byte	.LFE13-.LFB13
 4593 0080 00000000 		.4byte	.LFB14
 4594 0084 10000000 		.4byte	.LFE14-.LFB14
 4595 0088 00000000 		.4byte	.LFB15
 4596 008c 28000000 		.4byte	.LFE15-.LFB15
 4597 0090 00000000 		.4byte	.LFB16
 4598 0094 10000000 		.4byte	.LFE16-.LFB16
 4599 0098 00000000 		.4byte	.LFB17
ARM GAS  C:\Users\young\AppData\Local\Temp\cc3sLV9e.s 			page 112


 4600 009c 10000000 		.4byte	.LFE17-.LFB17
 4601 00a0 00000000 		.4byte	.LFB18
 4602 00a4 24000000 		.4byte	.LFE18-.LFB18
 4603 00a8 00000000 		.4byte	.LFB19
 4604 00ac 10000000 		.4byte	.LFE19-.LFB19
 4605 00b0 00000000 		.4byte	.LFB20
 4606 00b4 10000000 		.4byte	.LFE20-.LFB20
 4607 00b8 00000000 		.4byte	.LFB21
 4608 00bc 28000000 		.4byte	.LFE21-.LFB21
 4609 00c0 00000000 		.4byte	.LFB22
 4610 00c4 40000000 		.4byte	.LFE22-.LFB22
 4611 00c8 00000000 		.4byte	.LFB23
 4612 00cc 48000000 		.4byte	.LFE23-.LFB23
 4613 00d0 00000000 		.4byte	.LFB24
 4614 00d4 40000000 		.4byte	.LFE24-.LFB24
 4615 00d8 00000000 		.4byte	.LFB25
 4616 00dc 48000000 		.4byte	.LFE25-.LFB25
 4617 00e0 00000000 		.4byte	.LFB26
 4618 00e4 10000000 		.4byte	.LFE26-.LFB26
 4619 00e8 00000000 		.4byte	.LFB27
 4620 00ec 10000000 		.4byte	.LFE27-.LFB27
 4621 00f0 00000000 		.4byte	.LFB28
 4622 00f4 24000000 		.4byte	.LFE28-.LFB28
 4623 00f8 00000000 		.4byte	.LFB29
 4624 00fc 24000000 		.4byte	.LFE29-.LFB29
 4625 0100 00000000 		.4byte	.LFB30
 4626 0104 28000000 		.4byte	.LFE30-.LFB30
 4627 0108 00000000 		.4byte	.LFB31
 4628 010c 24000000 		.4byte	.LFE31-.LFB31
 4629 0110 00000000 		.4byte	.LFB32
 4630 0114 24000000 		.4byte	.LFE32-.LFB32
 4631 0118 00000000 		.4byte	.LFB33
 4632 011c 1C000000 		.4byte	.LFE33-.LFB33
 4633 0120 00000000 		.4byte	.LFB34
 4634 0124 14000000 		.4byte	.LFE34-.LFB34
 4635 0128 00000000 		.4byte	.LFB35
 4636 012c 0C000000 		.4byte	.LFE35-.LFB35
 4637 0130 00000000 		.4byte	.LFB36
 4638 0134 0C000000 		.4byte	.LFE36-.LFB36
 4639 0138 00000000 		.4byte	.LFB37
 4640 013c 0C000000 		.4byte	.LFE37-.LFB37
 4641 0140 00000000 		.4byte	.LFB38
 4642 0144 0C000000 		.4byte	.LFE38-.LFB38
 4643 0148 00000000 		.4byte	.LFB39
 4644 014c 0C000000 		.4byte	.LFE39-.LFB39
 4645 0150 00000000 		.4byte	0
 4646 0154 00000000 		.4byte	0
 4647              		.section	.debug_ranges,"",%progbits
 4648              	.Ldebug_ranges0:
 4649 0000 1A000000 		.4byte	.LBB26
 4650 0004 30000000 		.4byte	.LBE26
 4651 0008 30000000 		.4byte	.LBB30
 4652 000c 32000000 		.4byte	.LBE30
 4653 0010 3A000000 		.4byte	.LBB33
 4654 0014 64000000 		.4byte	.LBE33
 4655 0018 00000000 		.4byte	0
 4656 001c 00000000 		.4byte	0
ARM GAS  C:\Users\young\AppData\Local\Temp\cc3sLV9e.s 			page 113


 4657 0020 0A000000 		.4byte	.LBB52
 4658 0024 42000000 		.4byte	.LBE52
 4659 0028 6A000000 		.4byte	.LBB71
 4660 002c A0000000 		.4byte	.LBE71
 4661 0030 00000000 		.4byte	0
 4662 0034 00000000 		.4byte	0
 4663 0038 24000000 		.4byte	.LBB58
 4664 003c 3C000000 		.4byte	.LBE58
 4665 0040 6A000000 		.4byte	.LBB63
 4666 0044 A0000000 		.4byte	.LBE63
 4667 0048 00000000 		.4byte	0
 4668 004c 00000000 		.4byte	0
 4669 0050 46000000 		.4byte	.LBB65
 4670 0054 4E000000 		.4byte	.LBE65
 4671 0058 4E000000 		.4byte	.LBB70
 4672 005c 68000000 		.4byte	.LBE70
 4673 0060 00000000 		.4byte	0
 4674 0064 00000000 		.4byte	0
 4675 0068 00000000 		.4byte	.LFB0
 4676 006c 64000000 		.4byte	.LFE0
 4677 0070 00000000 		.4byte	.LFB1
 4678 0074 30000000 		.4byte	.LFE1
 4679 0078 00000000 		.4byte	.LFB2
 4680 007c A0000000 		.4byte	.LFE2
 4681 0080 00000000 		.4byte	.LFB3
 4682 0084 1C000000 		.4byte	.LFE3
 4683 0088 00000000 		.4byte	.LFB4
 4684 008c 28000000 		.4byte	.LFE4
 4685 0090 00000000 		.4byte	.LFB5
 4686 0094 28000000 		.4byte	.LFE5
 4687 0098 00000000 		.4byte	.LFB6
 4688 009c 28000000 		.4byte	.LFE6
 4689 00a0 00000000 		.4byte	.LFB7
 4690 00a4 30000000 		.4byte	.LFE7
 4691 00a8 00000000 		.4byte	.LFB8
 4692 00ac 10000000 		.4byte	.LFE8
 4693 00b0 00000000 		.4byte	.LFB9
 4694 00b4 28000000 		.4byte	.LFE9
 4695 00b8 00000000 		.4byte	.LFB10
 4696 00bc 28000000 		.4byte	.LFE10
 4697 00c0 00000000 		.4byte	.LFB11
 4698 00c4 2C000000 		.4byte	.LFE11
 4699 00c8 00000000 		.4byte	.LFB12
 4700 00cc 28000000 		.4byte	.LFE12
 4701 00d0 00000000 		.4byte	.LFB13
 4702 00d4 10000000 		.4byte	.LFE13
 4703 00d8 00000000 		.4byte	.LFB14
 4704 00dc 10000000 		.4byte	.LFE14
 4705 00e0 00000000 		.4byte	.LFB15
 4706 00e4 28000000 		.4byte	.LFE15
 4707 00e8 00000000 		.4byte	.LFB16
 4708 00ec 10000000 		.4byte	.LFE16
 4709 00f0 00000000 		.4byte	.LFB17
 4710 00f4 10000000 		.4byte	.LFE17
 4711 00f8 00000000 		.4byte	.LFB18
 4712 00fc 24000000 		.4byte	.LFE18
 4713 0100 00000000 		.4byte	.LFB19
ARM GAS  C:\Users\young\AppData\Local\Temp\cc3sLV9e.s 			page 114


 4714 0104 10000000 		.4byte	.LFE19
 4715 0108 00000000 		.4byte	.LFB20
 4716 010c 10000000 		.4byte	.LFE20
 4717 0110 00000000 		.4byte	.LFB21
 4718 0114 28000000 		.4byte	.LFE21
 4719 0118 00000000 		.4byte	.LFB22
 4720 011c 40000000 		.4byte	.LFE22
 4721 0120 00000000 		.4byte	.LFB23
 4722 0124 48000000 		.4byte	.LFE23
 4723 0128 00000000 		.4byte	.LFB24
 4724 012c 40000000 		.4byte	.LFE24
 4725 0130 00000000 		.4byte	.LFB25
 4726 0134 48000000 		.4byte	.LFE25
 4727 0138 00000000 		.4byte	.LFB26
 4728 013c 10000000 		.4byte	.LFE26
 4729 0140 00000000 		.4byte	.LFB27
 4730 0144 10000000 		.4byte	.LFE27
 4731 0148 00000000 		.4byte	.LFB28
 4732 014c 24000000 		.4byte	.LFE28
 4733 0150 00000000 		.4byte	.LFB29
 4734 0154 24000000 		.4byte	.LFE29
 4735 0158 00000000 		.4byte	.LFB30
 4736 015c 28000000 		.4byte	.LFE30
 4737 0160 00000000 		.4byte	.LFB31
 4738 0164 24000000 		.4byte	.LFE31
 4739 0168 00000000 		.4byte	.LFB32
 4740 016c 24000000 		.4byte	.LFE32
 4741 0170 00000000 		.4byte	.LFB33
 4742 0174 1C000000 		.4byte	.LFE33
 4743 0178 00000000 		.4byte	.LFB34
 4744 017c 14000000 		.4byte	.LFE34
 4745 0180 00000000 		.4byte	.LFB35
 4746 0184 0C000000 		.4byte	.LFE35
 4747 0188 00000000 		.4byte	.LFB36
 4748 018c 0C000000 		.4byte	.LFE36
 4749 0190 00000000 		.4byte	.LFB37
 4750 0194 0C000000 		.4byte	.LFE37
 4751 0198 00000000 		.4byte	.LFB38
 4752 019c 0C000000 		.4byte	.LFE38
 4753 01a0 00000000 		.4byte	.LFB39
 4754 01a4 0C000000 		.4byte	.LFE39
 4755 01a8 00000000 		.4byte	0
 4756 01ac 00000000 		.4byte	0
 4757              		.section	.debug_line,"",%progbits
 4758              	.Ldebug_line0:
 4759 0000 80040000 		.section	.debug_str,"MS",%progbits,1
 4759      02004F00 
 4759      00000201 
 4759      FB0E0D00 
 4759      01010101 
 4760              	.LASF21:
 4761 0000 636F756E 		.ascii	"count\000"
 4761      7400
 4762              	.LASF79:
 4763 0006 43794578 		.ascii	"CyExitCriticalSection\000"
 4763      69744372 
 4763      69746963 
ARM GAS  C:\Users\young\AppData\Local\Temp\cc3sLV9e.s 			page 115


 4763      616C5365 
 4763      6374696F 
 4764              	.LASF72:
 4765 001c 54696D65 		.ascii	"Timer_1_SetCountMode\000"
 4765      725F315F 
 4765      53657443 
 4765      6F756E74 
 4765      4D6F6465 
 4766              	.LASF39:
 4767 0031 54696D65 		.ascii	"Timer_1_SetOneShot\000"
 4767      725F315F 
 4767      5365744F 
 4767      6E655368 
 4767      6F7400
 4768              	.LASF54:
 4769 0044 54696D65 		.ascii	"Timer_1_SetCompareSwap\000"
 4769      725F315F 
 4769      53657443 
 4769      6F6D7061 
 4769      72655377 
 4770              	.LASF27:
 4771 005b 70657269 		.ascii	"period\000"
 4771      6F6400
 4772              	.LASF7:
 4773 0062 6C6F6E67 		.ascii	"long long unsigned int\000"
 4773      206C6F6E 
 4773      6720756E 
 4773      7369676E 
 4773      65642069 
 4774              	.LASF83:
 4775 0079 54696D65 		.ascii	"Timer_1_Init\000"
 4775      725F315F 
 4775      496E6974 
 4775      00
 4776              	.LASF22:
 4777 0086 54696D65 		.ascii	"Timer_1_WriteCompare\000"
 4777      725F315F 
 4777      57726974 
 4777      65436F6D 
 4777      70617265 
 4778              	.LASF80:
 4779 009b 474E5520 		.ascii	"GNU C11 5.4.1 20160609 (release) [ARM/embedded-5-br"
 4779      43313120 
 4779      352E342E 
 4779      31203230 
 4779      31363036 
 4780 00ce 616E6368 		.ascii	"anch revision 237715] -mcpu=cortex-m0 -mthumb -g -O"
 4780      20726576 
 4780      6973696F 
 4780      6E203233 
 4780      37373135 
 4781 0101 33202D66 		.ascii	"3 -ffunction-sections -ffat-lto-objects\000"
 4781      66756E63 
 4781      74696F6E 
 4781      2D736563 
 4781      74696F6E 
 4782              	.LASF6:
ARM GAS  C:\Users\young\AppData\Local\Temp\cc3sLV9e.s 			page 116


 4783 0129 6C6F6E67 		.ascii	"long long int\000"
 4783      206C6F6E 
 4783      6720696E 
 4783      7400
 4784              	.LASF0:
 4785 0137 7369676E 		.ascii	"signed char\000"
 4785      65642063 
 4785      68617200 
 4786              	.LASF56:
 4787 0143 54696D65 		.ascii	"Timer_1_WritePeriodBuf\000"
 4787      725F315F 
 4787      57726974 
 4787      65506572 
 4787      696F6442 
 4788              	.LASF26:
 4789 015a 54696D65 		.ascii	"Timer_1_WritePeriod\000"
 4789      725F315F 
 4789      57726974 
 4789      65506572 
 4789      696F6400 
 4790              	.LASF36:
 4791 016e 71644D6F 		.ascii	"qdMode\000"
 4791      646500
 4792              	.LASF4:
 4793 0175 6C6F6E67 		.ascii	"long int\000"
 4793      20696E74 
 4793      00
 4794              	.LASF62:
 4795 017e 636F6D70 		.ascii	"compareBuf\000"
 4795      61726542 
 4795      756600
 4796              	.LASF9:
 4797 0189 75696E74 		.ascii	"uint8\000"
 4797      3800
 4798              	.LASF12:
 4799 018f 646F7562 		.ascii	"double\000"
 4799      6C6500
 4800              	.LASF20:
 4801 0196 54696D65 		.ascii	"Timer_1_WriteCounter\000"
 4801      725F315F 
 4801      57726974 
 4801      65436F75 
 4801      6E746572 
 4802              	.LASF45:
 4803 01ab 54696D65 		.ascii	"Timer_1_SetPWMStopOnKill\000"
 4803      725F315F 
 4803      53657450 
 4803      574D5374 
 4803      6F704F6E 
 4804              	.LASF66:
 4805 01c4 54696D65 		.ascii	"Timer_1_ReadCaptureBuf\000"
 4805      725F315F 
 4805      52656164 
 4805      43617074 
 4805      75726542 
 4806              	.LASF10:
 4807 01db 75696E74 		.ascii	"uint32\000"
ARM GAS  C:\Users\young\AppData\Local\Temp\cc3sLV9e.s 			page 117


 4807      333200
 4808              	.LASF68:
 4809 01e2 74726967 		.ascii	"triggerMode\000"
 4809      6765724D 
 4809      6F646500 
 4810              	.LASF17:
 4811 01ee 6D61736B 		.ascii	"mask\000"
 4811      00
 4812              	.LASF48:
 4813 01f3 64656164 		.ascii	"deadTime\000"
 4813      54696D65 
 4813      00
 4814              	.LASF84:
 4815 01fc 54696D65 		.ascii	"Timer_1_initVar\000"
 4815      725F315F 
 4815      696E6974 
 4815      56617200 
 4816              	.LASF8:
 4817 020c 756E7369 		.ascii	"unsigned int\000"
 4817      676E6564 
 4817      20696E74 
 4817      00
 4818              	.LASF81:
 4819 0219 47656E65 		.ascii	"Generated_Source\\PSoC4\\Timer_1.c\000"
 4819      72617465 
 4819      645F536F 
 4819      75726365 
 4819      5C50536F 
 4820              	.LASF65:
 4821 023a 54696D65 		.ascii	"Timer_1_ReadCapture\000"
 4821      725F315F 
 4821      52656164 
 4821      43617074 
 4821      75726500 
 4822              	.LASF18:
 4823 024e 636F6D6D 		.ascii	"command\000"
 4823      616E6400 
 4824              	.LASF5:
 4825 0256 6C6F6E67 		.ascii	"long unsigned int\000"
 4825      20756E73 
 4825      69676E65 
 4825      6420696E 
 4825      7400
 4826              	.LASF42:
 4827 0268 6D6F6465 		.ascii	"modeMask\000"
 4827      4D61736B 
 4827      00
 4828              	.LASF31:
 4829 0271 54696D65 		.ascii	"Timer_1_Start\000"
 4829      725F315F 
 4829      53746172 
 4829      7400
 4830              	.LASF78:
 4831 027f 4379456E 		.ascii	"CyEnterCriticalSection\000"
 4831      74657243 
 4831      72697469 
 4831      63616C53 
ARM GAS  C:\Users\young\AppData\Local\Temp\cc3sLV9e.s 			page 118


 4831      65637469 
 4832              	.LASF32:
 4833 0296 54696D65 		.ascii	"Timer_1_Stop\000"
 4833      725F315F 
 4833      53746F70 
 4833      00
 4834              	.LASF49:
 4835 02a3 54696D65 		.ascii	"Timer_1_SetPWMInvert\000"
 4835      725F315F 
 4835      53657450 
 4835      574D496E 
 4835      76657274 
 4836              	.LASF50:
 4837 02b8 54696D65 		.ascii	"Timer_1_SetCounterMode\000"
 4837      725F315F 
 4837      53657443 
 4837      6F756E74 
 4837      65724D6F 
 4838              	.LASF3:
 4839 02cf 73686F72 		.ascii	"short unsigned int\000"
 4839      7420756E 
 4839      7369676E 
 4839      65642069 
 4839      6E7400
 4840              	.LASF70:
 4841 02e2 54696D65 		.ascii	"Timer_1_SetStartMode\000"
 4841      725F315F 
 4841      53657453 
 4841      74617274 
 4841      4D6F6465 
 4842              	.LASF74:
 4843 02f7 54696D65 		.ascii	"Timer_1_GetInterruptSourceMasked\000"
 4843      725F315F 
 4843      47657449 
 4843      6E746572 
 4843      72757074 
 4844              	.LASF25:
 4845 0318 63757272 		.ascii	"currentMode\000"
 4845      656E744D 
 4845      6F646500 
 4846              	.LASF40:
 4847 0324 6F6E6553 		.ascii	"oneShotEnable\000"
 4847      686F7445 
 4847      6E61626C 
 4847      6500
 4848              	.LASF33:
 4849 0332 54696D65 		.ascii	"Timer_1_SetMode\000"
 4849      725F315F 
 4849      5365744D 
 4849      6F646500 
 4850              	.LASF60:
 4851 0342 72656756 		.ascii	"regVal\000"
 4851      616C00
 4852              	.LASF58:
 4853 0349 54696D65 		.ascii	"Timer_1_ReadPeriodBuf\000"
 4853      725F315F 
 4853      52656164 
ARM GAS  C:\Users\young\AppData\Local\Temp\cc3sLV9e.s 			page 119


 4853      50657269 
 4853      6F644275 
 4854              	.LASF73:
 4855 035f 54696D65 		.ascii	"Timer_1_ReadStatus\000"
 4855      725F315F 
 4855      52656164 
 4855      53746174 
 4855      757300
 4856              	.LASF14:
 4857 0372 72656733 		.ascii	"reg32\000"
 4857      3200
 4858              	.LASF16:
 4859 0378 73697A65 		.ascii	"sizetype\000"
 4859      74797065 
 4859      00
 4860              	.LASF67:
 4861 0381 54696D65 		.ascii	"Timer_1_SetCaptureMode\000"
 4861      725F315F 
 4861      53657443 
 4861      61707475 
 4861      72654D6F 
 4862              	.LASF15:
 4863 0398 6C6F6E67 		.ascii	"long double\000"
 4863      20646F75 
 4863      626C6500 
 4864              	.LASF69:
 4865 03a4 54696D65 		.ascii	"Timer_1_SetReloadMode\000"
 4865      725F315F 
 4865      53657452 
 4865      656C6F61 
 4865      644D6F64 
 4866              	.LASF82:
 4867 03ba 433A5C55 		.ascii	"C:\\Users\\Public\\touch\\(NowC302)A1_Global_Multi_"
 4867      73657273 
 4867      5C507562 
 4867      6C69635C 
 4867      746F7563 
 4868 03e9 43726561 		.ascii	"Creator4.1_hawkeye\\CapSense_CSD_P4_Example_WithTun"
 4868      746F7234 
 4868      2E315F68 
 4868      61776B65 
 4868      79655C43 
 4869 041b 65723031 		.ascii	"er01.cydsn\000"
 4869      2E637964 
 4869      736E00
 4870              	.LASF59:
 4871 0426 54696D65 		.ascii	"Timer_1_SetPeriodSwap\000"
 4871      725F315F 
 4871      53657450 
 4871      6572696F 
 4871      64537761 
 4872              	.LASF23:
 4873 043c 636F6D70 		.ascii	"compare\000"
 4873      61726500 
 4874              	.LASF37:
 4875 0444 54696D65 		.ascii	"Timer_1_SetPrescaler\000"
 4875      725F315F 
ARM GAS  C:\Users\young\AppData\Local\Temp\cc3sLV9e.s 			page 120


 4875      53657450 
 4875      72657363 
 4875      616C6572 
 4876              	.LASF52:
 4877 0459 54696D65 		.ascii	"Timer_1_ReadCounter\000"
 4877      725F315F 
 4877      52656164 
 4877      436F756E 
 4877      74657200 
 4878              	.LASF76:
 4879 046d 54696D65 		.ascii	"Timer_1_ClearInterrupt\000"
 4879      725F315F 
 4879      436C6561 
 4879      72496E74 
 4879      65727275 
 4880              	.LASF11:
 4881 0484 666C6F61 		.ascii	"float\000"
 4881      7400
 4882              	.LASF38:
 4883 048a 70726573 		.ascii	"prescaler\000"
 4883      63616C65 
 4883      7200
 4884              	.LASF61:
 4885 0494 54696D65 		.ascii	"Timer_1_WriteCompareBuf\000"
 4885      725F315F 
 4885      57726974 
 4885      65436F6D 
 4885      70617265 
 4886              	.LASF34:
 4887 04ac 54696D65 		.ascii	"Timer_1_SetQDMode\000"
 4887      725F315F 
 4887      53657451 
 4887      444D6F64 
 4887      6500
 4888              	.LASF30:
 4889 04be 54696D65 		.ascii	"Timer_1_Enable\000"
 4889      725F315F 
 4889      456E6162 
 4889      6C6500
 4890              	.LASF64:
 4891 04cd 54696D65 		.ascii	"Timer_1_ReadCompareBuf\000"
 4891      725F315F 
 4891      52656164 
 4891      436F6D70 
 4891      61726542 
 4892              	.LASF1:
 4893 04e4 756E7369 		.ascii	"unsigned char\000"
 4893      676E6564 
 4893      20636861 
 4893      7200
 4894              	.LASF46:
 4895 04f2 73746F70 		.ascii	"stopOnKillEnable\000"
 4895      4F6E4B69 
 4895      6C6C456E 
 4895      61626C65 
 4895      00
 4896              	.LASF53:
ARM GAS  C:\Users\young\AppData\Local\Temp\cc3sLV9e.s 			page 121


 4897 0503 54696D65 		.ascii	"Timer_1_ReadPeriod\000"
 4897      725F315F 
 4897      52656164 
 4897      50657269 
 4897      6F6400
 4898              	.LASF2:
 4899 0516 73686F72 		.ascii	"short int\000"
 4899      7420696E 
 4899      7400
 4900              	.LASF29:
 4901 0520 696E7465 		.ascii	"interruptMask\000"
 4901      72727570 
 4901      744D6173 
 4901      6B00
 4902              	.LASF47:
 4903 052e 54696D65 		.ascii	"Timer_1_SetPWMDeadTime\000"
 4903      725F315F 
 4903      53657450 
 4903      574D4465 
 4903      61645469 
 4904              	.LASF43:
 4905 0545 54696D65 		.ascii	"Timer_1_SetPWMSyncKill\000"
 4905      725F315F 
 4905      53657450 
 4905      574D5379 
 4905      6E634B69 
 4906              	.LASF71:
 4907 055c 54696D65 		.ascii	"Timer_1_SetStopMode\000"
 4907      725F315F 
 4907      53657453 
 4907      746F704D 
 4907      6F646500 
 4908              	.LASF13:
 4909 0570 63686172 		.ascii	"char\000"
 4909      00
 4910              	.LASF35:
 4911 0575 6D6F6465 		.ascii	"mode\000"
 4911      00
 4912              	.LASF63:
 4913 057a 54696D65 		.ascii	"Timer_1_ReadCompare\000"
 4913      725F315F 
 4913      52656164 
 4913      436F6D70 
 4913      61726500 
 4914              	.LASF28:
 4915 058e 54696D65 		.ascii	"Timer_1_SetInterruptMode\000"
 4915      725F315F 
 4915      53657449 
 4915      6E746572 
 4915      72757074 
 4916              	.LASF51:
 4917 05a7 636F756E 		.ascii	"counterMode\000"
 4917      7465724D 
 4917      6F646500 
 4918              	.LASF75:
 4919 05b3 54696D65 		.ascii	"Timer_1_GetInterruptSource\000"
 4919      725F315F 
ARM GAS  C:\Users\young\AppData\Local\Temp\cc3sLV9e.s 			page 122


 4919      47657449 
 4919      6E746572 
 4919      72757074 
 4920              	.LASF41:
 4921 05ce 54696D65 		.ascii	"Timer_1_SetPWMMode\000"
 4921      725F315F 
 4921      53657450 
 4921      574D4D6F 
 4921      646500
 4922              	.LASF19:
 4923 05e1 54696D65 		.ascii	"Timer_1_TriggerCommand\000"
 4923      725F315F 
 4923      54726967 
 4923      67657243 
 4923      6F6D6D61 
 4924              	.LASF24:
 4925 05f8 656E6162 		.ascii	"enableInterrupts\000"
 4925      6C65496E 
 4925      74657272 
 4925      75707473 
 4925      00
 4926              	.LASF77:
 4927 0609 54696D65 		.ascii	"Timer_1_SetInterrupt\000"
 4927      725F315F 
 4927      53657449 
 4927      6E746572 
 4927      72757074 
 4928              	.LASF44:
 4929 061e 73796E63 		.ascii	"syncKillEnable\000"
 4929      4B696C6C 
 4929      456E6162 
 4929      6C6500
 4930              	.LASF55:
 4931 062d 73776170 		.ascii	"swapEnable\000"
 4931      456E6162 
 4931      6C6500
 4932              	.LASF57:
 4933 0638 70657269 		.ascii	"periodBuf\000"
 4933      6F644275 
 4933      6600
 4934              		.ident	"GCC: (GNU Tools for ARM Embedded Processors) 5.4.1 20160609 (release) [ARM/embedded-5-bran
